

Microchip MPLAB XC8 Assembler V2.05 build -831301201 
                                                                                               Fri Sep 27 22:34:40 2019

Microchip MPLAB XC8 C Compiler v2.05 (Free license) build 20181220022703 Og1 
     1                           	processor	16F877A
     2                           	opt	pw 120
     3                           	opt	flic
     4                           	psect	idataBANK0,global,class=CODE,delta=2
     5                           	psect	nvBANK0,global,class=BANK0,space=1,delta=1
     6                           	psect	nvBANK3,global,class=BANK3,space=1,delta=1
     7                           	psect	strings,global,class=STRING,delta=2
     8                           	psect	cinit,global,class=CODE,merge=1,delta=2
     9                           	psect	dataBANK0,global,class=BANK0,space=1,delta=1
    10                           	psect	cstackBANK3,global,class=BANK3,space=1,delta=1
    11                           	psect	cstackBANK1,global,class=BANK1,space=1,delta=1
    12                           	psect	cstackCOMMON,global,class=COMMON,space=1,delta=1
    13                           	psect	cstackBANK0,global,class=BANK0,space=1,delta=1
    14                           	psect	maintext,global,class=CODE,split=1,delta=2
    15                           	psect	text1,local,class=CODE,merge=1,delta=2,group=1
    16                           	psect	text2,local,class=CODE,merge=1,delta=2,group=1
    17                           	psect	text3,local,class=CODE,merge=1,delta=2
    18                           	psect	text4,local,class=CODE,merge=1,delta=2
    19                           	psect	text5,local,class=CODE,merge=1,delta=2,group=1
    20                           	psect	text6,local,class=CODE,merge=1,delta=2,group=1
    21                           	psect	text7,local,class=CODE,merge=1,delta=2,group=1
    22                           	psect	text8,local,class=CODE,merge=1,delta=2,group=1
    23                           	psect	text9,local,class=CODE,merge=1,delta=2,group=1
    24                           	psect	text10,local,class=CODE,merge=1,delta=2,group=1
    25                           	psect	text11,local,class=CODE,merge=1,delta=2,group=1
    26                           	psect	text12,local,class=CODE,merge=1,delta=2,group=1
    27                           	psect	text13,local,class=CODE,merge=1,delta=2
    28                           	psect	text14,local,class=CODE,merge=1,delta=2
    29                           	psect	text15,local,class=CODE,merge=1,delta=2
    30                           	psect	text16,local,class=CODE,merge=1,delta=2
    31                           	psect	text17,local,class=CODE,merge=1,delta=2
    32                           	psect	text18,local,class=CODE,merge=1,delta=2
    33                           	psect	text19,local,class=CODE,merge=1,delta=2
    34                           	psect	text20,local,class=CODE,merge=1,delta=2
    35                           	psect	text21,local,class=CODE,merge=1,delta=2
    36                           	psect	intentry,global,class=CODE,delta=2
    37                           	psect	text22,local,class=CODE,merge=1,delta=2
    38                           	psect	text23,local,class=CODE,merge=1,delta=2
    39                           	psect	text24,local,class=CODE,merge=1,delta=2
    40                           	psect	text25,local,class=CODE,merge=1,delta=2
    41                           	psect	text26,local,class=CODE,merge=1,delta=2
    42                           	dabs	1,0x7E,2
    43  0000                     
    44                           ; Version 2.05
    45                           ; Generated 20/12/2018 GMT
    46                           ; 
    47                           ; Copyright © 2018, Microchip Technology Inc. and its subsidiaries ("Microchip")
    48                           ; All rights reserved.
    49                           ; 
    50                           ; This software is developed by Microchip Technology Inc. and its subsidiaries ("Microch
      +                          ip").
    51                           ; 
    52                           ; Redistribution and use in source and binary forms, with or without modification, are
    53                           ; permitted provided that the following conditions are met:
    54                           ; 
    55                           ;     1. Redistributions of source code must retain the above copyright notice, this lis
      +                          t of
    56                           ;        conditions and the following disclaimer.
    57                           ; 
    58                           ;     2. Redistributions in binary form must reproduce the above copyright notice, this 
      +                          list
    59                           ;        of conditions and the following disclaimer in the documentation and/or other
    60                           ;        materials provided with the distribution.
    61                           ; 
    62                           ;     3. Microchip's name may not be used to endorse or promote products derived from th
      +                          is
    63                           ;        software without specific prior written permission.
    64                           ; 
    65                           ; THIS SOFTWARE IS PROVIDED BY MICROCHIP "AS IS" AND ANY EXPRESS OR IMPLIED WARRANTIES,
    66                           ; INCLUDING, BUT NOT LIMITED TO, THE IMPLIED WARRANTIES OF MERCHANTABILITY AND FITNESS F
      +                          OR
    67                           ; PURPOSE ARE DISCLAIMED.  IN NO EVENT SHALL MICROCHIP BE LIABLE FOR ANY DIRECT, INDIREC
      +                          T,
    68                           ; INCIDENTAL, SPECIAL, EXEMPLARY, OR CONSEQUENTIAL DAMAGES (INCLUDING BUT NOT LIMITED TO
    69                           ; PROCUREMENT OF SUBSTITUTE GOODS OR SERVICES; LOSS OF USE, DATA OR PROFITS; OR BUSINESS
    70                           ; INTERRUPTION) HOWSOEVER CAUSED AND ON ANY THEORY OF LIABILITY, WHETHER IN CONTRACT, ST
      +                          RICT
    71                           ; LIABILITY, OR TORT (INCLUDING NEGLIGENCE OR OTHERWISE) ARISING IN ANY WAY OUT OF THE U
      +                          SE OF
    72                           ; THIS SOFTWARE, EVEN IF ADVISED OF THE POSSIBILITY OF SUCH DAMAGE.
    73                           ; 
    74                           ; 
    75                           ; Code-generator required, PIC16F877A Definitions
    76                           ; 
    77                           ; SFR Addresses
    78  0000                     	;# 
    79  0001                     	;# 
    80  0002                     	;# 
    81  0003                     	;# 
    82  0004                     	;# 
    83  0005                     	;# 
    84  0006                     	;# 
    85  0007                     	;# 
    86  0008                     	;# 
    87  0009                     	;# 
    88  000A                     	;# 
    89  000B                     	;# 
    90  000C                     	;# 
    91  000D                     	;# 
    92  000E                     	;# 
    93  000E                     	;# 
    94  000F                     	;# 
    95  0010                     	;# 
    96  0011                     	;# 
    97  0012                     	;# 
    98  0013                     	;# 
    99  0014                     	;# 
   100  0015                     	;# 
   101  0015                     	;# 
   102  0016                     	;# 
   103  0017                     	;# 
   104  0018                     	;# 
   105  0019                     	;# 
   106  001A                     	;# 
   107  001B                     	;# 
   108  001B                     	;# 
   109  001C                     	;# 
   110  001D                     	;# 
   111  001E                     	;# 
   112  001F                     	;# 
   113  0081                     	;# 
   114  0085                     	;# 
   115  0086                     	;# 
   116  0087                     	;# 
   117  0088                     	;# 
   118  0089                     	;# 
   119  008C                     	;# 
   120  008D                     	;# 
   121  008E                     	;# 
   122  0091                     	;# 
   123  0092                     	;# 
   124  0093                     	;# 
   125  0094                     	;# 
   126  0098                     	;# 
   127  0099                     	;# 
   128  009C                     	;# 
   129  009D                     	;# 
   130  009E                     	;# 
   131  009F                     	;# 
   132  010C                     	;# 
   133  010D                     	;# 
   134  010E                     	;# 
   135  010F                     	;# 
   136  018C                     	;# 
   137  018D                     	;# 
   138  0000                     	;# 
   139  0001                     	;# 
   140  0002                     	;# 
   141  0003                     	;# 
   142  0004                     	;# 
   143  0005                     	;# 
   144  0006                     	;# 
   145  0007                     	;# 
   146  0008                     	;# 
   147  0009                     	;# 
   148  000A                     	;# 
   149  000B                     	;# 
   150  000C                     	;# 
   151  000D                     	;# 
   152  000E                     	;# 
   153  000E                     	;# 
   154  000F                     	;# 
   155  0010                     	;# 
   156  0011                     	;# 
   157  0012                     	;# 
   158  0013                     	;# 
   159  0014                     	;# 
   160  0015                     	;# 
   161  0015                     	;# 
   162  0016                     	;# 
   163  0017                     	;# 
   164  0018                     	;# 
   165  0019                     	;# 
   166  001A                     	;# 
   167  001B                     	;# 
   168  001B                     	;# 
   169  001C                     	;# 
   170  001D                     	;# 
   171  001E                     	;# 
   172  001F                     	;# 
   173  0081                     	;# 
   174  0085                     	;# 
   175  0086                     	;# 
   176  0087                     	;# 
   177  0088                     	;# 
   178  0089                     	;# 
   179  008C                     	;# 
   180  008D                     	;# 
   181  008E                     	;# 
   182  0091                     	;# 
   183  0092                     	;# 
   184  0093                     	;# 
   185  0094                     	;# 
   186  0098                     	;# 
   187  0099                     	;# 
   188  009C                     	;# 
   189  009D                     	;# 
   190  009E                     	;# 
   191  009F                     	;# 
   192  010C                     	;# 
   193  010D                     	;# 
   194  010E                     	;# 
   195  010F                     	;# 
   196  018C                     	;# 
   197  018D                     	;# 
   198  0000                     	;# 
   199  0001                     	;# 
   200  0002                     	;# 
   201  0003                     	;# 
   202  0004                     	;# 
   203  0005                     	;# 
   204  0006                     	;# 
   205  0007                     	;# 
   206  0008                     	;# 
   207  0009                     	;# 
   208  000A                     	;# 
   209  000B                     	;# 
   210  000C                     	;# 
   211  000D                     	;# 
   212  000E                     	;# 
   213  000E                     	;# 
   214  000F                     	;# 
   215  0010                     	;# 
   216  0011                     	;# 
   217  0012                     	;# 
   218  0013                     	;# 
   219  0014                     	;# 
   220  0015                     	;# 
   221  0015                     	;# 
   222  0016                     	;# 
   223  0017                     	;# 
   224  0018                     	;# 
   225  0019                     	;# 
   226  001A                     	;# 
   227  001B                     	;# 
   228  001B                     	;# 
   229  001C                     	;# 
   230  001D                     	;# 
   231  001E                     	;# 
   232  001F                     	;# 
   233  0081                     	;# 
   234  0085                     	;# 
   235  0086                     	;# 
   236  0087                     	;# 
   237  0088                     	;# 
   238  0089                     	;# 
   239  008C                     	;# 
   240  008D                     	;# 
   241  008E                     	;# 
   242  0091                     	;# 
   243  0092                     	;# 
   244  0093                     	;# 
   245  0094                     	;# 
   246  0098                     	;# 
   247  0099                     	;# 
   248  009C                     	;# 
   249  009D                     	;# 
   250  009E                     	;# 
   251  009F                     	;# 
   252  010C                     	;# 
   253  010D                     	;# 
   254  010E                     	;# 
   255  010F                     	;# 
   256  018C                     	;# 
   257  018D                     	;# 
   258                           
   259                           	psect	idataBANK0
   260  07FC                     __pidataBANK0:	
   261                           
   262                           ;initializer for _time
   263  07FC  3438               	retlw	56
   264  07FD  3450               	retlw	80
   265                           
   266                           	psect	nvBANK0
   267  0050                     __pnvBANK0:	
   268  0050                     _pre_out:	
   269  0050                     	ds	4
   270  0054                     _a3:	
   271  0054                     	ds	4
   272  0058                     _a2:	
   273  0058                     	ds	4
   274  005C                     _a1:	
   275  005C                     	ds	4
   276                           
   277                           	psect	nvBANK3
   278  01CE                     __pnvBANK3:	
   279  01CE                     _out:	
   280  01CE                     	ds	4
   281  01D2                     _Kd:	
   282  01D2                     	ds	4
   283  01D6                     _Ki:	
   284  01D6                     	ds	4
   285  01DA                     _Kp:	
   286  01DA                     	ds	4
   287  01DE                     _T:	
   288  01DE                     	ds	4
   289  01E2                     _E2:	
   290  01E2                     	ds	4
   291  01E6                     _E1:	
   292  01E6                     	ds	4
   293  01EA                     _E:	
   294  01EA                     	ds	4
   295  000E                     _TMR1	set	14
   296  001E                     _ADRESH	set	30
   297  001F                     _ADCON0	set	31
   298  0008                     _PORTD	set	8
   299  0041                     _RD1	set	65
   300  0040                     _RD0	set	64
   301  0045                     _RD5	set	69
   302  0044                     _RD4	set	68
   303  0043                     _RD3	set	67
   304  0042                     _RD2	set	66
   305  0060                     _TMR1IF	set	96
   306  0031                     _RB1	set	49
   307  0059                     _INTF	set	89
   308  0080                     _TMR1ON	set	128
   309  0081                     _TMR1CS	set	129
   310  0082                     _T1SYNC	set	130
   311  0083                     _T1OSCEN	set	131
   312  0084                     _T1CKPS0	set	132
   313  0085                     _T1CKPS1	set	133
   314  005C                     _INTE	set	92
   315  005E                     _PEIE	set	94
   316  005F                     _GIE	set	95
   317  00FA                     _GO_nDONE	set	250
   318  0066                     _ADIF	set	102
   319  00F8                     _ADON	set	248
   320  00FF                     _ADCS1	set	255
   321  00FE                     _ADCS0	set	254
   322  0047                     _RD7	set	71
   323  0046                     _RD6	set	70
   324  009E                     _ADRESL	set	158
   325  0088                     _TRISD	set	136
   326  0460                     _TMR1IE	set	1120
   327  040E                     _INTEDG	set	1038
   328  042B                     _TRISA3	set	1067
   329  042A                     _TRISA2	set	1066
   330  0466                     _ADIE	set	1126
   331  04FF                     _ADFM	set	1279
   332  04FE                     _ADCS2	set	1278
   333  04FB                     _PCFG3	set	1275
   334  04FA                     _PCFG2	set	1274
   335  04F9                     _PCFG1	set	1273
   336  04F8                     _PCFG0	set	1272
   337  0429                     _TRISA1	set	1065
   338  0428                     _TRISA0	set	1064
   339  0430                     _TRISB0	set	1072
   340  0431                     _TRISB1	set	1073
   341                           
   342                           	psect	strings
   343  1800                     __pstrings:	
   344  1800                     stringtab:	
   345  1800                     __stringtab:	
   346  1800                     stringcode:	
   347                           ;	String table - string pointers are 1 byte each
   348                           
   349  1800                     stringdir:	
   350  1800  3018               	movlw	high stringdir
   351  1801  008A               	movwf	10
   352  1802  0804               	movf	4,w
   353  1803  0A84               	incf	4,f
   354  1804  0782               	addwf	2,f
   355  1805                     __stringbase:	
   356  1805  3400               	retlw	0
   357  1806                     __end_of__stringtab:	
   358  1806                     STR_1:	
   359  1806  344E               	retlw	78	;'N'
   360  1807  3468               	retlw	104	;'h'
   361  1808  3469               	retlw	105	;'i'
   362  1809  3465               	retlw	101	;'e'
   363  180A  3474               	retlw	116	;'t'
   364  180B  3420               	retlw	32	;' '
   365  180C  3464               	retlw	100	;'d'
   366  180D  346F               	retlw	111	;'o'
   367  180E  343A               	retlw	58	;':'
   368  180F  3420               	retlw	32	;' '
   369  1810  3400               	retlw	0
   370                           
   371                           ; #config settings
   372  0000                     
   373                           	psect	cinit
   374  0013                     start_initialization:	
   375  0013                     __initialization:	
   376                           
   377                           ; Initialize objects allocated to BANK0
   378  0013  120A  118A  27FC  120A  118A  	fcall	__pidataBANK0	;fetch initializer
   379  0018  00E0               	movwf	__pdataBANK0& (0+127)
   380  0019  120A  118A  27FD   	fcall	__pidataBANK0+1	;fetch initializer
   381  001C  00E1               	movwf	(__pdataBANK0+1)& (0+127)
   382  001D                     end_of_initialization:	
   383                           ;End of C runtime variable initialization code
   384                           
   385  001D                     __end_of__initialization:	
   386  001D  0183               	clrf	3
   387  001E  120A  158A  2907   	ljmp	_main	;jump to C main() function
   388                           
   389                           	psect	dataBANK0
   390  0060                     __pdataBANK0:	
   391  0060                     _time:	
   392  0060                     	ds	2
   393                           
   394                           	psect	cstackBANK3
   395  0190                     __pcstackBANK3:	
   396  0190                     ?___fladd:	
   397  0190                     ___fladd@b:	
   398                           ; 4 bytes @ 0x0
   399                           
   400                           
   401                           ; 4 bytes @ 0x0
   402  0190                     	ds	4
   403  0194                     ___fladd@a:	
   404                           
   405                           ; 4 bytes @ 0x4
   406  0194                     	ds	4
   407  0198                     ??___fladd:	
   408                           
   409                           ; 1 bytes @ 0x8
   410  0198                     	ds	8
   411  01A0                     ?___flsub:	
   412  01A0                     ___flsub@a:	
   413                           ; 4 bytes @ 0x10
   414                           
   415                           
   416                           ; 4 bytes @ 0x10
   417  01A0                     	ds	4
   418  01A4                     ___flsub@b:	
   419                           
   420                           ; 4 bytes @ 0x14
   421  01A4                     	ds	4
   422  01A8                     ?___fltol:	
   423  01A8                     ___fltol@f1:	
   424                           ; 4 bytes @ 0x18
   425                           
   426                           
   427                           ; 4 bytes @ 0x18
   428  01A8                     	ds	4
   429  01AC                     ??___fltol:	
   430                           
   431                           ; 1 bytes @ 0x1C
   432  01AC                     	ds	5
   433  01B1                     ___fltol@sign1:	
   434                           
   435                           ; 1 bytes @ 0x21
   436  01B1                     	ds	1
   437  01B2                     ___fltol@exp1:	
   438                           
   439                           ; 1 bytes @ 0x22
   440  01B2                     	ds	1
   441  01B3                     ?_PID_Init:	
   442  01B3                     PID_Init@nhietdo:	
   443                           ; 2 bytes @ 0x23
   444                           
   445                           
   446                           ; 2 bytes @ 0x23
   447  01B3                     	ds	2
   448  01B5                     PID_Init@nhietdodat:	
   449                           
   450                           ; 2 bytes @ 0x25
   451  01B5                     	ds	2
   452  01B7                     _PID_Init$812:	
   453                           
   454                           ; 4 bytes @ 0x27
   455  01B7                     	ds	4
   456  01BB                     _PID_Init$813:	
   457                           
   458                           ; 4 bytes @ 0x2B
   459  01BB                     	ds	4
   460  01BF                     _PID_Init$811:	
   461                           
   462                           ; 4 bytes @ 0x2F
   463  01BF                     	ds	4
   464  01C3                     ??_main:	
   465                           
   466                           ; 1 bytes @ 0x33
   467  01C3                     	ds	5
   468  01C8                     main@sum:	
   469                           
   470                           ; 4 bytes @ 0x38
   471  01C8                     	ds	5
   472  01CD                     main@temp:	
   473                           
   474                           ; 1 bytes @ 0x3D
   475  01CD                     	ds	1
   476                           
   477                           	psect	cstackBANK1
   478  00A0                     __pcstackBANK1:	
   479  00A0                     ?___flge:	
   480  00A0                     ??_ADC_Init:	
   481                           ; 1 bit 
   482                           
   483  00A0                     ??_Interrupt_Init:	
   484                           ; 1 bytes @ 0x0
   485                           
   486  00A0                     ??_Lcd_Port:	
   487                           ; 1 bytes @ 0x0
   488                           
   489  00A0                     ?_Read_ADC:	
   490                           ; 1 bytes @ 0x0
   491                           
   492  00A0                     ?__Umul8_16:	
   493                           ; 2 bytes @ 0x0
   494                           
   495  00A0                     ?___awdiv:	
   496                           ; 2 bytes @ 0x0
   497                           
   498  00A0                     ?___awmod:	
   499                           ; 2 bytes @ 0x0
   500                           
   501  00A0                     Lcd_Port@a:	
   502                           ; 2 bytes @ 0x0
   503                           
   504  00A0                     __Umul8_16@multiplicand:	
   505                           ; 1 bytes @ 0x0
   506                           
   507  00A0                     ___awdiv@divisor:	
   508                           ; 1 bytes @ 0x0
   509                           
   510  00A0                     ___awmod@divisor:	
   511                           ; 2 bytes @ 0x0
   512                           
   513  00A0                     ___flge@ff1:	
   514                           ; 2 bytes @ 0x0
   515                           
   516                           
   517                           ; 4 bytes @ 0x0
   518  00A0                     	ds	1
   519  00A1                     ??_Lcd_Write_Char:	
   520  00A1                     ??_Lcd_Cmd:	
   521                           ; 1 bytes @ 0x1
   522                           
   523                           
   524                           ; 1 bytes @ 0x1
   525  00A1                     	ds	1
   526  00A2                     ??_Read_ADC:	
   527  00A2                     ??__Umul8_16:	
   528                           ; 1 bytes @ 0x2
   529                           
   530  00A2                     ADC_Init@channel:	
   531                           ; 1 bytes @ 0x2
   532                           
   533  00A2                     ___awdiv@dividend:	
   534                           ; 1 bytes @ 0x2
   535                           
   536  00A2                     ___awmod@dividend:	
   537                           ; 2 bytes @ 0x2
   538                           
   539                           
   540                           ; 2 bytes @ 0x2
   541  00A2                     	ds	1
   542  00A3                     Lcd_Cmd@a:	
   543  00A3                     Lcd_Write_Char@temp:	
   544                           ; 1 bytes @ 0x3
   545                           
   546                           
   547                           ; 1 bytes @ 0x3
   548  00A3                     	ds	1
   549  00A4                     ??_Lcd_Init:	
   550  00A4                     ?_Lcd_Set_Cursor:	
   551                           ; 1 bytes @ 0x4
   552                           
   553  00A4                     ??___awdiv:	
   554                           ; 1 bytes @ 0x4
   555                           
   556  00A4                     ??___awmod:	
   557                           ; 1 bytes @ 0x4
   558                           
   559  00A4                     Lcd_Set_Cursor@b:	
   560                           ; 1 bytes @ 0x4
   561                           
   562  00A4                     Lcd_Write_Char@y:	
   563                           ; 1 bytes @ 0x4
   564                           
   565  00A4                     __Umul8_16@product:	
   566                           ; 1 bytes @ 0x4
   567                           
   568  00A4                     ___flge@ff2:	
   569                           ; 2 bytes @ 0x4
   570                           
   571                           
   572                           ; 4 bytes @ 0x4
   573  00A4                     	ds	1
   574  00A5                     ??_Lcd_Set_Cursor:	
   575  00A5                     Lcd_Write_Char@a:	
   576                           ; 1 bytes @ 0x5
   577                           
   578  00A5                     ___awdiv@counter:	
   579                           ; 1 bytes @ 0x5
   580                           
   581  00A5                     ___awmod@counter:	
   582                           ; 1 bytes @ 0x5
   583                           
   584                           
   585                           ; 1 bytes @ 0x5
   586  00A5                     	ds	1
   587  00A6                     ??_Lcd_Write_String:	
   588  00A6                     ___awdiv@sign:	
   589                           ; 1 bytes @ 0x6
   590                           
   591  00A6                     ___awmod@sign:	
   592                           ; 1 bytes @ 0x6
   593                           
   594  00A6                     Read_ADC@N:	
   595                           ; 1 bytes @ 0x6
   596                           
   597  00A6                     Lcd_Write_String@i:	
   598                           ; 2 bytes @ 0x6
   599                           
   600  00A6                     __Umul8_16@word_mpld:	
   601                           ; 2 bytes @ 0x6
   602                           
   603                           
   604                           ; 2 bytes @ 0x6
   605  00A6                     	ds	1
   606  00A7                     Lcd_Set_Cursor@a:	
   607  00A7                     ___awdiv@quotient:	
   608                           ; 1 bytes @ 0x7
   609                           
   610                           
   611                           ; 2 bytes @ 0x7
   612  00A7                     	ds	1
   613  00A8                     ??___flge:	
   614  00A8                     Read_ADC@channel:	
   615                           ; 1 bytes @ 0x8
   616                           
   617  00A8                     Lcd_Set_Cursor@z:	
   618                           ; 1 bytes @ 0x8
   619                           
   620  00A8                     Lcd_Write_String@a:	
   621                           ; 1 bytes @ 0x8
   622                           
   623  00A8                     __Umul8_16@multiplier:	
   624                           ; 1 bytes @ 0x8
   625                           
   626                           
   627                           ; 1 bytes @ 0x8
   628  00A8                     	ds	1
   629  00A9                     ?___xxtofl:	
   630  00A9                     Lcd_Set_Cursor@y:	
   631                           ; 4 bytes @ 0x9
   632                           
   633  00A9                     ___xxtofl@val:	
   634                           ; 1 bytes @ 0x9
   635                           
   636                           
   637                           ; 4 bytes @ 0x9
   638  00A9                     	ds	1
   639  00AA                     Lcd_Set_Cursor@temp:	
   640                           
   641                           ; 1 bytes @ 0xA
   642  00AA                     	ds	3
   643  00AD                     ??___xxtofl:	
   644                           
   645                           ; 1 bytes @ 0xD
   646  00AD                     	ds	4
   647  00B1                     ___xxtofl@sign:	
   648                           
   649                           ; 1 bytes @ 0x11
   650  00B1                     	ds	1
   651  00B2                     ___xxtofl@exp:	
   652                           
   653                           ; 1 bytes @ 0x12
   654  00B2                     	ds	1
   655  00B3                     ___xxtofl@arg:	
   656                           
   657                           ; 4 bytes @ 0x13
   658  00B3                     	ds	4
   659  00B7                     ?___flmul:	
   660  00B7                     ___flmul@b:	
   661                           ; 4 bytes @ 0x17
   662                           
   663                           
   664                           ; 4 bytes @ 0x17
   665  00B7                     	ds	4
   666  00BB                     ___flmul@a:	
   667                           
   668                           ; 4 bytes @ 0x1B
   669  00BB                     	ds	4
   670  00BF                     ??___flmul:	
   671                           
   672                           ; 1 bytes @ 0x1F
   673  00BF                     	ds	5
   674  00C4                     ___flmul@sign:	
   675                           
   676                           ; 1 bytes @ 0x24
   677  00C4                     	ds	1
   678  00C5                     ___flmul@grs:	
   679                           
   680                           ; 4 bytes @ 0x25
   681  00C5                     	ds	4
   682  00C9                     ___flmul@aexp:	
   683                           
   684                           ; 1 bytes @ 0x29
   685  00C9                     	ds	1
   686  00CA                     ___flmul@bexp:	
   687                           
   688                           ; 1 bytes @ 0x2A
   689  00CA                     	ds	1
   690  00CB                     ___flmul@prod:	
   691                           
   692                           ; 4 bytes @ 0x2B
   693  00CB                     	ds	4
   694  00CF                     ___flmul@temp:	
   695                           
   696                           ; 2 bytes @ 0x2F
   697  00CF                     	ds	2
   698  00D1                     ?___fldiv:	
   699  00D1                     ___fldiv@a:	
   700                           ; 4 bytes @ 0x31
   701                           
   702                           
   703                           ; 4 bytes @ 0x31
   704  00D1                     	ds	4
   705  00D5                     ___fldiv@b:	
   706                           
   707                           ; 4 bytes @ 0x35
   708  00D5                     	ds	4
   709  00D9                     ??___fldiv:	
   710                           
   711                           ; 1 bytes @ 0x39
   712  00D9                     	ds	5
   713  00DE                     ___fldiv@rem:	
   714                           
   715                           ; 4 bytes @ 0x3E
   716  00DE                     	ds	4
   717  00E2                     ___fldiv@sign:	
   718                           
   719                           ; 1 bytes @ 0x42
   720  00E2                     	ds	1
   721  00E3                     ___fldiv@new_exp:	
   722                           
   723                           ; 2 bytes @ 0x43
   724  00E3                     	ds	2
   725  00E5                     ___fldiv@grs:	
   726                           
   727                           ; 4 bytes @ 0x45
   728  00E5                     	ds	4
   729  00E9                     ___fldiv@bexp:	
   730                           
   731                           ; 1 bytes @ 0x49
   732  00E9                     	ds	1
   733  00EA                     ___fldiv@aexp:	
   734                           
   735                           ; 1 bytes @ 0x4A
   736  00EA                     	ds	1
   737  00EB                     ___fladd@signs:	
   738                           
   739                           ; 1 bytes @ 0x4B
   740  00EB                     	ds	1
   741  00EC                     ___fladd@aexp:	
   742                           
   743                           ; 1 bytes @ 0x4C
   744  00EC                     	ds	1
   745  00ED                     ___fladd@bexp:	
   746                           
   747                           ; 1 bytes @ 0x4D
   748  00ED                     	ds	1
   749  00EE                     ___fladd@grs:	
   750                           
   751                           ; 1 bytes @ 0x4E
   752  00EE                     	ds	1
   753  00EF                     ??_PID_Init:	
   754  00EF                     ??___flsub:	
   755                           ; 1 bytes @ 0x4F
   756                           
   757                           
   758                           	psect	cstackCOMMON
   759  0070                     __pcstackCOMMON:	
   760                           ; 1 bytes @ 0x4F
   761                           
   762  0070                     ?_ADC_Init:	
   763  0070                     ?_Lcd_Init:	
   764                           ; 1 bytes @ 0x0
   765                           
   766  0070                     ?_Interrupt_Init:	
   767                           ; 1 bytes @ 0x0
   768                           
   769  0070                     ?_Lcd_Write_String:	
   770                           ; 1 bytes @ 0x0
   771                           
   772  0070                     ?_Lcd_Write_Char:	
   773                           ; 1 bytes @ 0x0
   774                           
   775  0070                     ?_main:	
   776                           ; 1 bytes @ 0x0
   777                           
   778  0070                     ?_My_interrupt:	
   779                           ; 1 bytes @ 0x0
   780                           
   781  0070                     ?_Lcd_Port:	
   782                           ; 1 bytes @ 0x0
   783                           
   784  0070                     ?_Lcd_Cmd:	
   785                           ; 1 bytes @ 0x0
   786                           
   787  0070                     ?i1___fladd:	
   788                           ; 1 bytes @ 0x0
   789                           
   790  0070                     ?i1___xxtofl:	
   791                           ; 4 bytes @ 0x0
   792                           
   793  0070                     i1___fladd@b:	
   794                           ; 4 bytes @ 0x0
   795                           
   796  0070                     i1___xxtofl@val:	
   797                           ; 4 bytes @ 0x0
   798                           
   799                           
   800                           ; 4 bytes @ 0x0
   801  0070                     	ds	4
   802  0074                     ??i1___xxtofl:	
   803  0074                     i1___fladd@a:	
   804                           ; 1 bytes @ 0x4
   805                           
   806                           
   807                           ; 4 bytes @ 0x4
   808  0074                     	ds	4
   809  0078                     i1___fladd@signs:	
   810  0078                     i1___xxtofl@sign:	
   811                           ; 1 bytes @ 0x8
   812                           
   813                           
   814                           ; 1 bytes @ 0x8
   815  0078                     	ds	1
   816  0079                     i1___fladd@aexp:	
   817  0079                     i1___xxtofl@exp:	
   818                           ; 1 bytes @ 0x9
   819                           
   820                           
   821                           ; 1 bytes @ 0x9
   822  0079                     	ds	1
   823  007A                     i1___fladd@bexp:	
   824  007A                     i1___xxtofl@arg:	
   825                           ; 1 bytes @ 0xA
   826                           
   827                           
   828                           ; 4 bytes @ 0xA
   829  007A                     	ds	1
   830  007B                     i1___fladd@grs:	
   831                           
   832                           ; 1 bytes @ 0xB
   833  007B                     	ds	3
   834  007E                     ??i1___flsub:	
   835                           
   836                           	psect	cstackBANK0
   837  0020                     __pcstackBANK0:	
   838                           ; 1 bytes @ 0xE
   839                           
   840  0020                     ??i1___fladd:	
   841  0020                     ?i1___fldiv:	
   842                           ; 1 bytes @ 0x0
   843                           
   844  0020                     i1___fldiv@a:	
   845                           ; 4 bytes @ 0x0
   846                           
   847                           
   848                           ; 4 bytes @ 0x0
   849  0020                     	ds	4
   850  0024                     i1___fldiv@b:	
   851                           
   852                           ; 4 bytes @ 0x4
   853  0024                     	ds	4
   854  0028                     ??i1___fldiv:	
   855                           
   856                           ; 1 bytes @ 0x8
   857  0028                     	ds	5
   858  002D                     i1___fldiv@rem:	
   859                           
   860                           ; 4 bytes @ 0xD
   861  002D                     	ds	4
   862  0031                     i1___fldiv@sign:	
   863                           
   864                           ; 1 bytes @ 0x11
   865  0031                     	ds	1
   866  0032                     i1___fldiv@new_exp:	
   867                           
   868                           ; 2 bytes @ 0x12
   869  0032                     	ds	2
   870  0034                     i1___fldiv@grs:	
   871                           
   872                           ; 4 bytes @ 0x14
   873  0034                     	ds	4
   874  0038                     i1___fldiv@bexp:	
   875                           
   876                           ; 1 bytes @ 0x18
   877  0038                     	ds	1
   878  0039                     i1___fldiv@aexp:	
   879                           
   880                           ; 1 bytes @ 0x19
   881  0039                     	ds	1
   882  003A                     ?i1___flsub:	
   883  003A                     i1___flsub@a:	
   884                           ; 4 bytes @ 0x1A
   885                           
   886                           
   887                           ; 4 bytes @ 0x1A
   888  003A                     	ds	4
   889  003E                     i1___flsub@b:	
   890                           
   891                           ; 4 bytes @ 0x1E
   892  003E                     	ds	4
   893  0042                     ?i1___fltol:	
   894  0042                     i1___fltol@f1:	
   895                           ; 4 bytes @ 0x22
   896                           
   897                           
   898                           ; 4 bytes @ 0x22
   899  0042                     	ds	4
   900  0046                     ??i1___fltol:	
   901                           
   902                           ; 1 bytes @ 0x26
   903  0046                     	ds	5
   904  004B                     i1___fltol@sign1:	
   905                           
   906                           ; 1 bytes @ 0x2B
   907  004B                     	ds	1
   908  004C                     i1___fltol@exp1:	
   909                           
   910                           ; 1 bytes @ 0x2C
   911  004C                     	ds	1
   912  004D                     ??_My_interrupt:	
   913                           
   914                           ; 1 bytes @ 0x2D
   915  004D                     	ds	3
   916                           
   917                           	psect	maintext
   918  0907                     __pmaintext:	
   919 ;;
   920 ;;Main: autosize = 0, tempsize = 5, incstack = 0, save=0
   921 ;;
   922 ;; *************** function _main *****************
   923 ;; Defined at:
   924 ;;		line 28 in file "DKND.c"
   925 ;; Parameters:    Size  Location     Type
   926 ;;		None
   927 ;; Auto vars:     Size  Location     Type
   928 ;;  sum             4   56[BANK3 ] float 
   929 ;;  a               2    0        unsigned int 
   930 ;;  temp            1   61[BANK3 ] unsigned char 
   931 ;;  m               1    0        unsigned char 
   932 ;; Return value:  Size  Location     Type
   933 ;;                  1    wreg      void 
   934 ;; Registers used:
   935 ;;		wreg, fsr0l, fsr0h, status,2, status,0, btemp+1, pclath, cstack
   936 ;; Tracked objects:
   937 ;;		On entry : B00/0
   938 ;;		On exit  : 0/0
   939 ;;		Unchanged: 0/0
   940 ;; Data sizes:     COMMON   BANK0   BANK1   BANK3   BANK2
   941 ;;      Params:         0       0       0       0       0
   942 ;;      Locals:         0       0       0       6       0
   943 ;;      Temps:          0       0       0       5       0
   944 ;;      Totals:         0       0       0      11       0
   945 ;;Total ram usage:       11 bytes
   946 ;; Hardware stack levels required when called:    6
   947 ;; This function calls:
   948 ;;		_ADC_Init
   949 ;;		_Interrupt_Init
   950 ;;		_Lcd_Init
   951 ;;		_Lcd_Set_Cursor
   952 ;;		_Lcd_Write_Char
   953 ;;		_Lcd_Write_String
   954 ;;		_PID_Init
   955 ;;		_Read_ADC
   956 ;;		___awdiv
   957 ;;		___awmod
   958 ;;		___fladd
   959 ;;		___flmul
   960 ;;		___fltol
   961 ;;		___xxtofl
   962 ;; This function is called by:
   963 ;;		Startup code after reset
   964 ;; This function uses a non-reentrant model
   965 ;;
   966                           
   967                           
   968                           ;psect for function _main
   969  0907                     _main:	
   970                           
   971                           ;DKND.c: 31:  T = 0.5;
   972                           
   973                           ;incstack = 0
   974                           ; Regs used in _main: [wreg-fsr0h+status,2+status,0+btemp+1+pclath+cstack]
   975  0907  303F               	movlw	63
   976  0908  1683               	bsf	3,5	;RP0=1, select bank3
   977  0909  1703               	bsf	3,6	;RP1=1, select bank3
   978  090A  00E1               	movwf	(_T+3)^(0+384)
   979  090B  3000               	movlw	0
   980  090C  00E0               	movwf	(_T+2)^(0+384)
   981  090D  3000               	movlw	0
   982  090E  00DF               	movwf	(_T+1)^(0+384)
   983  090F  3000               	movlw	0
   984  0910  00DE               	movwf	_T^(0+384)
   985                           
   986                           ;DKND.c: 32:  Kp = 100;
   987  0911  3042               	movlw	66
   988  0912  00DD               	movwf	(_Kp+3)^(0+384)
   989  0913  30C8               	movlw	200
   990  0914  00DC               	movwf	(_Kp+2)^(0+384)
   991  0915  3000               	movlw	0
   992  0916  00DB               	movwf	(_Kp+1)^(0+384)
   993  0917  3000               	movlw	0
   994  0918  00DA               	movwf	_Kp^(0+384)
   995                           
   996                           ;DKND.c: 33:  Ki = 0;
   997  0919  3000               	movlw	0
   998  091A  00D9               	movwf	(_Ki+3)^(0+384)
   999  091B  3000               	movlw	0
  1000  091C  00D8               	movwf	(_Ki+2)^(0+384)
  1001  091D  3000               	movlw	0
  1002  091E  00D7               	movwf	(_Ki+1)^(0+384)
  1003  091F  3000               	movlw	0
  1004  0920  00D6               	movwf	_Ki^(0+384)
  1005                           
  1006                           ;DKND.c: 34:  Kd = 0;
  1007  0921  3000               	movlw	0
  1008  0922  00D5               	movwf	(_Kd+3)^(0+384)
  1009  0923  3000               	movlw	0
  1010  0924  00D4               	movwf	(_Kd+2)^(0+384)
  1011  0925  3000               	movlw	0
  1012  0926  00D3               	movwf	(_Kd+1)^(0+384)
  1013  0927  3000               	movlw	0
  1014  0928  00D2               	movwf	_Kd^(0+384)
  1015                           
  1016                           ;DKND.c: 35:  E = E1 = E2 = 0;
  1017  0929  3000               	movlw	0
  1018  092A  00E5               	movwf	(_E2+3)^(0+384)
  1019  092B  3000               	movlw	0
  1020  092C  00E4               	movwf	(_E2+2)^(0+384)
  1021  092D  3000               	movlw	0
  1022  092E  00E3               	movwf	(_E2+1)^(0+384)
  1023  092F  3000               	movlw	0
  1024  0930  00E2               	movwf	_E2^(0+384)
  1025  0931  0865               	movf	(_E2+3)^(0+384),w
  1026  0932  00E9               	movwf	(_E1+3)^(0+384)
  1027  0933  0864               	movf	(_E2+2)^(0+384),w
  1028  0934  00E8               	movwf	(_E1+2)^(0+384)
  1029  0935  0863               	movf	(_E2+1)^(0+384),w
  1030  0936  00E7               	movwf	(_E1+1)^(0+384)
  1031  0937  0862               	movf	_E2^(0+384),w
  1032  0938  00E6               	movwf	_E1^(0+384)
  1033  0939  0869               	movf	(_E1+3)^(0+384),w
  1034  093A  00ED               	movwf	(_E+3)^(0+384)
  1035  093B  0868               	movf	(_E1+2)^(0+384),w
  1036  093C  00EC               	movwf	(_E+2)^(0+384)
  1037  093D  0867               	movf	(_E1+1)^(0+384),w
  1038  093E  00EB               	movwf	(_E+1)^(0+384)
  1039  093F  0866               	movf	_E1^(0+384),w
  1040  0940  00EA               	movwf	_E^(0+384)
  1041                           
  1042                           ;DKND.c: 36:  a1 = a2 = a3 = 0;
  1043  0941  3000               	movlw	0
  1044  0942  1283               	bcf	3,5	;RP0=0, select bank0
  1045  0943  1303               	bcf	3,6	;RP1=0, select bank0
  1046  0944  00D7               	movwf	_a3+3
  1047  0945  3000               	movlw	0
  1048  0946  00D6               	movwf	_a3+2
  1049  0947  3000               	movlw	0
  1050  0948  00D5               	movwf	_a3+1
  1051  0949  3000               	movlw	0
  1052  094A  00D4               	movwf	_a3
  1053  094B  0857               	movf	_a3+3,w
  1054  094C  00DB               	movwf	_a2+3
  1055  094D  0856               	movf	_a3+2,w
  1056  094E  00DA               	movwf	_a2+2
  1057  094F  0855               	movf	_a3+1,w
  1058  0950  00D9               	movwf	_a2+1
  1059  0951  0854               	movf	_a3,w
  1060  0952  00D8               	movwf	_a2
  1061  0953  085B               	movf	_a2+3,w
  1062  0954  00DF               	movwf	_a1+3
  1063  0955  085A               	movf	_a2+2,w
  1064  0956  00DE               	movwf	_a1+2
  1065  0957  0859               	movf	_a2+1,w
  1066  0958  00DD               	movwf	_a1+1
  1067  0959  0858               	movf	_a2,w
  1068  095A  00DC               	movwf	_a1
  1069                           
  1070                           ;DKND.c: 37:  out = pre_out = 0;
  1071  095B  3000               	movlw	0
  1072  095C  00D3               	movwf	_pre_out+3
  1073  095D  3000               	movlw	0
  1074  095E  00D2               	movwf	_pre_out+2
  1075  095F  3000               	movlw	0
  1076  0960  00D1               	movwf	_pre_out+1
  1077  0961  3000               	movlw	0
  1078  0962  00D0               	movwf	_pre_out
  1079  0963  0853               	movf	_pre_out+3,w
  1080  0964  1683               	bsf	3,5	;RP0=1, select bank3
  1081  0965  1703               	bsf	3,6	;RP1=1, select bank3
  1082  0966  00D1               	movwf	(_out+3)^(0+384)
  1083  0967  1283               	bcf	3,5	;RP0=0, select bank0
  1084  0968  1303               	bcf	3,6	;RP1=0, select bank0
  1085  0969  0852               	movf	_pre_out+2,w
  1086  096A  1683               	bsf	3,5	;RP0=1, select bank3
  1087  096B  1703               	bsf	3,6	;RP1=1, select bank3
  1088  096C  00D0               	movwf	(_out+2)^(0+384)
  1089  096D  1283               	bcf	3,5	;RP0=0, select bank0
  1090  096E  1303               	bcf	3,6	;RP1=0, select bank0
  1091  096F  0851               	movf	_pre_out+1,w
  1092  0970  1683               	bsf	3,5	;RP0=1, select bank3
  1093  0971  1703               	bsf	3,6	;RP1=1, select bank3
  1094  0972  00CF               	movwf	(_out+1)^(0+384)
  1095  0973  1283               	bcf	3,5	;RP0=0, select bank0
  1096  0974  1303               	bcf	3,6	;RP1=0, select bank0
  1097  0975  0850               	movf	_pre_out,w
  1098  0976  1683               	bsf	3,5	;RP0=1, select bank3
  1099  0977  1703               	bsf	3,6	;RP1=1, select bank3
  1100  0978  00CE               	movwf	_out^(0+384)
  1101                           
  1102                           ;DKND.c: 42:     float sum = 0;
  1103  0979  3000               	movlw	0
  1104  097A  00CB               	movwf	(main@sum+3)^(0+384)
  1105  097B  3000               	movlw	0
  1106  097C  00CA               	movwf	(main@sum+2)^(0+384)
  1107  097D  3000               	movlw	0
  1108  097E  00C9               	movwf	(main@sum+1)^(0+384)
  1109  097F  3000               	movlw	0
  1110  0980  00C8               	movwf	main@sum^(0+384)
  1111                           
  1112                           ;DKND.c: 44:     TRISD = 0x00;
  1113  0981  1683               	bsf	3,5	;RP0=1, select bank1
  1114  0982  1303               	bcf	3,6	;RP1=0, select bank1
  1115  0983  0188               	clrf	8	;volatile
  1116                           
  1117                           ;DKND.c: 45:     PORTD = 0;
  1118  0984  1283               	bcf	3,5	;RP0=0, select bank0
  1119  0985  1303               	bcf	3,6	;RP1=0, select bank0
  1120  0986  0188               	clrf	8	;volatile
  1121                           
  1122                           ;DKND.c: 46:     RD6 = 1;
  1123  0987  1708               	bsf	8,6	;volatile
  1124                           
  1125                           ;DKND.c: 47:     RD7 = 1;
  1126  0988  1788               	bsf	8,7	;volatile
  1127                           
  1128                           ;DKND.c: 48:     TRISB1 = 0;
  1129  0989  1683               	bsf	3,5	;RP0=1, select bank1
  1130  098A  1303               	bcf	3,6	;RP1=0, select bank1
  1131  098B  1086               	bcf	6,1	;volatile
  1132                           
  1133                           ;DKND.c: 49:     TRISB0 = 1;
  1134  098C  1406               	bsf	6,0	;volatile
  1135                           
  1136                           ;DKND.c: 50:     TRISA0 = 1;
  1137  098D  1405               	bsf	5,0	;volatile
  1138                           
  1139                           ;DKND.c: 51:     TRISA1 = 1;
  1140  098E  1485               	bsf	5,1	;volatile
  1141                           
  1142                           ;DKND.c: 53:     ADC_Init(1);
  1143  098F  3001               	movlw	1
  1144  0990  160A  118A  20B2  120A  158A  	fcall	_ADC_Init
  1145                           
  1146                           ;DKND.c: 54:     Lcd_Init();
  1147  0995  160A  118A  22EF  120A  158A  	fcall	_Lcd_Init
  1148                           
  1149                           ;DKND.c: 55:     _delay((unsigned long)((100)*(20000000/4000.0)));
  1150  099A  3003               	movlw	3
  1151  099B  1683               	bsf	3,5	;RP0=1, select bank3
  1152  099C  1703               	bsf	3,6	;RP1=1, select bank3
  1153  099D  00C5               	movwf	(??_main^(0+384)+2)
  1154  099E  308A               	movlw	138
  1155  099F  00C4               	movwf	(??_main^(0+384)+1)
  1156  09A0  3055               	movlw	85
  1157  09A1  00C3               	movwf	??_main^(0+384)
  1158  09A2                     u5697:	
  1159  09A2  0BC3               	decfsz	??_main^(0+384),f
  1160  09A3  29A2               	goto	u5697
  1161  09A4  0BC4               	decfsz	(??_main^(0+384)+1),f
  1162  09A5  29A2               	goto	u5697
  1163  09A6  0BC5               	decfsz	(??_main^(0+384)+2),f
  1164  09A7  29A2               	goto	u5697
  1165                           
  1166                           ;DKND.c: 56:     Interrupt_Init();
  1167  09A8  120A  118A  27F4  120A  158A  	fcall	_Interrupt_Init
  1168                           
  1169                           ;DKND.c: 58:     Lcd_Write_String("Nhiet do: ");
  1170  09AD  3001               	movlw	(low ((STR_1-__stringbase)| (0+32768)))& (0+255)
  1171  09AE  160A  118A  2034  120A  158A  	fcall	_Lcd_Write_String
  1172  09B3                     l3519:	
  1173                           
  1174                           ;DKND.c: 61:     {;DKND.c: 62:         temp = Read_ADC(0)*0.488f+0.5f;
  1175  09B3  3000               	movlw	0
  1176  09B4  160A  118A  2135  120A  158A  	fcall	_Read_ADC
  1177  09B9  1683               	bsf	3,5	;RP0=1, select bank1
  1178  09BA  1303               	bcf	3,6	;RP1=0, select bank1
  1179  09BB  0820               	movf	?_Read_ADC^(0+128),w
  1180  09BC  1683               	bsf	3,5	;RP0=1, select bank3
  1181  09BD  1703               	bsf	3,6	;RP1=1, select bank3
  1182  09BE  00C3               	movwf	??_main^(0+384)
  1183  09BF  1683               	bsf	3,5	;RP0=1, select bank1
  1184  09C0  1303               	bcf	3,6	;RP1=0, select bank1
  1185  09C1  0821               	movf	(?_Read_ADC+1)^(0+128),w
  1186  09C2  1683               	bsf	3,5	;RP0=1, select bank3
  1187  09C3  1703               	bsf	3,6	;RP1=1, select bank3
  1188  09C4  00C4               	movwf	(??_main^(0+384)+1)
  1189  09C5  01C5               	clrf	(??_main^(0+384)+2)
  1190  09C6  01C6               	clrf	(??_main^(0+384)+3)
  1191  09C7  0846               	movf	(??_main+3)^(0+384),w
  1192  09C8  1683               	bsf	3,5	;RP0=1, select bank1
  1193  09C9  1303               	bcf	3,6	;RP1=0, select bank1
  1194  09CA  00AC               	movwf	(___xxtofl@val+3)^(0+128)
  1195  09CB  1683               	bsf	3,5	;RP0=1, select bank3
  1196  09CC  1703               	bsf	3,6	;RP1=1, select bank3
  1197  09CD  0845               	movf	(??_main+2)^(0+384),w
  1198  09CE  1683               	bsf	3,5	;RP0=1, select bank1
  1199  09CF  1303               	bcf	3,6	;RP1=0, select bank1
  1200  09D0  00AB               	movwf	(___xxtofl@val+2)^(0+128)
  1201  09D1  1683               	bsf	3,5	;RP0=1, select bank3
  1202  09D2  1703               	bsf	3,6	;RP1=1, select bank3
  1203  09D3  0844               	movf	(??_main+1)^(0+384),w
  1204  09D4  1683               	bsf	3,5	;RP0=1, select bank1
  1205  09D5  1303               	bcf	3,6	;RP1=0, select bank1
  1206  09D6  00AA               	movwf	(___xxtofl@val+1)^(0+128)
  1207  09D7  1683               	bsf	3,5	;RP0=1, select bank3
  1208  09D8  1703               	bsf	3,6	;RP1=1, select bank3
  1209  09D9  0843               	movf	??_main^(0+384),w
  1210  09DA  1683               	bsf	3,5	;RP0=1, select bank1
  1211  09DB  1303               	bcf	3,6	;RP1=0, select bank1
  1212  09DC  00A9               	movwf	___xxtofl@val^(0+128)
  1213  09DD  3000               	movlw	0
  1214  09DE  120A  158A  2062  120A  158A  	fcall	___xxtofl
  1215  09E3  1683               	bsf	3,5	;RP0=1, select bank1
  1216  09E4  1303               	bcf	3,6	;RP1=0, select bank1
  1217  09E5  082C               	movf	(?___xxtofl+3)^(0+128),w
  1218  09E6  00BE               	movwf	(___flmul@a+3)^(0+128)
  1219  09E7  082B               	movf	(?___xxtofl+2)^(0+128),w
  1220  09E8  00BD               	movwf	(___flmul@a+2)^(0+128)
  1221  09E9  082A               	movf	(?___xxtofl+1)^(0+128),w
  1222  09EA  00BC               	movwf	(___flmul@a+1)^(0+128)
  1223  09EB  0829               	movf	?___xxtofl^(0+128),w
  1224  09EC  00BB               	movwf	___flmul@a^(0+128)
  1225  09ED  303E               	movlw	62
  1226  09EE  00BA               	movwf	(___flmul@b+3)^(0+128)
  1227  09EF  30F9               	movlw	249
  1228  09F0  00B9               	movwf	(___flmul@b+2)^(0+128)
  1229  09F1  30DB               	movlw	219
  1230  09F2  00B8               	movwf	(___flmul@b+1)^(0+128)
  1231  09F3  3023               	movlw	35
  1232  09F4  00B7               	movwf	___flmul@b^(0+128)
  1233  09F5  120A  118A  2472  120A  158A  	fcall	___flmul
  1234  09FA  1683               	bsf	3,5	;RP0=1, select bank1
  1235  09FB  1303               	bcf	3,6	;RP1=0, select bank1
  1236  09FC  083A               	movf	(?___flmul+3)^(0+128),w
  1237  09FD  1683               	bsf	3,5	;RP0=1, select bank3
  1238  09FE  1703               	bsf	3,6	;RP1=1, select bank3
  1239  09FF  0097               	movwf	(___fladd@a+3)^(0+384)
  1240  0A00  1683               	bsf	3,5	;RP0=1, select bank1
  1241  0A01  1303               	bcf	3,6	;RP1=0, select bank1
  1242  0A02  0839               	movf	(?___flmul+2)^(0+128),w
  1243  0A03  1683               	bsf	3,5	;RP0=1, select bank3
  1244  0A04  1703               	bsf	3,6	;RP1=1, select bank3
  1245  0A05  0096               	movwf	(___fladd@a+2)^(0+384)
  1246  0A06  1683               	bsf	3,5	;RP0=1, select bank1
  1247  0A07  1303               	bcf	3,6	;RP1=0, select bank1
  1248  0A08  0838               	movf	(?___flmul+1)^(0+128),w
  1249  0A09  1683               	bsf	3,5	;RP0=1, select bank3
  1250  0A0A  1703               	bsf	3,6	;RP1=1, select bank3
  1251  0A0B  0095               	movwf	(___fladd@a+1)^(0+384)
  1252  0A0C  1683               	bsf	3,5	;RP0=1, select bank1
  1253  0A0D  1303               	bcf	3,6	;RP1=0, select bank1
  1254  0A0E  0837               	movf	?___flmul^(0+128),w
  1255  0A0F  1683               	bsf	3,5	;RP0=1, select bank3
  1256  0A10  1703               	bsf	3,6	;RP1=1, select bank3
  1257  0A11  0094               	movwf	___fladd@a^(0+384)
  1258  0A12  303F               	movlw	63
  1259  0A13  0093               	movwf	(___fladd@b+3)^(0+384)
  1260  0A14  3000               	movlw	0
  1261  0A15  0092               	movwf	(___fladd@b+2)^(0+384)
  1262  0A16  3000               	movlw	0
  1263  0A17  0091               	movwf	(___fladd@b+1)^(0+384)
  1264  0A18  3000               	movlw	0
  1265  0A19  0090               	movwf	___fladd@b^(0+384)
  1266  0A1A  120A  158A  2516  120A  158A  	fcall	___fladd
  1267  0A1F  1683               	bsf	3,5	;RP0=1, select bank3
  1268  0A20  1703               	bsf	3,6	;RP1=1, select bank3
  1269  0A21  0813               	movf	(?___fladd+3)^(0+384),w
  1270  0A22  00AB               	movwf	(___fltol@f1+3)^(0+384)
  1271  0A23  0812               	movf	(?___fladd+2)^(0+384),w
  1272  0A24  00AA               	movwf	(___fltol@f1+2)^(0+384)
  1273  0A25  0811               	movf	(?___fladd+1)^(0+384),w
  1274  0A26  00A9               	movwf	(___fltol@f1+1)^(0+384)
  1275  0A27  0810               	movf	?___fladd^(0+384),w
  1276  0A28  00A8               	movwf	___fltol@f1^(0+384)
  1277  0A29  120A  118A  2787  120A  158A  	fcall	___fltol
  1278  0A2E  1683               	bsf	3,5	;RP0=1, select bank3
  1279  0A2F  1703               	bsf	3,6	;RP1=1, select bank3
  1280  0A30  0828               	movf	?___fltol^(0+384),w
  1281  0A31  00C7               	movwf	(??_main+4)^(0+384)
  1282  0A32  0847               	movf	(??_main+4)^(0+384),w
  1283  0A33  00CD               	movwf	main@temp^(0+384)
  1284                           
  1285                           ;DKND.c: 63:         time = PID_Init(temp,90);
  1286  0A34  084D               	movf	main@temp^(0+384),w
  1287  0A35  00C3               	movwf	??_main^(0+384)
  1288  0A36  01C4               	clrf	(??_main^(0+384)+1)
  1289  0A37  0843               	movf	??_main^(0+384),w
  1290  0A38  00B3               	movwf	PID_Init@nhietdo^(0+384)
  1291  0A39  0844               	movf	(??_main+1)^(0+384),w
  1292  0A3A  00B4               	movwf	(PID_Init@nhietdo+1)^(0+384)
  1293  0A3B  305A               	movlw	90
  1294  0A3C  00B5               	movwf	PID_Init@nhietdodat^(0+384)
  1295  0A3D  3000               	movlw	0
  1296  0A3E  00B6               	movwf	(PID_Init@nhietdodat^(0+384)+1)
  1297  0A3F  120A  118A  2021  120A  158A  	fcall	_PID_Init
  1298  0A44  1683               	bsf	3,5	;RP0=1, select bank3
  1299  0A45  1703               	bsf	3,6	;RP1=1, select bank3
  1300  0A46  0834               	movf	(?_PID_Init+1)^(0+384),w
  1301  0A47  1283               	bcf	3,5	;RP0=0, select bank0
  1302  0A48  1303               	bcf	3,6	;RP1=0, select bank0
  1303  0A49  00E1               	movwf	_time+1
  1304  0A4A  1683               	bsf	3,5	;RP0=1, select bank3
  1305  0A4B  1703               	bsf	3,6	;RP1=1, select bank3
  1306  0A4C  0833               	movf	?_PID_Init^(0+384),w
  1307  0A4D  1283               	bcf	3,5	;RP0=0, select bank0
  1308  0A4E  1303               	bcf	3,6	;RP1=0, select bank0
  1309  0A4F  00E0               	movwf	_time
  1310                           
  1311                           ;DKND.c: 64:         Lcd_Set_Cursor(1,11);
  1312  0A50  300B               	movlw	11
  1313  0A51  1683               	bsf	3,5	;RP0=1, select bank3
  1314  0A52  1703               	bsf	3,6	;RP1=1, select bank3
  1315  0A53  00C3               	movwf	??_main^(0+384)
  1316  0A54  0843               	movf	??_main^(0+384),w
  1317  0A55  1683               	bsf	3,5	;RP0=1, select bank1
  1318  0A56  1303               	bcf	3,6	;RP1=0, select bank1
  1319  0A57  00A4               	movwf	Lcd_Set_Cursor@b^(0+128)
  1320  0A58  3001               	movlw	1
  1321  0A59  160A  118A  21CB  120A  158A  	fcall	_Lcd_Set_Cursor
  1322                           
  1323                           ;DKND.c: 65:         Lcd_Write_Char(temp/100+48);
  1324  0A5E  3064               	movlw	100
  1325  0A5F  1683               	bsf	3,5	;RP0=1, select bank1
  1326  0A60  1303               	bcf	3,6	;RP1=0, select bank1
  1327  0A61  00A0               	movwf	___awdiv@divisor^(0+128)
  1328  0A62  3000               	movlw	0
  1329  0A63  00A1               	movwf	(___awdiv@divisor^(0+128)+1)
  1330  0A64  1683               	bsf	3,5	;RP0=1, select bank3
  1331  0A65  1703               	bsf	3,6	;RP1=1, select bank3
  1332  0A66  084D               	movf	main@temp^(0+384),w
  1333  0A67  00C3               	movwf	??_main^(0+384)
  1334  0A68  01C4               	clrf	(??_main^(0+384)+1)
  1335  0A69  0843               	movf	??_main^(0+384),w
  1336  0A6A  1683               	bsf	3,5	;RP0=1, select bank1
  1337  0A6B  1303               	bcf	3,6	;RP1=0, select bank1
  1338  0A6C  00A2               	movwf	___awdiv@dividend^(0+128)
  1339  0A6D  1683               	bsf	3,5	;RP0=1, select bank3
  1340  0A6E  1703               	bsf	3,6	;RP1=1, select bank3
  1341  0A6F  0844               	movf	(??_main+1)^(0+384),w
  1342  0A70  1683               	bsf	3,5	;RP0=1, select bank1
  1343  0A71  1303               	bcf	3,6	;RP1=0, select bank1
  1344  0A72  00A3               	movwf	(___awdiv@dividend+1)^(0+128)
  1345  0A73  120A  158A  2007  120A  158A  	fcall	___awdiv
  1346  0A78  1683               	bsf	3,5	;RP0=1, select bank1
  1347  0A79  1303               	bcf	3,6	;RP1=0, select bank1
  1348  0A7A  0820               	movf	?___awdiv^(0+128),w
  1349  0A7B  3E30               	addlw	48
  1350  0A7C  160A  118A  20EC  120A  158A  	fcall	_Lcd_Write_Char
  1351                           
  1352                           ;DKND.c: 66:         Lcd_Write_Char(temp/10+48);
  1353  0A81  300A               	movlw	10
  1354  0A82  1683               	bsf	3,5	;RP0=1, select bank1
  1355  0A83  1303               	bcf	3,6	;RP1=0, select bank1
  1356  0A84  00A0               	movwf	___awdiv@divisor^(0+128)
  1357  0A85  3000               	movlw	0
  1358  0A86  00A1               	movwf	(___awdiv@divisor^(0+128)+1)
  1359  0A87  1683               	bsf	3,5	;RP0=1, select bank3
  1360  0A88  1703               	bsf	3,6	;RP1=1, select bank3
  1361  0A89  084D               	movf	main@temp^(0+384),w
  1362  0A8A  00C3               	movwf	??_main^(0+384)
  1363  0A8B  01C4               	clrf	(??_main^(0+384)+1)
  1364  0A8C  0843               	movf	??_main^(0+384),w
  1365  0A8D  1683               	bsf	3,5	;RP0=1, select bank1
  1366  0A8E  1303               	bcf	3,6	;RP1=0, select bank1
  1367  0A8F  00A2               	movwf	___awdiv@dividend^(0+128)
  1368  0A90  1683               	bsf	3,5	;RP0=1, select bank3
  1369  0A91  1703               	bsf	3,6	;RP1=1, select bank3
  1370  0A92  0844               	movf	(??_main+1)^(0+384),w
  1371  0A93  1683               	bsf	3,5	;RP0=1, select bank1
  1372  0A94  1303               	bcf	3,6	;RP1=0, select bank1
  1373  0A95  00A3               	movwf	(___awdiv@dividend+1)^(0+128)
  1374  0A96  120A  158A  2007  120A  158A  	fcall	___awdiv
  1375  0A9B  1683               	bsf	3,5	;RP0=1, select bank1
  1376  0A9C  1303               	bcf	3,6	;RP1=0, select bank1
  1377  0A9D  0820               	movf	?___awdiv^(0+128),w
  1378  0A9E  3E30               	addlw	48
  1379  0A9F  160A  118A  20EC  120A  158A  	fcall	_Lcd_Write_Char
  1380                           
  1381                           ;DKND.c: 67:         Lcd_Write_Char(temp%10+48);
  1382  0AA4  300A               	movlw	10
  1383  0AA5  1683               	bsf	3,5	;RP0=1, select bank1
  1384  0AA6  1303               	bcf	3,6	;RP1=0, select bank1
  1385  0AA7  00A0               	movwf	___awmod@divisor^(0+128)
  1386  0AA8  3000               	movlw	0
  1387  0AA9  00A1               	movwf	(___awmod@divisor^(0+128)+1)
  1388  0AAA  1683               	bsf	3,5	;RP0=1, select bank3
  1389  0AAB  1703               	bsf	3,6	;RP1=1, select bank3
  1390  0AAC  084D               	movf	main@temp^(0+384),w
  1391  0AAD  00C3               	movwf	??_main^(0+384)
  1392  0AAE  01C4               	clrf	(??_main^(0+384)+1)
  1393  0AAF  0843               	movf	??_main^(0+384),w
  1394  0AB0  1683               	bsf	3,5	;RP0=1, select bank1
  1395  0AB1  1303               	bcf	3,6	;RP1=0, select bank1
  1396  0AB2  00A2               	movwf	___awmod@dividend^(0+128)
  1397  0AB3  1683               	bsf	3,5	;RP0=1, select bank3
  1398  0AB4  1703               	bsf	3,6	;RP1=1, select bank3
  1399  0AB5  0844               	movf	(??_main+1)^(0+384),w
  1400  0AB6  1683               	bsf	3,5	;RP0=1, select bank1
  1401  0AB7  1303               	bcf	3,6	;RP1=0, select bank1
  1402  0AB8  00A3               	movwf	(___awmod@dividend+1)^(0+128)
  1403  0AB9  160A  118A  217E  120A  158A  	fcall	___awmod
  1404  0ABE  1683               	bsf	3,5	;RP0=1, select bank1
  1405  0ABF  1303               	bcf	3,6	;RP1=0, select bank1
  1406  0AC0  0820               	movf	?___awmod^(0+128),w
  1407  0AC1  3E30               	addlw	48
  1408  0AC2  160A  118A  20EC  120A  158A  	fcall	_Lcd_Write_Char
  1409                           
  1410                           ;DKND.c: 68:         _delay((unsigned long)((500)*(20000000/4000.0)));
  1411  0AC7  300D               	movlw	13
  1412  0AC8  1683               	bsf	3,5	;RP0=1, select bank3
  1413  0AC9  1703               	bsf	3,6	;RP1=1, select bank3
  1414  0ACA  00C5               	movwf	(??_main^(0+384)+2)
  1415  0ACB  30AF               	movlw	175
  1416  0ACC  00C4               	movwf	(??_main^(0+384)+1)
  1417  0ACD  30B5               	movlw	181
  1418  0ACE  00C3               	movwf	??_main^(0+384)
  1419  0ACF                     u5707:	
  1420  0ACF  0BC3               	decfsz	??_main^(0+384),f
  1421  0AD0  2ACF               	goto	u5707
  1422  0AD1  0BC4               	decfsz	(??_main^(0+384)+1),f
  1423  0AD2  2ACF               	goto	u5707
  1424  0AD3  0BC5               	decfsz	(??_main^(0+384)+2),f
  1425  0AD4  2ACF               	goto	u5707
  1426  0AD5  2AD6               	nop2
  1427  0AD6  29B3               	goto	l3519
  1428  0AD7                     __end_of_main:	
  1429                           
  1430                           	psect	text1
  1431  117E                     __ptext1:	
  1432 ;; *************** function ___awmod *****************
  1433 ;; Defined at:
  1434 ;;		line 5 in file "D:\PROGRAM\MPLABX v5.20\XC8 v2.05\pic\sources\c90\common\awmod.c"
  1435 ;; Parameters:    Size  Location     Type
  1436 ;;  divisor         2    0[BANK1 ] int 
  1437 ;;  dividend        2    2[BANK1 ] int 
  1438 ;; Auto vars:     Size  Location     Type
  1439 ;;  sign            1    6[BANK1 ] unsigned char 
  1440 ;;  counter         1    5[BANK1 ] unsigned char 
  1441 ;; Return value:  Size  Location     Type
  1442 ;;                  2    0[BANK1 ] int 
  1443 ;; Registers used:
  1444 ;;		wreg, status,2, status,0
  1445 ;; Tracked objects:
  1446 ;;		On entry : 0/0
  1447 ;;		On exit  : 0/0
  1448 ;;		Unchanged: 0/0
  1449 ;; Data sizes:     COMMON   BANK0   BANK1   BANK3   BANK2
  1450 ;;      Params:         0       0       4       0       0
  1451 ;;      Locals:         0       0       2       0       0
  1452 ;;      Temps:          0       0       1       0       0
  1453 ;;      Totals:         0       0       7       0       0
  1454 ;;Total ram usage:        7 bytes
  1455 ;; Hardware stack levels used:    1
  1456 ;; Hardware stack levels required when called:    3
  1457 ;; This function calls:
  1458 ;;		Nothing
  1459 ;; This function is called by:
  1460 ;;		_main
  1461 ;; This function uses a non-reentrant model
  1462 ;;
  1463                           
  1464                           
  1465                           ;psect for function ___awmod
  1466  117E                     ___awmod:	
  1467                           
  1468                           ;incstack = 0
  1469                           ; Regs used in ___awmod: [wreg+status,2+status,0]
  1470  117E  1683               	bsf	3,5	;RP0=1, select bank1
  1471  117F  1303               	bcf	3,6	;RP1=0, select bank1
  1472  1180  01A6               	clrf	___awmod@sign^(0+128)
  1473  1181  1FA3               	btfss	(___awmod@dividend+1)^(0+128),7
  1474  1182  298A               	goto	l3229
  1475  1183  09A2               	comf	___awmod@dividend^(0+128),f
  1476  1184  09A3               	comf	(___awmod@dividend+1)^(0+128),f
  1477  1185  0AA2               	incf	___awmod@dividend^(0+128),f
  1478  1186  1903               	skipnz
  1479  1187  0AA3               	incf	(___awmod@dividend+1)^(0+128),f
  1480  1188  01A6               	clrf	___awmod@sign^(0+128)
  1481  1189  0AA6               	incf	___awmod@sign^(0+128),f
  1482  118A                     l3229:	
  1483  118A  1FA1               	btfss	(___awmod@divisor+1)^(0+128),7
  1484  118B  2991               	goto	l3233
  1485  118C  09A0               	comf	___awmod@divisor^(0+128),f
  1486  118D  09A1               	comf	(___awmod@divisor+1)^(0+128),f
  1487  118E  0AA0               	incf	___awmod@divisor^(0+128),f
  1488  118F  1903               	skipnz
  1489  1190  0AA1               	incf	(___awmod@divisor+1)^(0+128),f
  1490  1191                     l3233:	
  1491  1191  0820               	movf	___awmod@divisor^(0+128),w
  1492  1192  0421               	iorwf	(___awmod@divisor+1)^(0+128),w
  1493  1193  1903               	btfsc	3,2
  1494  1194  29BE               	goto	l3251
  1495  1195  01A5               	clrf	___awmod@counter^(0+128)
  1496  1196  0AA5               	incf	___awmod@counter^(0+128),f
  1497  1197                     l3241:	
  1498  1197  1BA1               	btfsc	(___awmod@divisor+1)^(0+128),7
  1499  1198  29A5               	goto	l3243
  1500  1199  3001               	movlw	1
  1501  119A                     u5075:	
  1502  119A  1003               	clrc
  1503  119B  0DA0               	rlf	___awmod@divisor^(0+128),f
  1504  119C  0DA1               	rlf	(___awmod@divisor+1)^(0+128),f
  1505  119D  3EFF               	addlw	-1
  1506  119E  1D03               	skipz
  1507  119F  299A               	goto	u5075
  1508  11A0  3001               	movlw	1
  1509  11A1  00A4               	movwf	??___awmod^(0+128)
  1510  11A2  0824               	movf	??___awmod^(0+128),w
  1511  11A3  07A5               	addwf	___awmod@counter^(0+128),f
  1512  11A4  2997               	goto	l3241
  1513  11A5                     l3243:	
  1514  11A5  0821               	movf	(___awmod@divisor+1)^(0+128),w
  1515  11A6  0223               	subwf	(___awmod@dividend+1)^(0+128),w
  1516  11A7  1D03               	skipz
  1517  11A8  29AB               	goto	u5095
  1518  11A9  0820               	movf	___awmod@divisor^(0+128),w
  1519  11AA  0222               	subwf	___awmod@dividend^(0+128),w
  1520  11AB                     u5095:	
  1521  11AB  1C03               	skipc
  1522  11AC  29B3               	goto	l3247
  1523  11AD  0820               	movf	___awmod@divisor^(0+128),w
  1524  11AE  02A2               	subwf	___awmod@dividend^(0+128),f
  1525  11AF  0821               	movf	(___awmod@divisor+1)^(0+128),w
  1526  11B0  1C03               	skipc
  1527  11B1  03A3               	decf	(___awmod@dividend+1)^(0+128),f
  1528  11B2  02A3               	subwf	(___awmod@dividend+1)^(0+128),f
  1529  11B3                     l3247:	
  1530  11B3  3001               	movlw	1
  1531  11B4                     u5105:	
  1532  11B4  1003               	clrc
  1533  11B5  0CA1               	rrf	(___awmod@divisor+1)^(0+128),f
  1534  11B6  0CA0               	rrf	___awmod@divisor^(0+128),f
  1535  11B7  3EFF               	addlw	-1
  1536  11B8  1D03               	skipz
  1537  11B9  29B4               	goto	u5105
  1538  11BA  3001               	movlw	1
  1539  11BB  02A5               	subwf	___awmod@counter^(0+128),f
  1540  11BC  1D03               	btfss	3,2
  1541  11BD  29A5               	goto	l3243
  1542  11BE                     l3251:	
  1543  11BE  0826               	movf	___awmod@sign^(0+128),w
  1544  11BF  1903               	btfsc	3,2
  1545  11C0  29C6               	goto	l3255
  1546  11C1  09A2               	comf	___awmod@dividend^(0+128),f
  1547  11C2  09A3               	comf	(___awmod@dividend+1)^(0+128),f
  1548  11C3  0AA2               	incf	___awmod@dividend^(0+128),f
  1549  11C4  1903               	skipnz
  1550  11C5  0AA3               	incf	(___awmod@dividend+1)^(0+128),f
  1551  11C6                     l3255:	
  1552  11C6  0823               	movf	(___awmod@dividend+1)^(0+128),w
  1553  11C7  00A1               	movwf	(?___awmod+1)^(0+128)
  1554  11C8  0822               	movf	___awmod@dividend^(0+128),w
  1555  11C9  00A0               	movwf	?___awmod^(0+128)
  1556  11CA  0008               	return
  1557  11CB                     __end_of___awmod:	
  1558                           
  1559                           	psect	text2
  1560  0807                     __ptext2:	
  1561 ;; *************** function ___awdiv *****************
  1562 ;; Defined at:
  1563 ;;		line 5 in file "D:\PROGRAM\MPLABX v5.20\XC8 v2.05\pic\sources\c90\common\awdiv.c"
  1564 ;; Parameters:    Size  Location     Type
  1565 ;;  divisor         2    0[BANK1 ] int 
  1566 ;;  dividend        2    2[BANK1 ] int 
  1567 ;; Auto vars:     Size  Location     Type
  1568 ;;  quotient        2    7[BANK1 ] int 
  1569 ;;  sign            1    6[BANK1 ] unsigned char 
  1570 ;;  counter         1    5[BANK1 ] unsigned char 
  1571 ;; Return value:  Size  Location     Type
  1572 ;;                  2    0[BANK1 ] int 
  1573 ;; Registers used:
  1574 ;;		wreg, status,2, status,0
  1575 ;; Tracked objects:
  1576 ;;		On entry : 0/0
  1577 ;;		On exit  : 0/0
  1578 ;;		Unchanged: 0/0
  1579 ;; Data sizes:     COMMON   BANK0   BANK1   BANK3   BANK2
  1580 ;;      Params:         0       0       4       0       0
  1581 ;;      Locals:         0       0       4       0       0
  1582 ;;      Temps:          0       0       1       0       0
  1583 ;;      Totals:         0       0       9       0       0
  1584 ;;Total ram usage:        9 bytes
  1585 ;; Hardware stack levels used:    1
  1586 ;; Hardware stack levels required when called:    3
  1587 ;; This function calls:
  1588 ;;		Nothing
  1589 ;; This function is called by:
  1590 ;;		_main
  1591 ;; This function uses a non-reentrant model
  1592 ;;
  1593                           
  1594                           
  1595                           ;psect for function ___awdiv
  1596  0807                     ___awdiv:	
  1597                           
  1598                           ;incstack = 0
  1599                           ; Regs used in ___awdiv: [wreg+status,2+status,0]
  1600  0807  1683               	bsf	3,5	;RP0=1, select bank1
  1601  0808  1303               	bcf	3,6	;RP1=0, select bank1
  1602  0809  01A6               	clrf	___awdiv@sign^(0+128)
  1603  080A  1FA1               	btfss	(___awdiv@divisor+1)^(0+128),7
  1604  080B  2813               	goto	l3185
  1605  080C  09A0               	comf	___awdiv@divisor^(0+128),f
  1606  080D  09A1               	comf	(___awdiv@divisor+1)^(0+128),f
  1607  080E  0AA0               	incf	___awdiv@divisor^(0+128),f
  1608  080F  1903               	skipnz
  1609  0810  0AA1               	incf	(___awdiv@divisor+1)^(0+128),f
  1610  0811  01A6               	clrf	___awdiv@sign^(0+128)
  1611  0812  0AA6               	incf	___awdiv@sign^(0+128),f
  1612  0813                     l3185:	
  1613  0813  1FA3               	btfss	(___awdiv@dividend+1)^(0+128),7
  1614  0814  281E               	goto	l3191
  1615  0815  09A2               	comf	___awdiv@dividend^(0+128),f
  1616  0816  09A3               	comf	(___awdiv@dividend+1)^(0+128),f
  1617  0817  0AA2               	incf	___awdiv@dividend^(0+128),f
  1618  0818  1903               	skipnz
  1619  0819  0AA3               	incf	(___awdiv@dividend+1)^(0+128),f
  1620  081A  3001               	movlw	1
  1621  081B  00A4               	movwf	??___awdiv^(0+128)
  1622  081C  0824               	movf	??___awdiv^(0+128),w
  1623  081D  06A6               	xorwf	___awdiv@sign^(0+128),f
  1624  081E                     l3191:	
  1625  081E  01A7               	clrf	___awdiv@quotient^(0+128)
  1626  081F  01A8               	clrf	(___awdiv@quotient+1)^(0+128)
  1627  0820  0820               	movf	___awdiv@divisor^(0+128),w
  1628  0821  0421               	iorwf	(___awdiv@divisor+1)^(0+128),w
  1629  0822  1903               	btfsc	3,2
  1630  0823  2855               	goto	l3213
  1631  0824  01A5               	clrf	___awdiv@counter^(0+128)
  1632  0825  0AA5               	incf	___awdiv@counter^(0+128),f
  1633  0826                     l3201:	
  1634  0826  1BA1               	btfsc	(___awdiv@divisor+1)^(0+128),7
  1635  0827  2834               	goto	l3203
  1636  0828  3001               	movlw	1
  1637  0829                     u4975:	
  1638  0829  1003               	clrc
  1639  082A  0DA0               	rlf	___awdiv@divisor^(0+128),f
  1640  082B  0DA1               	rlf	(___awdiv@divisor+1)^(0+128),f
  1641  082C  3EFF               	addlw	-1
  1642  082D  1D03               	skipz
  1643  082E  2829               	goto	u4975
  1644  082F  3001               	movlw	1
  1645  0830  00A4               	movwf	??___awdiv^(0+128)
  1646  0831  0824               	movf	??___awdiv^(0+128),w
  1647  0832  07A5               	addwf	___awdiv@counter^(0+128),f
  1648  0833  2826               	goto	l3201
  1649  0834                     l3203:	
  1650  0834  3001               	movlw	1
  1651  0835                     u4995:	
  1652  0835  1003               	clrc
  1653  0836  0DA7               	rlf	___awdiv@quotient^(0+128),f
  1654  0837  0DA8               	rlf	(___awdiv@quotient+1)^(0+128),f
  1655  0838  3EFF               	addlw	-1
  1656  0839  1D03               	skipz
  1657  083A  2835               	goto	u4995
  1658  083B  0821               	movf	(___awdiv@divisor+1)^(0+128),w
  1659  083C  0223               	subwf	(___awdiv@dividend+1)^(0+128),w
  1660  083D  1D03               	skipz
  1661  083E  2841               	goto	u5005
  1662  083F  0820               	movf	___awdiv@divisor^(0+128),w
  1663  0840  0222               	subwf	___awdiv@dividend^(0+128),w
  1664  0841                     u5005:	
  1665  0841  1C03               	skipc
  1666  0842  284A               	goto	l3209
  1667  0843  0820               	movf	___awdiv@divisor^(0+128),w
  1668  0844  02A2               	subwf	___awdiv@dividend^(0+128),f
  1669  0845  0821               	movf	(___awdiv@divisor+1)^(0+128),w
  1670  0846  1C03               	skipc
  1671  0847  03A3               	decf	(___awdiv@dividend+1)^(0+128),f
  1672  0848  02A3               	subwf	(___awdiv@dividend+1)^(0+128),f
  1673  0849  1427               	bsf	___awdiv@quotient^(0+128),0
  1674  084A                     l3209:	
  1675  084A  3001               	movlw	1
  1676  084B                     u5015:	
  1677  084B  1003               	clrc
  1678  084C  0CA1               	rrf	(___awdiv@divisor+1)^(0+128),f
  1679  084D  0CA0               	rrf	___awdiv@divisor^(0+128),f
  1680  084E  3EFF               	addlw	-1
  1681  084F  1D03               	skipz
  1682  0850  284B               	goto	u5015
  1683  0851  3001               	movlw	1
  1684  0852  02A5               	subwf	___awdiv@counter^(0+128),f
  1685  0853  1D03               	btfss	3,2
  1686  0854  2834               	goto	l3203
  1687  0855                     l3213:	
  1688  0855  0826               	movf	___awdiv@sign^(0+128),w
  1689  0856  1903               	btfsc	3,2
  1690  0857  285D               	goto	l3217
  1691  0858  09A7               	comf	___awdiv@quotient^(0+128),f
  1692  0859  09A8               	comf	(___awdiv@quotient+1)^(0+128),f
  1693  085A  0AA7               	incf	___awdiv@quotient^(0+128),f
  1694  085B  1903               	skipnz
  1695  085C  0AA8               	incf	(___awdiv@quotient+1)^(0+128),f
  1696  085D                     l3217:	
  1697  085D  0828               	movf	(___awdiv@quotient+1)^(0+128),w
  1698  085E  00A1               	movwf	(?___awdiv+1)^(0+128)
  1699  085F  0827               	movf	___awdiv@quotient^(0+128),w
  1700  0860  00A0               	movwf	?___awdiv^(0+128)
  1701  0861  0008               	return
  1702  0862                     __end_of___awdiv:	
  1703                           
  1704                           	psect	text3
  1705  1135                     __ptext3:	
  1706 ;; *************** function _Read_ADC *****************
  1707 ;; Defined at:
  1708 ;;		line 114 in file "DKND.c"
  1709 ;; Parameters:    Size  Location     Type
  1710 ;;  channel         1    wreg     unsigned char 
  1711 ;; Auto vars:     Size  Location     Type
  1712 ;;  channel         1    8[BANK1 ] unsigned char 
  1713 ;;  N               2    6[BANK1 ] unsigned int 
  1714 ;; Return value:  Size  Location     Type
  1715 ;;                  2    0[BANK1 ] unsigned int 
  1716 ;; Registers used:
  1717 ;;		wreg, status,2, status,0
  1718 ;; Tracked objects:
  1719 ;;		On entry : 0/0
  1720 ;;		On exit  : 0/0
  1721 ;;		Unchanged: 0/0
  1722 ;; Data sizes:     COMMON   BANK0   BANK1   BANK3   BANK2
  1723 ;;      Params:         0       0       2       0       0
  1724 ;;      Locals:         0       0       3       0       0
  1725 ;;      Temps:          0       0       4       0       0
  1726 ;;      Totals:         0       0       9       0       0
  1727 ;;Total ram usage:        9 bytes
  1728 ;; Hardware stack levels used:    1
  1729 ;; Hardware stack levels required when called:    3
  1730 ;; This function calls:
  1731 ;;		Nothing
  1732 ;; This function is called by:
  1733 ;;		_main
  1734 ;; This function uses a non-reentrant model
  1735 ;;
  1736                           
  1737                           
  1738                           ;psect for function _Read_ADC
  1739  1135                     _Read_ADC:	
  1740                           
  1741                           ;incstack = 0
  1742                           ; Regs used in _Read_ADC: [wreg+status,2+status,0]
  1743                           ;Read_ADC@channel stored from wreg
  1744  1135  1683               	bsf	3,5	;RP0=1, select bank1
  1745  1136  1303               	bcf	3,6	;RP1=0, select bank1
  1746  1137  00A8               	movwf	Read_ADC@channel^(0+128)
  1747                           
  1748                           ;DKND.c: 114: unsigned int Read_ADC(unsigned char channel);DKND.c: 115: {;DKND.c: 116:  
      +                             unsigned int N;;DKND.c: 117:     ADCON0 &= 0x11000101;
  1749  1138  3001               	movlw	1
  1750  1139  00A2               	movwf	??_Read_ADC^(0+128)
  1751  113A  0822               	movf	??_Read_ADC^(0+128),w
  1752  113B  1283               	bcf	3,5	;RP0=0, select bank0
  1753  113C  1303               	bcf	3,6	;RP1=0, select bank0
  1754  113D  059F               	andwf	31,f	;volatile
  1755                           
  1756                           ;DKND.c: 118:     if(channel > 3) return 0;
  1757  113E  3004               	movlw	4
  1758  113F  1683               	bsf	3,5	;RP0=1, select bank1
  1759  1140  1303               	bcf	3,6	;RP1=0, select bank1
  1760  1141  0228               	subwf	Read_ADC@channel^(0+128),w
  1761  1142  1C03               	skipc
  1762  1143  2947               	goto	l3109
  1763  1144  01A0               	clrf	?_Read_ADC^(0+128)
  1764  1145  01A1               	clrf	(?_Read_ADC+1)^(0+128)
  1765  1146  0008               	return
  1766  1147                     l3109:	
  1767                           
  1768                           ;DKND.c: 119:     ADCON0 |= channel << 3;
  1769  1147  0828               	movf	Read_ADC@channel^(0+128),w	;volatile
  1770  1148  00A2               	movwf	??_Read_ADC^(0+128)
  1771  1149  3002               	movlw	2
  1772  114A                     u4865:	
  1773  114A  1003               	clrc
  1774  114B  0DA2               	rlf	??_Read_ADC^(0+128),f
  1775  114C  3EFF               	addlw	-1
  1776  114D  1D03               	skipz
  1777  114E  294A               	goto	u4865
  1778  114F  1003               	clrc
  1779  1150  0D22               	rlf	??_Read_ADC^(0+128),w
  1780  1151  00A3               	movwf	(??_Read_ADC+1)^(0+128)
  1781  1152  0823               	movf	(??_Read_ADC+1)^(0+128),w
  1782  1153  1283               	bcf	3,5	;RP0=0, select bank0
  1783  1154  1303               	bcf	3,6	;RP1=0, select bank0
  1784  1155  049F               	iorwf	31,f	;volatile
  1785                           
  1786                           ;DKND.c: 120:     _delay((unsigned long)((2)*(20000000/4000.0)));
  1787  1156  300D               	movlw	13
  1788  1157  1683               	bsf	3,5	;RP0=1, select bank1
  1789  1158  1303               	bcf	3,6	;RP1=0, select bank1
  1790  1159  00A3               	movwf	(??_Read_ADC^(0+128)+1)
  1791  115A  30FB               	movlw	251
  1792  115B  00A2               	movwf	??_Read_ADC^(0+128)
  1793  115C                     u5717:	
  1794  115C  0BA2               	decfsz	??_Read_ADC^(0+128),f
  1795  115D  295C               	goto	u5717
  1796  115E  0BA3               	decfsz	(??_Read_ADC^(0+128)+1),f
  1797  115F  295C               	goto	u5717
  1798                           
  1799                           ;DKND.c: 121:     GO_nDONE = 1;
  1800  1160  1283               	bcf	3,5	;RP0=0, select bank0
  1801  1161  1303               	bcf	3,6	;RP1=0, select bank0
  1802  1162  151F               	bsf	31,2	;volatile
  1803  1163                     l153:	
  1804                           ;DKND.c: 122:     while(GO_nDONE);
  1805                           
  1806  1163  191F               	btfsc	31,2	;volatile
  1807  1164  2963               	goto	l153
  1808                           
  1809                           ;DKND.c: 123:     N = ADRESH;
  1810  1165  081E               	movf	30,w	;volatile
  1811  1166  1683               	bsf	3,5	;RP0=1, select bank1
  1812  1167  1303               	bcf	3,6	;RP1=0, select bank1
  1813  1168  00A2               	movwf	??_Read_ADC^(0+128)
  1814  1169  01A3               	clrf	(??_Read_ADC^(0+128)+1)
  1815  116A  0822               	movf	??_Read_ADC^(0+128),w
  1816  116B  00A6               	movwf	Read_ADC@N^(0+128)
  1817  116C  0823               	movf	(??_Read_ADC+1)^(0+128),w
  1818  116D  00A7               	movwf	(Read_ADC@N+1)^(0+128)
  1819                           
  1820                           ;DKND.c: 124:     return ((N<<8)+ADRESL);
  1821  116E  0826               	movf	Read_ADC@N^(0+128),w
  1822  116F  00A3               	movwf	(??_Read_ADC^(0+128)+1)
  1823  1170  01A2               	clrf	??_Read_ADC^(0+128)
  1824  1171  081E               	movf	30,w	;volatile
  1825  1172  0722               	addwf	??_Read_ADC^(0+128),w
  1826  1173  00A4               	movwf	(??_Read_ADC+2)^(0+128)
  1827  1174  3000               	movlw	0
  1828  1175  1803               	skipnc
  1829  1176  3001               	movlw	1
  1830  1177  0723               	addwf	(??_Read_ADC+1)^(0+128),w
  1831  1178  00A5               	movwf	(??_Read_ADC+3)^(0+128)
  1832  1179  0824               	movf	(??_Read_ADC+2)^(0+128),w
  1833  117A  00A0               	movwf	?_Read_ADC^(0+128)
  1834  117B  0825               	movf	(??_Read_ADC+3)^(0+128),w
  1835  117C  00A1               	movwf	(?_Read_ADC+1)^(0+128)
  1836  117D  0008               	return
  1837  117E                     __end_of_Read_ADC:	
  1838                           
  1839                           	psect	text4
  1840  0021                     __ptext4:	
  1841 ;; *************** function _PID_Init *****************
  1842 ;; Defined at:
  1843 ;;		line 154 in file "DKND.c"
  1844 ;; Parameters:    Size  Location     Type
  1845 ;;  nhietdo         2   35[BANK3 ] unsigned int 
  1846 ;;  nhietdodat      2   37[BANK3 ] unsigned int 
  1847 ;; Auto vars:     Size  Location     Type
  1848 ;;		None
  1849 ;; Return value:  Size  Location     Type
  1850 ;;                  2   35[BANK3 ] unsigned int 
  1851 ;; Registers used:
  1852 ;;		wreg, status,2, status,0, btemp+1, pclath, cstack
  1853 ;; Tracked objects:
  1854 ;;		On entry : 0/0
  1855 ;;		On exit  : 0/0
  1856 ;;		Unchanged: 0/0
  1857 ;; Data sizes:     COMMON   BANK0   BANK1   BANK3   BANK2
  1858 ;;      Params:         0       0       0       4       0
  1859 ;;      Locals:         0       0       0      12       0
  1860 ;;      Temps:          0       0       0       0       0
  1861 ;;      Totals:         0       0       0      16       0
  1862 ;;Total ram usage:       16 bytes
  1863 ;; Hardware stack levels used:    1
  1864 ;; Hardware stack levels required when called:    5
  1865 ;; This function calls:
  1866 ;;		___fladd
  1867 ;;		___fldiv
  1868 ;;		___flge
  1869 ;;		___flmul
  1870 ;;		___flsub
  1871 ;;		___fltol
  1872 ;;		___xxtofl
  1873 ;; This function is called by:
  1874 ;;		_main
  1875 ;; This function uses a non-reentrant model
  1876 ;;
  1877                           
  1878                           
  1879                           ;psect for function _PID_Init
  1880  0021                     _PID_Init:	
  1881                           
  1882                           ;DKND.c: 154: unsigned int PID_Init(unsigned int nhietdo, unsigned int nhietdodat);DKND.
      +                          c: 155: {;DKND.c: 156:  E = nhietdodat-nhietdo;
  1883                           
  1884                           ;incstack = 0
  1885                           ; Regs used in _PID_Init: [wreg+status,2+status,0+btemp+1+pclath+cstack]
  1886  0021  1683               	bsf	3,5	;RP0=1, select bank3
  1887  0022  1703               	bsf	3,6	;RP1=1, select bank3
  1888  0023  0833               	movf	PID_Init@nhietdo^(0+384),w
  1889  0024  0235               	subwf	PID_Init@nhietdodat^(0+384),w
  1890  0025  1683               	bsf	3,5	;RP0=1, select bank1
  1891  0026  1303               	bcf	3,6	;RP1=0, select bank1
  1892  0027  00A9               	movwf	___xxtofl@val^(0+128)
  1893  0028  1683               	bsf	3,5	;RP0=1, select bank3
  1894  0029  1703               	bsf	3,6	;RP1=1, select bank3
  1895  002A  0834               	movf	(PID_Init@nhietdo+1)^(0+384),w
  1896  002B  1C03               	skipc
  1897  002C  0A34               	incf	(PID_Init@nhietdo+1)^(0+384),w
  1898  002D  0236               	subwf	(PID_Init@nhietdodat+1)^(0+384),w
  1899  002E  1683               	bsf	3,5	;RP0=1, select bank1
  1900  002F  1303               	bcf	3,6	;RP1=0, select bank1
  1901  0030  00AA               	movwf	(___xxtofl@val+1)^(0+128)
  1902  0031  01AB               	clrf	(___xxtofl@val+2)^(0+128)
  1903  0032  01AC               	clrf	(___xxtofl@val+3)^(0+128)
  1904  0033  3000               	movlw	0
  1905  0034  120A  158A  2062  120A  118A  	fcall	___xxtofl
  1906  0039  1683               	bsf	3,5	;RP0=1, select bank1
  1907  003A  1303               	bcf	3,6	;RP1=0, select bank1
  1908  003B  082C               	movf	(?___xxtofl+3)^(0+128),w
  1909  003C  1683               	bsf	3,5	;RP0=1, select bank3
  1910  003D  1703               	bsf	3,6	;RP1=1, select bank3
  1911  003E  00ED               	movwf	(_E+3)^(0+384)
  1912  003F  1683               	bsf	3,5	;RP0=1, select bank1
  1913  0040  1303               	bcf	3,6	;RP1=0, select bank1
  1914  0041  082B               	movf	(?___xxtofl+2)^(0+128),w
  1915  0042  1683               	bsf	3,5	;RP0=1, select bank3
  1916  0043  1703               	bsf	3,6	;RP1=1, select bank3
  1917  0044  00EC               	movwf	(_E+2)^(0+384)
  1918  0045  1683               	bsf	3,5	;RP0=1, select bank1
  1919  0046  1303               	bcf	3,6	;RP1=0, select bank1
  1920  0047  082A               	movf	(?___xxtofl+1)^(0+128),w
  1921  0048  1683               	bsf	3,5	;RP0=1, select bank3
  1922  0049  1703               	bsf	3,6	;RP1=1, select bank3
  1923  004A  00EB               	movwf	(_E+1)^(0+384)
  1924  004B  1683               	bsf	3,5	;RP0=1, select bank1
  1925  004C  1303               	bcf	3,6	;RP1=0, select bank1
  1926  004D  0829               	movf	?___xxtofl^(0+128),w
  1927  004E  1683               	bsf	3,5	;RP0=1, select bank3
  1928  004F  1703               	bsf	3,6	;RP1=1, select bank3
  1929  0050  00EA               	movwf	_E^(0+384)
  1930                           
  1931                           ;DKND.c: 157:  a1 = Kp + (Ki*T)/2 + Kd/2;
  1932  0051  085D               	movf	(_Kp+3)^(0+384),w
  1933  0052  0093               	movwf	(___fladd@b+3)^(0+384)
  1934  0053  085C               	movf	(_Kp+2)^(0+384),w
  1935  0054  0092               	movwf	(___fladd@b+2)^(0+384)
  1936  0055  085B               	movf	(_Kp+1)^(0+384),w
  1937  0056  0091               	movwf	(___fladd@b+1)^(0+384)
  1938  0057  085A               	movf	_Kp^(0+384),w
  1939  0058  0090               	movwf	___fladd@b^(0+384)
  1940  0059  3040               	movlw	64
  1941  005A  1683               	bsf	3,5	;RP0=1, select bank1
  1942  005B  1303               	bcf	3,6	;RP1=0, select bank1
  1943  005C  00D4               	movwf	(___fldiv@a+3)^(0+128)
  1944  005D  3000               	movlw	0
  1945  005E  00D3               	movwf	(___fldiv@a+2)^(0+128)
  1946  005F  3000               	movlw	0
  1947  0060  00D2               	movwf	(___fldiv@a+1)^(0+128)
  1948  0061  3000               	movlw	0
  1949  0062  00D1               	movwf	___fldiv@a^(0+128)
  1950  0063  1683               	bsf	3,5	;RP0=1, select bank3
  1951  0064  1703               	bsf	3,6	;RP1=1, select bank3
  1952  0065  0861               	movf	(_T+3)^(0+384),w
  1953  0066  1683               	bsf	3,5	;RP0=1, select bank1
  1954  0067  1303               	bcf	3,6	;RP1=0, select bank1
  1955  0068  00BA               	movwf	(___flmul@b+3)^(0+128)
  1956  0069  1683               	bsf	3,5	;RP0=1, select bank3
  1957  006A  1703               	bsf	3,6	;RP1=1, select bank3
  1958  006B  0860               	movf	(_T+2)^(0+384),w
  1959  006C  1683               	bsf	3,5	;RP0=1, select bank1
  1960  006D  1303               	bcf	3,6	;RP1=0, select bank1
  1961  006E  00B9               	movwf	(___flmul@b+2)^(0+128)
  1962  006F  1683               	bsf	3,5	;RP0=1, select bank3
  1963  0070  1703               	bsf	3,6	;RP1=1, select bank3
  1964  0071  085F               	movf	(_T+1)^(0+384),w
  1965  0072  1683               	bsf	3,5	;RP0=1, select bank1
  1966  0073  1303               	bcf	3,6	;RP1=0, select bank1
  1967  0074  00B8               	movwf	(___flmul@b+1)^(0+128)
  1968  0075  1683               	bsf	3,5	;RP0=1, select bank3
  1969  0076  1703               	bsf	3,6	;RP1=1, select bank3
  1970  0077  085E               	movf	_T^(0+384),w
  1971  0078  1683               	bsf	3,5	;RP0=1, select bank1
  1972  0079  1303               	bcf	3,6	;RP1=0, select bank1
  1973  007A  00B7               	movwf	___flmul@b^(0+128)
  1974  007B  1683               	bsf	3,5	;RP0=1, select bank3
  1975  007C  1703               	bsf	3,6	;RP1=1, select bank3
  1976  007D  0859               	movf	(_Ki+3)^(0+384),w
  1977  007E  1683               	bsf	3,5	;RP0=1, select bank1
  1978  007F  1303               	bcf	3,6	;RP1=0, select bank1
  1979  0080  00BE               	movwf	(___flmul@a+3)^(0+128)
  1980  0081  1683               	bsf	3,5	;RP0=1, select bank3
  1981  0082  1703               	bsf	3,6	;RP1=1, select bank3
  1982  0083  0858               	movf	(_Ki+2)^(0+384),w
  1983  0084  1683               	bsf	3,5	;RP0=1, select bank1
  1984  0085  1303               	bcf	3,6	;RP1=0, select bank1
  1985  0086  00BD               	movwf	(___flmul@a+2)^(0+128)
  1986  0087  1683               	bsf	3,5	;RP0=1, select bank3
  1987  0088  1703               	bsf	3,6	;RP1=1, select bank3
  1988  0089  0857               	movf	(_Ki+1)^(0+384),w
  1989  008A  1683               	bsf	3,5	;RP0=1, select bank1
  1990  008B  1303               	bcf	3,6	;RP1=0, select bank1
  1991  008C  00BC               	movwf	(___flmul@a+1)^(0+128)
  1992  008D  1683               	bsf	3,5	;RP0=1, select bank3
  1993  008E  1703               	bsf	3,6	;RP1=1, select bank3
  1994  008F  0856               	movf	_Ki^(0+384),w
  1995  0090  1683               	bsf	3,5	;RP0=1, select bank1
  1996  0091  1303               	bcf	3,6	;RP1=0, select bank1
  1997  0092  00BB               	movwf	___flmul@a^(0+128)
  1998  0093  120A  118A  2472  120A  118A  	fcall	___flmul
  1999  0098  1683               	bsf	3,5	;RP0=1, select bank1
  2000  0099  1303               	bcf	3,6	;RP1=0, select bank1
  2001  009A  083A               	movf	(?___flmul+3)^(0+128),w
  2002  009B  00D8               	movwf	(___fldiv@b+3)^(0+128)
  2003  009C  0839               	movf	(?___flmul+2)^(0+128),w
  2004  009D  00D7               	movwf	(___fldiv@b+2)^(0+128)
  2005  009E  0838               	movf	(?___flmul+1)^(0+128),w
  2006  009F  00D6               	movwf	(___fldiv@b+1)^(0+128)
  2007  00A0  0837               	movf	?___flmul^(0+128),w
  2008  00A1  00D5               	movwf	___fldiv@b^(0+128)
  2009  00A2  160A  118A  265D  120A  118A  	fcall	___fldiv
  2010  00A7  1683               	bsf	3,5	;RP0=1, select bank1
  2011  00A8  1303               	bcf	3,6	;RP1=0, select bank1
  2012  00A9  0854               	movf	(?___fldiv+3)^(0+128),w
  2013  00AA  1683               	bsf	3,5	;RP0=1, select bank3
  2014  00AB  1703               	bsf	3,6	;RP1=1, select bank3
  2015  00AC  0097               	movwf	(___fladd@a+3)^(0+384)
  2016  00AD  1683               	bsf	3,5	;RP0=1, select bank1
  2017  00AE  1303               	bcf	3,6	;RP1=0, select bank1
  2018  00AF  0853               	movf	(?___fldiv+2)^(0+128),w
  2019  00B0  1683               	bsf	3,5	;RP0=1, select bank3
  2020  00B1  1703               	bsf	3,6	;RP1=1, select bank3
  2021  00B2  0096               	movwf	(___fladd@a+2)^(0+384)
  2022  00B3  1683               	bsf	3,5	;RP0=1, select bank1
  2023  00B4  1303               	bcf	3,6	;RP1=0, select bank1
  2024  00B5  0852               	movf	(?___fldiv+1)^(0+128),w
  2025  00B6  1683               	bsf	3,5	;RP0=1, select bank3
  2026  00B7  1703               	bsf	3,6	;RP1=1, select bank3
  2027  00B8  0095               	movwf	(___fladd@a+1)^(0+384)
  2028  00B9  1683               	bsf	3,5	;RP0=1, select bank1
  2029  00BA  1303               	bcf	3,6	;RP1=0, select bank1
  2030  00BB  0851               	movf	?___fldiv^(0+128),w
  2031  00BC  1683               	bsf	3,5	;RP0=1, select bank3
  2032  00BD  1703               	bsf	3,6	;RP1=1, select bank3
  2033  00BE  0094               	movwf	___fladd@a^(0+384)
  2034  00BF  120A  158A  2516  120A  118A  	fcall	___fladd
  2035  00C4  1683               	bsf	3,5	;RP0=1, select bank3
  2036  00C5  1703               	bsf	3,6	;RP1=1, select bank3
  2037  00C6  0813               	movf	(?___fladd+3)^(0+384),w
  2038  00C7  00C2               	movwf	(_PID_Init$811+3)^(0+384)
  2039  00C8  0812               	movf	(?___fladd+2)^(0+384),w
  2040  00C9  00C1               	movwf	(_PID_Init$811+2)^(0+384)
  2041  00CA  0811               	movf	(?___fladd+1)^(0+384),w
  2042  00CB  00C0               	movwf	(_PID_Init$811+1)^(0+384)
  2043  00CC  0810               	movf	?___fladd^(0+384),w
  2044  00CD  00BF               	movwf	_PID_Init$811^(0+384)
  2045                           
  2046                           ;DKND.c: 157:  a1 = Kp + (Ki*T)/2 + Kd/2;
  2047  00CE  3040               	movlw	64
  2048  00CF  1683               	bsf	3,5	;RP0=1, select bank1
  2049  00D0  1303               	bcf	3,6	;RP1=0, select bank1
  2050  00D1  00D4               	movwf	(___fldiv@a+3)^(0+128)
  2051  00D2  3000               	movlw	0
  2052  00D3  00D3               	movwf	(___fldiv@a+2)^(0+128)
  2053  00D4  3000               	movlw	0
  2054  00D5  00D2               	movwf	(___fldiv@a+1)^(0+128)
  2055  00D6  3000               	movlw	0
  2056  00D7  00D1               	movwf	___fldiv@a^(0+128)
  2057  00D8  1683               	bsf	3,5	;RP0=1, select bank3
  2058  00D9  1703               	bsf	3,6	;RP1=1, select bank3
  2059  00DA  0855               	movf	(_Kd+3)^(0+384),w
  2060  00DB  1683               	bsf	3,5	;RP0=1, select bank1
  2061  00DC  1303               	bcf	3,6	;RP1=0, select bank1
  2062  00DD  00D8               	movwf	(___fldiv@b+3)^(0+128)
  2063  00DE  1683               	bsf	3,5	;RP0=1, select bank3
  2064  00DF  1703               	bsf	3,6	;RP1=1, select bank3
  2065  00E0  0854               	movf	(_Kd+2)^(0+384),w
  2066  00E1  1683               	bsf	3,5	;RP0=1, select bank1
  2067  00E2  1303               	bcf	3,6	;RP1=0, select bank1
  2068  00E3  00D7               	movwf	(___fldiv@b+2)^(0+128)
  2069  00E4  1683               	bsf	3,5	;RP0=1, select bank3
  2070  00E5  1703               	bsf	3,6	;RP1=1, select bank3
  2071  00E6  0853               	movf	(_Kd+1)^(0+384),w
  2072  00E7  1683               	bsf	3,5	;RP0=1, select bank1
  2073  00E8  1303               	bcf	3,6	;RP1=0, select bank1
  2074  00E9  00D6               	movwf	(___fldiv@b+1)^(0+128)
  2075  00EA  1683               	bsf	3,5	;RP0=1, select bank3
  2076  00EB  1703               	bsf	3,6	;RP1=1, select bank3
  2077  00EC  0852               	movf	_Kd^(0+384),w
  2078  00ED  1683               	bsf	3,5	;RP0=1, select bank1
  2079  00EE  1303               	bcf	3,6	;RP1=0, select bank1
  2080  00EF  00D5               	movwf	___fldiv@b^(0+128)
  2081  00F0  160A  118A  265D  120A  118A  	fcall	___fldiv
  2082  00F5  1683               	bsf	3,5	;RP0=1, select bank1
  2083  00F6  1303               	bcf	3,6	;RP1=0, select bank1
  2084  00F7  0854               	movf	(?___fldiv+3)^(0+128),w
  2085  00F8  1683               	bsf	3,5	;RP0=1, select bank3
  2086  00F9  1703               	bsf	3,6	;RP1=1, select bank3
  2087  00FA  0093               	movwf	(___fladd@b+3)^(0+384)
  2088  00FB  1683               	bsf	3,5	;RP0=1, select bank1
  2089  00FC  1303               	bcf	3,6	;RP1=0, select bank1
  2090  00FD  0853               	movf	(?___fldiv+2)^(0+128),w
  2091  00FE  1683               	bsf	3,5	;RP0=1, select bank3
  2092  00FF  1703               	bsf	3,6	;RP1=1, select bank3
  2093  0100  0092               	movwf	(___fladd@b+2)^(0+384)
  2094  0101  1683               	bsf	3,5	;RP0=1, select bank1
  2095  0102  1303               	bcf	3,6	;RP1=0, select bank1
  2096  0103  0852               	movf	(?___fldiv+1)^(0+128),w
  2097  0104  1683               	bsf	3,5	;RP0=1, select bank3
  2098  0105  1703               	bsf	3,6	;RP1=1, select bank3
  2099  0106  0091               	movwf	(___fladd@b+1)^(0+384)
  2100  0107  1683               	bsf	3,5	;RP0=1, select bank1
  2101  0108  1303               	bcf	3,6	;RP1=0, select bank1
  2102  0109  0851               	movf	?___fldiv^(0+128),w
  2103  010A  1683               	bsf	3,5	;RP0=1, select bank3
  2104  010B  1703               	bsf	3,6	;RP1=1, select bank3
  2105  010C  0090               	movwf	___fladd@b^(0+384)
  2106  010D  0842               	movf	(_PID_Init$811+3)^(0+384),w
  2107  010E  0097               	movwf	(___fladd@a+3)^(0+384)
  2108  010F  0841               	movf	(_PID_Init$811+2)^(0+384),w
  2109  0110  0096               	movwf	(___fladd@a+2)^(0+384)
  2110  0111  0840               	movf	(_PID_Init$811+1)^(0+384),w
  2111  0112  0095               	movwf	(___fladd@a+1)^(0+384)
  2112  0113  083F               	movf	_PID_Init$811^(0+384),w
  2113  0114  0094               	movwf	___fladd@a^(0+384)
  2114  0115  120A  158A  2516  120A  118A  	fcall	___fladd
  2115  011A  1683               	bsf	3,5	;RP0=1, select bank3
  2116  011B  1703               	bsf	3,6	;RP1=1, select bank3
  2117  011C  0813               	movf	(?___fladd+3)^(0+384),w
  2118  011D  1283               	bcf	3,5	;RP0=0, select bank0
  2119  011E  1303               	bcf	3,6	;RP1=0, select bank0
  2120  011F  00DF               	movwf	_a1+3
  2121  0120  1683               	bsf	3,5	;RP0=1, select bank3
  2122  0121  1703               	bsf	3,6	;RP1=1, select bank3
  2123  0122  0812               	movf	(?___fladd+2)^(0+384),w
  2124  0123  1283               	bcf	3,5	;RP0=0, select bank0
  2125  0124  1303               	bcf	3,6	;RP1=0, select bank0
  2126  0125  00DE               	movwf	_a1+2
  2127  0126  1683               	bsf	3,5	;RP0=1, select bank3
  2128  0127  1703               	bsf	3,6	;RP1=1, select bank3
  2129  0128  0811               	movf	(?___fladd+1)^(0+384),w
  2130  0129  1283               	bcf	3,5	;RP0=0, select bank0
  2131  012A  1303               	bcf	3,6	;RP1=0, select bank0
  2132  012B  00DD               	movwf	_a1+1
  2133  012C  1683               	bsf	3,5	;RP0=1, select bank3
  2134  012D  1703               	bsf	3,6	;RP1=1, select bank3
  2135  012E  0810               	movf	?___fladd^(0+384),w
  2136  012F  1283               	bcf	3,5	;RP0=0, select bank0
  2137  0130  1303               	bcf	3,6	;RP1=0, select bank0
  2138  0131  00DC               	movwf	_a1
  2139                           
  2140                           ;DKND.c: 158:  a2 = -Kp + (Ki*T)/2 - 2*Kd/T;
  2141  0132  1683               	bsf	3,5	;RP0=1, select bank3
  2142  0133  1703               	bsf	3,6	;RP1=1, select bank3
  2143  0134  085D               	movf	(_Kp+3)^(0+384),w
  2144  0135  00A3               	movwf	(___flsub@a+3)^(0+384)
  2145  0136  085C               	movf	(_Kp+2)^(0+384),w
  2146  0137  00A2               	movwf	(___flsub@a+2)^(0+384)
  2147  0138  085B               	movf	(_Kp+1)^(0+384),w
  2148  0139  00A1               	movwf	(___flsub@a+1)^(0+384)
  2149  013A  085A               	movf	_Kp^(0+384),w
  2150  013B  00A0               	movwf	___flsub@a^(0+384)
  2151  013C  3040               	movlw	64
  2152  013D  1683               	bsf	3,5	;RP0=1, select bank1
  2153  013E  1303               	bcf	3,6	;RP1=0, select bank1
  2154  013F  00D4               	movwf	(___fldiv@a+3)^(0+128)
  2155  0140  3000               	movlw	0
  2156  0141  00D3               	movwf	(___fldiv@a+2)^(0+128)
  2157  0142  3000               	movlw	0
  2158  0143  00D2               	movwf	(___fldiv@a+1)^(0+128)
  2159  0144  3000               	movlw	0
  2160  0145  00D1               	movwf	___fldiv@a^(0+128)
  2161  0146  1683               	bsf	3,5	;RP0=1, select bank3
  2162  0147  1703               	bsf	3,6	;RP1=1, select bank3
  2163  0148  0861               	movf	(_T+3)^(0+384),w
  2164  0149  1683               	bsf	3,5	;RP0=1, select bank1
  2165  014A  1303               	bcf	3,6	;RP1=0, select bank1
  2166  014B  00BA               	movwf	(___flmul@b+3)^(0+128)
  2167  014C  1683               	bsf	3,5	;RP0=1, select bank3
  2168  014D  1703               	bsf	3,6	;RP1=1, select bank3
  2169  014E  0860               	movf	(_T+2)^(0+384),w
  2170  014F  1683               	bsf	3,5	;RP0=1, select bank1
  2171  0150  1303               	bcf	3,6	;RP1=0, select bank1
  2172  0151  00B9               	movwf	(___flmul@b+2)^(0+128)
  2173  0152  1683               	bsf	3,5	;RP0=1, select bank3
  2174  0153  1703               	bsf	3,6	;RP1=1, select bank3
  2175  0154  085F               	movf	(_T+1)^(0+384),w
  2176  0155  1683               	bsf	3,5	;RP0=1, select bank1
  2177  0156  1303               	bcf	3,6	;RP1=0, select bank1
  2178  0157  00B8               	movwf	(___flmul@b+1)^(0+128)
  2179  0158  1683               	bsf	3,5	;RP0=1, select bank3
  2180  0159  1703               	bsf	3,6	;RP1=1, select bank3
  2181  015A  085E               	movf	_T^(0+384),w
  2182  015B  1683               	bsf	3,5	;RP0=1, select bank1
  2183  015C  1303               	bcf	3,6	;RP1=0, select bank1
  2184  015D  00B7               	movwf	___flmul@b^(0+128)
  2185  015E  1683               	bsf	3,5	;RP0=1, select bank3
  2186  015F  1703               	bsf	3,6	;RP1=1, select bank3
  2187  0160  0859               	movf	(_Ki+3)^(0+384),w
  2188  0161  1683               	bsf	3,5	;RP0=1, select bank1
  2189  0162  1303               	bcf	3,6	;RP1=0, select bank1
  2190  0163  00BE               	movwf	(___flmul@a+3)^(0+128)
  2191  0164  1683               	bsf	3,5	;RP0=1, select bank3
  2192  0165  1703               	bsf	3,6	;RP1=1, select bank3
  2193  0166  0858               	movf	(_Ki+2)^(0+384),w
  2194  0167  1683               	bsf	3,5	;RP0=1, select bank1
  2195  0168  1303               	bcf	3,6	;RP1=0, select bank1
  2196  0169  00BD               	movwf	(___flmul@a+2)^(0+128)
  2197  016A  1683               	bsf	3,5	;RP0=1, select bank3
  2198  016B  1703               	bsf	3,6	;RP1=1, select bank3
  2199  016C  0857               	movf	(_Ki+1)^(0+384),w
  2200  016D  1683               	bsf	3,5	;RP0=1, select bank1
  2201  016E  1303               	bcf	3,6	;RP1=0, select bank1
  2202  016F  00BC               	movwf	(___flmul@a+1)^(0+128)
  2203  0170  1683               	bsf	3,5	;RP0=1, select bank3
  2204  0171  1703               	bsf	3,6	;RP1=1, select bank3
  2205  0172  0856               	movf	_Ki^(0+384),w
  2206  0173  1683               	bsf	3,5	;RP0=1, select bank1
  2207  0174  1303               	bcf	3,6	;RP1=0, select bank1
  2208  0175  00BB               	movwf	___flmul@a^(0+128)
  2209  0176  120A  118A  2472  120A  118A  	fcall	___flmul
  2210  017B  1683               	bsf	3,5	;RP0=1, select bank1
  2211  017C  1303               	bcf	3,6	;RP1=0, select bank1
  2212  017D  083A               	movf	(?___flmul+3)^(0+128),w
  2213  017E  00D8               	movwf	(___fldiv@b+3)^(0+128)
  2214  017F  0839               	movf	(?___flmul+2)^(0+128),w
  2215  0180  00D7               	movwf	(___fldiv@b+2)^(0+128)
  2216  0181  0838               	movf	(?___flmul+1)^(0+128),w
  2217  0182  00D6               	movwf	(___fldiv@b+1)^(0+128)
  2218  0183  0837               	movf	?___flmul^(0+128),w
  2219  0184  00D5               	movwf	___fldiv@b^(0+128)
  2220  0185  160A  118A  265D  120A  118A  	fcall	___fldiv
  2221  018A  1683               	bsf	3,5	;RP0=1, select bank1
  2222  018B  1303               	bcf	3,6	;RP1=0, select bank1
  2223  018C  0854               	movf	(?___fldiv+3)^(0+128),w
  2224  018D  1683               	bsf	3,5	;RP0=1, select bank3
  2225  018E  1703               	bsf	3,6	;RP1=1, select bank3
  2226  018F  00A7               	movwf	(___flsub@b+3)^(0+384)
  2227  0190  1683               	bsf	3,5	;RP0=1, select bank1
  2228  0191  1303               	bcf	3,6	;RP1=0, select bank1
  2229  0192  0853               	movf	(?___fldiv+2)^(0+128),w
  2230  0193  1683               	bsf	3,5	;RP0=1, select bank3
  2231  0194  1703               	bsf	3,6	;RP1=1, select bank3
  2232  0195  00A6               	movwf	(___flsub@b+2)^(0+384)
  2233  0196  1683               	bsf	3,5	;RP0=1, select bank1
  2234  0197  1303               	bcf	3,6	;RP1=0, select bank1
  2235  0198  0852               	movf	(?___fldiv+1)^(0+128),w
  2236  0199  1683               	bsf	3,5	;RP0=1, select bank3
  2237  019A  1703               	bsf	3,6	;RP1=1, select bank3
  2238  019B  00A5               	movwf	(___flsub@b+1)^(0+384)
  2239  019C  1683               	bsf	3,5	;RP0=1, select bank1
  2240  019D  1303               	bcf	3,6	;RP1=0, select bank1
  2241  019E  0851               	movf	?___fldiv^(0+128),w
  2242  019F  1683               	bsf	3,5	;RP0=1, select bank3
  2243  01A0  1703               	bsf	3,6	;RP1=1, select bank3
  2244  01A1  00A4               	movwf	___flsub@b^(0+384)
  2245  01A2  160A  158A  27DE  120A  118A  	fcall	___flsub
  2246  01A7  1683               	bsf	3,5	;RP0=1, select bank3
  2247  01A8  1703               	bsf	3,6	;RP1=1, select bank3
  2248  01A9  0823               	movf	(?___flsub+3)^(0+384),w
  2249  01AA  00BA               	movwf	(_PID_Init$812+3)^(0+384)
  2250  01AB  0822               	movf	(?___flsub+2)^(0+384),w
  2251  01AC  00B9               	movwf	(_PID_Init$812+2)^(0+384)
  2252  01AD  0821               	movf	(?___flsub+1)^(0+384),w
  2253  01AE  00B8               	movwf	(_PID_Init$812+1)^(0+384)
  2254  01AF  0820               	movf	?___flsub^(0+384),w
  2255  01B0  00B7               	movwf	_PID_Init$812^(0+384)
  2256                           
  2257                           ;DKND.c: 158:  a2 = -Kp + (Ki*T)/2 - 2*Kd/T;
  2258  01B1  0861               	movf	(_T+3)^(0+384),w
  2259  01B2  1683               	bsf	3,5	;RP0=1, select bank1
  2260  01B3  1303               	bcf	3,6	;RP1=0, select bank1
  2261  01B4  00D4               	movwf	(___fldiv@a+3)^(0+128)
  2262  01B5  1683               	bsf	3,5	;RP0=1, select bank3
  2263  01B6  1703               	bsf	3,6	;RP1=1, select bank3
  2264  01B7  0860               	movf	(_T+2)^(0+384),w
  2265  01B8  1683               	bsf	3,5	;RP0=1, select bank1
  2266  01B9  1303               	bcf	3,6	;RP1=0, select bank1
  2267  01BA  00D3               	movwf	(___fldiv@a+2)^(0+128)
  2268  01BB  1683               	bsf	3,5	;RP0=1, select bank3
  2269  01BC  1703               	bsf	3,6	;RP1=1, select bank3
  2270  01BD  085F               	movf	(_T+1)^(0+384),w
  2271  01BE  1683               	bsf	3,5	;RP0=1, select bank1
  2272  01BF  1303               	bcf	3,6	;RP1=0, select bank1
  2273  01C0  00D2               	movwf	(___fldiv@a+1)^(0+128)
  2274  01C1  1683               	bsf	3,5	;RP0=1, select bank3
  2275  01C2  1703               	bsf	3,6	;RP1=1, select bank3
  2276  01C3  085E               	movf	_T^(0+384),w
  2277  01C4  1683               	bsf	3,5	;RP0=1, select bank1
  2278  01C5  1303               	bcf	3,6	;RP1=0, select bank1
  2279  01C6  00D1               	movwf	___fldiv@a^(0+128)
  2280  01C7  3040               	movlw	64
  2281  01C8  00BA               	movwf	(___flmul@b+3)^(0+128)
  2282  01C9  3000               	movlw	0
  2283  01CA  00B9               	movwf	(___flmul@b+2)^(0+128)
  2284  01CB  3000               	movlw	0
  2285  01CC  00B8               	movwf	(___flmul@b+1)^(0+128)
  2286  01CD  3000               	movlw	0
  2287  01CE  00B7               	movwf	___flmul@b^(0+128)
  2288  01CF  1683               	bsf	3,5	;RP0=1, select bank3
  2289  01D0  1703               	bsf	3,6	;RP1=1, select bank3
  2290  01D1  0855               	movf	(_Kd+3)^(0+384),w
  2291  01D2  1683               	bsf	3,5	;RP0=1, select bank1
  2292  01D3  1303               	bcf	3,6	;RP1=0, select bank1
  2293  01D4  00BE               	movwf	(___flmul@a+3)^(0+128)
  2294  01D5  1683               	bsf	3,5	;RP0=1, select bank3
  2295  01D6  1703               	bsf	3,6	;RP1=1, select bank3
  2296  01D7  0854               	movf	(_Kd+2)^(0+384),w
  2297  01D8  1683               	bsf	3,5	;RP0=1, select bank1
  2298  01D9  1303               	bcf	3,6	;RP1=0, select bank1
  2299  01DA  00BD               	movwf	(___flmul@a+2)^(0+128)
  2300  01DB  1683               	bsf	3,5	;RP0=1, select bank3
  2301  01DC  1703               	bsf	3,6	;RP1=1, select bank3
  2302  01DD  0853               	movf	(_Kd+1)^(0+384),w
  2303  01DE  1683               	bsf	3,5	;RP0=1, select bank1
  2304  01DF  1303               	bcf	3,6	;RP1=0, select bank1
  2305  01E0  00BC               	movwf	(___flmul@a+1)^(0+128)
  2306  01E1  1683               	bsf	3,5	;RP0=1, select bank3
  2307  01E2  1703               	bsf	3,6	;RP1=1, select bank3
  2308  01E3  0852               	movf	_Kd^(0+384),w
  2309  01E4  1683               	bsf	3,5	;RP0=1, select bank1
  2310  01E5  1303               	bcf	3,6	;RP1=0, select bank1
  2311  01E6  00BB               	movwf	___flmul@a^(0+128)
  2312  01E7  120A  118A  2472  120A  118A  	fcall	___flmul
  2313  01EC  1683               	bsf	3,5	;RP0=1, select bank1
  2314  01ED  1303               	bcf	3,6	;RP1=0, select bank1
  2315  01EE  083A               	movf	(?___flmul+3)^(0+128),w
  2316  01EF  00D8               	movwf	(___fldiv@b+3)^(0+128)
  2317  01F0  0839               	movf	(?___flmul+2)^(0+128),w
  2318  01F1  00D7               	movwf	(___fldiv@b+2)^(0+128)
  2319  01F2  0838               	movf	(?___flmul+1)^(0+128),w
  2320  01F3  00D6               	movwf	(___fldiv@b+1)^(0+128)
  2321  01F4  0837               	movf	?___flmul^(0+128),w
  2322  01F5  00D5               	movwf	___fldiv@b^(0+128)
  2323  01F6  160A  118A  265D  120A  118A  	fcall	___fldiv
  2324  01FB  1683               	bsf	3,5	;RP0=1, select bank1
  2325  01FC  1303               	bcf	3,6	;RP1=0, select bank1
  2326  01FD  0854               	movf	(?___fldiv+3)^(0+128),w
  2327  01FE  1683               	bsf	3,5	;RP0=1, select bank3
  2328  01FF  1703               	bsf	3,6	;RP1=1, select bank3
  2329  0200  00A3               	movwf	(___flsub@a+3)^(0+384)
  2330  0201  1683               	bsf	3,5	;RP0=1, select bank1
  2331  0202  1303               	bcf	3,6	;RP1=0, select bank1
  2332  0203  0853               	movf	(?___fldiv+2)^(0+128),w
  2333  0204  1683               	bsf	3,5	;RP0=1, select bank3
  2334  0205  1703               	bsf	3,6	;RP1=1, select bank3
  2335  0206  00A2               	movwf	(___flsub@a+2)^(0+384)
  2336  0207  1683               	bsf	3,5	;RP0=1, select bank1
  2337  0208  1303               	bcf	3,6	;RP1=0, select bank1
  2338  0209  0852               	movf	(?___fldiv+1)^(0+128),w
  2339  020A  1683               	bsf	3,5	;RP0=1, select bank3
  2340  020B  1703               	bsf	3,6	;RP1=1, select bank3
  2341  020C  00A1               	movwf	(___flsub@a+1)^(0+384)
  2342  020D  1683               	bsf	3,5	;RP0=1, select bank1
  2343  020E  1303               	bcf	3,6	;RP1=0, select bank1
  2344  020F  0851               	movf	?___fldiv^(0+128),w
  2345  0210  1683               	bsf	3,5	;RP0=1, select bank3
  2346  0211  1703               	bsf	3,6	;RP1=1, select bank3
  2347  0212  00A0               	movwf	___flsub@a^(0+384)
  2348  0213  083A               	movf	(_PID_Init$812+3)^(0+384),w
  2349  0214  00A7               	movwf	(___flsub@b+3)^(0+384)
  2350  0215  0839               	movf	(_PID_Init$812+2)^(0+384),w
  2351  0216  00A6               	movwf	(___flsub@b+2)^(0+384)
  2352  0217  0838               	movf	(_PID_Init$812+1)^(0+384),w
  2353  0218  00A5               	movwf	(___flsub@b+1)^(0+384)
  2354  0219  0837               	movf	_PID_Init$812^(0+384),w
  2355  021A  00A4               	movwf	___flsub@b^(0+384)
  2356  021B  160A  158A  27DE  120A  118A  	fcall	___flsub
  2357  0220  1683               	bsf	3,5	;RP0=1, select bank3
  2358  0221  1703               	bsf	3,6	;RP1=1, select bank3
  2359  0222  0823               	movf	(?___flsub+3)^(0+384),w
  2360  0223  1283               	bcf	3,5	;RP0=0, select bank0
  2361  0224  1303               	bcf	3,6	;RP1=0, select bank0
  2362  0225  00DB               	movwf	_a2+3
  2363  0226  1683               	bsf	3,5	;RP0=1, select bank3
  2364  0227  1703               	bsf	3,6	;RP1=1, select bank3
  2365  0228  0822               	movf	(?___flsub+2)^(0+384),w
  2366  0229  1283               	bcf	3,5	;RP0=0, select bank0
  2367  022A  1303               	bcf	3,6	;RP1=0, select bank0
  2368  022B  00DA               	movwf	_a2+2
  2369  022C  1683               	bsf	3,5	;RP0=1, select bank3
  2370  022D  1703               	bsf	3,6	;RP1=1, select bank3
  2371  022E  0821               	movf	(?___flsub+1)^(0+384),w
  2372  022F  1283               	bcf	3,5	;RP0=0, select bank0
  2373  0230  1303               	bcf	3,6	;RP1=0, select bank0
  2374  0231  00D9               	movwf	_a2+1
  2375  0232  1683               	bsf	3,5	;RP0=1, select bank3
  2376  0233  1703               	bsf	3,6	;RP1=1, select bank3
  2377  0234  0820               	movf	?___flsub^(0+384),w
  2378  0235  1283               	bcf	3,5	;RP0=0, select bank0
  2379  0236  1303               	bcf	3,6	;RP1=0, select bank0
  2380  0237  00D8               	movwf	_a2
  2381                           
  2382                           ;DKND.c: 159:  a3 = Kd/T;
  2383  0238  1683               	bsf	3,5	;RP0=1, select bank3
  2384  0239  1703               	bsf	3,6	;RP1=1, select bank3
  2385  023A  0861               	movf	(_T+3)^(0+384),w
  2386  023B  1683               	bsf	3,5	;RP0=1, select bank1
  2387  023C  1303               	bcf	3,6	;RP1=0, select bank1
  2388  023D  00D4               	movwf	(___fldiv@a+3)^(0+128)
  2389  023E  1683               	bsf	3,5	;RP0=1, select bank3
  2390  023F  1703               	bsf	3,6	;RP1=1, select bank3
  2391  0240  0860               	movf	(_T+2)^(0+384),w
  2392  0241  1683               	bsf	3,5	;RP0=1, select bank1
  2393  0242  1303               	bcf	3,6	;RP1=0, select bank1
  2394  0243  00D3               	movwf	(___fldiv@a+2)^(0+128)
  2395  0244  1683               	bsf	3,5	;RP0=1, select bank3
  2396  0245  1703               	bsf	3,6	;RP1=1, select bank3
  2397  0246  085F               	movf	(_T+1)^(0+384),w
  2398  0247  1683               	bsf	3,5	;RP0=1, select bank1
  2399  0248  1303               	bcf	3,6	;RP1=0, select bank1
  2400  0249  00D2               	movwf	(___fldiv@a+1)^(0+128)
  2401  024A  1683               	bsf	3,5	;RP0=1, select bank3
  2402  024B  1703               	bsf	3,6	;RP1=1, select bank3
  2403  024C  085E               	movf	_T^(0+384),w
  2404  024D  1683               	bsf	3,5	;RP0=1, select bank1
  2405  024E  1303               	bcf	3,6	;RP1=0, select bank1
  2406  024F  00D1               	movwf	___fldiv@a^(0+128)
  2407  0250  1683               	bsf	3,5	;RP0=1, select bank3
  2408  0251  1703               	bsf	3,6	;RP1=1, select bank3
  2409  0252  0855               	movf	(_Kd+3)^(0+384),w
  2410  0253  1683               	bsf	3,5	;RP0=1, select bank1
  2411  0254  1303               	bcf	3,6	;RP1=0, select bank1
  2412  0255  00D8               	movwf	(___fldiv@b+3)^(0+128)
  2413  0256  1683               	bsf	3,5	;RP0=1, select bank3
  2414  0257  1703               	bsf	3,6	;RP1=1, select bank3
  2415  0258  0854               	movf	(_Kd+2)^(0+384),w
  2416  0259  1683               	bsf	3,5	;RP0=1, select bank1
  2417  025A  1303               	bcf	3,6	;RP1=0, select bank1
  2418  025B  00D7               	movwf	(___fldiv@b+2)^(0+128)
  2419  025C  1683               	bsf	3,5	;RP0=1, select bank3
  2420  025D  1703               	bsf	3,6	;RP1=1, select bank3
  2421  025E  0853               	movf	(_Kd+1)^(0+384),w
  2422  025F  1683               	bsf	3,5	;RP0=1, select bank1
  2423  0260  1303               	bcf	3,6	;RP1=0, select bank1
  2424  0261  00D6               	movwf	(___fldiv@b+1)^(0+128)
  2425  0262  1683               	bsf	3,5	;RP0=1, select bank3
  2426  0263  1703               	bsf	3,6	;RP1=1, select bank3
  2427  0264  0852               	movf	_Kd^(0+384),w
  2428  0265  1683               	bsf	3,5	;RP0=1, select bank1
  2429  0266  1303               	bcf	3,6	;RP1=0, select bank1
  2430  0267  00D5               	movwf	___fldiv@b^(0+128)
  2431  0268  160A  118A  265D  120A  118A  	fcall	___fldiv
  2432  026D  1683               	bsf	3,5	;RP0=1, select bank1
  2433  026E  1303               	bcf	3,6	;RP1=0, select bank1
  2434  026F  0854               	movf	(?___fldiv+3)^(0+128),w
  2435  0270  1283               	bcf	3,5	;RP0=0, select bank0
  2436  0271  1303               	bcf	3,6	;RP1=0, select bank0
  2437  0272  00D7               	movwf	_a3+3
  2438  0273  1683               	bsf	3,5	;RP0=1, select bank1
  2439  0274  1303               	bcf	3,6	;RP1=0, select bank1
  2440  0275  0853               	movf	(?___fldiv+2)^(0+128),w
  2441  0276  1283               	bcf	3,5	;RP0=0, select bank0
  2442  0277  1303               	bcf	3,6	;RP1=0, select bank0
  2443  0278  00D6               	movwf	_a3+2
  2444  0279  1683               	bsf	3,5	;RP0=1, select bank1
  2445  027A  1303               	bcf	3,6	;RP1=0, select bank1
  2446  027B  0852               	movf	(?___fldiv+1)^(0+128),w
  2447  027C  1283               	bcf	3,5	;RP0=0, select bank0
  2448  027D  1303               	bcf	3,6	;RP1=0, select bank0
  2449  027E  00D5               	movwf	_a3+1
  2450  027F  1683               	bsf	3,5	;RP0=1, select bank1
  2451  0280  1303               	bcf	3,6	;RP1=0, select bank1
  2452  0281  0851               	movf	?___fldiv^(0+128),w
  2453  0282  1283               	bcf	3,5	;RP0=0, select bank0
  2454  0283  1303               	bcf	3,6	;RP1=0, select bank0
  2455  0284  00D4               	movwf	_a3
  2456                           
  2457                           ;DKND.c: 160:  out = pre_out + E*a1 + E1*a2 + E2*a3;
  2458  0285  0853               	movf	_pre_out+3,w
  2459  0286  1683               	bsf	3,5	;RP0=1, select bank3
  2460  0287  1703               	bsf	3,6	;RP1=1, select bank3
  2461  0288  0093               	movwf	(___fladd@b+3)^(0+384)
  2462  0289  1283               	bcf	3,5	;RP0=0, select bank0
  2463  028A  1303               	bcf	3,6	;RP1=0, select bank0
  2464  028B  0852               	movf	_pre_out+2,w
  2465  028C  1683               	bsf	3,5	;RP0=1, select bank3
  2466  028D  1703               	bsf	3,6	;RP1=1, select bank3
  2467  028E  0092               	movwf	(___fladd@b+2)^(0+384)
  2468  028F  1283               	bcf	3,5	;RP0=0, select bank0
  2469  0290  1303               	bcf	3,6	;RP1=0, select bank0
  2470  0291  0851               	movf	_pre_out+1,w
  2471  0292  1683               	bsf	3,5	;RP0=1, select bank3
  2472  0293  1703               	bsf	3,6	;RP1=1, select bank3
  2473  0294  0091               	movwf	(___fladd@b+1)^(0+384)
  2474  0295  1283               	bcf	3,5	;RP0=0, select bank0
  2475  0296  1303               	bcf	3,6	;RP1=0, select bank0
  2476  0297  0850               	movf	_pre_out,w
  2477  0298  1683               	bsf	3,5	;RP0=1, select bank3
  2478  0299  1703               	bsf	3,6	;RP1=1, select bank3
  2479  029A  0090               	movwf	___fladd@b^(0+384)
  2480  029B  1283               	bcf	3,5	;RP0=0, select bank0
  2481  029C  1303               	bcf	3,6	;RP1=0, select bank0
  2482  029D  085F               	movf	_a1+3,w
  2483  029E  1683               	bsf	3,5	;RP0=1, select bank1
  2484  029F  1303               	bcf	3,6	;RP1=0, select bank1
  2485  02A0  00BA               	movwf	(___flmul@b+3)^(0+128)
  2486  02A1  1283               	bcf	3,5	;RP0=0, select bank0
  2487  02A2  1303               	bcf	3,6	;RP1=0, select bank0
  2488  02A3  085E               	movf	_a1+2,w
  2489  02A4  1683               	bsf	3,5	;RP0=1, select bank1
  2490  02A5  1303               	bcf	3,6	;RP1=0, select bank1
  2491  02A6  00B9               	movwf	(___flmul@b+2)^(0+128)
  2492  02A7  1283               	bcf	3,5	;RP0=0, select bank0
  2493  02A8  1303               	bcf	3,6	;RP1=0, select bank0
  2494  02A9  085D               	movf	_a1+1,w
  2495  02AA  1683               	bsf	3,5	;RP0=1, select bank1
  2496  02AB  1303               	bcf	3,6	;RP1=0, select bank1
  2497  02AC  00B8               	movwf	(___flmul@b+1)^(0+128)
  2498  02AD  1283               	bcf	3,5	;RP0=0, select bank0
  2499  02AE  1303               	bcf	3,6	;RP1=0, select bank0
  2500  02AF  085C               	movf	_a1,w
  2501  02B0  1683               	bsf	3,5	;RP0=1, select bank1
  2502  02B1  1303               	bcf	3,6	;RP1=0, select bank1
  2503  02B2  00B7               	movwf	___flmul@b^(0+128)
  2504  02B3  1683               	bsf	3,5	;RP0=1, select bank3
  2505  02B4  1703               	bsf	3,6	;RP1=1, select bank3
  2506  02B5  086D               	movf	(_E+3)^(0+384),w
  2507  02B6  1683               	bsf	3,5	;RP0=1, select bank1
  2508  02B7  1303               	bcf	3,6	;RP1=0, select bank1
  2509  02B8  00BE               	movwf	(___flmul@a+3)^(0+128)
  2510  02B9  1683               	bsf	3,5	;RP0=1, select bank3
  2511  02BA  1703               	bsf	3,6	;RP1=1, select bank3
  2512  02BB  086C               	movf	(_E+2)^(0+384),w
  2513  02BC  1683               	bsf	3,5	;RP0=1, select bank1
  2514  02BD  1303               	bcf	3,6	;RP1=0, select bank1
  2515  02BE  00BD               	movwf	(___flmul@a+2)^(0+128)
  2516  02BF  1683               	bsf	3,5	;RP0=1, select bank3
  2517  02C0  1703               	bsf	3,6	;RP1=1, select bank3
  2518  02C1  086B               	movf	(_E+1)^(0+384),w
  2519  02C2  1683               	bsf	3,5	;RP0=1, select bank1
  2520  02C3  1303               	bcf	3,6	;RP1=0, select bank1
  2521  02C4  00BC               	movwf	(___flmul@a+1)^(0+128)
  2522  02C5  1683               	bsf	3,5	;RP0=1, select bank3
  2523  02C6  1703               	bsf	3,6	;RP1=1, select bank3
  2524  02C7  086A               	movf	_E^(0+384),w
  2525  02C8  1683               	bsf	3,5	;RP0=1, select bank1
  2526  02C9  1303               	bcf	3,6	;RP1=0, select bank1
  2527  02CA  00BB               	movwf	___flmul@a^(0+128)
  2528  02CB  120A  118A  2472  120A  118A  	fcall	___flmul
  2529  02D0  1683               	bsf	3,5	;RP0=1, select bank1
  2530  02D1  1303               	bcf	3,6	;RP1=0, select bank1
  2531  02D2  083A               	movf	(?___flmul+3)^(0+128),w
  2532  02D3  1683               	bsf	3,5	;RP0=1, select bank3
  2533  02D4  1703               	bsf	3,6	;RP1=1, select bank3
  2534  02D5  0097               	movwf	(___fladd@a+3)^(0+384)
  2535  02D6  1683               	bsf	3,5	;RP0=1, select bank1
  2536  02D7  1303               	bcf	3,6	;RP1=0, select bank1
  2537  02D8  0839               	movf	(?___flmul+2)^(0+128),w
  2538  02D9  1683               	bsf	3,5	;RP0=1, select bank3
  2539  02DA  1703               	bsf	3,6	;RP1=1, select bank3
  2540  02DB  0096               	movwf	(___fladd@a+2)^(0+384)
  2541  02DC  1683               	bsf	3,5	;RP0=1, select bank1
  2542  02DD  1303               	bcf	3,6	;RP1=0, select bank1
  2543  02DE  0838               	movf	(?___flmul+1)^(0+128),w
  2544  02DF  1683               	bsf	3,5	;RP0=1, select bank3
  2545  02E0  1703               	bsf	3,6	;RP1=1, select bank3
  2546  02E1  0095               	movwf	(___fladd@a+1)^(0+384)
  2547  02E2  1683               	bsf	3,5	;RP0=1, select bank1
  2548  02E3  1303               	bcf	3,6	;RP1=0, select bank1
  2549  02E4  0837               	movf	?___flmul^(0+128),w
  2550  02E5  1683               	bsf	3,5	;RP0=1, select bank3
  2551  02E6  1703               	bsf	3,6	;RP1=1, select bank3
  2552  02E7  0094               	movwf	___fladd@a^(0+384)
  2553  02E8  120A  158A  2516  120A  118A  	fcall	___fladd
  2554  02ED  1683               	bsf	3,5	;RP0=1, select bank3
  2555  02EE  1703               	bsf	3,6	;RP1=1, select bank3
  2556  02EF  0813               	movf	(?___fladd+3)^(0+384),w
  2557  02F0  00C2               	movwf	(_PID_Init$811+3)^(0+384)
  2558  02F1  0812               	movf	(?___fladd+2)^(0+384),w
  2559  02F2  00C1               	movwf	(_PID_Init$811+2)^(0+384)
  2560  02F3  0811               	movf	(?___fladd+1)^(0+384),w
  2561  02F4  00C0               	movwf	(_PID_Init$811+1)^(0+384)
  2562  02F5  0810               	movf	?___fladd^(0+384),w
  2563  02F6  00BF               	movwf	_PID_Init$811^(0+384)
  2564                           
  2565                           ;DKND.c: 160:  out = pre_out + E*a1 + E1*a2 + E2*a3;
  2566  02F7  1283               	bcf	3,5	;RP0=0, select bank0
  2567  02F8  1303               	bcf	3,6	;RP1=0, select bank0
  2568  02F9  085B               	movf	_a2+3,w
  2569  02FA  1683               	bsf	3,5	;RP0=1, select bank1
  2570  02FB  1303               	bcf	3,6	;RP1=0, select bank1
  2571  02FC  00BA               	movwf	(___flmul@b+3)^(0+128)
  2572  02FD  1283               	bcf	3,5	;RP0=0, select bank0
  2573  02FE  1303               	bcf	3,6	;RP1=0, select bank0
  2574  02FF  085A               	movf	_a2+2,w
  2575  0300  1683               	bsf	3,5	;RP0=1, select bank1
  2576  0301  1303               	bcf	3,6	;RP1=0, select bank1
  2577  0302  00B9               	movwf	(___flmul@b+2)^(0+128)
  2578  0303  1283               	bcf	3,5	;RP0=0, select bank0
  2579  0304  1303               	bcf	3,6	;RP1=0, select bank0
  2580  0305  0859               	movf	_a2+1,w
  2581  0306  1683               	bsf	3,5	;RP0=1, select bank1
  2582  0307  1303               	bcf	3,6	;RP1=0, select bank1
  2583  0308  00B8               	movwf	(___flmul@b+1)^(0+128)
  2584  0309  1283               	bcf	3,5	;RP0=0, select bank0
  2585  030A  1303               	bcf	3,6	;RP1=0, select bank0
  2586  030B  0858               	movf	_a2,w
  2587  030C  1683               	bsf	3,5	;RP0=1, select bank1
  2588  030D  1303               	bcf	3,6	;RP1=0, select bank1
  2589  030E  00B7               	movwf	___flmul@b^(0+128)
  2590  030F  1683               	bsf	3,5	;RP0=1, select bank3
  2591  0310  1703               	bsf	3,6	;RP1=1, select bank3
  2592  0311  0869               	movf	(_E1+3)^(0+384),w
  2593  0312  1683               	bsf	3,5	;RP0=1, select bank1
  2594  0313  1303               	bcf	3,6	;RP1=0, select bank1
  2595  0314  00BE               	movwf	(___flmul@a+3)^(0+128)
  2596  0315  1683               	bsf	3,5	;RP0=1, select bank3
  2597  0316  1703               	bsf	3,6	;RP1=1, select bank3
  2598  0317  0868               	movf	(_E1+2)^(0+384),w
  2599  0318  1683               	bsf	3,5	;RP0=1, select bank1
  2600  0319  1303               	bcf	3,6	;RP1=0, select bank1
  2601  031A  00BD               	movwf	(___flmul@a+2)^(0+128)
  2602  031B  1683               	bsf	3,5	;RP0=1, select bank3
  2603  031C  1703               	bsf	3,6	;RP1=1, select bank3
  2604  031D  0867               	movf	(_E1+1)^(0+384),w
  2605  031E  1683               	bsf	3,5	;RP0=1, select bank1
  2606  031F  1303               	bcf	3,6	;RP1=0, select bank1
  2607  0320  00BC               	movwf	(___flmul@a+1)^(0+128)
  2608  0321  1683               	bsf	3,5	;RP0=1, select bank3
  2609  0322  1703               	bsf	3,6	;RP1=1, select bank3
  2610  0323  0866               	movf	_E1^(0+384),w
  2611  0324  1683               	bsf	3,5	;RP0=1, select bank1
  2612  0325  1303               	bcf	3,6	;RP1=0, select bank1
  2613  0326  00BB               	movwf	___flmul@a^(0+128)
  2614  0327  120A  118A  2472  120A  118A  	fcall	___flmul
  2615  032C  1683               	bsf	3,5	;RP0=1, select bank1
  2616  032D  1303               	bcf	3,6	;RP1=0, select bank1
  2617  032E  083A               	movf	(?___flmul+3)^(0+128),w
  2618  032F  1683               	bsf	3,5	;RP0=1, select bank3
  2619  0330  1703               	bsf	3,6	;RP1=1, select bank3
  2620  0331  0093               	movwf	(___fladd@b+3)^(0+384)
  2621  0332  1683               	bsf	3,5	;RP0=1, select bank1
  2622  0333  1303               	bcf	3,6	;RP1=0, select bank1
  2623  0334  0839               	movf	(?___flmul+2)^(0+128),w
  2624  0335  1683               	bsf	3,5	;RP0=1, select bank3
  2625  0336  1703               	bsf	3,6	;RP1=1, select bank3
  2626  0337  0092               	movwf	(___fladd@b+2)^(0+384)
  2627  0338  1683               	bsf	3,5	;RP0=1, select bank1
  2628  0339  1303               	bcf	3,6	;RP1=0, select bank1
  2629  033A  0838               	movf	(?___flmul+1)^(0+128),w
  2630  033B  1683               	bsf	3,5	;RP0=1, select bank3
  2631  033C  1703               	bsf	3,6	;RP1=1, select bank3
  2632  033D  0091               	movwf	(___fladd@b+1)^(0+384)
  2633  033E  1683               	bsf	3,5	;RP0=1, select bank1
  2634  033F  1303               	bcf	3,6	;RP1=0, select bank1
  2635  0340  0837               	movf	?___flmul^(0+128),w
  2636  0341  1683               	bsf	3,5	;RP0=1, select bank3
  2637  0342  1703               	bsf	3,6	;RP1=1, select bank3
  2638  0343  0090               	movwf	___fladd@b^(0+384)
  2639  0344  0842               	movf	(_PID_Init$811+3)^(0+384),w
  2640  0345  0097               	movwf	(___fladd@a+3)^(0+384)
  2641  0346  0841               	movf	(_PID_Init$811+2)^(0+384),w
  2642  0347  0096               	movwf	(___fladd@a+2)^(0+384)
  2643  0348  0840               	movf	(_PID_Init$811+1)^(0+384),w
  2644  0349  0095               	movwf	(___fladd@a+1)^(0+384)
  2645  034A  083F               	movf	_PID_Init$811^(0+384),w
  2646  034B  0094               	movwf	___fladd@a^(0+384)
  2647  034C  120A  158A  2516  120A  118A  	fcall	___fladd
  2648  0351  1683               	bsf	3,5	;RP0=1, select bank3
  2649  0352  1703               	bsf	3,6	;RP1=1, select bank3
  2650  0353  0813               	movf	(?___fladd+3)^(0+384),w
  2651  0354  00BE               	movwf	(_PID_Init$813+3)^(0+384)
  2652  0355  0812               	movf	(?___fladd+2)^(0+384),w
  2653  0356  00BD               	movwf	(_PID_Init$813+2)^(0+384)
  2654  0357  0811               	movf	(?___fladd+1)^(0+384),w
  2655  0358  00BC               	movwf	(_PID_Init$813+1)^(0+384)
  2656  0359  0810               	movf	?___fladd^(0+384),w
  2657  035A  00BB               	movwf	_PID_Init$813^(0+384)
  2658                           
  2659                           ;DKND.c: 160:  out = pre_out + E*a1 + E1*a2 + E2*a3;
  2660  035B  1283               	bcf	3,5	;RP0=0, select bank0
  2661  035C  1303               	bcf	3,6	;RP1=0, select bank0
  2662  035D  0857               	movf	_a3+3,w
  2663  035E  1683               	bsf	3,5	;RP0=1, select bank1
  2664  035F  1303               	bcf	3,6	;RP1=0, select bank1
  2665  0360  00BA               	movwf	(___flmul@b+3)^(0+128)
  2666  0361  1283               	bcf	3,5	;RP0=0, select bank0
  2667  0362  1303               	bcf	3,6	;RP1=0, select bank0
  2668  0363  0856               	movf	_a3+2,w
  2669  0364  1683               	bsf	3,5	;RP0=1, select bank1
  2670  0365  1303               	bcf	3,6	;RP1=0, select bank1
  2671  0366  00B9               	movwf	(___flmul@b+2)^(0+128)
  2672  0367  1283               	bcf	3,5	;RP0=0, select bank0
  2673  0368  1303               	bcf	3,6	;RP1=0, select bank0
  2674  0369  0855               	movf	_a3+1,w
  2675  036A  1683               	bsf	3,5	;RP0=1, select bank1
  2676  036B  1303               	bcf	3,6	;RP1=0, select bank1
  2677  036C  00B8               	movwf	(___flmul@b+1)^(0+128)
  2678  036D  1283               	bcf	3,5	;RP0=0, select bank0
  2679  036E  1303               	bcf	3,6	;RP1=0, select bank0
  2680  036F  0854               	movf	_a3,w
  2681  0370  1683               	bsf	3,5	;RP0=1, select bank1
  2682  0371  1303               	bcf	3,6	;RP1=0, select bank1
  2683  0372  00B7               	movwf	___flmul@b^(0+128)
  2684  0373  1683               	bsf	3,5	;RP0=1, select bank3
  2685  0374  1703               	bsf	3,6	;RP1=1, select bank3
  2686  0375  0865               	movf	(_E2+3)^(0+384),w
  2687  0376  1683               	bsf	3,5	;RP0=1, select bank1
  2688  0377  1303               	bcf	3,6	;RP1=0, select bank1
  2689  0378  00BE               	movwf	(___flmul@a+3)^(0+128)
  2690  0379  1683               	bsf	3,5	;RP0=1, select bank3
  2691  037A  1703               	bsf	3,6	;RP1=1, select bank3
  2692  037B  0864               	movf	(_E2+2)^(0+384),w
  2693  037C  1683               	bsf	3,5	;RP0=1, select bank1
  2694  037D  1303               	bcf	3,6	;RP1=0, select bank1
  2695  037E  00BD               	movwf	(___flmul@a+2)^(0+128)
  2696  037F  1683               	bsf	3,5	;RP0=1, select bank3
  2697  0380  1703               	bsf	3,6	;RP1=1, select bank3
  2698  0381  0863               	movf	(_E2+1)^(0+384),w
  2699  0382  1683               	bsf	3,5	;RP0=1, select bank1
  2700  0383  1303               	bcf	3,6	;RP1=0, select bank1
  2701  0384  00BC               	movwf	(___flmul@a+1)^(0+128)
  2702  0385  1683               	bsf	3,5	;RP0=1, select bank3
  2703  0386  1703               	bsf	3,6	;RP1=1, select bank3
  2704  0387  0862               	movf	_E2^(0+384),w
  2705  0388  1683               	bsf	3,5	;RP0=1, select bank1
  2706  0389  1303               	bcf	3,6	;RP1=0, select bank1
  2707  038A  00BB               	movwf	___flmul@a^(0+128)
  2708  038B  120A  118A  2472  120A  118A  	fcall	___flmul
  2709  0390  1683               	bsf	3,5	;RP0=1, select bank1
  2710  0391  1303               	bcf	3,6	;RP1=0, select bank1
  2711  0392  083A               	movf	(?___flmul+3)^(0+128),w
  2712  0393  1683               	bsf	3,5	;RP0=1, select bank3
  2713  0394  1703               	bsf	3,6	;RP1=1, select bank3
  2714  0395  0093               	movwf	(___fladd@b+3)^(0+384)
  2715  0396  1683               	bsf	3,5	;RP0=1, select bank1
  2716  0397  1303               	bcf	3,6	;RP1=0, select bank1
  2717  0398  0839               	movf	(?___flmul+2)^(0+128),w
  2718  0399  1683               	bsf	3,5	;RP0=1, select bank3
  2719  039A  1703               	bsf	3,6	;RP1=1, select bank3
  2720  039B  0092               	movwf	(___fladd@b+2)^(0+384)
  2721  039C  1683               	bsf	3,5	;RP0=1, select bank1
  2722  039D  1303               	bcf	3,6	;RP1=0, select bank1
  2723  039E  0838               	movf	(?___flmul+1)^(0+128),w
  2724  039F  1683               	bsf	3,5	;RP0=1, select bank3
  2725  03A0  1703               	bsf	3,6	;RP1=1, select bank3
  2726  03A1  0091               	movwf	(___fladd@b+1)^(0+384)
  2727  03A2  1683               	bsf	3,5	;RP0=1, select bank1
  2728  03A3  1303               	bcf	3,6	;RP1=0, select bank1
  2729  03A4  0837               	movf	?___flmul^(0+128),w
  2730  03A5  1683               	bsf	3,5	;RP0=1, select bank3
  2731  03A6  1703               	bsf	3,6	;RP1=1, select bank3
  2732  03A7  0090               	movwf	___fladd@b^(0+384)
  2733  03A8  083E               	movf	(_PID_Init$813+3)^(0+384),w
  2734  03A9  0097               	movwf	(___fladd@a+3)^(0+384)
  2735  03AA  083D               	movf	(_PID_Init$813+2)^(0+384),w
  2736  03AB  0096               	movwf	(___fladd@a+2)^(0+384)
  2737  03AC  083C               	movf	(_PID_Init$813+1)^(0+384),w
  2738  03AD  0095               	movwf	(___fladd@a+1)^(0+384)
  2739  03AE  083B               	movf	_PID_Init$813^(0+384),w
  2740  03AF  0094               	movwf	___fladd@a^(0+384)
  2741  03B0  120A  158A  2516  120A  118A  	fcall	___fladd
  2742  03B5  1683               	bsf	3,5	;RP0=1, select bank3
  2743  03B6  1703               	bsf	3,6	;RP1=1, select bank3
  2744  03B7  0813               	movf	(?___fladd+3)^(0+384),w
  2745  03B8  00D1               	movwf	(_out+3)^(0+384)
  2746  03B9  0812               	movf	(?___fladd+2)^(0+384),w
  2747  03BA  00D0               	movwf	(_out+2)^(0+384)
  2748  03BB  0811               	movf	(?___fladd+1)^(0+384),w
  2749  03BC  00CF               	movwf	(_out+1)^(0+384)
  2750  03BD  0810               	movf	?___fladd^(0+384),w
  2751  03BE  00CE               	movwf	_out^(0+384)
  2752                           
  2753                           ;DKND.c: 161:  pre_out = out;
  2754  03BF  0851               	movf	(_out+3)^(0+384),w
  2755  03C0  1283               	bcf	3,5	;RP0=0, select bank0
  2756  03C1  1303               	bcf	3,6	;RP1=0, select bank0
  2757  03C2  00D3               	movwf	_pre_out+3
  2758  03C3  1683               	bsf	3,5	;RP0=1, select bank3
  2759  03C4  1703               	bsf	3,6	;RP1=1, select bank3
  2760  03C5  0850               	movf	(_out+2)^(0+384),w
  2761  03C6  1283               	bcf	3,5	;RP0=0, select bank0
  2762  03C7  1303               	bcf	3,6	;RP1=0, select bank0
  2763  03C8  00D2               	movwf	_pre_out+2
  2764  03C9  1683               	bsf	3,5	;RP0=1, select bank3
  2765  03CA  1703               	bsf	3,6	;RP1=1, select bank3
  2766  03CB  084F               	movf	(_out+1)^(0+384),w
  2767  03CC  1283               	bcf	3,5	;RP0=0, select bank0
  2768  03CD  1303               	bcf	3,6	;RP1=0, select bank0
  2769  03CE  00D1               	movwf	_pre_out+1
  2770  03CF  1683               	bsf	3,5	;RP0=1, select bank3
  2771  03D0  1703               	bsf	3,6	;RP1=1, select bank3
  2772  03D1  084E               	movf	_out^(0+384),w
  2773  03D2  1283               	bcf	3,5	;RP0=0, select bank0
  2774  03D3  1303               	bcf	3,6	;RP1=0, select bank0
  2775  03D4  00D0               	movwf	_pre_out
  2776                           
  2777                           ;DKND.c: 162:  E2 = E1;
  2778  03D5  1683               	bsf	3,5	;RP0=1, select bank3
  2779  03D6  1703               	bsf	3,6	;RP1=1, select bank3
  2780  03D7  0869               	movf	(_E1+3)^(0+384),w
  2781  03D8  00E5               	movwf	(_E2+3)^(0+384)
  2782  03D9  0868               	movf	(_E1+2)^(0+384),w
  2783  03DA  00E4               	movwf	(_E2+2)^(0+384)
  2784  03DB  0867               	movf	(_E1+1)^(0+384),w
  2785  03DC  00E3               	movwf	(_E2+1)^(0+384)
  2786  03DD  0866               	movf	_E1^(0+384),w
  2787  03DE  00E2               	movwf	_E2^(0+384)
  2788                           
  2789                           ;DKND.c: 163:  E1 = E;
  2790  03DF  086D               	movf	(_E+3)^(0+384),w
  2791  03E0  00E9               	movwf	(_E1+3)^(0+384)
  2792  03E1  086C               	movf	(_E+2)^(0+384),w
  2793  03E2  00E8               	movwf	(_E1+2)^(0+384)
  2794  03E3  086B               	movf	(_E+1)^(0+384),w
  2795  03E4  00E7               	movwf	(_E1+1)^(0+384)
  2796  03E5  086A               	movf	_E^(0+384),w
  2797  03E6  00E6               	movwf	_E1^(0+384)
  2798                           
  2799                           ;DKND.c: 164:     if(out<0) out = 0;
  2800  03E7  0851               	movf	(_out+3)^(0+384),w
  2801  03E8  1683               	bsf	3,5	;RP0=1, select bank1
  2802  03E9  1303               	bcf	3,6	;RP1=0, select bank1
  2803  03EA  00A3               	movwf	(___flge@ff1+3)^(0+128)
  2804  03EB  1683               	bsf	3,5	;RP0=1, select bank3
  2805  03EC  1703               	bsf	3,6	;RP1=1, select bank3
  2806  03ED  0850               	movf	(_out+2)^(0+384),w
  2807  03EE  1683               	bsf	3,5	;RP0=1, select bank1
  2808  03EF  1303               	bcf	3,6	;RP1=0, select bank1
  2809  03F0  00A2               	movwf	(___flge@ff1+2)^(0+128)
  2810  03F1  1683               	bsf	3,5	;RP0=1, select bank3
  2811  03F2  1703               	bsf	3,6	;RP1=1, select bank3
  2812  03F3  084F               	movf	(_out+1)^(0+384),w
  2813  03F4  1683               	bsf	3,5	;RP0=1, select bank1
  2814  03F5  1303               	bcf	3,6	;RP1=0, select bank1
  2815  03F6  00A1               	movwf	(___flge@ff1+1)^(0+128)
  2816  03F7  1683               	bsf	3,5	;RP0=1, select bank3
  2817  03F8  1703               	bsf	3,6	;RP1=1, select bank3
  2818  03F9  084E               	movf	_out^(0+384),w
  2819  03FA  1683               	bsf	3,5	;RP0=1, select bank1
  2820  03FB  1303               	bcf	3,6	;RP1=0, select bank1
  2821  03FC  00A0               	movwf	___flge@ff1^(0+128)
  2822  03FD  3000               	movlw	0
  2823  03FE  00A7               	movwf	(___flge@ff2+3)^(0+128)
  2824  03FF  3000               	movlw	0
  2825  0400  00A6               	movwf	(___flge@ff2+2)^(0+128)
  2826  0401  3000               	movlw	0
  2827  0402  00A5               	movwf	(___flge@ff2+1)^(0+128)
  2828  0403  3000               	movlw	0
  2829  0404  00A4               	movwf	___flge@ff2^(0+128)
  2830  0405  160A  118A  2382  120A  118A  	fcall	___flge
  2831  040A  1803               	btfsc	3,0
  2832  040B  2C16               	goto	l3149
  2833  040C  3000               	movlw	0
  2834  040D  1683               	bsf	3,5	;RP0=1, select bank3
  2835  040E  1703               	bsf	3,6	;RP1=1, select bank3
  2836  040F  00D1               	movwf	(_out+3)^(0+384)
  2837  0410  3000               	movlw	0
  2838  0411  00D0               	movwf	(_out+2)^(0+384)
  2839  0412  3000               	movlw	0
  2840  0413  00CF               	movwf	(_out+1)^(0+384)
  2841  0414  3000               	movlw	0
  2842  0415  00CE               	movwf	_out^(0+384)
  2843  0416                     l3149:	
  2844                           
  2845                           ;DKND.c: 165:     if(out>=8000) out = 8000;
  2846  0416  1683               	bsf	3,5	;RP0=1, select bank3
  2847  0417  1703               	bsf	3,6	;RP1=1, select bank3
  2848  0418  0851               	movf	(_out+3)^(0+384),w
  2849  0419  1683               	bsf	3,5	;RP0=1, select bank1
  2850  041A  1303               	bcf	3,6	;RP1=0, select bank1
  2851  041B  00A3               	movwf	(___flge@ff1+3)^(0+128)
  2852  041C  1683               	bsf	3,5	;RP0=1, select bank3
  2853  041D  1703               	bsf	3,6	;RP1=1, select bank3
  2854  041E  0850               	movf	(_out+2)^(0+384),w
  2855  041F  1683               	bsf	3,5	;RP0=1, select bank1
  2856  0420  1303               	bcf	3,6	;RP1=0, select bank1
  2857  0421  00A2               	movwf	(___flge@ff1+2)^(0+128)
  2858  0422  1683               	bsf	3,5	;RP0=1, select bank3
  2859  0423  1703               	bsf	3,6	;RP1=1, select bank3
  2860  0424  084F               	movf	(_out+1)^(0+384),w
  2861  0425  1683               	bsf	3,5	;RP0=1, select bank1
  2862  0426  1303               	bcf	3,6	;RP1=0, select bank1
  2863  0427  00A1               	movwf	(___flge@ff1+1)^(0+128)
  2864  0428  1683               	bsf	3,5	;RP0=1, select bank3
  2865  0429  1703               	bsf	3,6	;RP1=1, select bank3
  2866  042A  084E               	movf	_out^(0+384),w
  2867  042B  1683               	bsf	3,5	;RP0=1, select bank1
  2868  042C  1303               	bcf	3,6	;RP1=0, select bank1
  2869  042D  00A0               	movwf	___flge@ff1^(0+128)
  2870  042E  3045               	movlw	69
  2871  042F  00A7               	movwf	(___flge@ff2+3)^(0+128)
  2872  0430  30FA               	movlw	250
  2873  0431  00A6               	movwf	(___flge@ff2+2)^(0+128)
  2874  0432  3000               	movlw	0
  2875  0433  00A5               	movwf	(___flge@ff2+1)^(0+128)
  2876  0434  3000               	movlw	0
  2877  0435  00A4               	movwf	___flge@ff2^(0+128)
  2878  0436  160A  118A  2382  120A  118A  	fcall	___flge
  2879  043B  1C03               	btfss	3,0
  2880  043C  2C47               	goto	l3153
  2881  043D  3045               	movlw	69
  2882  043E  1683               	bsf	3,5	;RP0=1, select bank3
  2883  043F  1703               	bsf	3,6	;RP1=1, select bank3
  2884  0440  00D1               	movwf	(_out+3)^(0+384)
  2885  0441  30FA               	movlw	250
  2886  0442  00D0               	movwf	(_out+2)^(0+384)
  2887  0443  3000               	movlw	0
  2888  0444  00CF               	movwf	(_out+1)^(0+384)
  2889  0445  3000               	movlw	0
  2890  0446  00CE               	movwf	_out^(0+384)
  2891  0447                     l3153:	
  2892                           
  2893                           ;DKND.c: 166:  return 8000-out;
  2894  0447  3045               	movlw	69
  2895  0448  1683               	bsf	3,5	;RP0=1, select bank3
  2896  0449  1703               	bsf	3,6	;RP1=1, select bank3
  2897  044A  00A7               	movwf	(___flsub@b+3)^(0+384)
  2898  044B  30FA               	movlw	250
  2899  044C  00A6               	movwf	(___flsub@b+2)^(0+384)
  2900  044D  3000               	movlw	0
  2901  044E  00A5               	movwf	(___flsub@b+1)^(0+384)
  2902  044F  3000               	movlw	0
  2903  0450  00A4               	movwf	___flsub@b^(0+384)
  2904  0451  0851               	movf	(_out+3)^(0+384),w
  2905  0452  00A3               	movwf	(___flsub@a+3)^(0+384)
  2906  0453  0850               	movf	(_out+2)^(0+384),w
  2907  0454  00A2               	movwf	(___flsub@a+2)^(0+384)
  2908  0455  084F               	movf	(_out+1)^(0+384),w
  2909  0456  00A1               	movwf	(___flsub@a+1)^(0+384)
  2910  0457  084E               	movf	_out^(0+384),w
  2911  0458  00A0               	movwf	___flsub@a^(0+384)
  2912  0459  160A  158A  27DE  120A  118A  	fcall	___flsub
  2913  045E  1683               	bsf	3,5	;RP0=1, select bank3
  2914  045F  1703               	bsf	3,6	;RP1=1, select bank3
  2915  0460  0823               	movf	(?___flsub+3)^(0+384),w
  2916  0461  00AB               	movwf	(___fltol@f1+3)^(0+384)
  2917  0462  0822               	movf	(?___flsub+2)^(0+384),w
  2918  0463  00AA               	movwf	(___fltol@f1+2)^(0+384)
  2919  0464  0821               	movf	(?___flsub+1)^(0+384),w
  2920  0465  00A9               	movwf	(___fltol@f1+1)^(0+384)
  2921  0466  0820               	movf	?___flsub^(0+384),w
  2922  0467  00A8               	movwf	___fltol@f1^(0+384)
  2923  0468  120A  118A  2787   	fcall	___fltol
  2924  046B  1683               	bsf	3,5	;RP0=1, select bank3
  2925  046C  1703               	bsf	3,6	;RP1=1, select bank3
  2926  046D  0829               	movf	(?___fltol+1)^(0+384),w
  2927  046E  00B4               	movwf	(?_PID_Init+1)^(0+384)
  2928  046F  0828               	movf	?___fltol^(0+384),w
  2929  0470  00B3               	movwf	?_PID_Init^(0+384)
  2930  0471  0008               	return
  2931  0472                     __end_of_PID_Init:	
  2932                           
  2933                           	psect	text5
  2934  0862                     __ptext5:	
  2935 ;; *************** function ___xxtofl *****************
  2936 ;; Defined at:
  2937 ;;		line 10 in file "D:\PROGRAM\MPLABX v5.20\XC8 v2.05\pic\sources\c90\common\xxtofl.c"
  2938 ;; Parameters:    Size  Location     Type
  2939 ;;  sign            1    wreg     unsigned char 
  2940 ;;  val             4    9[BANK1 ] long 
  2941 ;; Auto vars:     Size  Location     Type
  2942 ;;  sign            1   17[BANK1 ] unsigned char 
  2943 ;;  arg             4   19[BANK1 ] unsigned long 
  2944 ;;  exp             1   18[BANK1 ] unsigned char 
  2945 ;; Return value:  Size  Location     Type
  2946 ;;                  4    9[BANK1 ] unsigned char 
  2947 ;; Registers used:
  2948 ;;		wreg, status,2, status,0
  2949 ;; Tracked objects:
  2950 ;;		On entry : 0/0
  2951 ;;		On exit  : 0/0
  2952 ;;		Unchanged: 0/0
  2953 ;; Data sizes:     COMMON   BANK0   BANK1   BANK3   BANK2
  2954 ;;      Params:         0       0       4       0       0
  2955 ;;      Locals:         0       0       6       0       0
  2956 ;;      Temps:          0       0       4       0       0
  2957 ;;      Totals:         0       0      14       0       0
  2958 ;;Total ram usage:       14 bytes
  2959 ;; Hardware stack levels used:    1
  2960 ;; Hardware stack levels required when called:    3
  2961 ;; This function calls:
  2962 ;;		Nothing
  2963 ;; This function is called by:
  2964 ;;		_main
  2965 ;;		_PID_Init
  2966 ;; This function uses a non-reentrant model
  2967 ;;
  2968                           
  2969                           
  2970                           ;psect for function ___xxtofl
  2971  0862                     ___xxtofl:	
  2972                           
  2973                           ;incstack = 0
  2974                           ; Regs used in ___xxtofl: [wreg+status,2+status,0]
  2975                           ;___xxtofl@sign stored from wreg
  2976  0862  1683               	bsf	3,5	;RP0=1, select bank1
  2977  0863  1303               	bcf	3,6	;RP1=0, select bank1
  2978  0864  00B1               	movwf	___xxtofl@sign^(0+128)
  2979  0865  0831               	movf	___xxtofl@sign^(0+128),w
  2980  0866  1D03               	btfss	3,2
  2981  0867  1FAC               	btfss	(___xxtofl@val+3)^(0+128),7
  2982  0868  2879               	goto	l2821
  2983  0869  0929               	comf	___xxtofl@val^(0+128),w
  2984  086A  00B3               	movwf	___xxtofl@arg^(0+128)
  2985  086B  092A               	comf	(___xxtofl@val^(0+128)+1),w
  2986  086C  00B4               	movwf	(___xxtofl@arg+1)^(0+128)
  2987  086D  092B               	comf	(___xxtofl@val^(0+128)+2),w
  2988  086E  00B5               	movwf	(___xxtofl@arg+2)^(0+128)
  2989  086F  092C               	comf	(___xxtofl@val^(0+128)+3),w
  2990  0870  00B6               	movwf	(___xxtofl@arg+3)^(0+128)
  2991  0871  0AB3               	incf	___xxtofl@arg^(0+128),f
  2992  0872  1903               	skipnz
  2993  0873  0AB4               	incf	(___xxtofl@arg+1)^(0+128),f
  2994  0874  1903               	skipnz
  2995  0875  0AB5               	incf	(___xxtofl@arg+2)^(0+128),f
  2996  0876  1903               	skipnz
  2997  0877  0AB6               	incf	(___xxtofl@arg+3)^(0+128),f
  2998  0878  2881               	goto	l746
  2999  0879                     l2821:	
  3000  0879  082C               	movf	(___xxtofl@val+3)^(0+128),w
  3001  087A  00B6               	movwf	(___xxtofl@arg+3)^(0+128)
  3002  087B  082B               	movf	(___xxtofl@val+2)^(0+128),w
  3003  087C  00B5               	movwf	(___xxtofl@arg+2)^(0+128)
  3004  087D  082A               	movf	(___xxtofl@val+1)^(0+128),w
  3005  087E  00B4               	movwf	(___xxtofl@arg+1)^(0+128)
  3006  087F  0829               	movf	___xxtofl@val^(0+128),w
  3007  0880  00B3               	movwf	___xxtofl@arg^(0+128)
  3008  0881                     l746:	
  3009  0881  082C               	movf	(___xxtofl@val+3)^(0+128),w
  3010  0882  042B               	iorwf	(___xxtofl@val+2)^(0+128),w
  3011  0883  042A               	iorwf	(___xxtofl@val+1)^(0+128),w
  3012  0884  0429               	iorwf	___xxtofl@val^(0+128),w
  3013  0885  1D03               	skipz
  3014  0886  2890               	goto	l2827
  3015  0887  3000               	movlw	0
  3016  0888  00AC               	movwf	(?___xxtofl+3)^(0+128)
  3017  0889  3000               	movlw	0
  3018  088A  00AB               	movwf	(?___xxtofl+2)^(0+128)
  3019  088B  3000               	movlw	0
  3020  088C  00AA               	movwf	(?___xxtofl+1)^(0+128)
  3021  088D  3000               	movlw	0
  3022  088E  00A9               	movwf	?___xxtofl^(0+128)
  3023  088F  0008               	return
  3024  0890                     l2827:	
  3025  0890  3096               	movlw	150
  3026  0891  00AD               	movwf	??___xxtofl^(0+128)
  3027  0892  082D               	movf	??___xxtofl^(0+128),w
  3028  0893  00B2               	movwf	___xxtofl@exp^(0+128)
  3029  0894                     l2831:	
  3030  0894  30FE               	movlw	254
  3031  0895  0536               	andwf	(___xxtofl@arg+3)^(0+128),w
  3032  0896  1903               	btfsc	3,2
  3033  0897  28C1               	goto	l752
  3034  0898  3001               	movlw	1
  3035  0899  00AD               	movwf	??___xxtofl^(0+128)
  3036  089A  082D               	movf	??___xxtofl^(0+128),w
  3037  089B  07B2               	addwf	___xxtofl@exp^(0+128),f
  3038  089C  3001               	movlw	1
  3039  089D                     u4275:	
  3040  089D  1003               	clrc
  3041  089E  0CB6               	rrf	(___xxtofl@arg+3)^(0+128),f
  3042  089F  0CB5               	rrf	(___xxtofl@arg+2)^(0+128),f
  3043  08A0  0CB4               	rrf	(___xxtofl@arg+1)^(0+128),f
  3044  08A1  0CB3               	rrf	___xxtofl@arg^(0+128),f
  3045  08A2  3EFF               	addlw	-1
  3046  08A3  1D03               	skipz
  3047  08A4  289D               	goto	u4275
  3048  08A5  2894               	goto	l2831
  3049  08A6                     l2833:	
  3050  08A6  3001               	movlw	1
  3051  08A7  00AD               	movwf	??___xxtofl^(0+128)
  3052  08A8  082D               	movf	??___xxtofl^(0+128),w
  3053  08A9  07B2               	addwf	___xxtofl@exp^(0+128),f
  3054  08AA  3001               	movlw	1
  3055  08AB  07B3               	addwf	___xxtofl@arg^(0+128),f
  3056  08AC  3000               	movlw	0
  3057  08AD  1803               	skipnc
  3058  08AE  3001               	movlw	1
  3059  08AF  07B4               	addwf	(___xxtofl@arg+1)^(0+128),f
  3060  08B0  3000               	movlw	0
  3061  08B1  1803               	skipnc
  3062  08B2  3001               	movlw	1
  3063  08B3  07B5               	addwf	(___xxtofl@arg+2)^(0+128),f
  3064  08B4  3000               	movlw	0
  3065  08B5  1803               	skipnc
  3066  08B6  3001               	movlw	1
  3067  08B7  07B6               	addwf	(___xxtofl@arg+3)^(0+128),f
  3068  08B8  3001               	movlw	1
  3069  08B9                     u4295:	
  3070  08B9  1003               	clrc
  3071  08BA  0CB6               	rrf	(___xxtofl@arg+3)^(0+128),f
  3072  08BB  0CB5               	rrf	(___xxtofl@arg+2)^(0+128),f
  3073  08BC  0CB4               	rrf	(___xxtofl@arg+1)^(0+128),f
  3074  08BD  0CB3               	rrf	___xxtofl@arg^(0+128),f
  3075  08BE  3EFF               	addlw	-1
  3076  08BF  1D03               	skipz
  3077  08C0  28B9               	goto	u4295
  3078  08C1                     l752:	
  3079  08C1  30FF               	movlw	255
  3080  08C2  0536               	andwf	(___xxtofl@arg+3)^(0+128),w
  3081  08C3  1903               	btfsc	3,2
  3082  08C4  28D5               	goto	l2841
  3083  08C5  28A6               	goto	l2833
  3084  08C6                     l2843:	
  3085  08C6  3002               	movlw	2
  3086  08C7  0232               	subwf	___xxtofl@exp^(0+128),w
  3087  08C8  1C03               	btfss	3,0
  3088  08C9  28D7               	goto	l759
  3089  08CA  3001               	movlw	1
  3090  08CB  02B2               	subwf	___xxtofl@exp^(0+128),f
  3091  08CC  3001               	movlw	1
  3092  08CD  00AD               	movwf	??___xxtofl^(0+128)
  3093  08CE                     u4315:	
  3094  08CE  1003               	clrc
  3095  08CF  0DB3               	rlf	___xxtofl@arg^(0+128),f
  3096  08D0  0DB4               	rlf	(___xxtofl@arg+1)^(0+128),f
  3097  08D1  0DB5               	rlf	(___xxtofl@arg+2)^(0+128),f
  3098  08D2  0DB6               	rlf	(___xxtofl@arg+3)^(0+128),f
  3099  08D3  0BAD               	decfsz	??___xxtofl^(0+128),f
  3100  08D4  28CE               	goto	u4315
  3101  08D5                     l2841:	
  3102  08D5  1FB5               	btfss	(___xxtofl@arg+2)^(0+128),7
  3103  08D6  28C6               	goto	l2843
  3104  08D7                     l759:	
  3105  08D7  1832               	btfsc	___xxtofl@exp^(0+128),0
  3106  08D8  28E1               	goto	l760
  3107  08D9  30FF               	movlw	255
  3108  08DA  05B3               	andwf	___xxtofl@arg^(0+128),f
  3109  08DB  30FF               	movlw	255
  3110  08DC  05B4               	andwf	(___xxtofl@arg+1)^(0+128),f
  3111  08DD  307F               	movlw	127
  3112  08DE  05B5               	andwf	(___xxtofl@arg+2)^(0+128),f
  3113  08DF  30FF               	movlw	255
  3114  08E0  05B6               	andwf	(___xxtofl@arg+3)^(0+128),f
  3115  08E1                     l760:	
  3116  08E1  1003               	clrc
  3117  08E2  0CB2               	rrf	___xxtofl@exp^(0+128),f
  3118  08E3  0832               	movf	___xxtofl@exp^(0+128),w
  3119  08E4  00AD               	movwf	??___xxtofl^(0+128)
  3120  08E5  01AE               	clrf	(??___xxtofl^(0+128)+1)
  3121  08E6  01AF               	clrf	(??___xxtofl^(0+128)+2)
  3122  08E7  01B0               	clrf	(??___xxtofl^(0+128)+3)
  3123  08E8  3018               	movlw	24
  3124  08E9                     u4355:	
  3125  08E9  1003               	clrc
  3126  08EA  0DAD               	rlf	??___xxtofl^(0+128),f
  3127  08EB  0DAE               	rlf	(??___xxtofl^(0+128)+1),f
  3128  08EC  0DAF               	rlf	(??___xxtofl^(0+128)+2),f
  3129  08ED  0DB0               	rlf	(??___xxtofl^(0+128)+3),f
  3130  08EE  3EFF               	addlw	-1
  3131  08EF  1D03               	skipz
  3132  08F0  28E9               	goto	u4355
  3133  08F1  082D               	movf	??___xxtofl^(0+128),w
  3134  08F2  04B3               	iorwf	___xxtofl@arg^(0+128),f
  3135  08F3  082E               	movf	(??___xxtofl+1)^(0+128),w
  3136  08F4  04B4               	iorwf	(___xxtofl@arg+1)^(0+128),f
  3137  08F5  082F               	movf	(??___xxtofl+2)^(0+128),w
  3138  08F6  04B5               	iorwf	(___xxtofl@arg+2)^(0+128),f
  3139  08F7  0830               	movf	(??___xxtofl+3)^(0+128),w
  3140  08F8  04B6               	iorwf	(___xxtofl@arg+3)^(0+128),f
  3141  08F9  0831               	movf	___xxtofl@sign^(0+128),w
  3142  08FA  1D03               	btfss	3,2
  3143  08FB  1FAC               	btfss	(___xxtofl@val+3)^(0+128),7
  3144  08FC  28FE               	goto	l2855
  3145  08FD  17B6               	bsf	(___xxtofl@arg^(0+128)+3),7
  3146  08FE                     l2855:	
  3147  08FE  0836               	movf	(___xxtofl@arg+3)^(0+128),w
  3148  08FF  00AC               	movwf	(?___xxtofl+3)^(0+128)
  3149  0900  0835               	movf	(___xxtofl@arg+2)^(0+128),w
  3150  0901  00AB               	movwf	(?___xxtofl+2)^(0+128)
  3151  0902  0834               	movf	(___xxtofl@arg+1)^(0+128),w
  3152  0903  00AA               	movwf	(?___xxtofl+1)^(0+128)
  3153  0904  0833               	movf	___xxtofl@arg^(0+128),w
  3154  0905  00A9               	movwf	?___xxtofl^(0+128)
  3155  0906  0008               	return
  3156  0907                     __end_of___xxtofl:	
  3157                           
  3158                           	psect	text6
  3159  0787                     __ptext6:	
  3160 ;; *************** function ___fltol *****************
  3161 ;; Defined at:
  3162 ;;		line 43 in file "D:\PROGRAM\MPLABX v5.20\XC8 v2.05\pic\sources\c90\common\fltol.c"
  3163 ;; Parameters:    Size  Location     Type
  3164 ;;  f1              4   24[BANK3 ] unsigned char 
  3165 ;; Auto vars:     Size  Location     Type
  3166 ;;  exp1            1   34[BANK3 ] unsigned char 
  3167 ;;  sign1           1   33[BANK3 ] unsigned char 
  3168 ;; Return value:  Size  Location     Type
  3169 ;;                  4   24[BANK3 ] long 
  3170 ;; Registers used:
  3171 ;;		wreg, status,2, status,0
  3172 ;; Tracked objects:
  3173 ;;		On entry : 0/0
  3174 ;;		On exit  : 0/0
  3175 ;;		Unchanged: 0/0
  3176 ;; Data sizes:     COMMON   BANK0   BANK1   BANK3   BANK2
  3177 ;;      Params:         0       0       0       4       0
  3178 ;;      Locals:         0       0       0       2       0
  3179 ;;      Temps:          0       0       0       5       0
  3180 ;;      Totals:         0       0       0      11       0
  3181 ;;Total ram usage:       11 bytes
  3182 ;; Hardware stack levels used:    1
  3183 ;; Hardware stack levels required when called:    3
  3184 ;; This function calls:
  3185 ;;		Nothing
  3186 ;; This function is called by:
  3187 ;;		_main
  3188 ;;		_PID_Init
  3189 ;; This function uses a non-reentrant model
  3190 ;;
  3191                           
  3192                           
  3193                           ;psect for function ___fltol
  3194  0787                     ___fltol:	
  3195                           
  3196                           ;incstack = 0
  3197                           ; Regs used in ___fltol: [wreg+status,2+status,0]
  3198  0787  1003               	clrc
  3199  0788  1683               	bsf	3,5	;RP0=1, select bank3
  3200  0789  1703               	bsf	3,6	;RP1=1, select bank3
  3201  078A  0D2A               	rlf	(___fltol@f1+2)^(0+384),w
  3202  078B  0D2B               	rlf	(___fltol@f1+3)^(0+384),w
  3203  078C  00AC               	movwf	??___fltol^(0+384)
  3204  078D  082C               	movf	??___fltol^(0+384),w
  3205  078E  00B2               	movwf	___fltol@exp1^(0+384)
  3206  078F  0832               	movf	___fltol@exp1^(0+384),w
  3207  0790  1D03               	btfss	3,2
  3208  0791  2F9B               	goto	l2497
  3209  0792                     l2493:	
  3210  0792  3000               	movlw	0
  3211  0793  00AB               	movwf	(?___fltol+3)^(0+384)
  3212  0794  3000               	movlw	0
  3213  0795  00AA               	movwf	(?___fltol+2)^(0+384)
  3214  0796  3000               	movlw	0
  3215  0797  00A9               	movwf	(?___fltol+1)^(0+384)
  3216  0798  3000               	movlw	0
  3217  0799  00A8               	movwf	?___fltol^(0+384)
  3218  079A  0008               	return
  3219  079B                     l2497:	
  3220  079B  0828               	movf	___fltol@f1^(0+384),w
  3221  079C  00AC               	movwf	??___fltol^(0+384)
  3222  079D  0829               	movf	(___fltol@f1+1)^(0+384),w
  3223  079E  00AD               	movwf	(??___fltol^(0+384)+1)
  3224  079F  082A               	movf	(___fltol@f1+2)^(0+384),w
  3225  07A0  00AE               	movwf	(??___fltol^(0+384)+2)
  3226  07A1  082B               	movf	(___fltol@f1+3)^(0+384),w
  3227  07A2  00AF               	movwf	(??___fltol^(0+384)+3)
  3228  07A3  301F               	movlw	31
  3229  07A4                     u3495:	
  3230  07A4  1003               	clrc
  3231  07A5  0CAF               	rrf	(??___fltol^(0+384)+3),f
  3232  07A6  0CAE               	rrf	(??___fltol^(0+384)+2),f
  3233  07A7  0CAD               	rrf	(??___fltol^(0+384)+1),f
  3234  07A8  0CAC               	rrf	??___fltol^(0+384),f
  3235  07A9  3EFF               	addlw	-1
  3236  07AA  1D03               	skipz
  3237  07AB  2FA4               	goto	u3495
  3238  07AC  082C               	movf	??___fltol^(0+384),w
  3239  07AD  00B0               	movwf	(??___fltol+4)^(0+384)
  3240  07AE  0830               	movf	(??___fltol+4)^(0+384),w
  3241  07AF  00B1               	movwf	___fltol@sign1^(0+384)
  3242  07B0  17AA               	bsf	(___fltol@f1^(0+384)+2),7
  3243  07B1  30FF               	movlw	255
  3244  07B2  05A8               	andwf	___fltol@f1^(0+384),f
  3245  07B3  30FF               	movlw	255
  3246  07B4  05A9               	andwf	(___fltol@f1+1)^(0+384),f
  3247  07B5  30FF               	movlw	255
  3248  07B6  05AA               	andwf	(___fltol@f1+2)^(0+384),f
  3249  07B7  3000               	movlw	0
  3250  07B8  05AB               	andwf	(___fltol@f1+3)^(0+384),f
  3251  07B9  3096               	movlw	150
  3252  07BA  02B2               	subwf	___fltol@exp1^(0+384),f
  3253  07BB  1FB2               	btfss	___fltol@exp1^(0+384),7
  3254  07BC  2FD2               	goto	l2515
  3255  07BD  0832               	movf	___fltol@exp1^(0+384),w
  3256  07BE  3A80               	xorlw	128
  3257  07BF  3E97               	addlw	151
  3258  07C0  1C03               	btfss	3,0
  3259  07C1  2F92               	goto	l2493
  3260  07C2                     l2513:	
  3261  07C2  3001               	movlw	1
  3262  07C3                     u3525:	
  3263  07C3  1003               	clrc
  3264  07C4  0CAB               	rrf	(___fltol@f1+3)^(0+384),f
  3265  07C5  0CAA               	rrf	(___fltol@f1+2)^(0+384),f
  3266  07C6  0CA9               	rrf	(___fltol@f1+1)^(0+384),f
  3267  07C7  0CA8               	rrf	___fltol@f1^(0+384),f
  3268  07C8  3EFF               	addlw	-1
  3269  07C9  1D03               	skipz
  3270  07CA  2FC3               	goto	u3525
  3271  07CB  3001               	movlw	1
  3272  07CC  00AC               	movwf	??___fltol^(0+384)
  3273  07CD  082C               	movf	??___fltol^(0+384),w
  3274  07CE  07B2               	addwf	___fltol@exp1^(0+384),f
  3275  07CF  1903               	btfsc	3,2
  3276  07D0  2FE5               	goto	l2523
  3277  07D1  2FC2               	goto	l2513
  3278  07D2                     l2515:	
  3279  07D2  3020               	movlw	32
  3280  07D3  0232               	subwf	___fltol@exp1^(0+384),w
  3281  07D4  1803               	btfsc	3,0
  3282  07D5  2F92               	goto	l2493
  3283  07D6                     l512:	
  3284  07D6  0832               	movf	___fltol@exp1^(0+384),w
  3285  07D7  1903               	btfsc	3,2
  3286  07D8  2FE5               	goto	l2523
  3287  07D9  3001               	movlw	1
  3288  07DA  00AC               	movwf	??___fltol^(0+384)
  3289  07DB                     u3555:	
  3290  07DB  1003               	clrc
  3291  07DC  0DA8               	rlf	___fltol@f1^(0+384),f
  3292  07DD  0DA9               	rlf	(___fltol@f1+1)^(0+384),f
  3293  07DE  0DAA               	rlf	(___fltol@f1+2)^(0+384),f
  3294  07DF  0DAB               	rlf	(___fltol@f1+3)^(0+384),f
  3295  07E0  0BAC               	decfsz	??___fltol^(0+384),f
  3296  07E1  2FDB               	goto	u3555
  3297  07E2  3001               	movlw	1
  3298  07E3  02B2               	subwf	___fltol@exp1^(0+384),f
  3299  07E4  2FD6               	goto	l512
  3300  07E5                     l2523:	
  3301  07E5  0831               	movf	___fltol@sign1^(0+384),w
  3302  07E6  1903               	btfsc	3,2
  3303  07E7  0008               	return
  3304  07E8  09A8               	comf	___fltol@f1^(0+384),f
  3305  07E9  09A9               	comf	(___fltol@f1+1)^(0+384),f
  3306  07EA  09AA               	comf	(___fltol@f1+2)^(0+384),f
  3307  07EB  09AB               	comf	(___fltol@f1+3)^(0+384),f
  3308  07EC  0AA8               	incf	___fltol@f1^(0+384),f
  3309  07ED  1903               	skipnz
  3310  07EE  0AA9               	incf	(___fltol@f1+1)^(0+384),f
  3311  07EF  1903               	skipnz
  3312  07F0  0AAA               	incf	(___fltol@f1+2)^(0+384),f
  3313  07F1  1903               	skipnz
  3314  07F2  0AAB               	incf	(___fltol@f1+3)^(0+384),f
  3315  07F3  0008               	return
  3316  07F4                     __end_of___fltol:	
  3317                           
  3318                           	psect	text7
  3319  1FDE                     __ptext7:	
  3320 ;; *************** function ___flsub *****************
  3321 ;; Defined at:
  3322 ;;		line 242 in file "D:\PROGRAM\MPLABX v5.20\XC8 v2.05\pic\sources\c90\common\sprcadd.c"
  3323 ;; Parameters:    Size  Location     Type
  3324 ;;  a               4   16[BANK3 ] long 
  3325 ;;  b               4   20[BANK3 ] long 
  3326 ;; Auto vars:     Size  Location     Type
  3327 ;;		None
  3328 ;; Return value:  Size  Location     Type
  3329 ;;                  4   16[BANK3 ] long 
  3330 ;; Registers used:
  3331 ;;		wreg, status,2, status,0, btemp+1, pclath, cstack
  3332 ;; Tracked objects:
  3333 ;;		On entry : 0/0
  3334 ;;		On exit  : 0/0
  3335 ;;		Unchanged: 0/0
  3336 ;; Data sizes:     COMMON   BANK0   BANK1   BANK3   BANK2
  3337 ;;      Params:         0       0       0       8       0
  3338 ;;      Locals:         0       0       0       0       0
  3339 ;;      Temps:          0       0       0       0       0
  3340 ;;      Totals:         0       0       0       8       0
  3341 ;;Total ram usage:        8 bytes
  3342 ;; Hardware stack levels used:    1
  3343 ;; Hardware stack levels required when called:    4
  3344 ;; This function calls:
  3345 ;;		___fladd
  3346 ;; This function is called by:
  3347 ;;		_PID_Init
  3348 ;; This function uses a non-reentrant model
  3349 ;;
  3350                           
  3351                           
  3352                           ;psect for function ___flsub
  3353  1FDE                     ___flsub:	
  3354                           
  3355                           ;incstack = 0
  3356                           ; Regs used in ___flsub: [wreg+status,2+status,0+btemp+1+pclath+cstack]
  3357  1FDE  3080               	movlw	128
  3358  1FDF  1683               	bsf	3,5	;RP0=1, select bank3
  3359  1FE0  1703               	bsf	3,6	;RP1=1, select bank3
  3360  1FE1  06A3               	xorwf	(___flsub@a+3)^(0+384),f
  3361  1FE2  0827               	movf	(___flsub@b+3)^(0+384),w
  3362  1FE3  0093               	movwf	(___fladd@b+3)^(0+384)
  3363  1FE4  0826               	movf	(___flsub@b+2)^(0+384),w
  3364  1FE5  0092               	movwf	(___fladd@b+2)^(0+384)
  3365  1FE6  0825               	movf	(___flsub@b+1)^(0+384),w
  3366  1FE7  0091               	movwf	(___fladd@b+1)^(0+384)
  3367  1FE8  0824               	movf	___flsub@b^(0+384),w
  3368  1FE9  0090               	movwf	___fladd@b^(0+384)
  3369  1FEA  0823               	movf	(___flsub@a+3)^(0+384),w
  3370  1FEB  0097               	movwf	(___fladd@a+3)^(0+384)
  3371  1FEC  0822               	movf	(___flsub@a+2)^(0+384),w
  3372  1FED  0096               	movwf	(___fladd@a+2)^(0+384)
  3373  1FEE  0821               	movf	(___flsub@a+1)^(0+384),w
  3374  1FEF  0095               	movwf	(___fladd@a+1)^(0+384)
  3375  1FF0  0820               	movf	___flsub@a^(0+384),w
  3376  1FF1  0094               	movwf	___fladd@a^(0+384)
  3377  1FF2  120A  158A  2516   	fcall	___fladd
  3378  1FF5  1683               	bsf	3,5	;RP0=1, select bank3
  3379  1FF6  1703               	bsf	3,6	;RP1=1, select bank3
  3380  1FF7  0813               	movf	(?___fladd+3)^(0+384),w
  3381  1FF8  00A3               	movwf	(?___flsub+3)^(0+384)
  3382  1FF9  0812               	movf	(?___fladd+2)^(0+384),w
  3383  1FFA  00A2               	movwf	(?___flsub+2)^(0+384)
  3384  1FFB  0811               	movf	(?___fladd+1)^(0+384),w
  3385  1FFC  00A1               	movwf	(?___flsub+1)^(0+384)
  3386  1FFD  0810               	movf	?___fladd^(0+384),w
  3387  1FFE  00A0               	movwf	?___flsub^(0+384)
  3388  1FFF  0008               	return
  3389  2000                     __end_of___flsub:	
  3390                           
  3391                           	psect	text8
  3392  0D16                     __ptext8:	
  3393 ;; *************** function ___fladd *****************
  3394 ;; Defined at:
  3395 ;;		line 10 in file "D:\PROGRAM\MPLABX v5.20\XC8 v2.05\pic\sources\c90\common\sprcadd.c"
  3396 ;; Parameters:    Size  Location     Type
  3397 ;;  b               4    0[BANK3 ] long 
  3398 ;;  a               4    4[BANK3 ] long 
  3399 ;; Auto vars:     Size  Location     Type
  3400 ;;  grs             1   78[BANK1 ] unsigned char 
  3401 ;;  bexp            1   77[BANK1 ] unsigned char 
  3402 ;;  aexp            1   76[BANK1 ] unsigned char 
  3403 ;;  signs           1   75[BANK1 ] unsigned char 
  3404 ;; Return value:  Size  Location     Type
  3405 ;;                  4    0[BANK3 ] unsigned char 
  3406 ;; Registers used:
  3407 ;;		wreg, status,2, status,0, btemp+1
  3408 ;; Tracked objects:
  3409 ;;		On entry : 0/0
  3410 ;;		On exit  : 0/0
  3411 ;;		Unchanged: 0/0
  3412 ;; Data sizes:     COMMON   BANK0   BANK1   BANK3   BANK2
  3413 ;;      Params:         0       0       0       8       0
  3414 ;;      Locals:         0       0       4       0       0
  3415 ;;      Temps:          0       0       0       8       0
  3416 ;;      Totals:         0       0       4      16       0
  3417 ;;Total ram usage:       20 bytes
  3418 ;; Hardware stack levels used:    1
  3419 ;; Hardware stack levels required when called:    3
  3420 ;; This function calls:
  3421 ;;		Nothing
  3422 ;; This function is called by:
  3423 ;;		_main
  3424 ;;		_PID_Init
  3425 ;;		___flsub
  3426 ;; This function uses a non-reentrant model
  3427 ;;
  3428                           
  3429                           
  3430                           ;psect for function ___fladd
  3431  0D16                     ___fladd:	
  3432                           
  3433                           ;incstack = 0
  3434                           ; Regs used in ___fladd: [wreg+status,2+status,0+btemp+1]
  3435  0D16  1683               	bsf	3,5	;RP0=1, select bank3
  3436  0D17  1703               	bsf	3,6	;RP1=1, select bank3
  3437  0D18  0813               	movf	(___fladd@b^(0+384)+3),w
  3438  0D19  3980               	andlw	128
  3439  0D1A  0098               	movwf	??___fladd^(0+384)
  3440  0D1B  0818               	movf	??___fladd^(0+384),w
  3441  0D1C  1683               	bsf	3,5	;RP0=1, select bank1
  3442  0D1D  1303               	bcf	3,6	;RP1=0, select bank1
  3443  0D1E  00EB               	movwf	___fladd@signs^(0+128)
  3444  0D1F  1683               	bsf	3,5	;RP0=1, select bank3
  3445  0D20  1703               	bsf	3,6	;RP1=1, select bank3
  3446  0D21  0813               	movf	(___fladd@b^(0+384)+3),w
  3447  0D22  0098               	movwf	??___fladd^(0+384)
  3448  0D23  0718               	addwf	??___fladd^(0+384),w
  3449  0D24  0099               	movwf	(??___fladd+1)^(0+384)
  3450  0D25  0819               	movf	(??___fladd+1)^(0+384),w
  3451  0D26  1683               	bsf	3,5	;RP0=1, select bank1
  3452  0D27  1303               	bcf	3,6	;RP1=0, select bank1
  3453  0D28  00ED               	movwf	___fladd@bexp^(0+128)
  3454  0D29  1683               	bsf	3,5	;RP0=1, select bank3
  3455  0D2A  1703               	bsf	3,6	;RP1=1, select bank3
  3456  0D2B  1F92               	btfss	(___fladd@b^(0+384)+2),7
  3457  0D2C  2D30               	goto	l2239
  3458  0D2D  1683               	bsf	3,5	;RP0=1, select bank1
  3459  0D2E  1303               	bcf	3,6	;RP1=0, select bank1
  3460  0D2F  146D               	bsf	___fladd@bexp^(0+128),0
  3461  0D30                     l2239:	
  3462  0D30  1303               	bcf	3,6	;RP1=0, select bank1
  3463  0D31  086D               	movf	___fladd@bexp^(0+128),w
  3464  0D32  1903               	btfsc	3,2
  3465  0D33  2D46               	goto	l2249
  3466  0D34  0A6D               	incf	___fladd@bexp^(0+128),w
  3467  0D35  1D03               	btfss	3,2
  3468  0D36  2D41               	goto	l2245
  3469  0D37  3000               	movlw	0
  3470  0D38  1683               	bsf	3,5	;RP0=1, select bank3
  3471  0D39  1703               	bsf	3,6	;RP1=1, select bank3
  3472  0D3A  0093               	movwf	(___fladd@b+3)^(0+384)
  3473  0D3B  3000               	movlw	0
  3474  0D3C  0092               	movwf	(___fladd@b+2)^(0+384)
  3475  0D3D  3000               	movlw	0
  3476  0D3E  0091               	movwf	(___fladd@b+1)^(0+384)
  3477  0D3F  3000               	movlw	0
  3478  0D40  0090               	movwf	___fladd@b^(0+384)
  3479  0D41                     l2245:	
  3480  0D41  1683               	bsf	3,5	;RP0=1, select bank3
  3481  0D42  1703               	bsf	3,6	;RP1=1, select bank3
  3482  0D43  1792               	bsf	(___fladd@b^(0+384)+2),7
  3483  0D44  0193               	clrf	(___fladd@b^(0+384)+3)
  3484  0D45  2D50               	goto	l2251
  3485  0D46                     l2249:	
  3486  0D46  3000               	movlw	0
  3487  0D47  1683               	bsf	3,5	;RP0=1, select bank3
  3488  0D48  1703               	bsf	3,6	;RP1=1, select bank3
  3489  0D49  0093               	movwf	(___fladd@b+3)^(0+384)
  3490  0D4A  3000               	movlw	0
  3491  0D4B  0092               	movwf	(___fladd@b+2)^(0+384)
  3492  0D4C  3000               	movlw	0
  3493  0D4D  0091               	movwf	(___fladd@b+1)^(0+384)
  3494  0D4E  3000               	movlw	0
  3495  0D4F  0090               	movwf	___fladd@b^(0+384)
  3496  0D50                     l2251:	
  3497  0D50  0817               	movf	(___fladd@a^(0+384)+3),w
  3498  0D51  3980               	andlw	128
  3499  0D52  0098               	movwf	??___fladd^(0+384)
  3500  0D53  0818               	movf	??___fladd^(0+384),w
  3501  0D54  1683               	bsf	3,5	;RP0=1, select bank1
  3502  0D55  1303               	bcf	3,6	;RP1=0, select bank1
  3503  0D56  00EC               	movwf	___fladd@aexp^(0+128)
  3504  0D57  086C               	movf	___fladd@aexp^(0+128),w
  3505  0D58  066B               	xorwf	___fladd@signs^(0+128),w
  3506  0D59  1D03               	btfss	3,2
  3507  0D5A  176B               	bsf	___fladd@signs^(0+128),6
  3508  0D5B  1683               	bsf	3,5	;RP0=1, select bank3
  3509  0D5C  1703               	bsf	3,6	;RP1=1, select bank3
  3510  0D5D  0817               	movf	(___fladd@a^(0+384)+3),w
  3511  0D5E  0098               	movwf	??___fladd^(0+384)
  3512  0D5F  0718               	addwf	??___fladd^(0+384),w
  3513  0D60  0099               	movwf	(??___fladd+1)^(0+384)
  3514  0D61  0819               	movf	(??___fladd+1)^(0+384),w
  3515  0D62  1683               	bsf	3,5	;RP0=1, select bank1
  3516  0D63  1303               	bcf	3,6	;RP1=0, select bank1
  3517  0D64  00EC               	movwf	___fladd@aexp^(0+128)
  3518  0D65  1683               	bsf	3,5	;RP0=1, select bank3
  3519  0D66  1703               	bsf	3,6	;RP1=1, select bank3
  3520  0D67  1F96               	btfss	(___fladd@a^(0+384)+2),7
  3521  0D68  2D6C               	goto	l2263
  3522  0D69  1683               	bsf	3,5	;RP0=1, select bank1
  3523  0D6A  1303               	bcf	3,6	;RP1=0, select bank1
  3524  0D6B  146C               	bsf	___fladd@aexp^(0+128),0
  3525  0D6C                     l2263:	
  3526  0D6C  1303               	bcf	3,6	;RP1=0, select bank1
  3527  0D6D  086C               	movf	___fladd@aexp^(0+128),w
  3528  0D6E  1903               	btfsc	3,2
  3529  0D6F  2D82               	goto	l2273
  3530  0D70  0A6C               	incf	___fladd@aexp^(0+128),w
  3531  0D71  1D03               	btfss	3,2
  3532  0D72  2D7D               	goto	l2269
  3533  0D73  3000               	movlw	0
  3534  0D74  1683               	bsf	3,5	;RP0=1, select bank3
  3535  0D75  1703               	bsf	3,6	;RP1=1, select bank3
  3536  0D76  0097               	movwf	(___fladd@a+3)^(0+384)
  3537  0D77  3000               	movlw	0
  3538  0D78  0096               	movwf	(___fladd@a+2)^(0+384)
  3539  0D79  3000               	movlw	0
  3540  0D7A  0095               	movwf	(___fladd@a+1)^(0+384)
  3541  0D7B  3000               	movlw	0
  3542  0D7C  0094               	movwf	___fladd@a^(0+384)
  3543  0D7D                     l2269:	
  3544  0D7D  1683               	bsf	3,5	;RP0=1, select bank3
  3545  0D7E  1703               	bsf	3,6	;RP1=1, select bank3
  3546  0D7F  1796               	bsf	(___fladd@a^(0+384)+2),7
  3547  0D80  0197               	clrf	(___fladd@a^(0+384)+3)
  3548  0D81  2D8C               	goto	l612
  3549  0D82                     l2273:	
  3550  0D82  3000               	movlw	0
  3551  0D83  1683               	bsf	3,5	;RP0=1, select bank3
  3552  0D84  1703               	bsf	3,6	;RP1=1, select bank3
  3553  0D85  0097               	movwf	(___fladd@a+3)^(0+384)
  3554  0D86  3000               	movlw	0
  3555  0D87  0096               	movwf	(___fladd@a+2)^(0+384)
  3556  0D88  3000               	movlw	0
  3557  0D89  0095               	movwf	(___fladd@a+1)^(0+384)
  3558  0D8A  3000               	movlw	0
  3559  0D8B  0094               	movwf	___fladd@a^(0+384)
  3560  0D8C                     l612:	
  3561  0D8C  1683               	bsf	3,5	;RP0=1, select bank1
  3562  0D8D  1303               	bcf	3,6	;RP1=0, select bank1
  3563  0D8E  086D               	movf	___fladd@bexp^(0+128),w
  3564  0D8F  026C               	subwf	___fladd@aexp^(0+128),w
  3565  0D90  1803               	skipnc
  3566  0D91  2E06               	goto	l2309
  3567  0D92  1F6B               	btfss	___fladd@signs^(0+128),6
  3568  0D93  2D9C               	goto	l2279
  3569  0D94  3080               	movlw	128
  3570  0D95  1683               	bsf	3,5	;RP0=1, select bank3
  3571  0D96  1703               	bsf	3,6	;RP1=1, select bank3
  3572  0D97  0098               	movwf	??___fladd^(0+384)
  3573  0D98  0818               	movf	??___fladd^(0+384),w
  3574  0D99  1683               	bsf	3,5	;RP0=1, select bank1
  3575  0D9A  1303               	bcf	3,6	;RP1=0, select bank1
  3576  0D9B  06EB               	xorwf	___fladd@signs^(0+128),f
  3577  0D9C                     l2279:	
  3578  0D9C  086D               	movf	___fladd@bexp^(0+128),w
  3579  0D9D  1683               	bsf	3,5	;RP0=1, select bank3
  3580  0D9E  1703               	bsf	3,6	;RP1=1, select bank3
  3581  0D9F  0098               	movwf	??___fladd^(0+384)
  3582  0DA0  0818               	movf	??___fladd^(0+384),w
  3583  0DA1  1683               	bsf	3,5	;RP0=1, select bank1
  3584  0DA2  1303               	bcf	3,6	;RP1=0, select bank1
  3585  0DA3  00EE               	movwf	___fladd@grs^(0+128)
  3586  0DA4  086C               	movf	___fladd@aexp^(0+128),w
  3587  0DA5  1683               	bsf	3,5	;RP0=1, select bank3
  3588  0DA6  1703               	bsf	3,6	;RP1=1, select bank3
  3589  0DA7  0098               	movwf	??___fladd^(0+384)
  3590  0DA8  0818               	movf	??___fladd^(0+384),w
  3591  0DA9  1683               	bsf	3,5	;RP0=1, select bank1
  3592  0DAA  1303               	bcf	3,6	;RP1=0, select bank1
  3593  0DAB  00ED               	movwf	___fladd@bexp^(0+128)
  3594  0DAC  086E               	movf	___fladd@grs^(0+128),w
  3595  0DAD  1683               	bsf	3,5	;RP0=1, select bank3
  3596  0DAE  1703               	bsf	3,6	;RP1=1, select bank3
  3597  0DAF  0098               	movwf	??___fladd^(0+384)
  3598  0DB0  0818               	movf	??___fladd^(0+384),w
  3599  0DB1  1683               	bsf	3,5	;RP0=1, select bank1
  3600  0DB2  1303               	bcf	3,6	;RP1=0, select bank1
  3601  0DB3  00EC               	movwf	___fladd@aexp^(0+128)
  3602  0DB4  1683               	bsf	3,5	;RP0=1, select bank3
  3603  0DB5  1703               	bsf	3,6	;RP1=1, select bank3
  3604  0DB6  0810               	movf	___fladd@b^(0+384),w
  3605  0DB7  0098               	movwf	??___fladd^(0+384)
  3606  0DB8  0818               	movf	??___fladd^(0+384),w
  3607  0DB9  1683               	bsf	3,5	;RP0=1, select bank1
  3608  0DBA  1303               	bcf	3,6	;RP1=0, select bank1
  3609  0DBB  00EE               	movwf	___fladd@grs^(0+128)
  3610  0DBC  1683               	bsf	3,5	;RP0=1, select bank3
  3611  0DBD  1703               	bsf	3,6	;RP1=1, select bank3
  3612  0DBE  0814               	movf	___fladd@a^(0+384),w
  3613  0DBF  0098               	movwf	??___fladd^(0+384)
  3614  0DC0  0818               	movf	??___fladd^(0+384),w
  3615  0DC1  0090               	movwf	___fladd@b^(0+384)
  3616  0DC2  1683               	bsf	3,5	;RP0=1, select bank1
  3617  0DC3  1303               	bcf	3,6	;RP1=0, select bank1
  3618  0DC4  086E               	movf	___fladd@grs^(0+128),w
  3619  0DC5  1683               	bsf	3,5	;RP0=1, select bank3
  3620  0DC6  1703               	bsf	3,6	;RP1=1, select bank3
  3621  0DC7  0098               	movwf	??___fladd^(0+384)
  3622  0DC8  0818               	movf	??___fladd^(0+384),w
  3623  0DC9  0094               	movwf	___fladd@a^(0+384)
  3624  0DCA  0811               	movf	(___fladd@b^(0+384)+1),w
  3625  0DCB  0098               	movwf	??___fladd^(0+384)
  3626  0DCC  0818               	movf	??___fladd^(0+384),w
  3627  0DCD  1683               	bsf	3,5	;RP0=1, select bank1
  3628  0DCE  1303               	bcf	3,6	;RP1=0, select bank1
  3629  0DCF  00EE               	movwf	___fladd@grs^(0+128)
  3630  0DD0  1683               	bsf	3,5	;RP0=1, select bank3
  3631  0DD1  1703               	bsf	3,6	;RP1=1, select bank3
  3632  0DD2  0815               	movf	(___fladd@a^(0+384)+1),w
  3633  0DD3  0098               	movwf	??___fladd^(0+384)
  3634  0DD4  0818               	movf	??___fladd^(0+384),w
  3635  0DD5  0091               	movwf	(___fladd@b^(0+384)+1)
  3636  0DD6  1683               	bsf	3,5	;RP0=1, select bank1
  3637  0DD7  1303               	bcf	3,6	;RP1=0, select bank1
  3638  0DD8  086E               	movf	___fladd@grs^(0+128),w
  3639  0DD9  1683               	bsf	3,5	;RP0=1, select bank3
  3640  0DDA  1703               	bsf	3,6	;RP1=1, select bank3
  3641  0DDB  0098               	movwf	??___fladd^(0+384)
  3642  0DDC  0818               	movf	??___fladd^(0+384),w
  3643  0DDD  0095               	movwf	(___fladd@a^(0+384)+1)
  3644  0DDE  0812               	movf	(___fladd@b^(0+384)+2),w
  3645  0DDF  0098               	movwf	??___fladd^(0+384)
  3646  0DE0  0818               	movf	??___fladd^(0+384),w
  3647  0DE1  1683               	bsf	3,5	;RP0=1, select bank1
  3648  0DE2  1303               	bcf	3,6	;RP1=0, select bank1
  3649  0DE3  00EE               	movwf	___fladd@grs^(0+128)
  3650  0DE4  1683               	bsf	3,5	;RP0=1, select bank3
  3651  0DE5  1703               	bsf	3,6	;RP1=1, select bank3
  3652  0DE6  0816               	movf	(___fladd@a^(0+384)+2),w
  3653  0DE7  0098               	movwf	??___fladd^(0+384)
  3654  0DE8  0818               	movf	??___fladd^(0+384),w
  3655  0DE9  0092               	movwf	(___fladd@b^(0+384)+2)
  3656  0DEA  1683               	bsf	3,5	;RP0=1, select bank1
  3657  0DEB  1303               	bcf	3,6	;RP1=0, select bank1
  3658  0DEC  086E               	movf	___fladd@grs^(0+128),w
  3659  0DED  1683               	bsf	3,5	;RP0=1, select bank3
  3660  0DEE  1703               	bsf	3,6	;RP1=1, select bank3
  3661  0DEF  0098               	movwf	??___fladd^(0+384)
  3662  0DF0  0818               	movf	??___fladd^(0+384),w
  3663  0DF1  0096               	movwf	(___fladd@a^(0+384)+2)
  3664  0DF2  0813               	movf	(___fladd@b^(0+384)+3),w
  3665  0DF3  0098               	movwf	??___fladd^(0+384)
  3666  0DF4  0818               	movf	??___fladd^(0+384),w
  3667  0DF5  1683               	bsf	3,5	;RP0=1, select bank1
  3668  0DF6  1303               	bcf	3,6	;RP1=0, select bank1
  3669  0DF7  00EE               	movwf	___fladd@grs^(0+128)
  3670  0DF8  1683               	bsf	3,5	;RP0=1, select bank3
  3671  0DF9  1703               	bsf	3,6	;RP1=1, select bank3
  3672  0DFA  0817               	movf	(___fladd@a^(0+384)+3),w
  3673  0DFB  0098               	movwf	??___fladd^(0+384)
  3674  0DFC  0818               	movf	??___fladd^(0+384),w
  3675  0DFD  0093               	movwf	(___fladd@b^(0+384)+3)
  3676  0DFE  1683               	bsf	3,5	;RP0=1, select bank1
  3677  0DFF  1303               	bcf	3,6	;RP1=0, select bank1
  3678  0E00  086E               	movf	___fladd@grs^(0+128),w
  3679  0E01  1683               	bsf	3,5	;RP0=1, select bank3
  3680  0E02  1703               	bsf	3,6	;RP1=1, select bank3
  3681  0E03  0098               	movwf	??___fladd^(0+384)
  3682  0E04  0818               	movf	??___fladd^(0+384),w
  3683  0E05  0097               	movwf	(___fladd@a^(0+384)+3)
  3684  0E06                     l2309:	
  3685  0E06  1303               	bcf	3,6	;RP1=0, select bank1
  3686  0E07  01EE               	clrf	___fladd@grs^(0+128)
  3687  0E08  086C               	movf	___fladd@aexp^(0+128),w
  3688  0E09  1683               	bsf	3,5	;RP0=1, select bank3
  3689  0E0A  1703               	bsf	3,6	;RP1=1, select bank3
  3690  0E0B  0098               	movwf	??___fladd^(0+384)
  3691  0E0C  0199               	clrf	(??___fladd^(0+384)+1)
  3692  0E0D  0819               	movf	(??___fladd+1)^(0+384),w
  3693  0E0E  009B               	movwf	((??___fladd+2)^(0+384)+1)
  3694  0E0F  1683               	bsf	3,5	;RP0=1, select bank1
  3695  0E10  1303               	bcf	3,6	;RP1=0, select bank1
  3696  0E11  086D               	movf	___fladd@bexp^(0+128),w
  3697  0E12  1683               	bsf	3,5	;RP0=1, select bank3
  3698  0E13  1703               	bsf	3,6	;RP1=1, select bank3
  3699  0E14  0218               	subwf	??___fladd^(0+384),w
  3700  0E15  009A               	movwf	(??___fladd+2)^(0+384)
  3701  0E16  1C03               	skipc
  3702  0E17  039B               	decf	((??___fladd+2)^(0+384)+1),f
  3703  0E18  081B               	movf	(??___fladd+3)^(0+384),w
  3704  0E19  3A80               	xorlw	128
  3705  0E1A  00FF               	movwf	127
  3706  0E1B  3080               	movlw	128
  3707  0E1C  027F               	subwf	127,w
  3708  0E1D  1D03               	skipz
  3709  0E1E  2E21               	goto	u3005
  3710  0E1F  301A               	movlw	26
  3711  0E20  021A               	subwf	(??___fladd+2)^(0+384),w
  3712  0E21                     u3005:	
  3713  0E21  1C03               	skipc
  3714  0E22  2E71               	goto	l2327
  3715  0E23  1683               	bsf	3,5	;RP0=1, select bank3
  3716  0E24  1703               	bsf	3,6	;RP1=1, select bank3
  3717  0E25  0813               	movf	(___fladd@b+3)^(0+384),w
  3718  0E26  0412               	iorwf	(___fladd@b+2)^(0+384),w
  3719  0E27  0411               	iorwf	(___fladd@b+1)^(0+384),w
  3720  0E28  0410               	iorwf	___fladd@b^(0+384),w
  3721  0E29  1903               	btfsc	3,2
  3722  0E2A  2E2D               	goto	u3010
  3723  0E2B  3001               	movlw	1
  3724  0E2C  2E2E               	goto	u3020
  3725  0E2D                     u3010:	
  3726  0E2D  3000               	movlw	0
  3727  0E2E                     u3020:	
  3728  0E2E  0098               	movwf	??___fladd^(0+384)
  3729  0E2F  0818               	movf	??___fladd^(0+384),w
  3730  0E30  1683               	bsf	3,5	;RP0=1, select bank1
  3731  0E31  1303               	bcf	3,6	;RP1=0, select bank1
  3732  0E32  00EE               	movwf	___fladd@grs^(0+128)
  3733  0E33  3000               	movlw	0
  3734  0E34  1683               	bsf	3,5	;RP0=1, select bank3
  3735  0E35  1703               	bsf	3,6	;RP1=1, select bank3
  3736  0E36  0093               	movwf	(___fladd@b+3)^(0+384)
  3737  0E37  3000               	movlw	0
  3738  0E38  0092               	movwf	(___fladd@b+2)^(0+384)
  3739  0E39  3000               	movlw	0
  3740  0E3A  0091               	movwf	(___fladd@b+1)^(0+384)
  3741  0E3B  3000               	movlw	0
  3742  0E3C  0090               	movwf	___fladd@b^(0+384)
  3743  0E3D  1683               	bsf	3,5	;RP0=1, select bank1
  3744  0E3E  1303               	bcf	3,6	;RP1=0, select bank1
  3745  0E3F  086C               	movf	___fladd@aexp^(0+128),w
  3746  0E40  1683               	bsf	3,5	;RP0=1, select bank3
  3747  0E41  1703               	bsf	3,6	;RP1=1, select bank3
  3748  0E42  0098               	movwf	??___fladd^(0+384)
  3749  0E43  0818               	movf	??___fladd^(0+384),w
  3750  0E44  1683               	bsf	3,5	;RP0=1, select bank1
  3751  0E45  1303               	bcf	3,6	;RP1=0, select bank1
  3752  0E46  00ED               	movwf	___fladd@bexp^(0+128)
  3753  0E47  2E77               	goto	l616
  3754  0E48                     l618:	
  3755  0E48  1C6E               	btfss	___fladd@grs^(0+128),0
  3756  0E49  2E57               	goto	l2317
  3757  0E4A  086E               	movf	___fladd@grs^(0+128),w
  3758  0E4B  1683               	bsf	3,5	;RP0=1, select bank3
  3759  0E4C  1703               	bsf	3,6	;RP1=1, select bank3
  3760  0E4D  0098               	movwf	??___fladd^(0+384)
  3761  0E4E  1003               	clrc
  3762  0E4F  0C18               	rrf	??___fladd^(0+384),w
  3763  0E50  3801               	iorlw	1
  3764  0E51  0099               	movwf	(??___fladd+1)^(0+384)
  3765  0E52  0819               	movf	(??___fladd+1)^(0+384),w
  3766  0E53  1683               	bsf	3,5	;RP0=1, select bank1
  3767  0E54  1303               	bcf	3,6	;RP1=0, select bank1
  3768  0E55  00EE               	movwf	___fladd@grs^(0+128)
  3769  0E56  2E59               	goto	l2319
  3770  0E57                     l2317:	
  3771  0E57  1003               	clrc
  3772  0E58  0CEE               	rrf	___fladd@grs^(0+128),f
  3773  0E59                     l2319:	
  3774  0E59  1683               	bsf	3,5	;RP0=1, select bank3
  3775  0E5A  1703               	bsf	3,6	;RP1=1, select bank3
  3776  0E5B  1C10               	btfss	___fladd@b^(0+384),0
  3777  0E5C  2E60               	goto	l2323
  3778  0E5D  1683               	bsf	3,5	;RP0=1, select bank1
  3779  0E5E  1303               	bcf	3,6	;RP1=0, select bank1
  3780  0E5F  17EE               	bsf	___fladd@grs^(0+128),7
  3781  0E60                     l2323:	
  3782  0E60  3001               	movlw	1
  3783  0E61  1683               	bsf	3,5	;RP0=1, select bank3
  3784  0E62  1703               	bsf	3,6	;RP1=1, select bank3
  3785  0E63  0098               	movwf	??___fladd^(0+384)
  3786  0E64                     u3055:	
  3787  0E64  0D13               	rlf	(___fladd@b+3)^(0+384),w
  3788  0E65  0C93               	rrf	(___fladd@b+3)^(0+384),f
  3789  0E66  0C92               	rrf	(___fladd@b+2)^(0+384),f
  3790  0E67  0C91               	rrf	(___fladd@b+1)^(0+384),f
  3791  0E68  0C90               	rrf	___fladd@b^(0+384),f
  3792  0E69  0B98               	decfsz	(??___fladd^(0+384))& (0+127),f
  3793  0E6A  2E64               	goto	u3055
  3794  0E6B  3001               	movlw	1
  3795  0E6C  0098               	movwf	??___fladd^(0+384)
  3796  0E6D  0818               	movf	??___fladd^(0+384),w
  3797  0E6E  1683               	bsf	3,5	;RP0=1, select bank1
  3798  0E6F  1303               	bcf	3,6	;RP1=0, select bank1
  3799  0E70  07ED               	addwf	___fladd@bexp^(0+128),f
  3800  0E71                     l2327:	
  3801  0E71  1683               	bsf	3,5	;RP0=1, select bank1
  3802  0E72  1303               	bcf	3,6	;RP1=0, select bank1
  3803  0E73  086C               	movf	___fladd@aexp^(0+128),w
  3804  0E74  026D               	subwf	___fladd@bexp^(0+128),w
  3805  0E75  1C03               	skipc
  3806  0E76  2E48               	goto	l618
  3807  0E77                     l616:	
  3808  0E77  1B6B               	btfsc	___fladd@signs^(0+128),6
  3809  0E78  2ECB               	goto	l2353
  3810  0E79  086D               	movf	___fladd@bexp^(0+128),w
  3811  0E7A  1D03               	btfss	3,2
  3812  0E7B  2E87               	goto	l2335
  3813  0E7C  3000               	movlw	0
  3814  0E7D  1683               	bsf	3,5	;RP0=1, select bank3
  3815  0E7E  1703               	bsf	3,6	;RP1=1, select bank3
  3816  0E7F  0093               	movwf	(?___fladd+3)^(0+384)
  3817  0E80  3000               	movlw	0
  3818  0E81  0092               	movwf	(?___fladd+2)^(0+384)
  3819  0E82  3000               	movlw	0
  3820  0E83  0091               	movwf	(?___fladd+1)^(0+384)
  3821  0E84  3000               	movlw	0
  3822  0E85  0090               	movwf	?___fladd^(0+384)
  3823  0E86  0008               	return
  3824  0E87                     l2335:	
  3825  0E87  1683               	bsf	3,5	;RP0=1, select bank3
  3826  0E88  1703               	bsf	3,6	;RP1=1, select bank3
  3827  0E89  0814               	movf	___fladd@a^(0+384),w
  3828  0E8A  0790               	addwf	___fladd@b^(0+384),f
  3829  0E8B  0815               	movf	(___fladd@a+1)^(0+384),w
  3830  0E8C  1103               	clrz
  3831  0E8D  1803               	skipnc
  3832  0E8E  3E01               	addlw	1
  3833  0E8F  1D03               	btfss	3,2
  3834  0E90  0791               	addwf	(___fladd@b+1)^(0+384),f
  3835  0E91  0816               	movf	(___fladd@a+2)^(0+384),w
  3836  0E92  1103               	clrz
  3837  0E93  1803               	skipnc
  3838  0E94  3E01               	addlw	1
  3839  0E95  1D03               	btfss	3,2
  3840  0E96  0792               	addwf	(___fladd@b+2)^(0+384),f
  3841  0E97  0817               	movf	(___fladd@a+3)^(0+384),w
  3842  0E98  1103               	clrz
  3843  0E99  1803               	skipnc
  3844  0E9A  3E01               	addlw	1
  3845  0E9B  1D03               	btfss	3,2
  3846  0E9C  0793               	addwf	(___fladd@b+3)^(0+384),f
  3847  0E9D  1C13               	btfss	(___fladd@b+3)^(0+384),0
  3848  0E9E  2F81               	goto	l2387
  3849  0E9F  1683               	bsf	3,5	;RP0=1, select bank1
  3850  0EA0  1303               	bcf	3,6	;RP1=0, select bank1
  3851  0EA1  1C6E               	btfss	___fladd@grs^(0+128),0
  3852  0EA2  2EB0               	goto	l2343
  3853  0EA3  086E               	movf	___fladd@grs^(0+128),w
  3854  0EA4  1683               	bsf	3,5	;RP0=1, select bank3
  3855  0EA5  1703               	bsf	3,6	;RP1=1, select bank3
  3856  0EA6  0098               	movwf	??___fladd^(0+384)
  3857  0EA7  1003               	clrc
  3858  0EA8  0C18               	rrf	??___fladd^(0+384),w
  3859  0EA9  3801               	iorlw	1
  3860  0EAA  0099               	movwf	(??___fladd+1)^(0+384)
  3861  0EAB  0819               	movf	(??___fladd+1)^(0+384),w
  3862  0EAC  1683               	bsf	3,5	;RP0=1, select bank1
  3863  0EAD  1303               	bcf	3,6	;RP1=0, select bank1
  3864  0EAE  00EE               	movwf	___fladd@grs^(0+128)
  3865  0EAF  2EB2               	goto	l2345
  3866  0EB0                     l2343:	
  3867  0EB0  1003               	clrc
  3868  0EB1  0CEE               	rrf	___fladd@grs^(0+128),f
  3869  0EB2                     l2345:	
  3870  0EB2  1683               	bsf	3,5	;RP0=1, select bank3
  3871  0EB3  1703               	bsf	3,6	;RP1=1, select bank3
  3872  0EB4  1C10               	btfss	___fladd@b^(0+384),0
  3873  0EB5  2EB9               	goto	l2349
  3874  0EB6  1683               	bsf	3,5	;RP0=1, select bank1
  3875  0EB7  1303               	bcf	3,6	;RP1=0, select bank1
  3876  0EB8  17EE               	bsf	___fladd@grs^(0+128),7
  3877  0EB9                     l2349:	
  3878  0EB9  3001               	movlw	1
  3879  0EBA  1683               	bsf	3,5	;RP0=1, select bank3
  3880  0EBB  1703               	bsf	3,6	;RP1=1, select bank3
  3881  0EBC  0098               	movwf	??___fladd^(0+384)
  3882  0EBD                     u3135:	
  3883  0EBD  0D13               	rlf	(___fladd@b+3)^(0+384),w
  3884  0EBE  0C93               	rrf	(___fladd@b+3)^(0+384),f
  3885  0EBF  0C92               	rrf	(___fladd@b+2)^(0+384),f
  3886  0EC0  0C91               	rrf	(___fladd@b+1)^(0+384),f
  3887  0EC1  0C90               	rrf	___fladd@b^(0+384),f
  3888  0EC2  0B98               	decfsz	(??___fladd^(0+384))& (0+127),f
  3889  0EC3  2EBD               	goto	u3135
  3890  0EC4  3001               	movlw	1
  3891  0EC5  0098               	movwf	??___fladd^(0+384)
  3892  0EC6  0818               	movf	??___fladd^(0+384),w
  3893  0EC7  1683               	bsf	3,5	;RP0=1, select bank1
  3894  0EC8  1303               	bcf	3,6	;RP1=0, select bank1
  3895  0EC9  07ED               	addwf	___fladd@bexp^(0+128),f
  3896  0ECA  2F81               	goto	l2387
  3897  0ECB                     l2353:	
  3898  0ECB  1683               	bsf	3,5	;RP0=1, select bank3
  3899  0ECC  1703               	bsf	3,6	;RP1=1, select bank3
  3900  0ECD  0813               	movf	(___fladd@b+3)^(0+384),w
  3901  0ECE  3A80               	xorlw	128
  3902  0ECF  00FF               	movwf	127
  3903  0ED0  0817               	movf	(___fladd@a+3)^(0+384),w
  3904  0ED1  3A80               	xorlw	128
  3905  0ED2  027F               	subwf	127,w
  3906  0ED3  1D03               	skipz
  3907  0ED4  2EDF               	goto	u3143
  3908  0ED5  0816               	movf	(___fladd@a+2)^(0+384),w
  3909  0ED6  0212               	subwf	(___fladd@b+2)^(0+384),w
  3910  0ED7  1D03               	skipz
  3911  0ED8  2EDF               	goto	u3143
  3912  0ED9  0815               	movf	(___fladd@a+1)^(0+384),w
  3913  0EDA  0211               	subwf	(___fladd@b+1)^(0+384),w
  3914  0EDB  1D03               	skipz
  3915  0EDC  2EDF               	goto	u3143
  3916  0EDD  0814               	movf	___fladd@a^(0+384),w
  3917  0EDE  0210               	subwf	___fladd@b^(0+384),w
  3918  0EDF                     u3143:	
  3919  0EDF  1803               	skipnc
  3920  0EE0  2F3B               	goto	l2363
  3921  0EE1  30FF               	movlw	255
  3922  0EE2  0098               	movwf	??___fladd^(0+384)
  3923  0EE3  30FF               	movlw	255
  3924  0EE4  0099               	movwf	(??___fladd^(0+384)+1)
  3925  0EE5  30FF               	movlw	255
  3926  0EE6  009A               	movwf	(??___fladd^(0+384)+2)
  3927  0EE7  30FF               	movlw	255
  3928  0EE8  009B               	movwf	(??___fladd^(0+384)+3)
  3929  0EE9  0814               	movf	___fladd@a^(0+384),w
  3930  0EEA  009C               	movwf	(??___fladd+4)^(0+384)
  3931  0EEB  0815               	movf	(___fladd@a+1)^(0+384),w
  3932  0EEC  009D               	movwf	((??___fladd+4)^(0+384)+1)
  3933  0EED  0816               	movf	(___fladd@a+2)^(0+384),w
  3934  0EEE  009E               	movwf	((??___fladd+4)^(0+384)+2)
  3935  0EEF  0817               	movf	(___fladd@a+3)^(0+384),w
  3936  0EF0  009F               	movwf	((??___fladd+4)^(0+384)+3)
  3937  0EF1  0810               	movf	___fladd@b^(0+384),w
  3938  0EF2  029C               	subwf	(??___fladd+4)^(0+384),f
  3939  0EF3  0811               	movf	(___fladd@b+1)^(0+384),w
  3940  0EF4  1C03               	skipc
  3941  0EF5  0F11               	incfsz	(___fladd@b+1)^(0+384),w
  3942  0EF6  2EF8               	goto	u3151
  3943  0EF7  2EF9               	goto	u3152
  3944  0EF8                     u3151:	
  3945  0EF8  029D               	subwf	((??___fladd+4)^(0+384)+1),f
  3946  0EF9                     u3152:	
  3947  0EF9  0812               	movf	(___fladd@b+2)^(0+384),w
  3948  0EFA  1C03               	skipc
  3949  0EFB  0F12               	incfsz	(___fladd@b+2)^(0+384),w
  3950  0EFC  2EFE               	goto	u3153
  3951  0EFD  2EFF               	goto	u3154
  3952  0EFE                     u3153:	
  3953  0EFE  029E               	subwf	((??___fladd+4)^(0+384)+2),f
  3954  0EFF                     u3154:	
  3955  0EFF  0813               	movf	(___fladd@b+3)^(0+384),w
  3956  0F00  1C03               	skipc
  3957  0F01  0F13               	incfsz	(___fladd@b+3)^(0+384),w
  3958  0F02  2F04               	goto	u3155
  3959  0F03  2F05               	goto	u3156
  3960  0F04                     u3155:	
  3961  0F04  029F               	subwf	((??___fladd+4)^(0+384)+3),f
  3962  0F05                     u3156:	
  3963  0F05  081C               	movf	(??___fladd+4)^(0+384),w
  3964  0F06  0798               	addwf	??___fladd^(0+384),f
  3965  0F07  081D               	movf	(??___fladd+5)^(0+384),w
  3966  0F08  1803               	skipnc
  3967  0F09  0F1D               	incfsz	(??___fladd+5)^(0+384),w
  3968  0F0A  2F0C               	goto	u3160
  3969  0F0B  2F0D               	goto	u3161
  3970  0F0C                     u3160:	
  3971  0F0C  0799               	addwf	(??___fladd^(0+384)+1),f
  3972  0F0D                     u3161:	
  3973  0F0D  081E               	movf	(??___fladd+6)^(0+384),w
  3974  0F0E  1803               	skipnc
  3975  0F0F  0F1E               	incfsz	(??___fladd+6)^(0+384),w
  3976  0F10  2F12               	goto	u3162
  3977  0F11  2F13               	goto	u3163
  3978  0F12                     u3162:	
  3979  0F12  079A               	addwf	(??___fladd^(0+384)+2),f
  3980  0F13                     u3163:	
  3981  0F13  081F               	movf	(??___fladd+7)^(0+384),w
  3982  0F14  1803               	skipnc
  3983  0F15  0A1F               	incf	(??___fladd+7)^(0+384),w
  3984  0F16  079B               	addwf	(??___fladd^(0+384)+3),f
  3985  0F17  081B               	movf	(??___fladd+3)^(0+384),w
  3986  0F18  0093               	movwf	(___fladd@b+3)^(0+384)
  3987  0F19  081A               	movf	(??___fladd+2)^(0+384),w
  3988  0F1A  0092               	movwf	(___fladd@b+2)^(0+384)
  3989  0F1B  0819               	movf	(??___fladd+1)^(0+384),w
  3990  0F1C  0091               	movwf	(___fladd@b+1)^(0+384)
  3991  0F1D  0818               	movf	??___fladd^(0+384),w
  3992  0F1E  0090               	movwf	___fladd@b^(0+384)
  3993  0F1F  3080               	movlw	128
  3994  0F20  0098               	movwf	??___fladd^(0+384)
  3995  0F21  0818               	movf	??___fladd^(0+384),w
  3996  0F22  1683               	bsf	3,5	;RP0=1, select bank1
  3997  0F23  1303               	bcf	3,6	;RP1=0, select bank1
  3998  0F24  06EB               	xorwf	___fladd@signs^(0+128),f
  3999  0F25  09EE               	comf	___fladd@grs^(0+128),f
  4000  0F26  0AEE               	incf	___fladd@grs^(0+128),f
  4001  0F27  086E               	movf	___fladd@grs^(0+128),w
  4002  0F28  1D03               	btfss	3,2
  4003  0F29  2F49               	goto	l633
  4004  0F2A  3001               	movlw	1
  4005  0F2B  1683               	bsf	3,5	;RP0=1, select bank3
  4006  0F2C  1703               	bsf	3,6	;RP1=1, select bank3
  4007  0F2D  0790               	addwf	___fladd@b^(0+384),f
  4008  0F2E  3000               	movlw	0
  4009  0F2F  1803               	skipnc
  4010  0F30  3001               	movlw	1
  4011  0F31  0791               	addwf	(___fladd@b+1)^(0+384),f
  4012  0F32  3000               	movlw	0
  4013  0F33  1803               	skipnc
  4014  0F34  3001               	movlw	1
  4015  0F35  0792               	addwf	(___fladd@b+2)^(0+384),f
  4016  0F36  3000               	movlw	0
  4017  0F37  1803               	skipnc
  4018  0F38  3001               	movlw	1
  4019  0F39  0793               	addwf	(___fladd@b+3)^(0+384),f
  4020  0F3A  2F49               	goto	l633
  4021  0F3B                     l2363:	
  4022  0F3B  0814               	movf	___fladd@a^(0+384),w
  4023  0F3C  0290               	subwf	___fladd@b^(0+384),f
  4024  0F3D  0815               	movf	(___fladd@a+1)^(0+384),w
  4025  0F3E  1C03               	skipc
  4026  0F3F  0F15               	incfsz	(___fladd@a+1)^(0+384),w
  4027  0F40  0291               	subwf	(___fladd@b+1)^(0+384),f
  4028  0F41  0816               	movf	(___fladd@a+2)^(0+384),w
  4029  0F42  1C03               	skipc
  4030  0F43  0F16               	incfsz	(___fladd@a+2)^(0+384),w
  4031  0F44  0292               	subwf	(___fladd@b+2)^(0+384),f
  4032  0F45  0817               	movf	(___fladd@a+3)^(0+384),w
  4033  0F46  1C03               	skipc
  4034  0F47  0F17               	incfsz	(___fladd@a+3)^(0+384),w
  4035  0F48  0293               	subwf	(___fladd@b+3)^(0+384),f
  4036  0F49                     l633:	
  4037  0F49  1683               	bsf	3,5	;RP0=1, select bank3
  4038  0F4A  1703               	bsf	3,6	;RP1=1, select bank3
  4039  0F4B  0813               	movf	(___fladd@b+3)^(0+384),w
  4040  0F4C  0412               	iorwf	(___fladd@b+2)^(0+384),w
  4041  0F4D  0411               	iorwf	(___fladd@b+1)^(0+384),w
  4042  0F4E  0410               	iorwf	___fladd@b^(0+384),w
  4043  0F4F  1D03               	skipz
  4044  0F50  2F7D               	goto	l2385
  4045  0F51  1683               	bsf	3,5	;RP0=1, select bank1
  4046  0F52  1303               	bcf	3,6	;RP1=0, select bank1
  4047  0F53  086E               	movf	___fladd@grs^(0+128),w
  4048  0F54  1D03               	btfss	3,2
  4049  0F55  2F7D               	goto	l2385
  4050  0F56  3000               	movlw	0
  4051  0F57  1683               	bsf	3,5	;RP0=1, select bank3
  4052  0F58  1703               	bsf	3,6	;RP1=1, select bank3
  4053  0F59  0093               	movwf	(?___fladd+3)^(0+384)
  4054  0F5A  3000               	movlw	0
  4055  0F5B  0092               	movwf	(?___fladd+2)^(0+384)
  4056  0F5C  3000               	movlw	0
  4057  0F5D  0091               	movwf	(?___fladd+1)^(0+384)
  4058  0F5E  3000               	movlw	0
  4059  0F5F  0090               	movwf	?___fladd^(0+384)
  4060  0F60  0008               	return
  4061  0F61                     l2371:	
  4062  0F61  3001               	movlw	1
  4063  0F62  0098               	movwf	??___fladd^(0+384)
  4064  0F63                     u3205:	
  4065  0F63  1003               	clrc
  4066  0F64  0D90               	rlf	___fladd@b^(0+384),f
  4067  0F65  0D91               	rlf	(___fladd@b+1)^(0+384),f
  4068  0F66  0D92               	rlf	(___fladd@b+2)^(0+384),f
  4069  0F67  0D93               	rlf	(___fladd@b+3)^(0+384),f
  4070  0F68  0B98               	decfsz	??___fladd^(0+384),f
  4071  0F69  2F63               	goto	u3205
  4072  0F6A  1683               	bsf	3,5	;RP0=1, select bank1
  4073  0F6B  1303               	bcf	3,6	;RP1=0, select bank1
  4074  0F6C  1FEE               	btfss	___fladd@grs^(0+128),7
  4075  0F6D  2F71               	goto	l637
  4076  0F6E  1683               	bsf	3,5	;RP0=1, select bank3
  4077  0F6F  1703               	bsf	3,6	;RP1=1, select bank3
  4078  0F70  1410               	bsf	___fladd@b^(0+384),0
  4079  0F71                     l637:	
  4080  0F71  1303               	bcf	3,6	;RP1=0, select bank1
  4081  0F72  1C6E               	btfss	___fladd@grs^(0+128),0
  4082  0F73  2F76               	goto	l2379
  4083  0F74  1403               	setc
  4084  0F75  2F77               	goto	L1
  4085  0F76                     l2379:	
  4086  0F76  1003               	clrc
  4087  0F77                     L1:	
  4088  0F77  0DEE               	rlf	___fladd@grs^(0+128),f
  4089  0F78  086D               	movf	___fladd@bexp^(0+128),w
  4090  0F79  1903               	btfsc	3,2
  4091  0F7A  2F7D               	goto	l2385
  4092  0F7B  3001               	movlw	1
  4093  0F7C  02ED               	subwf	___fladd@bexp^(0+128),f
  4094  0F7D                     l2385:	
  4095  0F7D  1683               	bsf	3,5	;RP0=1, select bank3
  4096  0F7E  1703               	bsf	3,6	;RP1=1, select bank3
  4097  0F7F  1F92               	btfss	(___fladd@b+2)^(0+384),7
  4098  0F80  2F61               	goto	l2371
  4099  0F81                     l2387:	
  4100  0F81  1303               	bcf	3,6	;RP1=0, select bank1
  4101  0F82  01EC               	clrf	___fladd@aexp^(0+128)
  4102  0F83  1FEE               	btfss	___fladd@grs^(0+128),7
  4103  0F84  2F90               	goto	l2397
  4104  0F85  086E               	movf	___fladd@grs^(0+128),w
  4105  0F86  397F               	andlw	127
  4106  0F87  1D03               	btfss	3,2
  4107  0F88  2F8D               	goto	l2393
  4108  0F89  1683               	bsf	3,5	;RP0=1, select bank3
  4109  0F8A  1703               	bsf	3,6	;RP1=1, select bank3
  4110  0F8B  1C10               	btfss	___fladd@b^(0+384),0
  4111  0F8C  2F90               	goto	l2397
  4112  0F8D                     l2393:	
  4113  0F8D  1303               	bcf	3,6	;RP1=0, select bank1
  4114  0F8E  01EC               	clrf	___fladd@aexp^(0+128)
  4115  0F8F  0AEC               	incf	___fladd@aexp^(0+128),f
  4116  0F90                     l2397:	
  4117  0F90  1303               	bcf	3,6	;RP1=0, select bank1
  4118  0F91  086C               	movf	___fladd@aexp^(0+128),w
  4119  0F92  1903               	btfsc	3,2
  4120  0F93  2FCC               	goto	l646
  4121  0F94  3001               	movlw	1
  4122  0F95  1683               	bsf	3,5	;RP0=1, select bank3
  4123  0F96  1703               	bsf	3,6	;RP1=1, select bank3
  4124  0F97  0790               	addwf	___fladd@b^(0+384),f
  4125  0F98  3000               	movlw	0
  4126  0F99  1803               	skipnc
  4127  0F9A  3001               	movlw	1
  4128  0F9B  0791               	addwf	(___fladd@b+1)^(0+384),f
  4129  0F9C  3000               	movlw	0
  4130  0F9D  1803               	skipnc
  4131  0F9E  3001               	movlw	1
  4132  0F9F  0792               	addwf	(___fladd@b+2)^(0+384),f
  4133  0FA0  3000               	movlw	0
  4134  0FA1  1803               	skipnc
  4135  0FA2  3001               	movlw	1
  4136  0FA3  0793               	addwf	(___fladd@b+3)^(0+384),f
  4137  0FA4  1C13               	btfss	(___fladd@b+3)^(0+384),0
  4138  0FA5  2FCC               	goto	l646
  4139  0FA6  0810               	movf	___fladd@b^(0+384),w
  4140  0FA7  0098               	movwf	??___fladd^(0+384)
  4141  0FA8  0811               	movf	(___fladd@b+1)^(0+384),w
  4142  0FA9  0099               	movwf	(??___fladd^(0+384)+1)
  4143  0FAA  0812               	movf	(___fladd@b+2)^(0+384),w
  4144  0FAB  009A               	movwf	(??___fladd^(0+384)+2)
  4145  0FAC  0813               	movf	(___fladd@b+3)^(0+384),w
  4146  0FAD  009B               	movwf	(??___fladd^(0+384)+3)
  4147  0FAE  3001               	movlw	1
  4148  0FAF  009C               	movwf	(??___fladd+4)^(0+384)
  4149  0FB0                     u3305:	
  4150  0FB0  0D1B               	rlf	(??___fladd^(0+384)+3),w
  4151  0FB1  0C9B               	rrf	(??___fladd^(0+384)+3),f
  4152  0FB2  0C9A               	rrf	(??___fladd^(0+384)+2),f
  4153  0FB3  0C99               	rrf	(??___fladd^(0+384)+1),f
  4154  0FB4  0C98               	rrf	??___fladd^(0+384),f
  4155  0FB5  0B9C               	decfsz	(??___fladd+4)^(0+384),f
  4156  0FB6  2FB0               	goto	u3305
  4157  0FB7  081B               	movf	(??___fladd+3)^(0+384),w
  4158  0FB8  0093               	movwf	(___fladd@b+3)^(0+384)
  4159  0FB9  081A               	movf	(??___fladd+2)^(0+384),w
  4160  0FBA  0092               	movwf	(___fladd@b+2)^(0+384)
  4161  0FBB  0819               	movf	(??___fladd+1)^(0+384),w
  4162  0FBC  0091               	movwf	(___fladd@b+1)^(0+384)
  4163  0FBD  0818               	movf	??___fladd^(0+384),w
  4164  0FBE  0090               	movwf	___fladd@b^(0+384)
  4165  0FBF  1683               	bsf	3,5	;RP0=1, select bank1
  4166  0FC0  1303               	bcf	3,6	;RP1=0, select bank1
  4167  0FC1  0A6D               	incf	___fladd@bexp^(0+128),w
  4168  0FC2  1903               	btfsc	3,2
  4169  0FC3  2FCC               	goto	l646
  4170  0FC4  3001               	movlw	1
  4171  0FC5  1683               	bsf	3,5	;RP0=1, select bank3
  4172  0FC6  1703               	bsf	3,6	;RP1=1, select bank3
  4173  0FC7  0098               	movwf	??___fladd^(0+384)
  4174  0FC8  0818               	movf	??___fladd^(0+384),w
  4175  0FC9  1683               	bsf	3,5	;RP0=1, select bank1
  4176  0FCA  1303               	bcf	3,6	;RP1=0, select bank1
  4177  0FCB  07ED               	addwf	___fladd@bexp^(0+128),f
  4178  0FCC                     l646:	
  4179  0FCC  1303               	bcf	3,6	;RP1=0, select bank1
  4180  0FCD  0A6D               	incf	___fladd@bexp^(0+128),w
  4181  0FCE  1D03               	btfss	3,2
  4182  0FCF  086D               	movf	___fladd@bexp^(0+128),w
  4183  0FD0  1D03               	btfss	3,2
  4184  0FD1  2FE1               	goto	l2415
  4185  0FD2  3000               	movlw	0
  4186  0FD3  1683               	bsf	3,5	;RP0=1, select bank3
  4187  0FD4  1703               	bsf	3,6	;RP1=1, select bank3
  4188  0FD5  0093               	movwf	(___fladd@b+3)^(0+384)
  4189  0FD6  3000               	movlw	0
  4190  0FD7  0092               	movwf	(___fladd@b+2)^(0+384)
  4191  0FD8  3000               	movlw	0
  4192  0FD9  0091               	movwf	(___fladd@b+1)^(0+384)
  4193  0FDA  3000               	movlw	0
  4194  0FDB  0090               	movwf	___fladd@b^(0+384)
  4195  0FDC  1683               	bsf	3,5	;RP0=1, select bank1
  4196  0FDD  1303               	bcf	3,6	;RP1=0, select bank1
  4197  0FDE  086D               	movf	___fladd@bexp^(0+128),w
  4198  0FDF  1903               	btfsc	3,2
  4199  0FE0  01EB               	clrf	___fladd@signs^(0+128)
  4200  0FE1                     l2415:	
  4201  0FE1  1C6D               	btfss	___fladd@bexp^(0+128),0
  4202  0FE2  2FE7               	goto	l2419
  4203  0FE3  1683               	bsf	3,5	;RP0=1, select bank3
  4204  0FE4  1703               	bsf	3,6	;RP1=1, select bank3
  4205  0FE5  1792               	bsf	(___fladd@b^(0+384)+2),7
  4206  0FE6  2FED               	goto	l654
  4207  0FE7                     l2419:	
  4208  0FE7  307F               	movlw	127
  4209  0FE8  1683               	bsf	3,5	;RP0=1, select bank3
  4210  0FE9  1703               	bsf	3,6	;RP1=1, select bank3
  4211  0FEA  0098               	movwf	??___fladd^(0+384)
  4212  0FEB  0818               	movf	??___fladd^(0+384),w
  4213  0FEC  0592               	andwf	(___fladd@b^(0+384)+2),f
  4214  0FED                     l654:	
  4215  0FED  1683               	bsf	3,5	;RP0=1, select bank1
  4216  0FEE  1303               	bcf	3,6	;RP1=0, select bank1
  4217  0FEF  086D               	movf	___fladd@bexp^(0+128),w
  4218  0FF0  1683               	bsf	3,5	;RP0=1, select bank3
  4219  0FF1  1703               	bsf	3,6	;RP1=1, select bank3
  4220  0FF2  0098               	movwf	??___fladd^(0+384)
  4221  0FF3  1003               	clrc
  4222  0FF4  0C18               	rrf	??___fladd^(0+384),w
  4223  0FF5  0099               	movwf	(??___fladd+1)^(0+384)
  4224  0FF6  0819               	movf	(??___fladd+1)^(0+384),w
  4225  0FF7  0093               	movwf	(___fladd@b^(0+384)+3)
  4226  0FF8  1683               	bsf	3,5	;RP0=1, select bank1
  4227  0FF9  1303               	bcf	3,6	;RP1=0, select bank1
  4228  0FFA  1FEB               	btfss	___fladd@signs^(0+128),7
  4229  0FFB  0008               	return
  4230  0FFC  1683               	bsf	3,5	;RP0=1, select bank3
  4231  0FFD  1703               	bsf	3,6	;RP1=1, select bank3
  4232  0FFE  1793               	bsf	(___fladd@b^(0+384)+3),7
  4233  0FFF  0008               	return
  4234  1000                     __end_of___fladd:	
  4235                           
  4236                           	psect	text9
  4237  0472                     __ptext9:	
  4238 ;; *************** function ___flmul *****************
  4239 ;; Defined at:
  4240 ;;		line 8 in file "D:\PROGRAM\MPLABX v5.20\XC8 v2.05\pic\sources\c90\common\sprcmul.c"
  4241 ;; Parameters:    Size  Location     Type
  4242 ;;  b               4   23[BANK1 ] unsigned char 
  4243 ;;  a               4   27[BANK1 ] unsigned char 
  4244 ;; Auto vars:     Size  Location     Type
  4245 ;;  prod            4   43[BANK1 ] struct .
  4246 ;;  grs             4   37[BANK1 ] unsigned long 
  4247 ;;  temp            2   47[BANK1 ] struct .
  4248 ;;  bexp            1   42[BANK1 ] unsigned char 
  4249 ;;  aexp            1   41[BANK1 ] unsigned char 
  4250 ;;  sign            1   36[BANK1 ] unsigned char 
  4251 ;; Return value:  Size  Location     Type
  4252 ;;                  4   23[BANK1 ] unsigned char 
  4253 ;; Registers used:
  4254 ;;		wreg, status,2, status,0, btemp+1, pclath, cstack
  4255 ;; Tracked objects:
  4256 ;;		On entry : 0/0
  4257 ;;		On exit  : 0/0
  4258 ;;		Unchanged: 0/0
  4259 ;; Data sizes:     COMMON   BANK0   BANK1   BANK3   BANK2
  4260 ;;      Params:         0       0       8       0       0
  4261 ;;      Locals:         0       0      13       0       0
  4262 ;;      Temps:          0       0       5       0       0
  4263 ;;      Totals:         0       0      26       0       0
  4264 ;;Total ram usage:       26 bytes
  4265 ;; Hardware stack levels used:    1
  4266 ;; Hardware stack levels required when called:    4
  4267 ;; This function calls:
  4268 ;;		__Umul8_16
  4269 ;; This function is called by:
  4270 ;;		_main
  4271 ;;		_PID_Init
  4272 ;; This function uses a non-reentrant model
  4273 ;;
  4274                           
  4275                           
  4276                           ;psect for function ___flmul
  4277  0472                     ___flmul:	
  4278                           
  4279                           ;incstack = 0
  4280                           ; Regs used in ___flmul: [wreg+status,2+status,0+btemp+1+pclath+cstack]
  4281  0472  1683               	bsf	3,5	;RP0=1, select bank1
  4282  0473  1303               	bcf	3,6	;RP1=0, select bank1
  4283  0474  083A               	movf	(___flmul@b^(0+128)+3),w
  4284  0475  3980               	andlw	128
  4285  0476  00BF               	movwf	??___flmul^(0+128)
  4286  0477  083F               	movf	??___flmul^(0+128),w
  4287  0478  00C4               	movwf	___flmul@sign^(0+128)
  4288  0479  083A               	movf	(___flmul@b^(0+128)+3),w
  4289  047A  00BF               	movwf	??___flmul^(0+128)
  4290  047B  073F               	addwf	??___flmul^(0+128),w
  4291  047C  00C0               	movwf	(??___flmul+1)^(0+128)
  4292  047D  0840               	movf	(??___flmul+1)^(0+128),w
  4293  047E  00CA               	movwf	___flmul@bexp^(0+128)
  4294  047F  1BB9               	btfsc	(___flmul@b^(0+128)+2),7
  4295  0480  144A               	bsf	___flmul@bexp^(0+128),0
  4296  0481  084A               	movf	___flmul@bexp^(0+128),w
  4297  0482  1903               	btfsc	3,2
  4298  0483  2C91               	goto	l2691
  4299  0484  0A4A               	incf	___flmul@bexp^(0+128),w
  4300  0485  1D03               	btfss	3,2
  4301  0486  2C8F               	goto	l2689
  4302  0487  3000               	movlw	0
  4303  0488  00BA               	movwf	(___flmul@b+3)^(0+128)
  4304  0489  3000               	movlw	0
  4305  048A  00B9               	movwf	(___flmul@b+2)^(0+128)
  4306  048B  3000               	movlw	0
  4307  048C  00B8               	movwf	(___flmul@b+1)^(0+128)
  4308  048D  3000               	movlw	0
  4309  048E  00B7               	movwf	___flmul@b^(0+128)
  4310  048F                     l2689:	
  4311  048F  17B9               	bsf	(___flmul@b^(0+128)+2),7
  4312  0490  2C99               	goto	l2693
  4313  0491                     l2691:	
  4314  0491  3000               	movlw	0
  4315  0492  00BA               	movwf	(___flmul@b+3)^(0+128)
  4316  0493  3000               	movlw	0
  4317  0494  00B9               	movwf	(___flmul@b+2)^(0+128)
  4318  0495  3000               	movlw	0
  4319  0496  00B8               	movwf	(___flmul@b+1)^(0+128)
  4320  0497  3000               	movlw	0
  4321  0498  00B7               	movwf	___flmul@b^(0+128)
  4322  0499                     l2693:	
  4323  0499  083E               	movf	(___flmul@a^(0+128)+3),w
  4324  049A  3980               	andlw	128
  4325  049B  00BF               	movwf	??___flmul^(0+128)
  4326  049C  083F               	movf	??___flmul^(0+128),w
  4327  049D  06C4               	xorwf	___flmul@sign^(0+128),f
  4328  049E  083E               	movf	(___flmul@a^(0+128)+3),w
  4329  049F  00BF               	movwf	??___flmul^(0+128)
  4330  04A0  073F               	addwf	??___flmul^(0+128),w
  4331  04A1  00C0               	movwf	(??___flmul+1)^(0+128)
  4332  04A2  0840               	movf	(??___flmul+1)^(0+128),w
  4333  04A3  00C9               	movwf	___flmul@aexp^(0+128)
  4334  04A4  1BBD               	btfsc	(___flmul@a^(0+128)+2),7
  4335  04A5  1449               	bsf	___flmul@aexp^(0+128),0
  4336  04A6  0849               	movf	___flmul@aexp^(0+128),w
  4337  04A7  1903               	btfsc	3,2
  4338  04A8  2CB6               	goto	l2709
  4339  04A9  0A49               	incf	___flmul@aexp^(0+128),w
  4340  04AA  1D03               	btfss	3,2
  4341  04AB  2CB4               	goto	l2707
  4342  04AC  3000               	movlw	0
  4343  04AD  00BE               	movwf	(___flmul@a+3)^(0+128)
  4344  04AE  3000               	movlw	0
  4345  04AF  00BD               	movwf	(___flmul@a+2)^(0+128)
  4346  04B0  3000               	movlw	0
  4347  04B1  00BC               	movwf	(___flmul@a+1)^(0+128)
  4348  04B2  3000               	movlw	0
  4349  04B3  00BB               	movwf	___flmul@a^(0+128)
  4350  04B4                     l2707:	
  4351  04B4  17BD               	bsf	(___flmul@a^(0+128)+2),7
  4352  04B5  2CBE               	goto	l2711
  4353  04B6                     l2709:	
  4354  04B6  3000               	movlw	0
  4355  04B7  00BE               	movwf	(___flmul@a+3)^(0+128)
  4356  04B8  3000               	movlw	0
  4357  04B9  00BD               	movwf	(___flmul@a+2)^(0+128)
  4358  04BA  3000               	movlw	0
  4359  04BB  00BC               	movwf	(___flmul@a+1)^(0+128)
  4360  04BC  3000               	movlw	0
  4361  04BD  00BB               	movwf	___flmul@a^(0+128)
  4362  04BE                     l2711:	
  4363  04BE  0849               	movf	___flmul@aexp^(0+128),w
  4364  04BF  1D03               	btfss	3,2
  4365  04C0  084A               	movf	___flmul@bexp^(0+128),w
  4366  04C1  1D03               	btfss	3,2
  4367  04C2  2CCC               	goto	l2719
  4368  04C3  3000               	movlw	0
  4369  04C4  00BA               	movwf	(?___flmul+3)^(0+128)
  4370  04C5  3000               	movlw	0
  4371  04C6  00B9               	movwf	(?___flmul+2)^(0+128)
  4372  04C7  3000               	movlw	0
  4373  04C8  00B8               	movwf	(?___flmul+1)^(0+128)
  4374  04C9  3000               	movlw	0
  4375  04CA  00B7               	movwf	?___flmul^(0+128)
  4376  04CB  0008               	return
  4377  04CC                     l2719:	
  4378  04CC  0837               	movf	___flmul@b^(0+128),w
  4379  04CD  00BF               	movwf	??___flmul^(0+128)
  4380  04CE  083F               	movf	??___flmul^(0+128),w
  4381  04CF  00A0               	movwf	__Umul8_16@multiplicand^(0+128)
  4382  04D0  083D               	movf	(___flmul@a^(0+128)+2),w
  4383  04D1  160A  118A  200F  120A  118A  	fcall	__Umul8_16
  4384  04D6  1683               	bsf	3,5	;RP0=1, select bank1
  4385  04D7  1303               	bcf	3,6	;RP1=0, select bank1
  4386  04D8  0821               	movf	(?__Umul8_16+1)^(0+128),w
  4387  04D9  00D0               	movwf	(___flmul@temp+1)^(0+128)
  4388  04DA  0820               	movf	?__Umul8_16^(0+128),w
  4389  04DB  00CF               	movwf	___flmul@temp^(0+128)
  4390  04DC  084F               	movf	___flmul@temp^(0+128),w
  4391  04DD  00BF               	movwf	??___flmul^(0+128)
  4392  04DE  01C0               	clrf	(??___flmul^(0+128)+1)
  4393  04DF  01C1               	clrf	(??___flmul^(0+128)+2)
  4394  04E0  01C2               	clrf	(??___flmul^(0+128)+3)
  4395  04E1  0842               	movf	(??___flmul+3)^(0+128),w
  4396  04E2  00C8               	movwf	(___flmul@grs+3)^(0+128)
  4397  04E3  0841               	movf	(??___flmul+2)^(0+128),w
  4398  04E4  00C7               	movwf	(___flmul@grs+2)^(0+128)
  4399  04E5  0840               	movf	(??___flmul+1)^(0+128),w
  4400  04E6  00C6               	movwf	(___flmul@grs+1)^(0+128)
  4401  04E7  083F               	movf	??___flmul^(0+128),w
  4402  04E8  00C5               	movwf	___flmul@grs^(0+128)
  4403  04E9  0850               	movf	(___flmul@temp^(0+128)+1),w
  4404  04EA  00BF               	movwf	??___flmul^(0+128)
  4405  04EB  01C0               	clrf	(??___flmul^(0+128)+1)
  4406  04EC  01C1               	clrf	(??___flmul^(0+128)+2)
  4407  04ED  01C2               	clrf	(??___flmul^(0+128)+3)
  4408  04EE  0842               	movf	(??___flmul+3)^(0+128),w
  4409  04EF  00CE               	movwf	(___flmul@prod+3)^(0+128)
  4410  04F0  0841               	movf	(??___flmul+2)^(0+128),w
  4411  04F1  00CD               	movwf	(___flmul@prod+2)^(0+128)
  4412  04F2  0840               	movf	(??___flmul+1)^(0+128),w
  4413  04F3  00CC               	movwf	(___flmul@prod+1)^(0+128)
  4414  04F4  083F               	movf	??___flmul^(0+128),w
  4415  04F5  00CB               	movwf	___flmul@prod^(0+128)
  4416  04F6  0838               	movf	(___flmul@b^(0+128)+1),w
  4417  04F7  00BF               	movwf	??___flmul^(0+128)
  4418  04F8  083F               	movf	??___flmul^(0+128),w
  4419  04F9  00A0               	movwf	__Umul8_16@multiplicand^(0+128)
  4420  04FA  083C               	movf	(___flmul@a^(0+128)+1),w
  4421  04FB  160A  118A  200F  120A  118A  	fcall	__Umul8_16
  4422  0500  1683               	bsf	3,5	;RP0=1, select bank1
  4423  0501  1303               	bcf	3,6	;RP1=0, select bank1
  4424  0502  0821               	movf	(?__Umul8_16+1)^(0+128),w
  4425  0503  00D0               	movwf	(___flmul@temp+1)^(0+128)
  4426  0504  0820               	movf	?__Umul8_16^(0+128),w
  4427  0505  00CF               	movwf	___flmul@temp^(0+128)
  4428  0506  084F               	movf	___flmul@temp^(0+128),w
  4429  0507  00BF               	movwf	??___flmul^(0+128)
  4430  0508  01C0               	clrf	(??___flmul^(0+128)+1)
  4431  0509  01C1               	clrf	(??___flmul^(0+128)+2)
  4432  050A  01C2               	clrf	(??___flmul^(0+128)+3)
  4433  050B  083F               	movf	??___flmul^(0+128),w
  4434  050C  07C5               	addwf	___flmul@grs^(0+128),f
  4435  050D  0840               	movf	(??___flmul+1)^(0+128),w
  4436  050E  1103               	clrz
  4437  050F  1803               	skipnc
  4438  0510  3E01               	addlw	1
  4439  0511  1D03               	btfss	3,2
  4440  0512  07C6               	addwf	(___flmul@grs+1)^(0+128),f
  4441  0513  0841               	movf	(??___flmul+2)^(0+128),w
  4442  0514  1103               	clrz
  4443  0515  1803               	skipnc
  4444  0516  3E01               	addlw	1
  4445  0517  1D03               	btfss	3,2
  4446  0518  07C7               	addwf	(___flmul@grs+2)^(0+128),f
  4447  0519  0842               	movf	(??___flmul+3)^(0+128),w
  4448  051A  1103               	clrz
  4449  051B  1803               	skipnc
  4450  051C  3E01               	addlw	1
  4451  051D  1D03               	btfss	3,2
  4452  051E  07C8               	addwf	(___flmul@grs+3)^(0+128),f
  4453  051F  0850               	movf	(___flmul@temp^(0+128)+1),w
  4454  0520  00BF               	movwf	??___flmul^(0+128)
  4455  0521  01C0               	clrf	(??___flmul^(0+128)+1)
  4456  0522  01C1               	clrf	(??___flmul^(0+128)+2)
  4457  0523  01C2               	clrf	(??___flmul^(0+128)+3)
  4458  0524  083F               	movf	??___flmul^(0+128),w
  4459  0525  07CB               	addwf	___flmul@prod^(0+128),f
  4460  0526  0840               	movf	(??___flmul+1)^(0+128),w
  4461  0527  1103               	clrz
  4462  0528  1803               	skipnc
  4463  0529  3E01               	addlw	1
  4464  052A  1D03               	btfss	3,2
  4465  052B  07CC               	addwf	(___flmul@prod+1)^(0+128),f
  4466  052C  0841               	movf	(??___flmul+2)^(0+128),w
  4467  052D  1103               	clrz
  4468  052E  1803               	skipnc
  4469  052F  3E01               	addlw	1
  4470  0530  1D03               	btfss	3,2
  4471  0531  07CD               	addwf	(___flmul@prod+2)^(0+128),f
  4472  0532  0842               	movf	(??___flmul+3)^(0+128),w
  4473  0533  1103               	clrz
  4474  0534  1803               	skipnc
  4475  0535  3E01               	addlw	1
  4476  0536  1D03               	btfss	3,2
  4477  0537  07CE               	addwf	(___flmul@prod+3)^(0+128),f
  4478  0538  0839               	movf	(___flmul@b^(0+128)+2),w
  4479  0539  00BF               	movwf	??___flmul^(0+128)
  4480  053A  083F               	movf	??___flmul^(0+128),w
  4481  053B  00A0               	movwf	__Umul8_16@multiplicand^(0+128)
  4482  053C  083B               	movf	___flmul@a^(0+128),w
  4483  053D  160A  118A  200F  120A  118A  	fcall	__Umul8_16
  4484  0542  1683               	bsf	3,5	;RP0=1, select bank1
  4485  0543  1303               	bcf	3,6	;RP1=0, select bank1
  4486  0544  0821               	movf	(?__Umul8_16+1)^(0+128),w
  4487  0545  00D0               	movwf	(___flmul@temp+1)^(0+128)
  4488  0546  0820               	movf	?__Umul8_16^(0+128),w
  4489  0547  00CF               	movwf	___flmul@temp^(0+128)
  4490  0548  084F               	movf	___flmul@temp^(0+128),w
  4491  0549  00BF               	movwf	??___flmul^(0+128)
  4492  054A  01C0               	clrf	(??___flmul^(0+128)+1)
  4493  054B  01C1               	clrf	(??___flmul^(0+128)+2)
  4494  054C  01C2               	clrf	(??___flmul^(0+128)+3)
  4495  054D  083F               	movf	??___flmul^(0+128),w
  4496  054E  07C5               	addwf	___flmul@grs^(0+128),f
  4497  054F  0840               	movf	(??___flmul+1)^(0+128),w
  4498  0550  1103               	clrz
  4499  0551  1803               	skipnc
  4500  0552  3E01               	addlw	1
  4501  0553  1D03               	btfss	3,2
  4502  0554  07C6               	addwf	(___flmul@grs+1)^(0+128),f
  4503  0555  0841               	movf	(??___flmul+2)^(0+128),w
  4504  0556  1103               	clrz
  4505  0557  1803               	skipnc
  4506  0558  3E01               	addlw	1
  4507  0559  1D03               	btfss	3,2
  4508  055A  07C7               	addwf	(___flmul@grs+2)^(0+128),f
  4509  055B  0842               	movf	(??___flmul+3)^(0+128),w
  4510  055C  1103               	clrz
  4511  055D  1803               	skipnc
  4512  055E  3E01               	addlw	1
  4513  055F  1D03               	btfss	3,2
  4514  0560  07C8               	addwf	(___flmul@grs+3)^(0+128),f
  4515  0561  0850               	movf	(___flmul@temp^(0+128)+1),w
  4516  0562  00BF               	movwf	??___flmul^(0+128)
  4517  0563  01C0               	clrf	(??___flmul^(0+128)+1)
  4518  0564  01C1               	clrf	(??___flmul^(0+128)+2)
  4519  0565  01C2               	clrf	(??___flmul^(0+128)+3)
  4520  0566  083F               	movf	??___flmul^(0+128),w
  4521  0567  07CB               	addwf	___flmul@prod^(0+128),f
  4522  0568  0840               	movf	(??___flmul+1)^(0+128),w
  4523  0569  1103               	clrz
  4524  056A  1803               	skipnc
  4525  056B  3E01               	addlw	1
  4526  056C  1D03               	btfss	3,2
  4527  056D  07CC               	addwf	(___flmul@prod+1)^(0+128),f
  4528  056E  0841               	movf	(??___flmul+2)^(0+128),w
  4529  056F  1103               	clrz
  4530  0570  1803               	skipnc
  4531  0571  3E01               	addlw	1
  4532  0572  1D03               	btfss	3,2
  4533  0573  07CD               	addwf	(___flmul@prod+2)^(0+128),f
  4534  0574  0842               	movf	(??___flmul+3)^(0+128),w
  4535  0575  1103               	clrz
  4536  0576  1803               	skipnc
  4537  0577  3E01               	addlw	1
  4538  0578  1D03               	btfss	3,2
  4539  0579  07CE               	addwf	(___flmul@prod+3)^(0+128),f
  4540  057A  3008               	movlw	8
  4541  057B  00BF               	movwf	??___flmul^(0+128)
  4542  057C                     u3995:	
  4543  057C  1003               	clrc
  4544  057D  0DC5               	rlf	___flmul@grs^(0+128),f
  4545  057E  0DC6               	rlf	(___flmul@grs+1)^(0+128),f
  4546  057F  0DC7               	rlf	(___flmul@grs+2)^(0+128),f
  4547  0580  0DC8               	rlf	(___flmul@grs+3)^(0+128),f
  4548  0581  0BBF               	decfsz	??___flmul^(0+128),f
  4549  0582  2D7C               	goto	u3995
  4550  0583  0838               	movf	(___flmul@b^(0+128)+1),w
  4551  0584  00BF               	movwf	??___flmul^(0+128)
  4552  0585  083F               	movf	??___flmul^(0+128),w
  4553  0586  00A0               	movwf	__Umul8_16@multiplicand^(0+128)
  4554  0587  083B               	movf	___flmul@a^(0+128),w
  4555  0588  160A  118A  200F  120A  118A  	fcall	__Umul8_16
  4556  058D  1683               	bsf	3,5	;RP0=1, select bank1
  4557  058E  1303               	bcf	3,6	;RP1=0, select bank1
  4558  058F  0821               	movf	(?__Umul8_16+1)^(0+128),w
  4559  0590  00D0               	movwf	(___flmul@temp+1)^(0+128)
  4560  0591  0820               	movf	?__Umul8_16^(0+128),w
  4561  0592  00CF               	movwf	___flmul@temp^(0+128)
  4562  0593  084F               	movf	___flmul@temp^(0+128),w
  4563  0594  00BF               	movwf	??___flmul^(0+128)
  4564  0595  0850               	movf	(___flmul@temp+1)^(0+128),w
  4565  0596  00C0               	movwf	(??___flmul^(0+128)+1)
  4566  0597  01C1               	clrf	(??___flmul^(0+128)+2)
  4567  0598  01C2               	clrf	(??___flmul^(0+128)+3)
  4568  0599  083F               	movf	??___flmul^(0+128),w
  4569  059A  07C5               	addwf	___flmul@grs^(0+128),f
  4570  059B  0840               	movf	(??___flmul+1)^(0+128),w
  4571  059C  1103               	clrz
  4572  059D  1803               	skipnc
  4573  059E  3E01               	addlw	1
  4574  059F  1D03               	btfss	3,2
  4575  05A0  07C6               	addwf	(___flmul@grs+1)^(0+128),f
  4576  05A1  0841               	movf	(??___flmul+2)^(0+128),w
  4577  05A2  1103               	clrz
  4578  05A3  1803               	skipnc
  4579  05A4  3E01               	addlw	1
  4580  05A5  1D03               	btfss	3,2
  4581  05A6  07C7               	addwf	(___flmul@grs+2)^(0+128),f
  4582  05A7  0842               	movf	(??___flmul+3)^(0+128),w
  4583  05A8  1103               	clrz
  4584  05A9  1803               	skipnc
  4585  05AA  3E01               	addlw	1
  4586  05AB  1D03               	btfss	3,2
  4587  05AC  07C8               	addwf	(___flmul@grs+3)^(0+128),f
  4588  05AD  0837               	movf	___flmul@b^(0+128),w
  4589  05AE  00BF               	movwf	??___flmul^(0+128)
  4590  05AF  083F               	movf	??___flmul^(0+128),w
  4591  05B0  00A0               	movwf	__Umul8_16@multiplicand^(0+128)
  4592  05B1  083C               	movf	(___flmul@a^(0+128)+1),w
  4593  05B2  160A  118A  200F  120A  118A  	fcall	__Umul8_16
  4594  05B7  1683               	bsf	3,5	;RP0=1, select bank1
  4595  05B8  1303               	bcf	3,6	;RP1=0, select bank1
  4596  05B9  0821               	movf	(?__Umul8_16+1)^(0+128),w
  4597  05BA  00D0               	movwf	(___flmul@temp+1)^(0+128)
  4598  05BB  0820               	movf	?__Umul8_16^(0+128),w
  4599  05BC  00CF               	movwf	___flmul@temp^(0+128)
  4600  05BD  084F               	movf	___flmul@temp^(0+128),w
  4601  05BE  00BF               	movwf	??___flmul^(0+128)
  4602  05BF  0850               	movf	(___flmul@temp+1)^(0+128),w
  4603  05C0  00C0               	movwf	(??___flmul^(0+128)+1)
  4604  05C1  01C1               	clrf	(??___flmul^(0+128)+2)
  4605  05C2  01C2               	clrf	(??___flmul^(0+128)+3)
  4606  05C3  083F               	movf	??___flmul^(0+128),w
  4607  05C4  07C5               	addwf	___flmul@grs^(0+128),f
  4608  05C5  0840               	movf	(??___flmul+1)^(0+128),w
  4609  05C6  1103               	clrz
  4610  05C7  1803               	skipnc
  4611  05C8  3E01               	addlw	1
  4612  05C9  1D03               	btfss	3,2
  4613  05CA  07C6               	addwf	(___flmul@grs+1)^(0+128),f
  4614  05CB  0841               	movf	(??___flmul+2)^(0+128),w
  4615  05CC  1103               	clrz
  4616  05CD  1803               	skipnc
  4617  05CE  3E01               	addlw	1
  4618  05CF  1D03               	btfss	3,2
  4619  05D0  07C7               	addwf	(___flmul@grs+2)^(0+128),f
  4620  05D1  0842               	movf	(??___flmul+3)^(0+128),w
  4621  05D2  1103               	clrz
  4622  05D3  1803               	skipnc
  4623  05D4  3E01               	addlw	1
  4624  05D5  1D03               	btfss	3,2
  4625  05D6  07C8               	addwf	(___flmul@grs+3)^(0+128),f
  4626  05D7  3008               	movlw	8
  4627  05D8  00BF               	movwf	??___flmul^(0+128)
  4628  05D9                     u4025:	
  4629  05D9  1003               	clrc
  4630  05DA  0DC5               	rlf	___flmul@grs^(0+128),f
  4631  05DB  0DC6               	rlf	(___flmul@grs+1)^(0+128),f
  4632  05DC  0DC7               	rlf	(___flmul@grs+2)^(0+128),f
  4633  05DD  0DC8               	rlf	(___flmul@grs+3)^(0+128),f
  4634  05DE  0BBF               	decfsz	??___flmul^(0+128),f
  4635  05DF  2DD9               	goto	u4025
  4636  05E0  0837               	movf	___flmul@b^(0+128),w
  4637  05E1  00BF               	movwf	??___flmul^(0+128)
  4638  05E2  083F               	movf	??___flmul^(0+128),w
  4639  05E3  00A0               	movwf	__Umul8_16@multiplicand^(0+128)
  4640  05E4  083B               	movf	___flmul@a^(0+128),w
  4641  05E5  160A  118A  200F  120A  118A  	fcall	__Umul8_16
  4642  05EA  1683               	bsf	3,5	;RP0=1, select bank1
  4643  05EB  1303               	bcf	3,6	;RP1=0, select bank1
  4644  05EC  0821               	movf	(?__Umul8_16+1)^(0+128),w
  4645  05ED  00D0               	movwf	(___flmul@temp+1)^(0+128)
  4646  05EE  0820               	movf	?__Umul8_16^(0+128),w
  4647  05EF  00CF               	movwf	___flmul@temp^(0+128)
  4648  05F0  084F               	movf	___flmul@temp^(0+128),w
  4649  05F1  00BF               	movwf	??___flmul^(0+128)
  4650  05F2  0850               	movf	(___flmul@temp+1)^(0+128),w
  4651  05F3  00C0               	movwf	(??___flmul^(0+128)+1)
  4652  05F4  01C1               	clrf	(??___flmul^(0+128)+2)
  4653  05F5  01C2               	clrf	(??___flmul^(0+128)+3)
  4654  05F6  083F               	movf	??___flmul^(0+128),w
  4655  05F7  07C5               	addwf	___flmul@grs^(0+128),f
  4656  05F8  0840               	movf	(??___flmul+1)^(0+128),w
  4657  05F9  1103               	clrz
  4658  05FA  1803               	skipnc
  4659  05FB  3E01               	addlw	1
  4660  05FC  1D03               	btfss	3,2
  4661  05FD  07C6               	addwf	(___flmul@grs+1)^(0+128),f
  4662  05FE  0841               	movf	(??___flmul+2)^(0+128),w
  4663  05FF  1103               	clrz
  4664  0600  1803               	skipnc
  4665  0601  3E01               	addlw	1
  4666  0602  1D03               	btfss	3,2
  4667  0603  07C7               	addwf	(___flmul@grs+2)^(0+128),f
  4668  0604  0842               	movf	(??___flmul+3)^(0+128),w
  4669  0605  1103               	clrz
  4670  0606  1803               	skipnc
  4671  0607  3E01               	addlw	1
  4672  0608  1D03               	btfss	3,2
  4673  0609  07C8               	addwf	(___flmul@grs+3)^(0+128),f
  4674  060A  0838               	movf	(___flmul@b^(0+128)+1),w
  4675  060B  00BF               	movwf	??___flmul^(0+128)
  4676  060C  083F               	movf	??___flmul^(0+128),w
  4677  060D  00A0               	movwf	__Umul8_16@multiplicand^(0+128)
  4678  060E  083D               	movf	(___flmul@a^(0+128)+2),w
  4679  060F  160A  118A  200F  120A  118A  	fcall	__Umul8_16
  4680  0614  1683               	bsf	3,5	;RP0=1, select bank1
  4681  0615  1303               	bcf	3,6	;RP1=0, select bank1
  4682  0616  0821               	movf	(?__Umul8_16+1)^(0+128),w
  4683  0617  00D0               	movwf	(___flmul@temp+1)^(0+128)
  4684  0618  0820               	movf	?__Umul8_16^(0+128),w
  4685  0619  00CF               	movwf	___flmul@temp^(0+128)
  4686  061A  084F               	movf	___flmul@temp^(0+128),w
  4687  061B  00BF               	movwf	??___flmul^(0+128)
  4688  061C  0850               	movf	(___flmul@temp+1)^(0+128),w
  4689  061D  00C0               	movwf	(??___flmul^(0+128)+1)
  4690  061E  01C1               	clrf	(??___flmul^(0+128)+2)
  4691  061F  01C2               	clrf	(??___flmul^(0+128)+3)
  4692  0620  083F               	movf	??___flmul^(0+128),w
  4693  0621  07CB               	addwf	___flmul@prod^(0+128),f
  4694  0622  0840               	movf	(??___flmul+1)^(0+128),w
  4695  0623  1103               	clrz
  4696  0624  1803               	skipnc
  4697  0625  3E01               	addlw	1
  4698  0626  1D03               	btfss	3,2
  4699  0627  07CC               	addwf	(___flmul@prod+1)^(0+128),f
  4700  0628  0841               	movf	(??___flmul+2)^(0+128),w
  4701  0629  1103               	clrz
  4702  062A  1803               	skipnc
  4703  062B  3E01               	addlw	1
  4704  062C  1D03               	btfss	3,2
  4705  062D  07CD               	addwf	(___flmul@prod+2)^(0+128),f
  4706  062E  0842               	movf	(??___flmul+3)^(0+128),w
  4707  062F  1103               	clrz
  4708  0630  1803               	skipnc
  4709  0631  3E01               	addlw	1
  4710  0632  1D03               	btfss	3,2
  4711  0633  07CE               	addwf	(___flmul@prod+3)^(0+128),f
  4712  0634  0839               	movf	(___flmul@b^(0+128)+2),w
  4713  0635  00BF               	movwf	??___flmul^(0+128)
  4714  0636  083F               	movf	??___flmul^(0+128),w
  4715  0637  00A0               	movwf	__Umul8_16@multiplicand^(0+128)
  4716  0638  083C               	movf	(___flmul@a^(0+128)+1),w
  4717  0639  160A  118A  200F  120A  118A  	fcall	__Umul8_16
  4718  063E  1683               	bsf	3,5	;RP0=1, select bank1
  4719  063F  1303               	bcf	3,6	;RP1=0, select bank1
  4720  0640  0821               	movf	(?__Umul8_16+1)^(0+128),w
  4721  0641  00D0               	movwf	(___flmul@temp+1)^(0+128)
  4722  0642  0820               	movf	?__Umul8_16^(0+128),w
  4723  0643  00CF               	movwf	___flmul@temp^(0+128)
  4724  0644  084F               	movf	___flmul@temp^(0+128),w
  4725  0645  00BF               	movwf	??___flmul^(0+128)
  4726  0646  0850               	movf	(___flmul@temp+1)^(0+128),w
  4727  0647  00C0               	movwf	(??___flmul^(0+128)+1)
  4728  0648  01C1               	clrf	(??___flmul^(0+128)+2)
  4729  0649  01C2               	clrf	(??___flmul^(0+128)+3)
  4730  064A  083F               	movf	??___flmul^(0+128),w
  4731  064B  07CB               	addwf	___flmul@prod^(0+128),f
  4732  064C  0840               	movf	(??___flmul+1)^(0+128),w
  4733  064D  1103               	clrz
  4734  064E  1803               	skipnc
  4735  064F  3E01               	addlw	1
  4736  0650  1D03               	btfss	3,2
  4737  0651  07CC               	addwf	(___flmul@prod+1)^(0+128),f
  4738  0652  0841               	movf	(??___flmul+2)^(0+128),w
  4739  0653  1103               	clrz
  4740  0654  1803               	skipnc
  4741  0655  3E01               	addlw	1
  4742  0656  1D03               	btfss	3,2
  4743  0657  07CD               	addwf	(___flmul@prod+2)^(0+128),f
  4744  0658  0842               	movf	(??___flmul+3)^(0+128),w
  4745  0659  1103               	clrz
  4746  065A  1803               	skipnc
  4747  065B  3E01               	addlw	1
  4748  065C  1D03               	btfss	3,2
  4749  065D  07CE               	addwf	(___flmul@prod+3)^(0+128),f
  4750  065E  0839               	movf	(___flmul@b^(0+128)+2),w
  4751  065F  00BF               	movwf	??___flmul^(0+128)
  4752  0660  083F               	movf	??___flmul^(0+128),w
  4753  0661  00A0               	movwf	__Umul8_16@multiplicand^(0+128)
  4754  0662  083D               	movf	(___flmul@a^(0+128)+2),w
  4755  0663  160A  118A  200F  120A  118A  	fcall	__Umul8_16
  4756  0668  1683               	bsf	3,5	;RP0=1, select bank1
  4757  0669  1303               	bcf	3,6	;RP1=0, select bank1
  4758  066A  0821               	movf	(?__Umul8_16+1)^(0+128),w
  4759  066B  00D0               	movwf	(___flmul@temp+1)^(0+128)
  4760  066C  0820               	movf	?__Umul8_16^(0+128),w
  4761  066D  00CF               	movwf	___flmul@temp^(0+128)
  4762  066E  084F               	movf	___flmul@temp^(0+128),w
  4763  066F  00BF               	movwf	??___flmul^(0+128)
  4764  0670  0850               	movf	(___flmul@temp+1)^(0+128),w
  4765  0671  00C0               	movwf	(??___flmul^(0+128)+1)
  4766  0672  01C1               	clrf	(??___flmul^(0+128)+2)
  4767  0673  01C2               	clrf	(??___flmul^(0+128)+3)
  4768  0674  3008               	movlw	8
  4769  0675                     u4065:	
  4770  0675  1003               	clrc
  4771  0676  0DBF               	rlf	??___flmul^(0+128),f
  4772  0677  0DC0               	rlf	(??___flmul^(0+128)+1),f
  4773  0678  0DC1               	rlf	(??___flmul^(0+128)+2),f
  4774  0679  0DC2               	rlf	(??___flmul^(0+128)+3),f
  4775  067A  3EFF               	addlw	-1
  4776  067B  1D03               	skipz
  4777  067C  2E75               	goto	u4065
  4778  067D  083F               	movf	??___flmul^(0+128),w
  4779  067E  07CB               	addwf	___flmul@prod^(0+128),f
  4780  067F  0840               	movf	(??___flmul+1)^(0+128),w
  4781  0680  1103               	clrz
  4782  0681  1803               	skipnc
  4783  0682  3E01               	addlw	1
  4784  0683  1D03               	btfss	3,2
  4785  0684  07CC               	addwf	(___flmul@prod+1)^(0+128),f
  4786  0685  0841               	movf	(??___flmul+2)^(0+128),w
  4787  0686  1103               	clrz
  4788  0687  1803               	skipnc
  4789  0688  3E01               	addlw	1
  4790  0689  1D03               	btfss	3,2
  4791  068A  07CD               	addwf	(___flmul@prod+2)^(0+128),f
  4792  068B  0842               	movf	(??___flmul+3)^(0+128),w
  4793  068C  1103               	clrz
  4794  068D  1803               	skipnc
  4795  068E  3E01               	addlw	1
  4796  068F  1D03               	btfss	3,2
  4797  0690  07CE               	addwf	(___flmul@prod+3)^(0+128),f
  4798  0691  0845               	movf	___flmul@grs^(0+128),w
  4799  0692  00BF               	movwf	??___flmul^(0+128)
  4800  0693  0846               	movf	(___flmul@grs+1)^(0+128),w
  4801  0694  00C0               	movwf	(??___flmul^(0+128)+1)
  4802  0695  0847               	movf	(___flmul@grs+2)^(0+128),w
  4803  0696  00C1               	movwf	(??___flmul^(0+128)+2)
  4804  0697  0848               	movf	(___flmul@grs+3)^(0+128),w
  4805  0698  00C2               	movwf	(??___flmul^(0+128)+3)
  4806  0699  3018               	movlw	24
  4807  069A                     u4085:	
  4808  069A  1003               	clrc
  4809  069B  0CC2               	rrf	(??___flmul^(0+128)+3),f
  4810  069C  0CC1               	rrf	(??___flmul^(0+128)+2),f
  4811  069D  0CC0               	rrf	(??___flmul^(0+128)+1),f
  4812  069E  0CBF               	rrf	??___flmul^(0+128),f
  4813  069F  3EFF               	addlw	-1
  4814  06A0  1D03               	skipz
  4815  06A1  2E9A               	goto	u4085
  4816  06A2  083F               	movf	??___flmul^(0+128),w
  4817  06A3  07CB               	addwf	___flmul@prod^(0+128),f
  4818  06A4  0840               	movf	(??___flmul+1)^(0+128),w
  4819  06A5  1103               	clrz
  4820  06A6  1803               	skipnc
  4821  06A7  3E01               	addlw	1
  4822  06A8  1D03               	btfss	3,2
  4823  06A9  07CC               	addwf	(___flmul@prod+1)^(0+128),f
  4824  06AA  0841               	movf	(??___flmul+2)^(0+128),w
  4825  06AB  1103               	clrz
  4826  06AC  1803               	skipnc
  4827  06AD  3E01               	addlw	1
  4828  06AE  1D03               	btfss	3,2
  4829  06AF  07CD               	addwf	(___flmul@prod+2)^(0+128),f
  4830  06B0  0842               	movf	(??___flmul+3)^(0+128),w
  4831  06B1  1103               	clrz
  4832  06B2  1803               	skipnc
  4833  06B3  3E01               	addlw	1
  4834  06B4  1D03               	btfss	3,2
  4835  06B5  07CE               	addwf	(___flmul@prod+3)^(0+128),f
  4836  06B6  3008               	movlw	8
  4837  06B7  00BF               	movwf	??___flmul^(0+128)
  4838  06B8                     u4105:	
  4839  06B8  1003               	clrc
  4840  06B9  0DC5               	rlf	___flmul@grs^(0+128),f
  4841  06BA  0DC6               	rlf	(___flmul@grs+1)^(0+128),f
  4842  06BB  0DC7               	rlf	(___flmul@grs+2)^(0+128),f
  4843  06BC  0DC8               	rlf	(___flmul@grs+3)^(0+128),f
  4844  06BD  0BBF               	decfsz	??___flmul^(0+128),f
  4845  06BE  2EB8               	goto	u4105
  4846  06BF  084A               	movf	___flmul@bexp^(0+128),w
  4847  06C0  0749               	addwf	___flmul@aexp^(0+128),w
  4848  06C1  00BF               	movwf	??___flmul^(0+128)
  4849  06C2  01C0               	clrf	(??___flmul^(0+128)+1)
  4850  06C3  0DC0               	rlf	(??___flmul+1)^(0+128),f
  4851  06C4  083F               	movf	??___flmul^(0+128),w
  4852  06C5  3E82               	addlw	130
  4853  06C6  00CF               	movwf	___flmul@temp^(0+128)
  4854  06C7  0840               	movf	(??___flmul+1)^(0+128),w
  4855  06C8  1803               	skipnc
  4856  06C9  3E01               	addlw	1
  4857  06CA  3EFF               	addlw	255
  4858  06CB  00D0               	movwf	(___flmul@temp+1)^(0+128)
  4859  06CC                     l2771:	
  4860  06CC  1BCD               	btfsc	(___flmul@prod+2)^(0+128),7
  4861  06CD  2EE9               	goto	l2773
  4862  06CE  3001               	movlw	1
  4863  06CF  00BF               	movwf	??___flmul^(0+128)
  4864  06D0                     u4115:	
  4865  06D0  1003               	clrc
  4866  06D1  0DCB               	rlf	___flmul@prod^(0+128),f
  4867  06D2  0DCC               	rlf	(___flmul@prod+1)^(0+128),f
  4868  06D3  0DCD               	rlf	(___flmul@prod+2)^(0+128),f
  4869  06D4  0DCE               	rlf	(___flmul@prod+3)^(0+128),f
  4870  06D5  0BBF               	decfsz	??___flmul^(0+128),f
  4871  06D6  2ED0               	goto	u4115
  4872  06D7  1BC8               	btfsc	(___flmul@grs+3)^(0+128),7
  4873  06D8  144B               	bsf	___flmul@prod^(0+128),0
  4874  06D9  3001               	movlw	1
  4875  06DA  00BF               	movwf	??___flmul^(0+128)
  4876  06DB                     u4135:	
  4877  06DB  1003               	clrc
  4878  06DC  0DC5               	rlf	___flmul@grs^(0+128),f
  4879  06DD  0DC6               	rlf	(___flmul@grs+1)^(0+128),f
  4880  06DE  0DC7               	rlf	(___flmul@grs+2)^(0+128),f
  4881  06DF  0DC8               	rlf	(___flmul@grs+3)^(0+128),f
  4882  06E0  0BBF               	decfsz	??___flmul^(0+128),f
  4883  06E1  2EDB               	goto	u4135
  4884  06E2  30FF               	movlw	255
  4885  06E3  07CF               	addwf	___flmul@temp^(0+128),f
  4886  06E4  1803               	skipnc
  4887  06E5  0AD0               	incf	(___flmul@temp+1)^(0+128),f
  4888  06E6  30FF               	movlw	255
  4889  06E7  07D0               	addwf	(___flmul@temp+1)^(0+128),f
  4890  06E8  2ECC               	goto	l2771
  4891  06E9                     l2773:	
  4892  06E9  01C9               	clrf	___flmul@aexp^(0+128)
  4893  06EA  1FC8               	btfss	(___flmul@grs+3)^(0+128),7
  4894  06EB  2F02               	goto	l2783
  4895  06EC  30FF               	movlw	255
  4896  06ED  0545               	andwf	___flmul@grs^(0+128),w
  4897  06EE  00BF               	movwf	??___flmul^(0+128)
  4898  06EF  30FF               	movlw	255
  4899  06F0  0546               	andwf	(___flmul@grs+1)^(0+128),w
  4900  06F1  00C0               	movwf	(??___flmul^(0+128)+1)
  4901  06F2  30FF               	movlw	255
  4902  06F3  0547               	andwf	(___flmul@grs+2)^(0+128),w
  4903  06F4  00C1               	movwf	(??___flmul^(0+128)+2)
  4904  06F5  307F               	movlw	127
  4905  06F6  0548               	andwf	(___flmul@grs+3)^(0+128),w
  4906  06F7  00C2               	movwf	(??___flmul^(0+128)+3)
  4907  06F8  0842               	movf	(??___flmul+3)^(0+128),w
  4908  06F9  0441               	iorwf	(??___flmul+2)^(0+128),w
  4909  06FA  0440               	iorwf	(??___flmul+1)^(0+128),w
  4910  06FB  043F               	iorwf	??___flmul^(0+128),w
  4911  06FC  1903               	skipnz
  4912  06FD  184B               	btfsc	___flmul@prod^(0+128),0
  4913  06FE  2F00               	goto	l2779
  4914  06FF  2F02               	goto	l2783
  4915  0700                     l2779:	
  4916  0700  01C9               	clrf	___flmul@aexp^(0+128)
  4917  0701  0AC9               	incf	___flmul@aexp^(0+128),f
  4918  0702                     l2783:	
  4919  0702  0849               	movf	___flmul@aexp^(0+128),w
  4920  0703  1903               	btfsc	3,2
  4921  0704  2F34               	goto	l2793
  4922  0705  3001               	movlw	1
  4923  0706  07CB               	addwf	___flmul@prod^(0+128),f
  4924  0707  3000               	movlw	0
  4925  0708  1803               	skipnc
  4926  0709  3001               	movlw	1
  4927  070A  07CC               	addwf	(___flmul@prod+1)^(0+128),f
  4928  070B  3000               	movlw	0
  4929  070C  1803               	skipnc
  4930  070D  3001               	movlw	1
  4931  070E  07CD               	addwf	(___flmul@prod+2)^(0+128),f
  4932  070F  3000               	movlw	0
  4933  0710  1803               	skipnc
  4934  0711  3001               	movlw	1
  4935  0712  07CE               	addwf	(___flmul@prod+3)^(0+128),f
  4936  0713  1C4E               	btfss	(___flmul@prod+3)^(0+128),0
  4937  0714  2F34               	goto	l2793
  4938  0715  084B               	movf	___flmul@prod^(0+128),w
  4939  0716  00BF               	movwf	??___flmul^(0+128)
  4940  0717  084C               	movf	(___flmul@prod+1)^(0+128),w
  4941  0718  00C0               	movwf	(??___flmul^(0+128)+1)
  4942  0719  084D               	movf	(___flmul@prod+2)^(0+128),w
  4943  071A  00C1               	movwf	(??___flmul^(0+128)+2)
  4944  071B  084E               	movf	(___flmul@prod+3)^(0+128),w
  4945  071C  00C2               	movwf	(??___flmul^(0+128)+3)
  4946  071D  3001               	movlw	1
  4947  071E  00C3               	movwf	(??___flmul+4)^(0+128)
  4948  071F                     u4205:	
  4949  071F  0D42               	rlf	(??___flmul^(0+128)+3),w
  4950  0720  0CC2               	rrf	(??___flmul^(0+128)+3),f
  4951  0721  0CC1               	rrf	(??___flmul^(0+128)+2),f
  4952  0722  0CC0               	rrf	(??___flmul^(0+128)+1),f
  4953  0723  0CBF               	rrf	??___flmul^(0+128),f
  4954  0724  0BC3               	decfsz	(??___flmul+4)^(0+128),f
  4955  0725  2F1F               	goto	u4205
  4956  0726  0842               	movf	(??___flmul+3)^(0+128),w
  4957  0727  00CE               	movwf	(___flmul@prod+3)^(0+128)
  4958  0728  0841               	movf	(??___flmul+2)^(0+128),w
  4959  0729  00CD               	movwf	(___flmul@prod+2)^(0+128)
  4960  072A  0840               	movf	(??___flmul+1)^(0+128),w
  4961  072B  00CC               	movwf	(___flmul@prod+1)^(0+128)
  4962  072C  083F               	movf	??___flmul^(0+128),w
  4963  072D  00CB               	movwf	___flmul@prod^(0+128)
  4964  072E  3001               	movlw	1
  4965  072F  07CF               	addwf	___flmul@temp^(0+128),f
  4966  0730  1803               	skipnc
  4967  0731  0AD0               	incf	(___flmul@temp+1)^(0+128),f
  4968  0732  3000               	movlw	0
  4969  0733  07D0               	addwf	(___flmul@temp+1)^(0+128),f
  4970  0734                     l2793:	
  4971  0734  0850               	movf	(___flmul@temp+1)^(0+128),w
  4972  0735  3A80               	xorlw	128
  4973  0736  00FF               	movwf	127
  4974  0737  3080               	movlw	128
  4975  0738  027F               	subwf	127,w
  4976  0739  1D03               	skipz
  4977  073A  2F3D               	goto	u4215
  4978  073B  30FF               	movlw	255
  4979  073C  024F               	subwf	___flmul@temp^(0+128),w
  4980  073D                     u4215:	
  4981  073D  1C03               	skipc
  4982  073E  2F4A               	goto	l2797
  4983  073F  307F               	movlw	127
  4984  0740  1683               	bsf	3,5	;RP0=1, select bank1
  4985  0741  1303               	bcf	3,6	;RP1=0, select bank1
  4986  0742  00CE               	movwf	(___flmul@prod+3)^(0+128)
  4987  0743  3080               	movlw	128
  4988  0744  00CD               	movwf	(___flmul@prod+2)^(0+128)
  4989  0745  3000               	movlw	0
  4990  0746  00CC               	movwf	(___flmul@prod+1)^(0+128)
  4991  0747  3000               	movlw	0
  4992  0748  00CB               	movwf	___flmul@prod^(0+128)
  4993  0749  2F7A               	goto	l720
  4994  074A                     l2797:	
  4995  074A  1683               	bsf	3,5	;RP0=1, select bank1
  4996  074B  1303               	bcf	3,6	;RP1=0, select bank1
  4997  074C  0850               	movf	(___flmul@temp+1)^(0+128),w
  4998  074D  3A80               	xorlw	128
  4999  074E  00FF               	movwf	127
  5000  074F  3080               	movlw	128
  5001  0750  027F               	subwf	127,w
  5002  0751  1D03               	skipz
  5003  0752  2F55               	goto	u4225
  5004  0753  3001               	movlw	1
  5005  0754  024F               	subwf	___flmul@temp^(0+128),w
  5006  0755                     u4225:	
  5007  0755  1803               	skipnc
  5008  0756  2F63               	goto	l2803
  5009  0757  3000               	movlw	0
  5010  0758  1683               	bsf	3,5	;RP0=1, select bank1
  5011  0759  1303               	bcf	3,6	;RP1=0, select bank1
  5012  075A  00CE               	movwf	(___flmul@prod+3)^(0+128)
  5013  075B  3000               	movlw	0
  5014  075C  00CD               	movwf	(___flmul@prod+2)^(0+128)
  5015  075D  3000               	movlw	0
  5016  075E  00CC               	movwf	(___flmul@prod+1)^(0+128)
  5017  075F  3000               	movlw	0
  5018  0760  00CB               	movwf	___flmul@prod^(0+128)
  5019  0761  01C4               	clrf	___flmul@sign^(0+128)
  5020  0762  2F7A               	goto	l720
  5021  0763                     l2803:	
  5022  0763  1683               	bsf	3,5	;RP0=1, select bank1
  5023  0764  1303               	bcf	3,6	;RP1=0, select bank1
  5024  0765  084F               	movf	___flmul@temp^(0+128),w
  5025  0766  00BF               	movwf	??___flmul^(0+128)
  5026  0767  083F               	movf	??___flmul^(0+128),w
  5027  0768  00CA               	movwf	___flmul@bexp^(0+128)
  5028  0769  30FF               	movlw	255
  5029  076A  05CB               	andwf	___flmul@prod^(0+128),f
  5030  076B  30FF               	movlw	255
  5031  076C  05CC               	andwf	(___flmul@prod+1)^(0+128),f
  5032  076D  307F               	movlw	127
  5033  076E  05CD               	andwf	(___flmul@prod+2)^(0+128),f
  5034  076F  3000               	movlw	0
  5035  0770  05CE               	andwf	(___flmul@prod+3)^(0+128),f
  5036  0771  184A               	btfsc	___flmul@bexp^(0+128),0
  5037  0772  17CD               	bsf	(___flmul@prod^(0+128)+2),7
  5038  0773  084A               	movf	___flmul@bexp^(0+128),w
  5039  0774  00BF               	movwf	??___flmul^(0+128)
  5040  0775  1003               	clrc
  5041  0776  0C3F               	rrf	??___flmul^(0+128),w
  5042  0777  00C0               	movwf	(??___flmul+1)^(0+128)
  5043  0778  0840               	movf	(??___flmul+1)^(0+128),w
  5044  0779  00CE               	movwf	(___flmul@prod^(0+128)+3)
  5045  077A                     l720:	
  5046  077A  0844               	movf	___flmul@sign^(0+128),w
  5047  077B  00BF               	movwf	??___flmul^(0+128)
  5048  077C  083F               	movf	??___flmul^(0+128),w
  5049  077D  04CE               	iorwf	(___flmul@prod^(0+128)+3),f
  5050  077E  084E               	movf	(___flmul@prod+3)^(0+128),w
  5051  077F  00BA               	movwf	(?___flmul+3)^(0+128)
  5052  0780  084D               	movf	(___flmul@prod+2)^(0+128),w
  5053  0781  00B9               	movwf	(?___flmul+2)^(0+128)
  5054  0782  084C               	movf	(___flmul@prod+1)^(0+128),w
  5055  0783  00B8               	movwf	(?___flmul+1)^(0+128)
  5056  0784  084B               	movf	___flmul@prod^(0+128),w
  5057  0785  00B7               	movwf	?___flmul^(0+128)
  5058  0786  0008               	return
  5059  0787                     __end_of___flmul:	
  5060                           
  5061                           	psect	text10
  5062  100F                     __ptext10:	
  5063 ;; *************** function __Umul8_16 *****************
  5064 ;; Defined at:
  5065 ;;		line 4 in file "D:\PROGRAM\MPLABX v5.20\XC8 v2.05\pic\sources\c90\common\Umul8_16.c"
  5066 ;; Parameters:    Size  Location     Type
  5067 ;;  multiplier      1    wreg     unsigned char 
  5068 ;;  multiplicand    1    0[BANK1 ] unsigned char 
  5069 ;; Auto vars:     Size  Location     Type
  5070 ;;  multiplier      1    8[BANK1 ] unsigned char 
  5071 ;;  word_mpld       2    6[BANK1 ] unsigned int 
  5072 ;;  product         2    4[BANK1 ] unsigned int 
  5073 ;; Return value:  Size  Location     Type
  5074 ;;                  2    0[BANK1 ] unsigned int 
  5075 ;; Registers used:
  5076 ;;		wreg, status,2, status,0
  5077 ;; Tracked objects:
  5078 ;;		On entry : 0/0
  5079 ;;		On exit  : 0/0
  5080 ;;		Unchanged: 0/0
  5081 ;; Data sizes:     COMMON   BANK0   BANK1   BANK3   BANK2
  5082 ;;      Params:         0       0       2       0       0
  5083 ;;      Locals:         0       0       5       0       0
  5084 ;;      Temps:          0       0       2       0       0
  5085 ;;      Totals:         0       0       9       0       0
  5086 ;;Total ram usage:        9 bytes
  5087 ;; Hardware stack levels used:    1
  5088 ;; Hardware stack levels required when called:    3
  5089 ;; This function calls:
  5090 ;;		Nothing
  5091 ;; This function is called by:
  5092 ;;		___flmul
  5093 ;; This function uses a non-reentrant model
  5094 ;;
  5095                           
  5096                           
  5097                           ;psect for function __Umul8_16
  5098  100F                     __Umul8_16:	
  5099                           
  5100                           ;incstack = 0
  5101                           ; Regs used in __Umul8_16: [wreg+status,2+status,0]
  5102                           ;__Umul8_16@multiplier stored from wreg
  5103  100F  1683               	bsf	3,5	;RP0=1, select bank1
  5104  1010  1303               	bcf	3,6	;RP1=0, select bank1
  5105  1011  00A8               	movwf	__Umul8_16@multiplier^(0+128)
  5106  1012  01A4               	clrf	__Umul8_16@product^(0+128)
  5107  1013  01A5               	clrf	(__Umul8_16@product+1)^(0+128)
  5108  1014  0820               	movf	__Umul8_16@multiplicand^(0+128),w
  5109  1015  00A2               	movwf	??__Umul8_16^(0+128)
  5110  1016  01A3               	clrf	(??__Umul8_16^(0+128)+1)
  5111  1017  0822               	movf	??__Umul8_16^(0+128),w
  5112  1018  00A6               	movwf	__Umul8_16@word_mpld^(0+128)
  5113  1019  0823               	movf	(??__Umul8_16+1)^(0+128),w
  5114  101A  00A7               	movwf	(__Umul8_16@word_mpld+1)^(0+128)
  5115  101B                     l2429:	
  5116  101B  1C28               	btfss	__Umul8_16@multiplier^(0+128),0
  5117  101C  2823               	goto	l765
  5118  101D  0826               	movf	__Umul8_16@word_mpld^(0+128),w
  5119  101E  07A4               	addwf	__Umul8_16@product^(0+128),f
  5120  101F  1803               	skipnc
  5121  1020  0AA5               	incf	(__Umul8_16@product+1)^(0+128),f
  5122  1021  0827               	movf	(__Umul8_16@word_mpld+1)^(0+128),w
  5123  1022  07A5               	addwf	(__Umul8_16@product+1)^(0+128),f
  5124  1023                     l765:	
  5125  1023  3001               	movlw	1
  5126  1024                     u3385:	
  5127  1024  1003               	clrc
  5128  1025  0DA6               	rlf	__Umul8_16@word_mpld^(0+128),f
  5129  1026  0DA7               	rlf	(__Umul8_16@word_mpld+1)^(0+128),f
  5130  1027  3EFF               	addlw	-1
  5131  1028  1D03               	skipz
  5132  1029  2824               	goto	u3385
  5133  102A  1003               	clrc
  5134  102B  0CA8               	rrf	__Umul8_16@multiplier^(0+128),f
  5135  102C  0828               	movf	__Umul8_16@multiplier^(0+128),w
  5136  102D  1D03               	btfss	3,2
  5137  102E  281B               	goto	l2429
  5138  102F  0825               	movf	(__Umul8_16@product+1)^(0+128),w
  5139  1030  00A1               	movwf	(?__Umul8_16+1)^(0+128)
  5140  1031  0824               	movf	__Umul8_16@product^(0+128),w
  5141  1032  00A0               	movwf	?__Umul8_16^(0+128)
  5142  1033  0008               	return
  5143  1034                     __end_of__Umul8_16:	
  5144                           
  5145                           	psect	text11
  5146  1382                     __ptext11:	
  5147 ;; *************** function ___flge *****************
  5148 ;; Defined at:
  5149 ;;		line 4 in file "D:\PROGRAM\MPLABX v5.20\XC8 v2.05\pic\sources\c90\common\flge.c"
  5150 ;; Parameters:    Size  Location     Type
  5151 ;;  ff1             4    0[BANK1 ] unsigned int 
  5152 ;;  ff2             4    4[BANK1 ] unsigned int 
  5153 ;; Auto vars:     Size  Location     Type
  5154 ;;		None
  5155 ;; Return value:  Size  Location     Type
  5156 ;;		None               void
  5157 ;; Registers used:
  5158 ;;		wreg, status,2, status,0
  5159 ;; Tracked objects:
  5160 ;;		On entry : 0/0
  5161 ;;		On exit  : 0/0
  5162 ;;		Unchanged: 0/0
  5163 ;; Data sizes:     COMMON   BANK0   BANK1   BANK3   BANK2
  5164 ;;      Params:         0       0       8       0       0
  5165 ;;      Locals:         0       0       0       0       0
  5166 ;;      Temps:          0       0       4       0       0
  5167 ;;      Totals:         0       0      12       0       0
  5168 ;;Total ram usage:       12 bytes
  5169 ;; Hardware stack levels used:    1
  5170 ;; Hardware stack levels required when called:    3
  5171 ;; This function calls:
  5172 ;;		Nothing
  5173 ;; This function is called by:
  5174 ;;		_PID_Init
  5175 ;; This function uses a non-reentrant model
  5176 ;;
  5177                           
  5178                           
  5179                           ;psect for function ___flge
  5180  1382                     ___flge:	
  5181                           
  5182                           ;incstack = 0
  5183                           ; Regs used in ___flge: [wreg+status,2+status,0]
  5184  1382  3000               	movlw	0
  5185  1383  1683               	bsf	3,5	;RP0=1, select bank1
  5186  1384  1303               	bcf	3,6	;RP1=0, select bank1
  5187  1385  0520               	andwf	___flge@ff1^(0+128),w
  5188  1386  00A8               	movwf	??___flge^(0+128)
  5189  1387  3000               	movlw	0
  5190  1388  0521               	andwf	(___flge@ff1+1)^(0+128),w
  5191  1389  00A9               	movwf	(??___flge^(0+128)+1)
  5192  138A  3080               	movlw	128
  5193  138B  0522               	andwf	(___flge@ff1+2)^(0+128),w
  5194  138C  00AA               	movwf	(??___flge^(0+128)+2)
  5195  138D  307F               	movlw	127
  5196  138E  0523               	andwf	(___flge@ff1+3)^(0+128),w
  5197  138F  00AB               	movwf	(??___flge^(0+128)+3)
  5198  1390  082B               	movf	(??___flge+3)^(0+128),w
  5199  1391  042A               	iorwf	(??___flge+2)^(0+128),w
  5200  1392  0429               	iorwf	(??___flge+1)^(0+128),w
  5201  1393  0428               	iorwf	??___flge^(0+128),w
  5202  1394  1D03               	skipz
  5203  1395  2B9E               	goto	l493
  5204  1396  3000               	movlw	0
  5205  1397  00A3               	movwf	(___flge@ff1+3)^(0+128)
  5206  1398  3000               	movlw	0
  5207  1399  00A2               	movwf	(___flge@ff1+2)^(0+128)
  5208  139A  3000               	movlw	0
  5209  139B  00A1               	movwf	(___flge@ff1+1)^(0+128)
  5210  139C  3000               	movlw	0
  5211  139D  00A0               	movwf	___flge@ff1^(0+128)
  5212  139E                     l493:	
  5213  139E  3000               	movlw	0
  5214  139F  0524               	andwf	___flge@ff2^(0+128),w
  5215  13A0  00A8               	movwf	??___flge^(0+128)
  5216  13A1  3000               	movlw	0
  5217  13A2  0525               	andwf	(___flge@ff2+1)^(0+128),w
  5218  13A3  00A9               	movwf	(??___flge^(0+128)+1)
  5219  13A4  3080               	movlw	128
  5220  13A5  0526               	andwf	(___flge@ff2+2)^(0+128),w
  5221  13A6  00AA               	movwf	(??___flge^(0+128)+2)
  5222  13A7  307F               	movlw	127
  5223  13A8  0527               	andwf	(___flge@ff2+3)^(0+128),w
  5224  13A9  00AB               	movwf	(??___flge^(0+128)+3)
  5225  13AA  082B               	movf	(??___flge+3)^(0+128),w
  5226  13AB  042A               	iorwf	(??___flge+2)^(0+128),w
  5227  13AC  0429               	iorwf	(??___flge+1)^(0+128),w
  5228  13AD  0428               	iorwf	??___flge^(0+128),w
  5229  13AE  1D03               	skipz
  5230  13AF  2BB8               	goto	l2477
  5231  13B0  3000               	movlw	0
  5232  13B1  00A7               	movwf	(___flge@ff2+3)^(0+128)
  5233  13B2  3000               	movlw	0
  5234  13B3  00A6               	movwf	(___flge@ff2+2)^(0+128)
  5235  13B4  3000               	movlw	0
  5236  13B5  00A5               	movwf	(___flge@ff2+1)^(0+128)
  5237  13B6  3000               	movlw	0
  5238  13B7  00A4               	movwf	___flge@ff2^(0+128)
  5239  13B8                     l2477:	
  5240  13B8  1FA3               	btfss	(___flge@ff1+3)^(0+128),7
  5241  13B9  2BDE               	goto	l2481
  5242  13BA  3000               	movlw	0
  5243  13BB  00A8               	movwf	??___flge^(0+128)
  5244  13BC  3000               	movlw	0
  5245  13BD  00A9               	movwf	(??___flge^(0+128)+1)
  5246  13BE  3000               	movlw	0
  5247  13BF  00AA               	movwf	(??___flge^(0+128)+2)
  5248  13C0  3080               	movlw	128
  5249  13C1  00AB               	movwf	(??___flge^(0+128)+3)
  5250  13C2  0820               	movf	___flge@ff1^(0+128),w
  5251  13C3  02A8               	subwf	??___flge^(0+128),f
  5252  13C4  0821               	movf	(___flge@ff1+1)^(0+128),w
  5253  13C5  1C03               	skipc
  5254  13C6  0F21               	incfsz	(___flge@ff1+1)^(0+128),w
  5255  13C7  2BC9               	goto	u3441
  5256  13C8  2BCA               	goto	u3442
  5257  13C9                     u3441:	
  5258  13C9  02A9               	subwf	(??___flge^(0+128)+1),f
  5259  13CA                     u3442:	
  5260  13CA  0822               	movf	(___flge@ff1+2)^(0+128),w
  5261  13CB  1C03               	skipc
  5262  13CC  0F22               	incfsz	(___flge@ff1+2)^(0+128),w
  5263  13CD  2BCF               	goto	u3443
  5264  13CE  2BD0               	goto	u3444
  5265  13CF                     u3443:	
  5266  13CF  02AA               	subwf	(??___flge^(0+128)+2),f
  5267  13D0                     u3444:	
  5268  13D0  0823               	movf	(___flge@ff1+3)^(0+128),w
  5269  13D1  1C03               	skipc
  5270  13D2  0F23               	incfsz	(___flge@ff1+3)^(0+128),w
  5271  13D3  2BD5               	goto	u3445
  5272  13D4  2BD6               	goto	u3446
  5273  13D5                     u3445:	
  5274  13D5  02AB               	subwf	(??___flge^(0+128)+3),f
  5275  13D6                     u3446:	
  5276  13D6  082B               	movf	(??___flge+3)^(0+128),w
  5277  13D7  00A3               	movwf	(___flge@ff1+3)^(0+128)
  5278  13D8  082A               	movf	(??___flge+2)^(0+128),w
  5279  13D9  00A2               	movwf	(___flge@ff1+2)^(0+128)
  5280  13DA  0829               	movf	(??___flge+1)^(0+128),w
  5281  13DB  00A1               	movwf	(___flge@ff1+1)^(0+128)
  5282  13DC  0828               	movf	??___flge^(0+128),w
  5283  13DD  00A0               	movwf	___flge@ff1^(0+128)
  5284  13DE                     l2481:	
  5285  13DE  1FA7               	btfss	(___flge@ff2+3)^(0+128),7
  5286  13DF  2C04               	goto	l496
  5287  13E0  3000               	movlw	0
  5288  13E1  00A8               	movwf	??___flge^(0+128)
  5289  13E2  3000               	movlw	0
  5290  13E3  00A9               	movwf	(??___flge^(0+128)+1)
  5291  13E4  3000               	movlw	0
  5292  13E5  00AA               	movwf	(??___flge^(0+128)+2)
  5293  13E6  3080               	movlw	128
  5294  13E7  00AB               	movwf	(??___flge^(0+128)+3)
  5295  13E8  0824               	movf	___flge@ff2^(0+128),w
  5296  13E9  02A8               	subwf	??___flge^(0+128),f
  5297  13EA  0825               	movf	(___flge@ff2+1)^(0+128),w
  5298  13EB  1C03               	skipc
  5299  13EC  0F25               	incfsz	(___flge@ff2+1)^(0+128),w
  5300  13ED  2BEF               	goto	u3461
  5301  13EE  2BF0               	goto	u3462
  5302  13EF                     u3461:	
  5303  13EF  02A9               	subwf	(??___flge^(0+128)+1),f
  5304  13F0                     u3462:	
  5305  13F0  0826               	movf	(___flge@ff2+2)^(0+128),w
  5306  13F1  1C03               	skipc
  5307  13F2  0F26               	incfsz	(___flge@ff2+2)^(0+128),w
  5308  13F3  2BF5               	goto	u3463
  5309  13F4  2BF6               	goto	u3464
  5310  13F5                     u3463:	
  5311  13F5  02AA               	subwf	(??___flge^(0+128)+2),f
  5312  13F6                     u3464:	
  5313  13F6  0827               	movf	(___flge@ff2+3)^(0+128),w
  5314  13F7  1C03               	skipc
  5315  13F8  0F27               	incfsz	(___flge@ff2+3)^(0+128),w
  5316  13F9  2BFB               	goto	u3465
  5317  13FA  2BFC               	goto	u3466
  5318  13FB                     u3465:	
  5319  13FB  02AB               	subwf	(??___flge^(0+128)+3),f
  5320  13FC                     u3466:	
  5321  13FC  082B               	movf	(??___flge+3)^(0+128),w
  5322  13FD  00A7               	movwf	(___flge@ff2+3)^(0+128)
  5323  13FE  082A               	movf	(??___flge+2)^(0+128),w
  5324  13FF  00A6               	movwf	(___flge@ff2+2)^(0+128)
  5325  1400  0829               	movf	(??___flge+1)^(0+128),w
  5326  1401  00A5               	movwf	(___flge@ff2+1)^(0+128)
  5327  1402  0828               	movf	??___flge^(0+128),w
  5328  1403  00A4               	movwf	___flge@ff2^(0+128)
  5329  1404                     l496:	
  5330  1404  3080               	movlw	128
  5331  1405  06A3               	xorwf	(___flge@ff1+3)^(0+128),f
  5332  1406  3080               	movlw	128
  5333  1407  06A7               	xorwf	(___flge@ff2+3)^(0+128),f
  5334  1408  0827               	movf	(___flge@ff2+3)^(0+128),w
  5335  1409  0223               	subwf	(___flge@ff1+3)^(0+128),w
  5336  140A  1D03               	skipz
  5337  140B  0008               	return
  5338  140C  0826               	movf	(___flge@ff2+2)^(0+128),w
  5339  140D  0222               	subwf	(___flge@ff1+2)^(0+128),w
  5340  140E  1D03               	skipz
  5341  140F  0008               	return
  5342  1410  0825               	movf	(___flge@ff2+1)^(0+128),w
  5343  1411  0221               	subwf	(___flge@ff1+1)^(0+128),w
  5344  1412  1D03               	skipz
  5345  1413  0008               	return
  5346  1414  0824               	movf	___flge@ff2^(0+128),w
  5347  1415  0220               	subwf	___flge@ff1^(0+128),w
  5348  1416  0008               	return
  5349  1417                     __end_of___flge:	
  5350                           
  5351                           	psect	text12
  5352  165D                     __ptext12:	
  5353 ;; *************** function ___fldiv *****************
  5354 ;; Defined at:
  5355 ;;		line 8 in file "D:\PROGRAM\MPLABX v5.20\XC8 v2.05\pic\sources\c90\common\sprcdiv.c"
  5356 ;; Parameters:    Size  Location     Type
  5357 ;;  a               4   49[BANK1 ] unsigned int 
  5358 ;;  b               4   53[BANK1 ] unsigned int 
  5359 ;; Auto vars:     Size  Location     Type
  5360 ;;  grs             4   69[BANK1 ] unsigned long 
  5361 ;;  rem             4   62[BANK1 ] unsigned long 
  5362 ;;  new_exp         2   67[BANK1 ] int 
  5363 ;;  aexp            1   74[BANK1 ] unsigned char 
  5364 ;;  bexp            1   73[BANK1 ] unsigned char 
  5365 ;;  sign            1   66[BANK1 ] unsigned char 
  5366 ;; Return value:  Size  Location     Type
  5367 ;;                  4   49[BANK1 ] unsigned char 
  5368 ;; Registers used:
  5369 ;;		wreg, status,2, status,0, btemp+1
  5370 ;; Tracked objects:
  5371 ;;		On entry : 0/0
  5372 ;;		On exit  : 0/0
  5373 ;;		Unchanged: 0/0
  5374 ;; Data sizes:     COMMON   BANK0   BANK1   BANK3   BANK2
  5375 ;;      Params:         0       0       8       0       0
  5376 ;;      Locals:         0       0      13       0       0
  5377 ;;      Temps:          0       0       5       0       0
  5378 ;;      Totals:         0       0      26       0       0
  5379 ;;Total ram usage:       26 bytes
  5380 ;; Hardware stack levels used:    1
  5381 ;; Hardware stack levels required when called:    3
  5382 ;; This function calls:
  5383 ;;		Nothing
  5384 ;; This function is called by:
  5385 ;;		_PID_Init
  5386 ;; This function uses a non-reentrant model
  5387 ;;
  5388                           
  5389                           
  5390                           ;psect for function ___fldiv
  5391  165D                     ___fldiv:	
  5392                           
  5393                           ;incstack = 0
  5394                           ; Regs used in ___fldiv: [wreg+status,2+status,0+btemp+1]
  5395  165D  1683               	bsf	3,5	;RP0=1, select bank1
  5396  165E  1303               	bcf	3,6	;RP1=0, select bank1
  5397  165F  0858               	movf	(___fldiv@b^(0+128)+3),w
  5398  1660  3980               	andlw	128
  5399  1661  00D9               	movwf	??___fldiv^(0+128)
  5400  1662  0859               	movf	??___fldiv^(0+128),w
  5401  1663  00E2               	movwf	___fldiv@sign^(0+128)
  5402  1664  0858               	movf	(___fldiv@b^(0+128)+3),w
  5403  1665  00D9               	movwf	??___fldiv^(0+128)
  5404  1666  0759               	addwf	??___fldiv^(0+128),w
  5405  1667  00DA               	movwf	(??___fldiv+1)^(0+128)
  5406  1668  085A               	movf	(??___fldiv+1)^(0+128),w
  5407  1669  00E9               	movwf	___fldiv@bexp^(0+128)
  5408  166A  1BD7               	btfsc	(___fldiv@b^(0+128)+2),7
  5409  166B  1469               	bsf	___fldiv@bexp^(0+128),0
  5410  166C  0869               	movf	___fldiv@bexp^(0+128),w
  5411  166D  1903               	btfsc	3,2
  5412  166E  2E7D               	goto	l2551
  5413  166F  0A69               	incf	___fldiv@bexp^(0+128),w
  5414  1670  1D03               	btfss	3,2
  5415  1671  2E7A               	goto	l2547
  5416  1672  3000               	movlw	0
  5417  1673  00D8               	movwf	(___fldiv@b+3)^(0+128)
  5418  1674  3000               	movlw	0
  5419  1675  00D7               	movwf	(___fldiv@b+2)^(0+128)
  5420  1676  3000               	movlw	0
  5421  1677  00D6               	movwf	(___fldiv@b+1)^(0+128)
  5422  1678  3000               	movlw	0
  5423  1679  00D5               	movwf	___fldiv@b^(0+128)
  5424  167A                     l2547:	
  5425  167A  17D7               	bsf	(___fldiv@b^(0+128)+2),7
  5426  167B  01D8               	clrf	(___fldiv@b^(0+128)+3)
  5427  167C  2E85               	goto	l2553
  5428  167D                     l2551:	
  5429  167D  3000               	movlw	0
  5430  167E  00D8               	movwf	(___fldiv@b+3)^(0+128)
  5431  167F  3000               	movlw	0
  5432  1680  00D7               	movwf	(___fldiv@b+2)^(0+128)
  5433  1681  3000               	movlw	0
  5434  1682  00D6               	movwf	(___fldiv@b+1)^(0+128)
  5435  1683  3000               	movlw	0
  5436  1684  00D5               	movwf	___fldiv@b^(0+128)
  5437  1685                     l2553:	
  5438  1685  0854               	movf	(___fldiv@a^(0+128)+3),w
  5439  1686  3980               	andlw	128
  5440  1687  00D9               	movwf	??___fldiv^(0+128)
  5441  1688  0859               	movf	??___fldiv^(0+128),w
  5442  1689  06E2               	xorwf	___fldiv@sign^(0+128),f
  5443  168A  0854               	movf	(___fldiv@a^(0+128)+3),w
  5444  168B  00D9               	movwf	??___fldiv^(0+128)
  5445  168C  0759               	addwf	??___fldiv^(0+128),w
  5446  168D  00DA               	movwf	(??___fldiv+1)^(0+128)
  5447  168E  085A               	movf	(??___fldiv+1)^(0+128),w
  5448  168F  00EA               	movwf	___fldiv@aexp^(0+128)
  5449  1690  1BD3               	btfsc	(___fldiv@a^(0+128)+2),7
  5450  1691  146A               	bsf	___fldiv@aexp^(0+128),0
  5451  1692  086A               	movf	___fldiv@aexp^(0+128),w
  5452  1693  1903               	btfsc	3,2
  5453  1694  2EA3               	goto	l2571
  5454  1695  0A6A               	incf	___fldiv@aexp^(0+128),w
  5455  1696  1D03               	btfss	3,2
  5456  1697  2EA0               	goto	l2567
  5457  1698  3000               	movlw	0
  5458  1699  00D4               	movwf	(___fldiv@a+3)^(0+128)
  5459  169A  3000               	movlw	0
  5460  169B  00D3               	movwf	(___fldiv@a+2)^(0+128)
  5461  169C  3000               	movlw	0
  5462  169D  00D2               	movwf	(___fldiv@a+1)^(0+128)
  5463  169E  3000               	movlw	0
  5464  169F  00D1               	movwf	___fldiv@a^(0+128)
  5465  16A0                     l2567:	
  5466  16A0  17D3               	bsf	(___fldiv@a^(0+128)+2),7
  5467  16A1  01D4               	clrf	(___fldiv@a^(0+128)+3)
  5468  16A2  2EAB               	goto	l668
  5469  16A3                     l2571:	
  5470  16A3  3000               	movlw	0
  5471  16A4  00D4               	movwf	(___fldiv@a+3)^(0+128)
  5472  16A5  3000               	movlw	0
  5473  16A6  00D3               	movwf	(___fldiv@a+2)^(0+128)
  5474  16A7  3000               	movlw	0
  5475  16A8  00D2               	movwf	(___fldiv@a+1)^(0+128)
  5476  16A9  3000               	movlw	0
  5477  16AA  00D1               	movwf	___fldiv@a^(0+128)
  5478  16AB                     l668:	
  5479  16AB  0854               	movf	(___fldiv@a+3)^(0+128),w
  5480  16AC  0453               	iorwf	(___fldiv@a+2)^(0+128),w
  5481  16AD  0452               	iorwf	(___fldiv@a+1)^(0+128),w
  5482  16AE  0451               	iorwf	___fldiv@a^(0+128),w
  5483  16AF  1D03               	skipz
  5484  16B0  2ECA               	goto	l2581
  5485  16B1  3000               	movlw	0
  5486  16B2  00D8               	movwf	(___fldiv@b+3)^(0+128)
  5487  16B3  3000               	movlw	0
  5488  16B4  00D7               	movwf	(___fldiv@b+2)^(0+128)
  5489  16B5  3000               	movlw	0
  5490  16B6  00D6               	movwf	(___fldiv@b+1)^(0+128)
  5491  16B7  3000               	movlw	0
  5492  16B8  00D5               	movwf	___fldiv@b^(0+128)
  5493  16B9  3080               	movlw	128
  5494  16BA  04D7               	iorwf	(___fldiv@b^(0+128)+2),f
  5495  16BB  307F               	movlw	127
  5496  16BC  04D8               	iorwf	((___fldiv@b+1)^(0+128)+2),f
  5497  16BD                     L3:	
  5498  16BD  0862               	movf	___fldiv@sign^(0+128),w
  5499  16BE  00D9               	movwf	??___fldiv^(0+128)
  5500  16BF  0859               	movf	??___fldiv^(0+128),w
  5501  16C0  04D8               	iorwf	(___fldiv@b^(0+128)+3),f
  5502  16C1  0858               	movf	(___fldiv@b+3)^(0+128),w
  5503  16C2  00D4               	movwf	(?___fldiv+3)^(0+128)
  5504  16C3  0857               	movf	(___fldiv@b+2)^(0+128),w
  5505  16C4  00D3               	movwf	(?___fldiv+2)^(0+128)
  5506  16C5  0856               	movf	(___fldiv@b+1)^(0+128),w
  5507  16C6  00D2               	movwf	(?___fldiv+1)^(0+128)
  5508  16C7  0855               	movf	___fldiv@b^(0+128),w
  5509  16C8  00D1               	movwf	?___fldiv^(0+128)
  5510  16C9  0008               	return
  5511  16CA                     l2581:	
  5512  16CA  0869               	movf	___fldiv@bexp^(0+128),w
  5513  16CB  1D03               	btfss	3,2
  5514  16CC  2ED6               	goto	l2587
  5515  16CD  3000               	movlw	0
  5516  16CE  00D4               	movwf	(?___fldiv+3)^(0+128)
  5517  16CF  3000               	movlw	0
  5518  16D0  00D3               	movwf	(?___fldiv+2)^(0+128)
  5519  16D1  3000               	movlw	0
  5520  16D2  00D2               	movwf	(?___fldiv+1)^(0+128)
  5521  16D3  3000               	movlw	0
  5522  16D4  00D1               	movwf	?___fldiv^(0+128)
  5523  16D5  0008               	return
  5524  16D6                     l2587:	
  5525  16D6  0869               	movf	___fldiv@bexp^(0+128),w
  5526  16D7  00D9               	movwf	??___fldiv^(0+128)
  5527  16D8  01DA               	clrf	(??___fldiv^(0+128)+1)
  5528  16D9  085A               	movf	(??___fldiv+1)^(0+128),w
  5529  16DA  00DC               	movwf	((??___fldiv+2)^(0+128)+1)
  5530  16DB  086A               	movf	___fldiv@aexp^(0+128),w
  5531  16DC  0259               	subwf	??___fldiv^(0+128),w
  5532  16DD  00DB               	movwf	(??___fldiv+2)^(0+128)
  5533  16DE  1C03               	skipc
  5534  16DF  03DC               	decf	((??___fldiv+2)^(0+128)+1),f
  5535  16E0  085B               	movf	(??___fldiv+2)^(0+128),w
  5536  16E1  3E7F               	addlw	127
  5537  16E2  00E3               	movwf	___fldiv@new_exp^(0+128)
  5538  16E3  085C               	movf	(??___fldiv+3)^(0+128),w
  5539  16E4  1803               	skipnc
  5540  16E5  3E01               	addlw	1
  5541  16E6  3E00               	addlw	0
  5542  16E7  00E4               	movwf	(___fldiv@new_exp+1)^(0+128)
  5543  16E8  0858               	movf	(___fldiv@b+3)^(0+128),w
  5544  16E9  00E1               	movwf	(___fldiv@rem+3)^(0+128)
  5545  16EA  0857               	movf	(___fldiv@b+2)^(0+128),w
  5546  16EB  00E0               	movwf	(___fldiv@rem+2)^(0+128)
  5547  16EC  0856               	movf	(___fldiv@b+1)^(0+128),w
  5548  16ED  00DF               	movwf	(___fldiv@rem+1)^(0+128)
  5549  16EE  0855               	movf	___fldiv@b^(0+128),w
  5550  16EF  00DE               	movwf	___fldiv@rem^(0+128)
  5551  16F0  3000               	movlw	0
  5552  16F1  00D8               	movwf	(___fldiv@b+3)^(0+128)
  5553  16F2  3000               	movlw	0
  5554  16F3  00D7               	movwf	(___fldiv@b+2)^(0+128)
  5555  16F4  3000               	movlw	0
  5556  16F5  00D6               	movwf	(___fldiv@b+1)^(0+128)
  5557  16F6  3000               	movlw	0
  5558  16F7  00D5               	movwf	___fldiv@b^(0+128)
  5559  16F8  3000               	movlw	0
  5560  16F9  00E8               	movwf	(___fldiv@grs+3)^(0+128)
  5561  16FA  3000               	movlw	0
  5562  16FB  00E7               	movwf	(___fldiv@grs+2)^(0+128)
  5563  16FC  3000               	movlw	0
  5564  16FD  00E6               	movwf	(___fldiv@grs+1)^(0+128)
  5565  16FE  3000               	movlw	0
  5566  16FF  00E5               	movwf	___fldiv@grs^(0+128)
  5567  1700  01EA               	clrf	___fldiv@aexp^(0+128)
  5568  1701                     l2615:	
  5569  1701  301A               	movlw	26
  5570  1702  026A               	subwf	___fldiv@aexp^(0+128),w
  5571  1703  1803               	btfsc	3,0
  5572  1704  2F49               	goto	l2617
  5573  1705  086A               	movf	___fldiv@aexp^(0+128),w
  5574  1706  1903               	btfsc	3,2
  5575  1707  2F25               	goto	l2607
  5576  1708  3001               	movlw	1
  5577  1709  00D9               	movwf	??___fldiv^(0+128)
  5578  170A                     u3675:	
  5579  170A  1003               	clrc
  5580  170B  0DDE               	rlf	___fldiv@rem^(0+128),f
  5581  170C  0DDF               	rlf	(___fldiv@rem+1)^(0+128),f
  5582  170D  0DE0               	rlf	(___fldiv@rem+2)^(0+128),f
  5583  170E  0DE1               	rlf	(___fldiv@rem+3)^(0+128),f
  5584  170F  0BD9               	decfsz	??___fldiv^(0+128),f
  5585  1710  2F0A               	goto	u3675
  5586  1711  3001               	movlw	1
  5587  1712  00D9               	movwf	??___fldiv^(0+128)
  5588  1713                     u3685:	
  5589  1713  1003               	clrc
  5590  1714  0DD5               	rlf	___fldiv@b^(0+128),f
  5591  1715  0DD6               	rlf	(___fldiv@b+1)^(0+128),f
  5592  1716  0DD7               	rlf	(___fldiv@b+2)^(0+128),f
  5593  1717  0DD8               	rlf	(___fldiv@b+3)^(0+128),f
  5594  1718  0BD9               	decfsz	??___fldiv^(0+128),f
  5595  1719  2F13               	goto	u3685
  5596  171A  1BE8               	btfsc	(___fldiv@grs+3)^(0+128),7
  5597  171B  1455               	bsf	___fldiv@b^(0+128),0
  5598  171C  3001               	movlw	1
  5599  171D  00D9               	movwf	??___fldiv^(0+128)
  5600  171E                     u3705:	
  5601  171E  1003               	clrc
  5602  171F  0DE5               	rlf	___fldiv@grs^(0+128),f
  5603  1720  0DE6               	rlf	(___fldiv@grs+1)^(0+128),f
  5604  1721  0DE7               	rlf	(___fldiv@grs+2)^(0+128),f
  5605  1722  0DE8               	rlf	(___fldiv@grs+3)^(0+128),f
  5606  1723  0BD9               	decfsz	??___fldiv^(0+128),f
  5607  1724  2F1E               	goto	u3705
  5608  1725                     l2607:	
  5609  1725  0854               	movf	(___fldiv@a+3)^(0+128),w
  5610  1726  0261               	subwf	(___fldiv@rem+3)^(0+128),w
  5611  1727  1D03               	skipz
  5612  1728  2F33               	goto	u3715
  5613  1729  0853               	movf	(___fldiv@a+2)^(0+128),w
  5614  172A  0260               	subwf	(___fldiv@rem+2)^(0+128),w
  5615  172B  1D03               	skipz
  5616  172C  2F33               	goto	u3715
  5617  172D  0852               	movf	(___fldiv@a+1)^(0+128),w
  5618  172E  025F               	subwf	(___fldiv@rem+1)^(0+128),w
  5619  172F  1D03               	skipz
  5620  1730  2F33               	goto	u3715
  5621  1731  0851               	movf	___fldiv@a^(0+128),w
  5622  1732  025E               	subwf	___fldiv@rem^(0+128),w
  5623  1733                     u3715:	
  5624  1733  1C03               	skipc
  5625  1734  2F44               	goto	l2613
  5626  1735  1768               	bsf	(___fldiv@grs^(0+128)+3),6
  5627  1736  0851               	movf	___fldiv@a^(0+128),w
  5628  1737  02DE               	subwf	___fldiv@rem^(0+128),f
  5629  1738  0852               	movf	(___fldiv@a+1)^(0+128),w
  5630  1739  1C03               	skipc
  5631  173A  0F52               	incfsz	(___fldiv@a+1)^(0+128),w
  5632  173B  02DF               	subwf	(___fldiv@rem+1)^(0+128),f
  5633  173C  0853               	movf	(___fldiv@a+2)^(0+128),w
  5634  173D  1C03               	skipc
  5635  173E  0F53               	incfsz	(___fldiv@a+2)^(0+128),w
  5636  173F  02E0               	subwf	(___fldiv@rem+2)^(0+128),f
  5637  1740  0854               	movf	(___fldiv@a+3)^(0+128),w
  5638  1741  1C03               	skipc
  5639  1742  0F54               	incfsz	(___fldiv@a+3)^(0+128),w
  5640  1743  02E1               	subwf	(___fldiv@rem+3)^(0+128),f
  5641  1744                     l2613:	
  5642  1744  3001               	movlw	1
  5643  1745  00D9               	movwf	??___fldiv^(0+128)
  5644  1746  0859               	movf	??___fldiv^(0+128),w
  5645  1747  07EA               	addwf	___fldiv@aexp^(0+128),f
  5646  1748  2F01               	goto	l2615
  5647  1749                     l2617:	
  5648  1749  0861               	movf	(___fldiv@rem+3)^(0+128),w
  5649  174A  0460               	iorwf	(___fldiv@rem+2)^(0+128),w
  5650  174B  045F               	iorwf	(___fldiv@rem+1)^(0+128),w
  5651  174C  045E               	iorwf	___fldiv@rem^(0+128),w
  5652  174D  1D03               	btfss	3,2
  5653  174E  1465               	bsf	___fldiv@grs^(0+128),0
  5654  174F                     l2631:	
  5655  174F  1BD7               	btfsc	(___fldiv@b+2)^(0+128),7
  5656  1750  2F6C               	goto	l2633
  5657  1751  3001               	movlw	1
  5658  1752  00D9               	movwf	??___fldiv^(0+128)
  5659  1753                     u3745:	
  5660  1753  1003               	clrc
  5661  1754  0DD5               	rlf	___fldiv@b^(0+128),f
  5662  1755  0DD6               	rlf	(___fldiv@b+1)^(0+128),f
  5663  1756  0DD7               	rlf	(___fldiv@b+2)^(0+128),f
  5664  1757  0DD8               	rlf	(___fldiv@b+3)^(0+128),f
  5665  1758  0BD9               	decfsz	??___fldiv^(0+128),f
  5666  1759  2F53               	goto	u3745
  5667  175A  1BE8               	btfsc	(___fldiv@grs+3)^(0+128),7
  5668  175B  1455               	bsf	___fldiv@b^(0+128),0
  5669  175C  3001               	movlw	1
  5670  175D  00D9               	movwf	??___fldiv^(0+128)
  5671  175E                     u3765:	
  5672  175E  1003               	clrc
  5673  175F  0DE5               	rlf	___fldiv@grs^(0+128),f
  5674  1760  0DE6               	rlf	(___fldiv@grs+1)^(0+128),f
  5675  1761  0DE7               	rlf	(___fldiv@grs+2)^(0+128),f
  5676  1762  0DE8               	rlf	(___fldiv@grs+3)^(0+128),f
  5677  1763  0BD9               	decfsz	??___fldiv^(0+128),f
  5678  1764  2F5E               	goto	u3765
  5679  1765  30FF               	movlw	255
  5680  1766  07E3               	addwf	___fldiv@new_exp^(0+128),f
  5681  1767  1803               	skipnc
  5682  1768  0AE4               	incf	(___fldiv@new_exp+1)^(0+128),f
  5683  1769  30FF               	movlw	255
  5684  176A  07E4               	addwf	(___fldiv@new_exp+1)^(0+128),f
  5685  176B  2F4F               	goto	l2631
  5686  176C                     l2633:	
  5687  176C  01EA               	clrf	___fldiv@aexp^(0+128)
  5688  176D  1FE8               	btfss	(___fldiv@grs+3)^(0+128),7
  5689  176E  2F85               	goto	l2643
  5690  176F  30FF               	movlw	255
  5691  1770  0565               	andwf	___fldiv@grs^(0+128),w
  5692  1771  00D9               	movwf	??___fldiv^(0+128)
  5693  1772  30FF               	movlw	255
  5694  1773  0566               	andwf	(___fldiv@grs+1)^(0+128),w
  5695  1774  00DA               	movwf	(??___fldiv^(0+128)+1)
  5696  1775  30FF               	movlw	255
  5697  1776  0567               	andwf	(___fldiv@grs+2)^(0+128),w
  5698  1777  00DB               	movwf	(??___fldiv^(0+128)+2)
  5699  1778  307F               	movlw	127
  5700  1779  0568               	andwf	(___fldiv@grs+3)^(0+128),w
  5701  177A  00DC               	movwf	(??___fldiv^(0+128)+3)
  5702  177B  085C               	movf	(??___fldiv+3)^(0+128),w
  5703  177C  045B               	iorwf	(??___fldiv+2)^(0+128),w
  5704  177D  045A               	iorwf	(??___fldiv+1)^(0+128),w
  5705  177E  0459               	iorwf	??___fldiv^(0+128),w
  5706  177F  1903               	skipnz
  5707  1780  1855               	btfsc	___fldiv@b^(0+128),0
  5708  1781  2F83               	goto	l2639
  5709  1782  2F85               	goto	l2643
  5710  1783                     l2639:	
  5711  1783  01EA               	clrf	___fldiv@aexp^(0+128)
  5712  1784  0AEA               	incf	___fldiv@aexp^(0+128),f
  5713  1785                     l2643:	
  5714  1785  086A               	movf	___fldiv@aexp^(0+128),w
  5715  1786  1903               	btfsc	3,2
  5716  1787  2FB7               	goto	l2653
  5717  1788  3001               	movlw	1
  5718  1789  07D5               	addwf	___fldiv@b^(0+128),f
  5719  178A  3000               	movlw	0
  5720  178B  1803               	skipnc
  5721  178C  3001               	movlw	1
  5722  178D  07D6               	addwf	(___fldiv@b+1)^(0+128),f
  5723  178E  3000               	movlw	0
  5724  178F  1803               	skipnc
  5725  1790  3001               	movlw	1
  5726  1791  07D7               	addwf	(___fldiv@b+2)^(0+128),f
  5727  1792  3000               	movlw	0
  5728  1793  1803               	skipnc
  5729  1794  3001               	movlw	1
  5730  1795  07D8               	addwf	(___fldiv@b+3)^(0+128),f
  5731  1796  1C58               	btfss	(___fldiv@b+3)^(0+128),0
  5732  1797  2FB7               	goto	l2653
  5733  1798  0855               	movf	___fldiv@b^(0+128),w
  5734  1799  00D9               	movwf	??___fldiv^(0+128)
  5735  179A  0856               	movf	(___fldiv@b+1)^(0+128),w
  5736  179B  00DA               	movwf	(??___fldiv^(0+128)+1)
  5737  179C  0857               	movf	(___fldiv@b+2)^(0+128),w
  5738  179D  00DB               	movwf	(??___fldiv^(0+128)+2)
  5739  179E  0858               	movf	(___fldiv@b+3)^(0+128),w
  5740  179F  00DC               	movwf	(??___fldiv^(0+128)+3)
  5741  17A0  3001               	movlw	1
  5742  17A1  00DD               	movwf	(??___fldiv+4)^(0+128)
  5743  17A2                     u3835:	
  5744  17A2  0D5C               	rlf	(??___fldiv^(0+128)+3),w
  5745  17A3  0CDC               	rrf	(??___fldiv^(0+128)+3),f
  5746  17A4  0CDB               	rrf	(??___fldiv^(0+128)+2),f
  5747  17A5  0CDA               	rrf	(??___fldiv^(0+128)+1),f
  5748  17A6  0CD9               	rrf	??___fldiv^(0+128),f
  5749  17A7  0BDD               	decfsz	(??___fldiv+4)^(0+128),f
  5750  17A8  2FA2               	goto	u3835
  5751  17A9  085C               	movf	(??___fldiv+3)^(0+128),w
  5752  17AA  00D8               	movwf	(___fldiv@b+3)^(0+128)
  5753  17AB  085B               	movf	(??___fldiv+2)^(0+128),w
  5754  17AC  00D7               	movwf	(___fldiv@b+2)^(0+128)
  5755  17AD  085A               	movf	(??___fldiv+1)^(0+128),w
  5756  17AE  00D6               	movwf	(___fldiv@b+1)^(0+128)
  5757  17AF  0859               	movf	??___fldiv^(0+128),w
  5758  17B0  00D5               	movwf	___fldiv@b^(0+128)
  5759  17B1  3001               	movlw	1
  5760  17B2  07E3               	addwf	___fldiv@new_exp^(0+128),f
  5761  17B3  1803               	skipnc
  5762  17B4  0AE4               	incf	(___fldiv@new_exp+1)^(0+128),f
  5763  17B5  3000               	movlw	0
  5764  17B6  07E4               	addwf	(___fldiv@new_exp+1)^(0+128),f
  5765  17B7                     l2653:	
  5766  17B7  0864               	movf	(___fldiv@new_exp+1)^(0+128),w
  5767  17B8  3A80               	xorlw	128
  5768  17B9  00FF               	movwf	127
  5769  17BA  3080               	movlw	128
  5770  17BB  027F               	subwf	127,w
  5771  17BC  1D03               	skipz
  5772  17BD  2FC0               	goto	u3845
  5773  17BE  30FF               	movlw	255
  5774  17BF  0263               	subwf	___fldiv@new_exp^(0+128),w
  5775  17C0                     u3845:	
  5776  17C0  1C03               	skipc
  5777  17C1  2FD0               	goto	l2657
  5778  17C2  30FF               	movlw	255
  5779  17C3  1683               	bsf	3,5	;RP0=1, select bank1
  5780  17C4  1303               	bcf	3,6	;RP1=0, select bank1
  5781  17C5  00E3               	movwf	___fldiv@new_exp^(0+128)
  5782  17C6  3000               	movlw	0
  5783  17C7  00E4               	movwf	(___fldiv@new_exp^(0+128)+1)
  5784  17C8  3000               	movlw	0
  5785  17C9  00D8               	movwf	(___fldiv@b+3)^(0+128)
  5786  17CA  3000               	movlw	0
  5787  17CB  00D7               	movwf	(___fldiv@b+2)^(0+128)
  5788  17CC  3000               	movlw	0
  5789  17CD  00D6               	movwf	(___fldiv@b+1)^(0+128)
  5790  17CE  3000               	movlw	0
  5791  17CF  00D5               	movwf	___fldiv@b^(0+128)
  5792  17D0                     l2657:	
  5793  17D0  1683               	bsf	3,5	;RP0=1, select bank1
  5794  17D1  1303               	bcf	3,6	;RP1=0, select bank1
  5795  17D2  0864               	movf	(___fldiv@new_exp+1)^(0+128),w
  5796  17D3  3A80               	xorlw	128
  5797  17D4  00FF               	movwf	127
  5798  17D5  3080               	movlw	128
  5799  17D6  027F               	subwf	127,w
  5800  17D7  1D03               	skipz
  5801  17D8  2FDB               	goto	u3855
  5802  17D9  3001               	movlw	1
  5803  17DA  0263               	subwf	___fldiv@new_exp^(0+128),w
  5804  17DB                     u3855:	
  5805  17DB  1803               	skipnc
  5806  17DC  2FEA               	goto	l690
  5807  17DD  1683               	bsf	3,5	;RP0=1, select bank1
  5808  17DE  1303               	bcf	3,6	;RP1=0, select bank1
  5809  17DF  01E3               	clrf	___fldiv@new_exp^(0+128)
  5810  17E0  01E4               	clrf	(___fldiv@new_exp+1)^(0+128)
  5811  17E1  3000               	movlw	0
  5812  17E2  00D8               	movwf	(___fldiv@b+3)^(0+128)
  5813  17E3  3000               	movlw	0
  5814  17E4  00D7               	movwf	(___fldiv@b+2)^(0+128)
  5815  17E5  3000               	movlw	0
  5816  17E6  00D6               	movwf	(___fldiv@b+1)^(0+128)
  5817  17E7  3000               	movlw	0
  5818  17E8  00D5               	movwf	___fldiv@b^(0+128)
  5819  17E9  01E2               	clrf	___fldiv@sign^(0+128)
  5820  17EA                     l690:	
  5821  17EA  1683               	bsf	3,5	;RP0=1, select bank1
  5822  17EB  1303               	bcf	3,6	;RP1=0, select bank1
  5823  17EC  0863               	movf	___fldiv@new_exp^(0+128),w
  5824  17ED  00D9               	movwf	??___fldiv^(0+128)
  5825  17EE  0859               	movf	??___fldiv^(0+128),w
  5826  17EF  00E9               	movwf	___fldiv@bexp^(0+128)
  5827  17F0  1C69               	btfss	___fldiv@bexp^(0+128),0
  5828  17F1  2FF4               	goto	l2669
  5829  17F2  17D7               	bsf	(___fldiv@b^(0+128)+2),7
  5830  17F3  2FF8               	goto	l692
  5831  17F4                     l2669:	
  5832  17F4  307F               	movlw	127
  5833  17F5  00D9               	movwf	??___fldiv^(0+128)
  5834  17F6  0859               	movf	??___fldiv^(0+128),w
  5835  17F7  05D7               	andwf	(___fldiv@b^(0+128)+2),f
  5836  17F8                     l692:	
  5837  17F8  0869               	movf	___fldiv@bexp^(0+128),w
  5838  17F9  00D9               	movwf	??___fldiv^(0+128)
  5839  17FA  1003               	clrc
  5840  17FB  0C59               	rrf	??___fldiv^(0+128),w
  5841  17FC  00DA               	movwf	(??___fldiv+1)^(0+128)
  5842  17FD  085A               	movf	(??___fldiv+1)^(0+128),w
  5843  17FE  00D8               	movwf	(___fldiv@b^(0+128)+3)
  5844  17FF  2EBD               	goto	L3
  5845  1800                     __end_of___fldiv:	
  5846                           
  5847                           	psect	text13
  5848  1034                     __ptext13:	
  5849 ;; *************** function _Lcd_Write_String *****************
  5850 ;; Defined at:
  5851 ;;		line 105 in file "lcd4.c"
  5852 ;; Parameters:    Size  Location     Type
  5853 ;;  a               1    wreg     PTR unsigned char 
  5854 ;;		 -> STR_1(11), 
  5855 ;; Auto vars:     Size  Location     Type
  5856 ;;  a               1    8[BANK1 ] PTR unsigned char 
  5857 ;;		 -> STR_1(11), 
  5858 ;;  i               2    6[BANK1 ] int 
  5859 ;; Return value:  Size  Location     Type
  5860 ;;                  1    wreg      void 
  5861 ;; Registers used:
  5862 ;;		wreg, fsr0l, fsr0h, status,2, status,0, pclath, cstack
  5863 ;; Tracked objects:
  5864 ;;		On entry : 0/0
  5865 ;;		On exit  : 0/0
  5866 ;;		Unchanged: 0/0
  5867 ;; Data sizes:     COMMON   BANK0   BANK1   BANK3   BANK2
  5868 ;;      Params:         0       0       0       0       0
  5869 ;;      Locals:         0       0       3       0       0
  5870 ;;      Temps:          0       0       0       0       0
  5871 ;;      Totals:         0       0       3       0       0
  5872 ;;Total ram usage:        3 bytes
  5873 ;; Hardware stack levels used:    1
  5874 ;; Hardware stack levels required when called:    5
  5875 ;; This function calls:
  5876 ;;		_Lcd_Write_Char
  5877 ;; This function is called by:
  5878 ;;		_main
  5879 ;; This function uses a non-reentrant model
  5880 ;;
  5881                           
  5882                           
  5883                           ;psect for function _Lcd_Write_String
  5884  1034                     _Lcd_Write_String:	
  5885                           
  5886                           ;incstack = 0
  5887                           ; Regs used in _Lcd_Write_String: [wreg-fsr0h+status,2+status,0+pclath+cstack]
  5888                           ;Lcd_Write_String@a stored from wreg
  5889  1034  1683               	bsf	3,5	;RP0=1, select bank1
  5890  1035  1303               	bcf	3,6	;RP1=0, select bank1
  5891  1036  00A8               	movwf	Lcd_Write_String@a^(0+128)
  5892                           
  5893                           ;lcd4.c: 105: void Lcd_Write_String(char *a);lcd4.c: 106: {;lcd4.c: 107:  int i;;lcd4.c:
      +                           108:  for(i=0;a[i]!='\0';i++)
  5894  1037  01A6               	clrf	Lcd_Write_String@i^(0+128)
  5895  1038  01A7               	clrf	(Lcd_Write_String@i+1)^(0+128)
  5896  1039                     l3099:	
  5897  1039  0826               	movf	Lcd_Write_String@i^(0+128),w
  5898  103A  0728               	addwf	Lcd_Write_String@a^(0+128),w
  5899  103B  0084               	movwf	4
  5900  103C  160A  158A  2000  160A  118A  	fcall	stringdir
  5901  1041  3A00               	xorlw	0
  5902  1042  1903               	btfsc	3,2
  5903  1043  0008               	return
  5904                           
  5905                           ;lcd4.c: 109:     Lcd_Write_Char(a[i]);
  5906  1044  0826               	movf	Lcd_Write_String@i^(0+128),w
  5907  1045  0728               	addwf	Lcd_Write_String@a^(0+128),w
  5908  1046  0084               	movwf	4
  5909  1047  160A  158A  2000  160A  118A  	fcall	stringdir
  5910  104C  160A  118A  20EC  160A  118A  	fcall	_Lcd_Write_Char
  5911  1051  3001               	movlw	1
  5912  1052  1683               	bsf	3,5	;RP0=1, select bank1
  5913  1053  1303               	bcf	3,6	;RP1=0, select bank1
  5914  1054  07A6               	addwf	Lcd_Write_String@i^(0+128),f
  5915  1055  1803               	skipnc
  5916  1056  0AA7               	incf	(Lcd_Write_String@i+1)^(0+128),f
  5917  1057  3000               	movlw	0
  5918  1058  07A7               	addwf	(Lcd_Write_String@i+1)^(0+128),f
  5919  1059  2839               	goto	l3099
  5920  105A                     __end_of_Lcd_Write_String:	
  5921                           
  5922                           	psect	text14
  5923  10EC                     __ptext14:	
  5924 ;; *************** function _Lcd_Write_Char *****************
  5925 ;; Defined at:
  5926 ;;		line 89 in file "lcd4.c"
  5927 ;; Parameters:    Size  Location     Type
  5928 ;;  a               1    wreg     unsigned char 
  5929 ;; Auto vars:     Size  Location     Type
  5930 ;;  a               1    5[BANK1 ] unsigned char 
  5931 ;;  y               1    4[BANK1 ] unsigned char 
  5932 ;;  temp            1    3[BANK1 ] unsigned char 
  5933 ;; Return value:  Size  Location     Type
  5934 ;;                  1    wreg      void 
  5935 ;; Registers used:
  5936 ;;		wreg, status,2, status,0, pclath, cstack
  5937 ;; Tracked objects:
  5938 ;;		On entry : 0/0
  5939 ;;		On exit  : 0/0
  5940 ;;		Unchanged: 0/0
  5941 ;; Data sizes:     COMMON   BANK0   BANK1   BANK3   BANK2
  5942 ;;      Params:         0       0       0       0       0
  5943 ;;      Locals:         0       0       3       0       0
  5944 ;;      Temps:          0       0       2       0       0
  5945 ;;      Totals:         0       0       5       0       0
  5946 ;;Total ram usage:        5 bytes
  5947 ;; Hardware stack levels used:    1
  5948 ;; Hardware stack levels required when called:    4
  5949 ;; This function calls:
  5950 ;;		_Lcd_Port
  5951 ;; This function is called by:
  5952 ;;		_main
  5953 ;;		_Lcd_Write_String
  5954 ;; This function uses a non-reentrant model
  5955 ;;
  5956                           
  5957                           
  5958                           ;psect for function _Lcd_Write_Char
  5959  10EC                     _Lcd_Write_Char:	
  5960                           
  5961                           ;incstack = 0
  5962                           ; Regs used in _Lcd_Write_Char: [wreg+status,2+status,0+pclath+cstack]
  5963                           ;Lcd_Write_Char@a stored from wreg
  5964  10EC  1683               	bsf	3,5	;RP0=1, select bank1
  5965  10ED  1303               	bcf	3,6	;RP1=0, select bank1
  5966  10EE  00A5               	movwf	Lcd_Write_Char@a^(0+128)
  5967                           
  5968                           ;lcd4.c: 89: void Lcd_Write_Char(char a);lcd4.c: 90: {;lcd4.c: 91:    char temp,y;;lcd4.
      +                          c: 92:    temp = a&0x0F;
  5969  10EF  0825               	movf	Lcd_Write_Char@a^(0+128),w
  5970  10F0  390F               	andlw	15
  5971  10F1  00A1               	movwf	??_Lcd_Write_Char^(0+128)
  5972  10F2  0821               	movf	??_Lcd_Write_Char^(0+128),w
  5973  10F3  00A3               	movwf	Lcd_Write_Char@temp^(0+128)
  5974                           
  5975                           ;lcd4.c: 93:    y = a&0xF0;
  5976  10F4  0825               	movf	Lcd_Write_Char@a^(0+128),w
  5977  10F5  39F0               	andlw	240
  5978  10F6  00A1               	movwf	??_Lcd_Write_Char^(0+128)
  5979  10F7  0821               	movf	??_Lcd_Write_Char^(0+128),w
  5980  10F8  00A4               	movwf	Lcd_Write_Char@y^(0+128)
  5981                           
  5982                           ;lcd4.c: 94:    RD0 = 1;
  5983  10F9  1283               	bcf	3,5	;RP0=0, select bank0
  5984  10FA  1303               	bcf	3,6	;RP1=0, select bank0
  5985  10FB  1408               	bsf	8,0	;volatile
  5986                           
  5987                           ;lcd4.c: 95:    Lcd_Port(y>>4);
  5988  10FC  1683               	bsf	3,5	;RP0=1, select bank1
  5989  10FD  1303               	bcf	3,6	;RP1=0, select bank1
  5990  10FE  0824               	movf	Lcd_Write_Char@y^(0+128),w
  5991  10FF  00A1               	movwf	??_Lcd_Write_Char^(0+128)
  5992  1100  3004               	movlw	4
  5993  1101                     u3405:	
  5994  1101  1003               	clrc
  5995  1102  0CA1               	rrf	??_Lcd_Write_Char^(0+128),f
  5996  1103  3EFF               	addlw	-1
  5997  1104  1D03               	skipz
  5998  1105  2901               	goto	u3405
  5999  1106  0821               	movf	??_Lcd_Write_Char^(0+128),w
  6000  1107  160A  118A  2084  160A  118A  	fcall	_Lcd_Port
  6001                           
  6002                           ;lcd4.c: 96:    RD1 = 1;
  6003  110C  1283               	bcf	3,5	;RP0=0, select bank0
  6004  110D  1303               	bcf	3,6	;RP1=0, select bank0
  6005  110E  1488               	bsf	8,1	;volatile
  6006                           
  6007                           ;lcd4.c: 97:    _delay((unsigned long)((2)*(20000000/4000.0)));
  6008  110F  300D               	movlw	13
  6009  1110  1683               	bsf	3,5	;RP0=1, select bank1
  6010  1111  1303               	bcf	3,6	;RP1=0, select bank1
  6011  1112  00A2               	movwf	(??_Lcd_Write_Char^(0+128)+1)
  6012  1113  30FB               	movlw	251
  6013  1114  00A1               	movwf	??_Lcd_Write_Char^(0+128)
  6014  1115                     u5727:	
  6015  1115  0BA1               	decfsz	??_Lcd_Write_Char^(0+128),f
  6016  1116  2915               	goto	u5727
  6017  1117  0BA2               	decfsz	(??_Lcd_Write_Char^(0+128)+1),f
  6018  1118  2915               	goto	u5727
  6019                           
  6020                           ;lcd4.c: 98:    RD1 = 0;
  6021  1119  1283               	bcf	3,5	;RP0=0, select bank0
  6022  111A  1303               	bcf	3,6	;RP1=0, select bank0
  6023  111B  1088               	bcf	8,1	;volatile
  6024                           
  6025                           ;lcd4.c: 99:    Lcd_Port(temp);
  6026  111C  1683               	bsf	3,5	;RP0=1, select bank1
  6027  111D  1303               	bcf	3,6	;RP1=0, select bank1
  6028  111E  0823               	movf	Lcd_Write_Char@temp^(0+128),w
  6029  111F  160A  118A  2084  160A  118A  	fcall	_Lcd_Port
  6030                           
  6031                           ;lcd4.c: 100:    RD1 = 1;
  6032  1124  1283               	bcf	3,5	;RP0=0, select bank0
  6033  1125  1303               	bcf	3,6	;RP1=0, select bank0
  6034  1126  1488               	bsf	8,1	;volatile
  6035                           
  6036                           ;lcd4.c: 101:    _delay((unsigned long)((2)*(20000000/4000.0)));
  6037  1127  300D               	movlw	13
  6038  1128  1683               	bsf	3,5	;RP0=1, select bank1
  6039  1129  1303               	bcf	3,6	;RP1=0, select bank1
  6040  112A  00A2               	movwf	(??_Lcd_Write_Char^(0+128)+1)
  6041  112B  30FB               	movlw	251
  6042  112C  00A1               	movwf	??_Lcd_Write_Char^(0+128)
  6043  112D                     u5737:	
  6044  112D  0BA1               	decfsz	??_Lcd_Write_Char^(0+128),f
  6045  112E  292D               	goto	u5737
  6046  112F  0BA2               	decfsz	(??_Lcd_Write_Char^(0+128)+1),f
  6047  1130  292D               	goto	u5737
  6048                           
  6049                           ;lcd4.c: 102:    RD1 = 0;
  6050  1131  1283               	bcf	3,5	;RP0=0, select bank0
  6051  1132  1303               	bcf	3,6	;RP1=0, select bank0
  6052  1133  1088               	bcf	8,1	;volatile
  6053  1134  0008               	return
  6054  1135                     __end_of_Lcd_Write_Char:	
  6055                           
  6056                           	psect	text15
  6057  11CB                     __ptext15:	
  6058 ;; *************** function _Lcd_Set_Cursor *****************
  6059 ;; Defined at:
  6060 ;;		line 44 in file "lcd4.c"
  6061 ;; Parameters:    Size  Location     Type
  6062 ;;  a               1    wreg     unsigned char 
  6063 ;;  b               1    4[BANK1 ] unsigned char 
  6064 ;; Auto vars:     Size  Location     Type
  6065 ;;  a               1    7[BANK1 ] unsigned char 
  6066 ;;  temp            1   10[BANK1 ] unsigned char 
  6067 ;;  y               1    9[BANK1 ] unsigned char 
  6068 ;;  z               1    8[BANK1 ] unsigned char 
  6069 ;; Return value:  Size  Location     Type
  6070 ;;                  1    wreg      void 
  6071 ;; Registers used:
  6072 ;;		wreg, status,2, status,0, pclath, cstack
  6073 ;; Tracked objects:
  6074 ;;		On entry : 0/0
  6075 ;;		On exit  : 0/0
  6076 ;;		Unchanged: 0/0
  6077 ;; Data sizes:     COMMON   BANK0   BANK1   BANK3   BANK2
  6078 ;;      Params:         0       0       1       0       0
  6079 ;;      Locals:         0       0       4       0       0
  6080 ;;      Temps:          0       0       2       0       0
  6081 ;;      Totals:         0       0       7       0       0
  6082 ;;Total ram usage:        7 bytes
  6083 ;; Hardware stack levels used:    1
  6084 ;; Hardware stack levels required when called:    5
  6085 ;; This function calls:
  6086 ;;		_Lcd_Cmd
  6087 ;; This function is called by:
  6088 ;;		_main
  6089 ;; This function uses a non-reentrant model
  6090 ;;
  6091                           
  6092                           
  6093                           ;psect for function _Lcd_Set_Cursor
  6094  11CB                     _Lcd_Set_Cursor:	
  6095                           
  6096                           ;incstack = 0
  6097                           ; Regs used in _Lcd_Set_Cursor: [wreg+status,2+status,0+pclath+cstack]
  6098                           ;Lcd_Set_Cursor@a stored from wreg
  6099  11CB  1683               	bsf	3,5	;RP0=1, select bank1
  6100  11CC  1303               	bcf	3,6	;RP1=0, select bank1
  6101  11CD  00A7               	movwf	Lcd_Set_Cursor@a^(0+128)
  6102                           
  6103                           ;lcd4.c: 44: void Lcd_Set_Cursor(char a, char b);lcd4.c: 45: {;lcd4.c: 46:  char temp,z,
      +                          y;;lcd4.c: 47:  if(a == 1)
  6104  11CE  0327               	decf	Lcd_Set_Cursor@a^(0+128),w
  6105  11CF  1D03               	btfss	3,2
  6106  11D0  29F4               	goto	l3167
  6107                           
  6108                           ;lcd4.c: 48:  {;lcd4.c: 49:    temp = 0x80 + b - 1;
  6109  11D1  0824               	movf	Lcd_Set_Cursor@b^(0+128),w
  6110  11D2  3E7F               	addlw	127
  6111  11D3  00A5               	movwf	??_Lcd_Set_Cursor^(0+128)
  6112  11D4  0825               	movf	??_Lcd_Set_Cursor^(0+128),w
  6113  11D5  00AA               	movwf	Lcd_Set_Cursor@temp^(0+128)
  6114                           
  6115                           ;lcd4.c: 50:   z = temp>>4;
  6116  11D6  082A               	movf	Lcd_Set_Cursor@temp^(0+128),w
  6117  11D7  00A5               	movwf	??_Lcd_Set_Cursor^(0+128)
  6118  11D8  3004               	movlw	4
  6119  11D9                     u4915:	
  6120  11D9  1003               	clrc
  6121  11DA  0CA5               	rrf	??_Lcd_Set_Cursor^(0+128),f
  6122  11DB  3EFF               	addlw	-1
  6123  11DC  1D03               	skipz
  6124  11DD  29D9               	goto	u4915
  6125  11DE  0825               	movf	??_Lcd_Set_Cursor^(0+128),w
  6126  11DF  00A6               	movwf	(??_Lcd_Set_Cursor+1)^(0+128)
  6127  11E0  0826               	movf	(??_Lcd_Set_Cursor+1)^(0+128),w
  6128  11E1  00A8               	movwf	Lcd_Set_Cursor@z^(0+128)
  6129                           
  6130                           ;lcd4.c: 51:   y = temp & 0x0F;
  6131  11E2  082A               	movf	Lcd_Set_Cursor@temp^(0+128),w
  6132  11E3  390F               	andlw	15
  6133  11E4  00A5               	movwf	??_Lcd_Set_Cursor^(0+128)
  6134  11E5  0825               	movf	??_Lcd_Set_Cursor^(0+128),w
  6135  11E6  00A9               	movwf	Lcd_Set_Cursor@y^(0+128)
  6136                           
  6137                           ;lcd4.c: 52:   Lcd_Cmd(z);
  6138  11E7  0828               	movf	Lcd_Set_Cursor@z^(0+128),w
  6139  11E8  160A  118A  205A  160A  118A  	fcall	_Lcd_Cmd
  6140                           
  6141                           ;lcd4.c: 53:   Lcd_Cmd(y);
  6142  11ED  1683               	bsf	3,5	;RP0=1, select bank1
  6143  11EE  1303               	bcf	3,6	;RP1=0, select bank1
  6144  11EF  0829               	movf	Lcd_Set_Cursor@y^(0+128),w
  6145  11F0  160A  118A  205A   	fcall	_Lcd_Cmd
  6146                           
  6147                           ;lcd4.c: 54:  }
  6148  11F3  0008               	return
  6149  11F4                     l3167:	
  6150  11F4  3002               	movlw	2
  6151  11F5  0627               	xorwf	Lcd_Set_Cursor@a^(0+128),w
  6152  11F6  1D03               	btfss	3,2
  6153  11F7  0008               	return
  6154                           
  6155                           ;lcd4.c: 56:  {;lcd4.c: 57:   temp = 0xC0 + b - 1;
  6156  11F8  0824               	movf	Lcd_Set_Cursor@b^(0+128),w
  6157  11F9  3EBF               	addlw	191
  6158  11FA  00A5               	movwf	??_Lcd_Set_Cursor^(0+128)
  6159  11FB  0825               	movf	??_Lcd_Set_Cursor^(0+128),w
  6160  11FC  00AA               	movwf	Lcd_Set_Cursor@temp^(0+128)
  6161                           
  6162                           ;lcd4.c: 58:   z = temp>>4;
  6163  11FD  082A               	movf	Lcd_Set_Cursor@temp^(0+128),w
  6164  11FE  00A5               	movwf	??_Lcd_Set_Cursor^(0+128)
  6165  11FF  3004               	movlw	4
  6166  1200                     u4935:	
  6167  1200  1003               	clrc
  6168  1201  0CA5               	rrf	??_Lcd_Set_Cursor^(0+128),f
  6169  1202  3EFF               	addlw	-1
  6170  1203  1D03               	skipz
  6171  1204  2A00               	goto	u4935
  6172  1205  0825               	movf	??_Lcd_Set_Cursor^(0+128),w
  6173  1206  00A6               	movwf	(??_Lcd_Set_Cursor+1)^(0+128)
  6174  1207  0826               	movf	(??_Lcd_Set_Cursor+1)^(0+128),w
  6175  1208  00A8               	movwf	Lcd_Set_Cursor@z^(0+128)
  6176                           
  6177                           ;lcd4.c: 59:   y = temp & 0x0F;
  6178  1209  082A               	movf	Lcd_Set_Cursor@temp^(0+128),w
  6179  120A  390F               	andlw	15
  6180  120B  00A5               	movwf	??_Lcd_Set_Cursor^(0+128)
  6181  120C  0825               	movf	??_Lcd_Set_Cursor^(0+128),w
  6182  120D  00A9               	movwf	Lcd_Set_Cursor@y^(0+128)
  6183                           
  6184                           ;lcd4.c: 60:   Lcd_Cmd(z);
  6185  120E  0828               	movf	Lcd_Set_Cursor@z^(0+128),w
  6186  120F  160A  118A  205A  160A  118A  	fcall	_Lcd_Cmd
  6187                           
  6188                           ;lcd4.c: 61:   Lcd_Cmd(y);
  6189  1214  1683               	bsf	3,5	;RP0=1, select bank1
  6190  1215  1303               	bcf	3,6	;RP1=0, select bank1
  6191  1216  0829               	movf	Lcd_Set_Cursor@y^(0+128),w
  6192  1217  160A  118A  205A   	fcall	_Lcd_Cmd
  6193  121A  0008               	return
  6194  121B                     __end_of_Lcd_Set_Cursor:	
  6195                           
  6196                           	psect	text16
  6197  12EF                     __ptext16:	
  6198 ;; *************** function _Lcd_Init *****************
  6199 ;; Defined at:
  6200 ;;		line 65 in file "lcd4.c"
  6201 ;; Parameters:    Size  Location     Type
  6202 ;;		None
  6203 ;; Auto vars:     Size  Location     Type
  6204 ;;		None
  6205 ;; Return value:  Size  Location     Type
  6206 ;;                  1    wreg      void 
  6207 ;; Registers used:
  6208 ;;		wreg, status,2, status,0, pclath, cstack
  6209 ;; Tracked objects:
  6210 ;;		On entry : 0/0
  6211 ;;		On exit  : 0/0
  6212 ;;		Unchanged: 0/0
  6213 ;; Data sizes:     COMMON   BANK0   BANK1   BANK3   BANK2
  6214 ;;      Params:         0       0       0       0       0
  6215 ;;      Locals:         0       0       0       0       0
  6216 ;;      Temps:          0       0       2       0       0
  6217 ;;      Totals:         0       0       2       0       0
  6218 ;;Total ram usage:        2 bytes
  6219 ;; Hardware stack levels used:    1
  6220 ;; Hardware stack levels required when called:    5
  6221 ;; This function calls:
  6222 ;;		_Lcd_Cmd
  6223 ;;		_Lcd_Port
  6224 ;; This function is called by:
  6225 ;;		_main
  6226 ;; This function uses a non-reentrant model
  6227 ;;
  6228                           
  6229                           
  6230                           ;psect for function _Lcd_Init
  6231  12EF                     _Lcd_Init:	
  6232                           
  6233                           ;lcd4.c: 67:   Lcd_Port(0x00);
  6234                           
  6235                           ;incstack = 0
  6236                           ; Regs used in _Lcd_Init: [wreg+status,2+status,0+pclath+cstack]
  6237  12EF  3000               	movlw	0
  6238  12F0  160A  118A  2084  160A  118A  	fcall	_Lcd_Port
  6239                           
  6240                           ;lcd4.c: 68:    _delay((unsigned long)((2)*(20000000/4000.0)));
  6241  12F5  300D               	movlw	13
  6242  12F6  1683               	bsf	3,5	;RP0=1, select bank1
  6243  12F7  1303               	bcf	3,6	;RP1=0, select bank1
  6244  12F8  00A5               	movwf	(??_Lcd_Init^(0+128)+1)
  6245  12F9  30FB               	movlw	251
  6246  12FA  00A4               	movwf	??_Lcd_Init^(0+128)
  6247  12FB                     u5747:	
  6248  12FB  0BA4               	decfsz	??_Lcd_Init^(0+128),f
  6249  12FC  2AFB               	goto	u5747
  6250  12FD  0BA5               	decfsz	(??_Lcd_Init^(0+128)+1),f
  6251  12FE  2AFB               	goto	u5747
  6252                           
  6253                           ;lcd4.c: 69:   Lcd_Cmd(0x03);
  6254  12FF  3003               	movlw	3
  6255  1300  160A  118A  205A  160A  118A  	fcall	_Lcd_Cmd
  6256                           
  6257                           ;lcd4.c: 70:  _delay((unsigned long)((2)*(20000000/4000.0)));
  6258  1305  300D               	movlw	13
  6259  1306  1683               	bsf	3,5	;RP0=1, select bank1
  6260  1307  1303               	bcf	3,6	;RP1=0, select bank1
  6261  1308  00A5               	movwf	(??_Lcd_Init^(0+128)+1)
  6262  1309  30FB               	movlw	251
  6263  130A  00A4               	movwf	??_Lcd_Init^(0+128)
  6264  130B                     u5757:	
  6265  130B  0BA4               	decfsz	??_Lcd_Init^(0+128),f
  6266  130C  2B0B               	goto	u5757
  6267  130D  0BA5               	decfsz	(??_Lcd_Init^(0+128)+1),f
  6268  130E  2B0B               	goto	u5757
  6269                           
  6270                           ;lcd4.c: 71:   Lcd_Cmd(0x03);
  6271  130F  3003               	movlw	3
  6272  1310  160A  118A  205A  160A  118A  	fcall	_Lcd_Cmd
  6273                           
  6274                           ;lcd4.c: 72:  _delay((unsigned long)((2)*(20000000/4000.0)));
  6275  1315  300D               	movlw	13
  6276  1316  1683               	bsf	3,5	;RP0=1, select bank1
  6277  1317  1303               	bcf	3,6	;RP1=0, select bank1
  6278  1318  00A5               	movwf	(??_Lcd_Init^(0+128)+1)
  6279  1319  30FB               	movlw	251
  6280  131A  00A4               	movwf	??_Lcd_Init^(0+128)
  6281  131B                     u5767:	
  6282  131B  0BA4               	decfsz	??_Lcd_Init^(0+128),f
  6283  131C  2B1B               	goto	u5767
  6284  131D  0BA5               	decfsz	(??_Lcd_Init^(0+128)+1),f
  6285  131E  2B1B               	goto	u5767
  6286                           
  6287                           ;lcd4.c: 73:   Lcd_Cmd(0x03);
  6288  131F  3003               	movlw	3
  6289  1320  160A  118A  205A  160A  118A  	fcall	_Lcd_Cmd
  6290                           
  6291                           ;lcd4.c: 74:   _delay((unsigned long)((2)*(20000000/4000.0)));
  6292  1325  300D               	movlw	13
  6293  1326  1683               	bsf	3,5	;RP0=1, select bank1
  6294  1327  1303               	bcf	3,6	;RP1=0, select bank1
  6295  1328  00A5               	movwf	(??_Lcd_Init^(0+128)+1)
  6296  1329  30FB               	movlw	251
  6297  132A  00A4               	movwf	??_Lcd_Init^(0+128)
  6298  132B                     u5777:	
  6299  132B  0BA4               	decfsz	??_Lcd_Init^(0+128),f
  6300  132C  2B2B               	goto	u5777
  6301  132D  0BA5               	decfsz	(??_Lcd_Init^(0+128)+1),f
  6302  132E  2B2B               	goto	u5777
  6303                           
  6304                           ;lcd4.c: 76:   Lcd_Cmd(0x02);
  6305  132F  3002               	movlw	2
  6306  1330  160A  118A  205A  160A  118A  	fcall	_Lcd_Cmd
  6307                           
  6308                           ;lcd4.c: 77:   Lcd_Cmd(0x02);
  6309  1335  3002               	movlw	2
  6310  1336  160A  118A  205A  160A  118A  	fcall	_Lcd_Cmd
  6311                           
  6312                           ;lcd4.c: 78:   _delay((unsigned long)((2)*(20000000/4000.0)));
  6313  133B  300D               	movlw	13
  6314  133C  1683               	bsf	3,5	;RP0=1, select bank1
  6315  133D  1303               	bcf	3,6	;RP1=0, select bank1
  6316  133E  00A5               	movwf	(??_Lcd_Init^(0+128)+1)
  6317  133F  30FB               	movlw	251
  6318  1340  00A4               	movwf	??_Lcd_Init^(0+128)
  6319  1341                     u5787:	
  6320  1341  0BA4               	decfsz	??_Lcd_Init^(0+128),f
  6321  1342  2B41               	goto	u5787
  6322  1343  0BA5               	decfsz	(??_Lcd_Init^(0+128)+1),f
  6323  1344  2B41               	goto	u5787
  6324                           
  6325                           ;lcd4.c: 79:   Lcd_Cmd(0x08);
  6326  1345  3008               	movlw	8
  6327  1346  160A  118A  205A  160A  118A  	fcall	_Lcd_Cmd
  6328                           
  6329                           ;lcd4.c: 80:   _delay((unsigned long)((2)*(20000000/4000.0)));
  6330  134B  300D               	movlw	13
  6331  134C  1683               	bsf	3,5	;RP0=1, select bank1
  6332  134D  1303               	bcf	3,6	;RP1=0, select bank1
  6333  134E  00A5               	movwf	(??_Lcd_Init^(0+128)+1)
  6334  134F  30FB               	movlw	251
  6335  1350  00A4               	movwf	??_Lcd_Init^(0+128)
  6336  1351                     u5797:	
  6337  1351  0BA4               	decfsz	??_Lcd_Init^(0+128),f
  6338  1352  2B51               	goto	u5797
  6339  1353  0BA5               	decfsz	(??_Lcd_Init^(0+128)+1),f
  6340  1354  2B51               	goto	u5797
  6341                           
  6342                           ;lcd4.c: 81:   Lcd_Cmd(0x00);
  6343  1355  3000               	movlw	0
  6344  1356  160A  118A  205A  160A  118A  	fcall	_Lcd_Cmd
  6345                           
  6346                           ;lcd4.c: 82:   Lcd_Cmd(0x0C);
  6347  135B  300C               	movlw	12
  6348  135C  160A  118A  205A  160A  118A  	fcall	_Lcd_Cmd
  6349                           
  6350                           ;lcd4.c: 83:   _delay((unsigned long)((2)*(20000000/4000.0)));
  6351  1361  300D               	movlw	13
  6352  1362  1683               	bsf	3,5	;RP0=1, select bank1
  6353  1363  1303               	bcf	3,6	;RP1=0, select bank1
  6354  1364  00A5               	movwf	(??_Lcd_Init^(0+128)+1)
  6355  1365  30FB               	movlw	251
  6356  1366  00A4               	movwf	??_Lcd_Init^(0+128)
  6357  1367                     u5807:	
  6358  1367  0BA4               	decfsz	??_Lcd_Init^(0+128),f
  6359  1368  2B67               	goto	u5807
  6360  1369  0BA5               	decfsz	(??_Lcd_Init^(0+128)+1),f
  6361  136A  2B67               	goto	u5807
  6362                           
  6363                           ;lcd4.c: 84:   Lcd_Cmd(0x00);
  6364  136B  3000               	movlw	0
  6365  136C  160A  118A  205A  160A  118A  	fcall	_Lcd_Cmd
  6366                           
  6367                           ;lcd4.c: 85:   Lcd_Cmd(0x06);
  6368  1371  3006               	movlw	6
  6369  1372  160A  118A  205A  160A  118A  	fcall	_Lcd_Cmd
  6370                           
  6371                           ;lcd4.c: 86:   _delay((unsigned long)((2)*(20000000/4000.0)));
  6372  1377  300D               	movlw	13
  6373  1378  1683               	bsf	3,5	;RP0=1, select bank1
  6374  1379  1303               	bcf	3,6	;RP1=0, select bank1
  6375  137A  00A5               	movwf	(??_Lcd_Init^(0+128)+1)
  6376  137B  30FB               	movlw	251
  6377  137C  00A4               	movwf	??_Lcd_Init^(0+128)
  6378  137D                     u5817:	
  6379  137D  0BA4               	decfsz	??_Lcd_Init^(0+128),f
  6380  137E  2B7D               	goto	u5817
  6381  137F  0BA5               	decfsz	(??_Lcd_Init^(0+128)+1),f
  6382  1380  2B7D               	goto	u5817
  6383  1381  0008               	return
  6384  1382                     __end_of_Lcd_Init:	
  6385                           
  6386                           	psect	text17
  6387  105A                     __ptext17:	
  6388 ;; *************** function _Lcd_Cmd *****************
  6389 ;; Defined at:
  6390 ;;		line 27 in file "lcd4.c"
  6391 ;; Parameters:    Size  Location     Type
  6392 ;;  a               1    wreg     unsigned char 
  6393 ;; Auto vars:     Size  Location     Type
  6394 ;;  a               1    3[BANK1 ] unsigned char 
  6395 ;; Return value:  Size  Location     Type
  6396 ;;                  1    wreg      void 
  6397 ;; Registers used:
  6398 ;;		wreg, status,2, status,0, pclath, cstack
  6399 ;; Tracked objects:
  6400 ;;		On entry : 0/0
  6401 ;;		On exit  : 0/0
  6402 ;;		Unchanged: 0/0
  6403 ;; Data sizes:     COMMON   BANK0   BANK1   BANK3   BANK2
  6404 ;;      Params:         0       0       0       0       0
  6405 ;;      Locals:         0       0       1       0       0
  6406 ;;      Temps:          0       0       2       0       0
  6407 ;;      Totals:         0       0       3       0       0
  6408 ;;Total ram usage:        3 bytes
  6409 ;; Hardware stack levels used:    1
  6410 ;; Hardware stack levels required when called:    4
  6411 ;; This function calls:
  6412 ;;		_Lcd_Port
  6413 ;; This function is called by:
  6414 ;;		_Lcd_Set_Cursor
  6415 ;;		_Lcd_Init
  6416 ;;		_Lcd_Clear
  6417 ;;		_Lcd_Shift_Right
  6418 ;;		_Lcd_Shift_Left
  6419 ;; This function uses a non-reentrant model
  6420 ;;
  6421                           
  6422                           
  6423                           ;psect for function _Lcd_Cmd
  6424  105A                     _Lcd_Cmd:	
  6425                           
  6426                           ;incstack = 0
  6427                           ; Regs used in _Lcd_Cmd: [wreg+status,2+status,0+pclath+cstack]
  6428                           ;Lcd_Cmd@a stored from wreg
  6429  105A  1683               	bsf	3,5	;RP0=1, select bank1
  6430  105B  1303               	bcf	3,6	;RP1=0, select bank1
  6431  105C  00A3               	movwf	Lcd_Cmd@a^(0+128)
  6432                           
  6433                           ;lcd4.c: 27: void Lcd_Cmd(char a);lcd4.c: 28: {;lcd4.c: 29:  RD0 = 0;
  6434  105D  1283               	bcf	3,5	;RP0=0, select bank0
  6435  105E  1303               	bcf	3,6	;RP1=0, select bank0
  6436  105F  1008               	bcf	8,0	;volatile
  6437                           
  6438                           ;lcd4.c: 30:  Lcd_Port(a);
  6439  1060  1683               	bsf	3,5	;RP0=1, select bank1
  6440  1061  1303               	bcf	3,6	;RP1=0, select bank1
  6441  1062  0823               	movf	Lcd_Cmd@a^(0+128),w
  6442  1063  160A  118A  2084  160A  118A  	fcall	_Lcd_Port
  6443                           
  6444                           ;lcd4.c: 31:     _delay((unsigned long)((2)*(20000000/4000.0)));
  6445  1068  300D               	movlw	13
  6446  1069  1683               	bsf	3,5	;RP0=1, select bank1
  6447  106A  1303               	bcf	3,6	;RP1=0, select bank1
  6448  106B  00A2               	movwf	(??_Lcd_Cmd^(0+128)+1)
  6449  106C  30FB               	movlw	251
  6450  106D  00A1               	movwf	??_Lcd_Cmd^(0+128)
  6451  106E                     u5827:	
  6452  106E  0BA1               	decfsz	??_Lcd_Cmd^(0+128),f
  6453  106F  286E               	goto	u5827
  6454  1070  0BA2               	decfsz	(??_Lcd_Cmd^(0+128)+1),f
  6455  1071  286E               	goto	u5827
  6456                           
  6457                           ;lcd4.c: 32:  RD1 = 1;
  6458  1072  1283               	bcf	3,5	;RP0=0, select bank0
  6459  1073  1303               	bcf	3,6	;RP1=0, select bank0
  6460  1074  1488               	bsf	8,1	;volatile
  6461                           
  6462                           ;lcd4.c: 33:     _delay((unsigned long)((4)*(20000000/4000.0)));
  6463  1075  301A               	movlw	26
  6464  1076  1683               	bsf	3,5	;RP0=1, select bank1
  6465  1077  1303               	bcf	3,6	;RP1=0, select bank1
  6466  1078  00A2               	movwf	(??_Lcd_Cmd^(0+128)+1)
  6467  1079  30F7               	movlw	247
  6468  107A  00A1               	movwf	??_Lcd_Cmd^(0+128)
  6469  107B                     u5837:	
  6470  107B  0BA1               	decfsz	??_Lcd_Cmd^(0+128),f
  6471  107C  287B               	goto	u5837
  6472  107D  0BA2               	decfsz	(??_Lcd_Cmd^(0+128)+1),f
  6473  107E  287B               	goto	u5837
  6474  107F  2880               	nop2
  6475                           
  6476                           ;lcd4.c: 34:     RD1 = 0;
  6477  1080  1283               	bcf	3,5	;RP0=0, select bank0
  6478  1081  1303               	bcf	3,6	;RP1=0, select bank0
  6479  1082  1088               	bcf	8,1	;volatile
  6480  1083  0008               	return
  6481  1084                     __end_of_Lcd_Cmd:	
  6482                           
  6483                           	psect	text18
  6484  1084                     __ptext18:	
  6485 ;; *************** function _Lcd_Port *****************
  6486 ;; Defined at:
  6487 ;;		line 5 in file "lcd4.c"
  6488 ;; Parameters:    Size  Location     Type
  6489 ;;  a               1    wreg     unsigned char 
  6490 ;; Auto vars:     Size  Location     Type
  6491 ;;  a               1    0[BANK1 ] unsigned char 
  6492 ;; Return value:  Size  Location     Type
  6493 ;;                  1    wreg      void 
  6494 ;; Registers used:
  6495 ;;		wreg
  6496 ;; Tracked objects:
  6497 ;;		On entry : 0/0
  6498 ;;		On exit  : 0/0
  6499 ;;		Unchanged: 0/0
  6500 ;; Data sizes:     COMMON   BANK0   BANK1   BANK3   BANK2
  6501 ;;      Params:         0       0       0       0       0
  6502 ;;      Locals:         0       0       1       0       0
  6503 ;;      Temps:          0       0       0       0       0
  6504 ;;      Totals:         0       0       1       0       0
  6505 ;;Total ram usage:        1 bytes
  6506 ;; Hardware stack levels used:    1
  6507 ;; Hardware stack levels required when called:    3
  6508 ;; This function calls:
  6509 ;;		Nothing
  6510 ;; This function is called by:
  6511 ;;		_Lcd_Cmd
  6512 ;;		_Lcd_Init
  6513 ;;		_Lcd_Write_Char
  6514 ;; This function uses a non-reentrant model
  6515 ;;
  6516                           
  6517                           
  6518                           ;psect for function _Lcd_Port
  6519  1084                     _Lcd_Port:	
  6520                           
  6521                           ;incstack = 0
  6522                           ; Regs used in _Lcd_Port: [wreg]
  6523                           ;Lcd_Port@a stored from wreg
  6524  1084  1683               	bsf	3,5	;RP0=1, select bank1
  6525  1085  1303               	bcf	3,6	;RP1=0, select bank1
  6526  1086  00A0               	movwf	Lcd_Port@a^(0+128)
  6527                           
  6528                           ;lcd4.c: 5: void Lcd_Port(char a);lcd4.c: 6: {;lcd4.c: 7:  if(a & 1)
  6529  1087  1C20               	btfss	Lcd_Port@a^(0+128),0
  6530  1088  288D               	goto	l195
  6531                           
  6532                           ;lcd4.c: 8:   RD2 = 1;
  6533  1089  1283               	bcf	3,5	;RP0=0, select bank0
  6534  108A  1303               	bcf	3,6	;RP1=0, select bank0
  6535  108B  1508               	bsf	8,2	;volatile
  6536  108C  2890               	goto	l196
  6537  108D                     l195:	
  6538                           ;lcd4.c: 9:  else
  6539                           
  6540                           
  6541                           ;lcd4.c: 10:   RD2 = 0;
  6542  108D  1283               	bcf	3,5	;RP0=0, select bank0
  6543  108E  1303               	bcf	3,6	;RP1=0, select bank0
  6544  108F  1108               	bcf	8,2	;volatile
  6545  1090                     l196:	
  6546                           
  6547                           ;lcd4.c: 12:  if(a & 2)
  6548  1090  1683               	bsf	3,5	;RP0=1, select bank1
  6549  1091  1303               	bcf	3,6	;RP1=0, select bank1
  6550  1092  1CA0               	btfss	Lcd_Port@a^(0+128),1
  6551  1093  2898               	goto	l197
  6552                           
  6553                           ;lcd4.c: 13:   RD3 = 1;
  6554  1094  1283               	bcf	3,5	;RP0=0, select bank0
  6555  1095  1303               	bcf	3,6	;RP1=0, select bank0
  6556  1096  1588               	bsf	8,3	;volatile
  6557  1097  289B               	goto	l198
  6558  1098                     l197:	
  6559                           ;lcd4.c: 14:  else
  6560                           
  6561                           
  6562                           ;lcd4.c: 15:   RD3 = 0;
  6563  1098  1283               	bcf	3,5	;RP0=0, select bank0
  6564  1099  1303               	bcf	3,6	;RP1=0, select bank0
  6565  109A  1188               	bcf	8,3	;volatile
  6566  109B                     l198:	
  6567                           
  6568                           ;lcd4.c: 17:  if(a & 4)
  6569  109B  1683               	bsf	3,5	;RP0=1, select bank1
  6570  109C  1303               	bcf	3,6	;RP1=0, select bank1
  6571  109D  1D20               	btfss	Lcd_Port@a^(0+128),2
  6572  109E  28A3               	goto	l199
  6573                           
  6574                           ;lcd4.c: 18:   RD4 = 1;
  6575  109F  1283               	bcf	3,5	;RP0=0, select bank0
  6576  10A0  1303               	bcf	3,6	;RP1=0, select bank0
  6577  10A1  1608               	bsf	8,4	;volatile
  6578  10A2  28A6               	goto	l200
  6579  10A3                     l199:	
  6580                           ;lcd4.c: 19:  else
  6581                           
  6582                           
  6583                           ;lcd4.c: 20:   RD4 = 0;
  6584  10A3  1283               	bcf	3,5	;RP0=0, select bank0
  6585  10A4  1303               	bcf	3,6	;RP1=0, select bank0
  6586  10A5  1208               	bcf	8,4	;volatile
  6587  10A6                     l200:	
  6588                           
  6589                           ;lcd4.c: 22:  if(a & 8)
  6590  10A6  1683               	bsf	3,5	;RP0=1, select bank1
  6591  10A7  1303               	bcf	3,6	;RP1=0, select bank1
  6592  10A8  1DA0               	btfss	Lcd_Port@a^(0+128),3
  6593  10A9  28AE               	goto	l201
  6594                           
  6595                           ;lcd4.c: 23:   RD5 = 1;
  6596  10AA  1283               	bcf	3,5	;RP0=0, select bank0
  6597  10AB  1303               	bcf	3,6	;RP1=0, select bank0
  6598  10AC  1688               	bsf	8,5	;volatile
  6599  10AD  0008               	return
  6600  10AE                     l201:	
  6601                           ;lcd4.c: 24:  else
  6602                           
  6603                           
  6604                           ;lcd4.c: 25:   RD5 = 0;
  6605  10AE  1283               	bcf	3,5	;RP0=0, select bank0
  6606  10AF  1303               	bcf	3,6	;RP1=0, select bank0
  6607  10B0  1288               	bcf	8,5	;volatile
  6608  10B1  0008               	return
  6609  10B2                     __end_of_Lcd_Port:	
  6610                           
  6611                           	psect	text19
  6612  07F4                     __ptext19:	
  6613 ;; *************** function _Interrupt_Init *****************
  6614 ;; Defined at:
  6615 ;;		line 126 in file "DKND.c"
  6616 ;; Parameters:    Size  Location     Type
  6617 ;;		None
  6618 ;; Auto vars:     Size  Location     Type
  6619 ;;		None
  6620 ;; Return value:  Size  Location     Type
  6621 ;;                  1    wreg      void 
  6622 ;; Registers used:
  6623 ;;		None
  6624 ;; Tracked objects:
  6625 ;;		On entry : 0/0
  6626 ;;		On exit  : 0/0
  6627 ;;		Unchanged: 0/0
  6628 ;; Data sizes:     COMMON   BANK0   BANK1   BANK3   BANK2
  6629 ;;      Params:         0       0       0       0       0
  6630 ;;      Locals:         0       0       0       0       0
  6631 ;;      Temps:          0       0       0       0       0
  6632 ;;      Totals:         0       0       0       0       0
  6633 ;;Total ram usage:        0 bytes
  6634 ;; Hardware stack levels used:    1
  6635 ;; Hardware stack levels required when called:    3
  6636 ;; This function calls:
  6637 ;;		Nothing
  6638 ;; This function is called by:
  6639 ;;		_main
  6640 ;; This function uses a non-reentrant model
  6641 ;;
  6642                           
  6643                           
  6644                           ;psect for function _Interrupt_Init
  6645  07F4                     _Interrupt_Init:	
  6646                           
  6647                           ;DKND.c: 128:     TRISB0 = 1;
  6648                           
  6649                           ;incstack = 0
  6650                           ; Regs used in _Interrupt_Init: []
  6651  07F4  1683               	bsf	3,5	;RP0=1, select bank1
  6652  07F5  1303               	bcf	3,6	;RP1=0, select bank1
  6653  07F6  1406               	bsf	6,0	;volatile
  6654                           
  6655                           ;DKND.c: 130:     INTEDG = 1;
  6656  07F7  1701               	bsf	1,6	;volatile
  6657                           
  6658                           ;DKND.c: 132:     GIE = 1;
  6659  07F8  178B               	bsf	11,7	;volatile
  6660                           
  6661                           ;DKND.c: 133:     PEIE = 1;
  6662  07F9  170B               	bsf	11,6	;volatile
  6663                           
  6664                           ;DKND.c: 134:     INTE = 1;
  6665  07FA  160B               	bsf	11,4	;volatile
  6666  07FB  0008               	return
  6667  07FC                     __end_of_Interrupt_Init:	
  6668                           
  6669                           	psect	text20
  6670  10B2                     __ptext20:	
  6671 ;; *************** function _ADC_Init *****************
  6672 ;; Defined at:
  6673 ;;		line 76 in file "DKND.c"
  6674 ;; Parameters:    Size  Location     Type
  6675 ;;  channel         1    wreg     unsigned char 
  6676 ;; Auto vars:     Size  Location     Type
  6677 ;;  channel         1    2[BANK1 ] unsigned char 
  6678 ;; Return value:  Size  Location     Type
  6679 ;;                  1    wreg      void 
  6680 ;; Registers used:
  6681 ;;		wreg, fsr0l, fsr0h, status,2, status,0
  6682 ;; Tracked objects:
  6683 ;;		On entry : 0/0
  6684 ;;		On exit  : 0/0
  6685 ;;		Unchanged: 0/0
  6686 ;; Data sizes:     COMMON   BANK0   BANK1   BANK3   BANK2
  6687 ;;      Params:         0       0       0       0       0
  6688 ;;      Locals:         0       0       1       0       0
  6689 ;;      Temps:          0       0       2       0       0
  6690 ;;      Totals:         0       0       3       0       0
  6691 ;;Total ram usage:        3 bytes
  6692 ;; Hardware stack levels used:    1
  6693 ;; Hardware stack levels required when called:    3
  6694 ;; This function calls:
  6695 ;;		Nothing
  6696 ;; This function is called by:
  6697 ;;		_main
  6698 ;; This function uses a non-reentrant model
  6699 ;;
  6700                           
  6701                           
  6702                           ;psect for function _ADC_Init
  6703  10B2                     _ADC_Init:	
  6704                           
  6705                           ;incstack = 0
  6706                           ; Regs used in _ADC_Init: [wreg-fsr0h+status,2+status,0]
  6707                           ;ADC_Init@channel stored from wreg
  6708  10B2  1683               	bsf	3,5	;RP0=1, select bank1
  6709  10B3  1303               	bcf	3,6	;RP1=0, select bank1
  6710  10B4  00A2               	movwf	ADC_Init@channel^(0+128)
  6711                           
  6712                           ;DKND.c: 76: void ADC_Init(unsigned char channel);DKND.c: 77: {;DKND.c: 79:     PCFG0 = 
      +                          0;
  6713  10B5  101F               	bcf	31,0	;volatile
  6714                           
  6715                           ;DKND.c: 80:     PCFG1 = 0;
  6716  10B6  109F               	bcf	31,1	;volatile
  6717                           
  6718                           ;DKND.c: 81:     PCFG2 = 1;
  6719  10B7  151F               	bsf	31,2	;volatile
  6720                           
  6721                           ;DKND.c: 82:     PCFG3 = 0;
  6722  10B8  119F               	bcf	31,3	;volatile
  6723                           
  6724                           ;DKND.c: 84:     ADCS0 = 0;
  6725  10B9  1283               	bcf	3,5	;RP0=0, select bank0
  6726  10BA  1303               	bcf	3,6	;RP1=0, select bank0
  6727  10BB  131F               	bcf	31,6	;volatile
  6728                           
  6729                           ;DKND.c: 85:     ADCS1 = 1;
  6730  10BC  179F               	bsf	31,7	;volatile
  6731                           
  6732                           ;DKND.c: 86:     ADCS2 = 1;
  6733  10BD  1683               	bsf	3,5	;RP0=1, select bank1
  6734  10BE  1303               	bcf	3,6	;RP1=0, select bank1
  6735  10BF  171F               	bsf	31,6	;volatile
  6736                           
  6737                           ;DKND.c: 88:     ADFM = 1;
  6738  10C0  179F               	bsf	31,7	;volatile
  6739                           
  6740                           ;DKND.c: 90:     ADON = 1;
  6741  10C1  1283               	bcf	3,5	;RP0=0, select bank0
  6742  10C2  1303               	bcf	3,6	;RP1=0, select bank0
  6743  10C3  141F               	bsf	31,0	;volatile
  6744                           
  6745                           ;DKND.c: 92:     ADIE = 0;
  6746  10C4  1683               	bsf	3,5	;RP0=1, select bank1
  6747  10C5  1303               	bcf	3,6	;RP1=0, select bank1
  6748  10C6  130C               	bcf	12,6	;volatile
  6749                           
  6750                           ;DKND.c: 93:     ADIF = 0;
  6751  10C7  1283               	bcf	3,5	;RP0=0, select bank0
  6752  10C8  1303               	bcf	3,6	;RP1=0, select bank0
  6753  10C9  130C               	bcf	12,6	;volatile
  6754                           
  6755                           ;DKND.c: 95:     switch (channel)
  6756  10CA  28D3               	goto	l3057
  6757  10CB                     l142:	
  6758                           ;DKND.c: 96:     {;DKND.c: 97:         case 1:
  6759                           
  6760                           
  6761                           ;DKND.c: 98:             TRISA0 = 1;
  6762  10CB  1405               	bsf	5,0	;volatile
  6763                           
  6764                           ;DKND.c: 99:             break;
  6765  10CC  0008               	return
  6766  10CD                     l144:	
  6767                           ;DKND.c: 100:         case 2:
  6768                           
  6769                           
  6770                           ;DKND.c: 101:             TRISA1 = 1;
  6771  10CD  1485               	bsf	5,1	;volatile
  6772                           
  6773                           ;DKND.c: 102:             break;
  6774  10CE  0008               	return
  6775  10CF                     l145:	
  6776                           ;DKND.c: 103:         case 3:
  6777                           
  6778                           
  6779                           ;DKND.c: 104:             TRISA2 = 1;
  6780  10CF  1505               	bsf	5,2	;volatile
  6781                           
  6782                           ;DKND.c: 105:             break;
  6783  10D0  0008               	return
  6784  10D1                     l146:	
  6785                           ;DKND.c: 106:         case 4:
  6786                           
  6787                           
  6788                           ;DKND.c: 107:             TRISA3 = 1;
  6789  10D1  1585               	bsf	5,3	;volatile
  6790                           
  6791                           ;DKND.c: 108:             break;
  6792  10D2  0008               	return
  6793  10D3                     l3057:	
  6794  10D3  1683               	bsf	3,5	;RP0=1, select bank1
  6795  10D4  1303               	bcf	3,6	;RP1=0, select bank1
  6796  10D5  0822               	movf	ADC_Init@channel^(0+128),w
  6797  10D6  00A0               	movwf	??_ADC_Init^(0+128)
  6798  10D7  01A1               	clrf	(??_ADC_Init^(0+128)+1)
  6799                           
  6800                           ; Switch on 2 bytes has been partitioned into a top level switch of size 1, and 1 sub-sw
      +                          itches
  6801                           ; Switch size 1, requested type "simple"
  6802                           ; Number of cases is 1, Range of values is 0 to 0
  6803                           ; switch strategies available:
  6804                           ; Name         Instructions Cycles
  6805                           ; simple_byte            4     3 (average)
  6806                           ; direct_byte           11     8 (fixed)
  6807                           ; jumptable            260     6 (fixed)
  6808                           ;	Chosen strategy is simple_byte
  6809  10D8  0821               	movf	(??_ADC_Init+1)^(0+128),w
  6810  10D9  3A00               	xorlw	0	; case 0
  6811  10DA  1903               	skipnz
  6812  10DB  28DD               	goto	l3577
  6813  10DC  28EB               	goto	l148
  6814  10DD                     l3577:	
  6815                           
  6816                           ; Switch size 1, requested type "simple"
  6817                           ; Number of cases is 4, Range of values is 1 to 4
  6818                           ; switch strategies available:
  6819                           ; Name         Instructions Cycles
  6820                           ; simple_byte           13     7 (average)
  6821                           ; direct_byte           23    11 (fixed)
  6822                           ; jumptable            263     9 (fixed)
  6823                           ;	Chosen strategy is simple_byte
  6824  10DD  0820               	movf	??_ADC_Init^(0+128),w
  6825  10DE  3A01               	xorlw	1	; case 1
  6826  10DF  1903               	skipnz
  6827  10E0  28CB               	goto	l142
  6828  10E1  3A03               	xorlw	3	; case 2
  6829  10E2  1903               	skipnz
  6830  10E3  28CD               	goto	l144
  6831  10E4  3A01               	xorlw	1	; case 3
  6832  10E5  1903               	skipnz
  6833  10E6  28CF               	goto	l145
  6834  10E7  3A07               	xorlw	7	; case 4
  6835  10E8  1903               	skipnz
  6836  10E9  28D1               	goto	l146
  6837  10EA  28EB               	goto	l148
  6838  10EB                     l148:	
  6839  10EB  0008               	return
  6840  10EC                     __end_of_ADC_Init:	
  6841                           
  6842                           	psect	text21
  6843  121B                     __ptext21:	
  6844 ;; *************** function _My_interrupt *****************
  6845 ;; Defined at:
  6846 ;;		line 168 in file "DKND.c"
  6847 ;; Parameters:    Size  Location     Type
  6848 ;;		None
  6849 ;; Auto vars:     Size  Location     Type
  6850 ;;		None
  6851 ;; Return value:  Size  Location     Type
  6852 ;;                  1    wreg      void 
  6853 ;; Registers used:
  6854 ;;		wreg, status,2, status,0, btemp+1, pclath, cstack
  6855 ;; Tracked objects:
  6856 ;;		On entry : 0/0
  6857 ;;		On exit  : 0/0
  6858 ;;		Unchanged: 0/0
  6859 ;; Data sizes:     COMMON   BANK0   BANK1   BANK3   BANK2
  6860 ;;      Params:         0       0       0       0       0
  6861 ;;      Locals:         0       0       0       0       0
  6862 ;;      Temps:          0       3       0       0       0
  6863 ;;      Totals:         0       3       0       0       0
  6864 ;;Total ram usage:        3 bytes
  6865 ;; Hardware stack levels used:    1
  6866 ;; Hardware stack levels required when called:    2
  6867 ;; This function calls:
  6868 ;;		i1___fldiv
  6869 ;;		i1___flsub
  6870 ;;		i1___fltol
  6871 ;;		i1___xxtofl
  6872 ;; This function is called by:
  6873 ;;		Interrupt level 1
  6874 ;; This function uses a non-reentrant model
  6875 ;;
  6876                           
  6877                           
  6878                           ;psect for function _My_interrupt
  6879  121B                     _My_interrupt:	
  6880                           
  6881                           ;DKND.c: 170:     if(INTE == 1 && INTF == 1)
  6882  121B  1A0B               	btfsc	11,4	;volatile
  6883  121C  1C8B               	btfss	11,1	;volatile
  6884  121D  2A79               	goto	i1l178
  6885                           
  6886                           ;DKND.c: 171:     {;DKND.c: 172:         RB1 = 0;
  6887  121E  1086               	bcf	6,1	;volatile
  6888                           
  6889                           ;DKND.c: 174:         TMR1ON = 1;
  6890  121F  1410               	bsf	16,0	;volatile
  6891  1220                     i1l175:	
  6892                           ;DKND.c: 175:         while(TMR1IF==0);
  6893                           
  6894  1220  1C0C               	btfss	12,0	;volatile
  6895  1221  2A20               	goto	i1l175
  6896                           
  6897                           ;DKND.c: 176:         TMR1ON = 0;
  6898  1222  1010               	bcf	16,0	;volatile
  6899                           
  6900                           ;DKND.c: 177:         TMR1= 65536-(1000+time)/0.2f;
  6901  1223  3047               	movlw	71
  6902  1224  00C1               	movwf	i1___flsub@b+3
  6903  1225  3080               	movlw	128
  6904  1226  00C0               	movwf	i1___flsub@b+2
  6905  1227  3000               	movlw	0
  6906  1228  00BF               	movwf	i1___flsub@b+1
  6907  1229  3000               	movlw	0
  6908  122A  00BE               	movwf	i1___flsub@b
  6909  122B  0860               	movf	_time,w
  6910  122C  3EE8               	addlw	232
  6911  122D  00F0               	movwf	i1___xxtofl@val
  6912  122E  0861               	movf	_time+1,w
  6913  122F  1803               	skipnc
  6914  1230  3E01               	addlw	1
  6915  1231  3E03               	addlw	3
  6916  1232  00F1               	movwf	i1___xxtofl@val+1
  6917  1233  01F2               	clrf	i1___xxtofl@val+2
  6918  1234  01F3               	clrf	i1___xxtofl@val+3
  6919  1235  3000               	movlw	0
  6920  1236  160A  118A  2417  160A  118A  	fcall	i1___xxtofl
  6921  123B  0873               	movf	?i1___xxtofl+3,w
  6922  123C  1283               	bcf	3,5	;RP0=0, select bank0
  6923  123D  1303               	bcf	3,6	;RP1=0, select bank0
  6924  123E  00A7               	movwf	i1___fldiv@b+3
  6925  123F  0872               	movf	?i1___xxtofl+2,w
  6926  1240  00A6               	movwf	i1___fldiv@b+2
  6927  1241  0871               	movf	?i1___xxtofl+1,w
  6928  1242  00A5               	movwf	i1___fldiv@b+1
  6929  1243  0870               	movf	?i1___xxtofl,w
  6930  1244  00A4               	movwf	i1___fldiv@b
  6931  1245  303E               	movlw	62
  6932  1246  00A3               	movwf	i1___fldiv@a+3
  6933  1247  304C               	movlw	76
  6934  1248  00A2               	movwf	i1___fldiv@a+2
  6935  1249  30CC               	movlw	204
  6936  124A  00A1               	movwf	i1___fldiv@a+1
  6937  124B  30CD               	movlw	205
  6938  124C  00A0               	movwf	i1___fldiv@a
  6939  124D  160A  118A  24BA  160A  118A  	fcall	i1___fldiv
  6940  1252  1283               	bcf	3,5	;RP0=0, select bank0
  6941  1253  1303               	bcf	3,6	;RP1=0, select bank0
  6942  1254  0823               	movf	?i1___fldiv+3,w
  6943  1255  00BD               	movwf	i1___flsub@a+3
  6944  1256  0822               	movf	?i1___fldiv+2,w
  6945  1257  00BC               	movwf	i1___flsub@a+2
  6946  1258  0821               	movf	?i1___fldiv+1,w
  6947  1259  00BB               	movwf	i1___flsub@a+1
  6948  125A  0820               	movf	?i1___fldiv,w
  6949  125B  00BA               	movwf	i1___flsub@a
  6950  125C  160A  158A  27BC  160A  118A  	fcall	i1___flsub
  6951  1261  1283               	bcf	3,5	;RP0=0, select bank0
  6952  1262  1303               	bcf	3,6	;RP1=0, select bank0
  6953  1263  083D               	movf	?i1___flsub+3,w
  6954  1264  00C5               	movwf	i1___fltol@f1+3
  6955  1265  083C               	movf	?i1___flsub+2,w
  6956  1266  00C4               	movwf	i1___fltol@f1+2
  6957  1267  083B               	movf	?i1___flsub+1,w
  6958  1268  00C3               	movwf	i1___fltol@f1+1
  6959  1269  083A               	movf	?i1___flsub,w
  6960  126A  00C2               	movwf	i1___fltol@f1
  6961  126B  160A  118A  2282  160A  118A  	fcall	i1___fltol
  6962  1270  1283               	bcf	3,5	;RP0=0, select bank0
  6963  1271  1303               	bcf	3,6	;RP1=0, select bank0
  6964  1272  0843               	movf	?i1___fltol+1,w
  6965  1273  008F               	movwf	15	;volatile
  6966  1274  0842               	movf	?i1___fltol,w
  6967  1275  008E               	movwf	14	;volatile
  6968                           
  6969                           ;DKND.c: 178:         TMR1IF = 0;
  6970  1276  100C               	bcf	12,0	;volatile
  6971                           
  6972                           ;DKND.c: 180:         RB1 = 1;
  6973  1277  1486               	bsf	6,1	;volatile
  6974                           
  6975                           ;DKND.c: 181:         INTF = 0;
  6976  1278  108B               	bcf	11,1	;volatile
  6977  1279                     i1l178:	
  6978  1279  084F               	movf	??_My_interrupt+2,w
  6979  127A  00FF               	movwf	127
  6980  127B  084E               	movf	??_My_interrupt+1,w
  6981  127C  008A               	movwf	10
  6982  127D  0E4D               	swapf	??_My_interrupt^0,w
  6983  127E  0083               	movwf	3
  6984  127F  0EFE               	swapf	126,f
  6985  1280  0E7E               	swapf	126,w
  6986  1281  0009               	retfie
  6987  1282                     __end_of_My_interrupt:	
  6988                           
  6989                           	psect	intentry
  6990  0004                     __pintentry:	
  6991                           ;incstack = 0
  6992                           ; Regs used in _My_interrupt: [wreg+status,2+status,0+btemp+1+pclath+cstack]
  6993                           
  6994  0004                     interrupt_function:	
  6995  007E                     saved_w	set	btemp
  6996  0004  00FE               	movwf	btemp
  6997  0005  0E03               	swapf	3,w
  6998  0006  1283               	bcf	3,5	;RP0=0, select bank0
  6999  0007  1303               	bcf	3,6	;RP1=0, select bank0
  7000  0008  00CD               	movwf	??_My_interrupt
  7001  0009  080A               	movf	10,w
  7002  000A  00CE               	movwf	??_My_interrupt+1
  7003  000B  087F               	movf	btemp+1,w
  7004  000C  00CF               	movwf	??_My_interrupt+2
  7005  000D  160A  118A  2A1B   	ljmp	_My_interrupt
  7006                           
  7007                           	psect	text22
  7008  1417                     __ptext22:	
  7009 ;; *************** function i1___xxtofl *****************
  7010 ;; Defined at:
  7011 ;;		line 10 in file "D:\PROGRAM\MPLABX v5.20\XC8 v2.05\pic\sources\c90\common\xxtofl.c"
  7012 ;; Parameters:    Size  Location     Type
  7013 ;;  sign            1    wreg     unsigned char 
  7014 ;;  val             4    0[COMMON] long 
  7015 ;; Auto vars:     Size  Location     Type
  7016 ;;  sign            1    8[COMMON] unsigned char 
  7017 ;;  __xxtofl        4   10[COMMON] unsigned long 
  7018 ;;  __xxtofl        1    9[COMMON] unsigned char 
  7019 ;; Return value:  Size  Location     Type
  7020 ;;                  4    0[COMMON] unsigned char 
  7021 ;; Registers used:
  7022 ;;		wreg, status,2, status,0
  7023 ;; Tracked objects:
  7024 ;;		On entry : 0/0
  7025 ;;		On exit  : 0/0
  7026 ;;		Unchanged: 0/0
  7027 ;; Data sizes:     COMMON   BANK0   BANK1   BANK3   BANK2
  7028 ;;      Params:         4       0       0       0       0
  7029 ;;      Locals:         6       0       0       0       0
  7030 ;;      Temps:          4       0       0       0       0
  7031 ;;      Totals:        14       0       0       0       0
  7032 ;;Total ram usage:       14 bytes
  7033 ;; Hardware stack levels used:    1
  7034 ;; This function calls:
  7035 ;;		Nothing
  7036 ;; This function is called by:
  7037 ;;		_My_interrupt
  7038 ;; This function uses a non-reentrant model
  7039 ;;
  7040                           
  7041                           
  7042                           ;psect for function i1___xxtofl
  7043  1417                     i1___xxtofl:	
  7044                           
  7045                           ;incstack = 0
  7046                           ; Regs used in i1___xxtofl: [wreg+status,2+status,0]
  7047                           ;i1___xxtofl@sign stored from wreg
  7048  1417  00F8               	movwf	i1___xxtofl@sign
  7049  1418  0878               	movf	i1___xxtofl@sign,w
  7050  1419  1D03               	btfss	3,2
  7051  141A  1FF3               	btfss	i1___xxtofl@val+3,7
  7052  141B  2C2C               	goto	i1l3449
  7053  141C  0970               	comf	i1___xxtofl@val,w
  7054  141D  00FA               	movwf	i1___xxtofl@arg
  7055  141E  0971               	comf	i1___xxtofl@val+1,w
  7056  141F  00FB               	movwf	i1___xxtofl@arg+1
  7057  1420  0972               	comf	i1___xxtofl@val+2,w
  7058  1421  00FC               	movwf	i1___xxtofl@arg+2
  7059  1422  0973               	comf	i1___xxtofl@val+3,w
  7060  1423  00FD               	movwf	i1___xxtofl@arg+3
  7061  1424  0AFA               	incf	i1___xxtofl@arg,f
  7062  1425  1903               	skipnz
  7063  1426  0AFB               	incf	i1___xxtofl@arg+1,f
  7064  1427  1903               	skipnz
  7065  1428  0AFC               	incf	i1___xxtofl@arg+2,f
  7066  1429  1903               	skipnz
  7067  142A  0AFD               	incf	i1___xxtofl@arg+3,f
  7068  142B  2C34               	goto	i1l746
  7069  142C                     i1l3449:	
  7070  142C  0873               	movf	i1___xxtofl@val+3,w
  7071  142D  00FD               	movwf	i1___xxtofl@arg+3
  7072  142E  0872               	movf	i1___xxtofl@val+2,w
  7073  142F  00FC               	movwf	i1___xxtofl@arg+2
  7074  1430  0871               	movf	i1___xxtofl@val+1,w
  7075  1431  00FB               	movwf	i1___xxtofl@arg+1
  7076  1432  0870               	movf	i1___xxtofl@val,w
  7077  1433  00FA               	movwf	i1___xxtofl@arg
  7078  1434                     i1l746:	
  7079  1434  0873               	movf	i1___xxtofl@val+3,w
  7080  1435  0472               	iorwf	i1___xxtofl@val+2,w
  7081  1436  0471               	iorwf	i1___xxtofl@val+1,w
  7082  1437  0470               	iorwf	i1___xxtofl@val,w
  7083  1438  1D03               	skipz
  7084  1439  2C43               	goto	i1l3455
  7085  143A  3000               	movlw	0
  7086  143B  00F3               	movwf	?i1___xxtofl+3
  7087  143C  3000               	movlw	0
  7088  143D  00F2               	movwf	?i1___xxtofl+2
  7089  143E  3000               	movlw	0
  7090  143F  00F1               	movwf	?i1___xxtofl+1
  7091  1440  3000               	movlw	0
  7092  1441  00F0               	movwf	?i1___xxtofl
  7093  1442  0008               	return
  7094  1443                     i1l3455:	
  7095  1443  3096               	movlw	150
  7096  1444  00F4               	movwf	??i1___xxtofl
  7097  1445  0874               	movf	??i1___xxtofl,w
  7098  1446  00F9               	movwf	i1___xxtofl@exp
  7099  1447                     i1l3459:	
  7100  1447  30FE               	movlw	254
  7101  1448  057D               	andwf	i1___xxtofl@arg+3,w
  7102  1449  1903               	btfsc	3,2
  7103  144A  2C74               	goto	i1l752
  7104  144B  3001               	movlw	1
  7105  144C  00F4               	movwf	??i1___xxtofl
  7106  144D  0874               	movf	??i1___xxtofl,w
  7107  144E  07F9               	addwf	i1___xxtofl@exp,f
  7108  144F  3001               	movlw	1
  7109  1450                     u555_25:	
  7110  1450  1003               	clrc
  7111  1451  0CFD               	rrf	i1___xxtofl@arg+3,f
  7112  1452  0CFC               	rrf	i1___xxtofl@arg+2,f
  7113  1453  0CFB               	rrf	i1___xxtofl@arg+1,f
  7114  1454  0CFA               	rrf	i1___xxtofl@arg,f
  7115  1455  3EFF               	addlw	-1
  7116  1456  1D03               	skipz
  7117  1457  2C50               	goto	u555_25
  7118  1458  2C47               	goto	i1l3459
  7119  1459                     i1l3461:	
  7120  1459  3001               	movlw	1
  7121  145A  00F4               	movwf	??i1___xxtofl
  7122  145B  0874               	movf	??i1___xxtofl,w
  7123  145C  07F9               	addwf	i1___xxtofl@exp,f
  7124  145D  3001               	movlw	1
  7125  145E  07FA               	addwf	i1___xxtofl@arg,f
  7126  145F  3000               	movlw	0
  7127  1460  1803               	skipnc
  7128  1461  3001               	movlw	1
  7129  1462  07FB               	addwf	i1___xxtofl@arg+1,f
  7130  1463  3000               	movlw	0
  7131  1464  1803               	skipnc
  7132  1465  3001               	movlw	1
  7133  1466  07FC               	addwf	i1___xxtofl@arg+2,f
  7134  1467  3000               	movlw	0
  7135  1468  1803               	skipnc
  7136  1469  3001               	movlw	1
  7137  146A  07FD               	addwf	i1___xxtofl@arg+3,f
  7138  146B  3001               	movlw	1
  7139  146C                     u557_25:	
  7140  146C  1003               	clrc
  7141  146D  0CFD               	rrf	i1___xxtofl@arg+3,f
  7142  146E  0CFC               	rrf	i1___xxtofl@arg+2,f
  7143  146F  0CFB               	rrf	i1___xxtofl@arg+1,f
  7144  1470  0CFA               	rrf	i1___xxtofl@arg,f
  7145  1471  3EFF               	addlw	-1
  7146  1472  1D03               	skipz
  7147  1473  2C6C               	goto	u557_25
  7148  1474                     i1l752:	
  7149  1474  30FF               	movlw	255
  7150  1475  057D               	andwf	i1___xxtofl@arg+3,w
  7151  1476  1903               	btfsc	3,2
  7152  1477  2C88               	goto	i1l3469
  7153  1478  2C59               	goto	i1l3461
  7154  1479                     i1l3471:	
  7155  1479  3002               	movlw	2
  7156  147A  0279               	subwf	i1___xxtofl@exp,w
  7157  147B  1C03               	btfss	3,0
  7158  147C  2C8A               	goto	i1l759
  7159  147D  3001               	movlw	1
  7160  147E  02F9               	subwf	i1___xxtofl@exp,f
  7161  147F  3001               	movlw	1
  7162  1480  00F4               	movwf	??i1___xxtofl
  7163  1481                     u559_25:	
  7164  1481  1003               	clrc
  7165  1482  0DFA               	rlf	i1___xxtofl@arg,f
  7166  1483  0DFB               	rlf	i1___xxtofl@arg+1,f
  7167  1484  0DFC               	rlf	i1___xxtofl@arg+2,f
  7168  1485  0DFD               	rlf	i1___xxtofl@arg+3,f
  7169  1486  0BF4               	decfsz	??i1___xxtofl,f
  7170  1487  2C81               	goto	u559_25
  7171  1488                     i1l3469:	
  7172  1488  1FFC               	btfss	i1___xxtofl@arg+2,7
  7173  1489  2C79               	goto	i1l3471
  7174  148A                     i1l759:	
  7175  148A  1879               	btfsc	i1___xxtofl@exp,0
  7176  148B  2C94               	goto	i1l760
  7177  148C  30FF               	movlw	255
  7178  148D  05FA               	andwf	i1___xxtofl@arg,f
  7179  148E  30FF               	movlw	255
  7180  148F  05FB               	andwf	i1___xxtofl@arg+1,f
  7181  1490  307F               	movlw	127
  7182  1491  05FC               	andwf	i1___xxtofl@arg+2,f
  7183  1492  30FF               	movlw	255
  7184  1493  05FD               	andwf	i1___xxtofl@arg+3,f
  7185  1494                     i1l760:	
  7186  1494  1003               	clrc
  7187  1495  0CF9               	rrf	i1___xxtofl@exp,f
  7188  1496  0879               	movf	i1___xxtofl@exp,w
  7189  1497  00F4               	movwf	??i1___xxtofl
  7190  1498  01F5               	clrf	??i1___xxtofl+1
  7191  1499  01F6               	clrf	??i1___xxtofl+2
  7192  149A  01F7               	clrf	??i1___xxtofl+3
  7193  149B  3018               	movlw	24
  7194  149C                     u563_25:	
  7195  149C  1003               	clrc
  7196  149D  0DF4               	rlf	??i1___xxtofl,f
  7197  149E  0DF5               	rlf	??i1___xxtofl+1,f
  7198  149F  0DF6               	rlf	??i1___xxtofl+2,f
  7199  14A0  0DF7               	rlf	??i1___xxtofl+3,f
  7200  14A1  3EFF               	addlw	-1
  7201  14A2  1D03               	skipz
  7202  14A3  2C9C               	goto	u563_25
  7203  14A4  0874               	movf	??i1___xxtofl,w
  7204  14A5  04FA               	iorwf	i1___xxtofl@arg,f
  7205  14A6  0875               	movf	??i1___xxtofl+1,w
  7206  14A7  04FB               	iorwf	i1___xxtofl@arg+1,f
  7207  14A8  0876               	movf	??i1___xxtofl+2,w
  7208  14A9  04FC               	iorwf	i1___xxtofl@arg+2,f
  7209  14AA  0877               	movf	??i1___xxtofl+3,w
  7210  14AB  04FD               	iorwf	i1___xxtofl@arg+3,f
  7211  14AC  0878               	movf	i1___xxtofl@sign,w
  7212  14AD  1D03               	btfss	3,2
  7213  14AE  1FF3               	btfss	i1___xxtofl@val+3,7
  7214  14AF  2CB1               	goto	i1l3483
  7215  14B0  17FD               	bsf	i1___xxtofl@arg+3,7
  7216  14B1                     i1l3483:	
  7217  14B1  087D               	movf	i1___xxtofl@arg+3,w
  7218  14B2  00F3               	movwf	?i1___xxtofl+3
  7219  14B3  087C               	movf	i1___xxtofl@arg+2,w
  7220  14B4  00F2               	movwf	?i1___xxtofl+2
  7221  14B5  087B               	movf	i1___xxtofl@arg+1,w
  7222  14B6  00F1               	movwf	?i1___xxtofl+1
  7223  14B7  087A               	movf	i1___xxtofl@arg,w
  7224  14B8  00F0               	movwf	?i1___xxtofl
  7225  14B9  0008               	return
  7226  14BA                     __end_ofi1___xxtofl:	
  7227                           
  7228                           	psect	text23
  7229  1282                     __ptext23:	
  7230 ;; *************** function i1___fltol *****************
  7231 ;; Defined at:
  7232 ;;		line 43 in file "D:\PROGRAM\MPLABX v5.20\XC8 v2.05\pic\sources\c90\common\fltol.c"
  7233 ;; Parameters:    Size  Location     Type
  7234 ;;  f1              4   34[BANK0 ] unsigned char 
  7235 ;; Auto vars:     Size  Location     Type
  7236 ;;  __fltol         1   44[BANK0 ] unsigned char 
  7237 ;;  __fltol         1   43[BANK0 ] unsigned char 
  7238 ;; Return value:  Size  Location     Type
  7239 ;;                  4   34[BANK0 ] long 
  7240 ;; Registers used:
  7241 ;;		wreg, status,2, status,0
  7242 ;; Tracked objects:
  7243 ;;		On entry : 0/0
  7244 ;;		On exit  : 0/0
  7245 ;;		Unchanged: 0/0
  7246 ;; Data sizes:     COMMON   BANK0   BANK1   BANK3   BANK2
  7247 ;;      Params:         0       4       0       0       0
  7248 ;;      Locals:         0       2       0       0       0
  7249 ;;      Temps:          0       5       0       0       0
  7250 ;;      Totals:         0      11       0       0       0
  7251 ;;Total ram usage:       11 bytes
  7252 ;; Hardware stack levels used:    1
  7253 ;; This function calls:
  7254 ;;		Nothing
  7255 ;; This function is called by:
  7256 ;;		_My_interrupt
  7257 ;; This function uses a non-reentrant model
  7258 ;;
  7259                           
  7260                           
  7261                           ;psect for function i1___fltol
  7262  1282                     i1___fltol:	
  7263                           
  7264                           ;incstack = 0
  7265                           ; Regs used in i1___fltol: [wreg+status,2+status,0]
  7266  1282  1003               	clrc
  7267  1283  1283               	bcf	3,5	;RP0=0, select bank0
  7268  1284  1303               	bcf	3,6	;RP1=0, select bank0
  7269  1285  0D44               	rlf	i1___fltol@f1+2,w
  7270  1286  0D45               	rlf	i1___fltol@f1+3,w
  7271  1287  00C6               	movwf	??i1___fltol
  7272  1288  0846               	movf	??i1___fltol,w
  7273  1289  00CC               	movwf	i1___fltol@exp1
  7274  128A  084C               	movf	i1___fltol@exp1,w
  7275  128B  1D03               	btfss	3,2
  7276  128C  2A96               	goto	i1l3265
  7277  128D                     i1l3261:	
  7278  128D  3000               	movlw	0
  7279  128E  00C5               	movwf	?i1___fltol+3
  7280  128F  3000               	movlw	0
  7281  1290  00C4               	movwf	?i1___fltol+2
  7282  1291  3000               	movlw	0
  7283  1292  00C3               	movwf	?i1___fltol+1
  7284  1293  3000               	movlw	0
  7285  1294  00C2               	movwf	?i1___fltol
  7286  1295  0008               	return
  7287  1296                     i1l3265:	
  7288  1296  0842               	movf	i1___fltol@f1,w
  7289  1297  00C6               	movwf	??i1___fltol
  7290  1298  0843               	movf	i1___fltol@f1+1,w
  7291  1299  00C7               	movwf	??i1___fltol+1
  7292  129A  0844               	movf	i1___fltol@f1+2,w
  7293  129B  00C8               	movwf	??i1___fltol+2
  7294  129C  0845               	movf	i1___fltol@f1+3,w
  7295  129D  00C9               	movwf	??i1___fltol+3
  7296  129E  301F               	movlw	31
  7297  129F                     u514_25:	
  7298  129F  1003               	clrc
  7299  12A0  0CC9               	rrf	??i1___fltol+3,f
  7300  12A1  0CC8               	rrf	??i1___fltol+2,f
  7301  12A2  0CC7               	rrf	??i1___fltol+1,f
  7302  12A3  0CC6               	rrf	??i1___fltol,f
  7303  12A4  3EFF               	addlw	-1
  7304  12A5  1D03               	skipz
  7305  12A6  2A9F               	goto	u514_25
  7306  12A7  0846               	movf	??i1___fltol,w
  7307  12A8  00CA               	movwf	??i1___fltol+4
  7308  12A9  084A               	movf	??i1___fltol+4,w
  7309  12AA  00CB               	movwf	i1___fltol@sign1
  7310  12AB  17C4               	bsf	i1___fltol@f1+2,7
  7311  12AC  30FF               	movlw	255
  7312  12AD  05C2               	andwf	i1___fltol@f1,f
  7313  12AE  30FF               	movlw	255
  7314  12AF  05C3               	andwf	i1___fltol@f1+1,f
  7315  12B0  30FF               	movlw	255
  7316  12B1  05C4               	andwf	i1___fltol@f1+2,f
  7317  12B2  3000               	movlw	0
  7318  12B3  05C5               	andwf	i1___fltol@f1+3,f
  7319  12B4  3096               	movlw	150
  7320  12B5  02CC               	subwf	i1___fltol@exp1,f
  7321  12B6  1FCC               	btfss	i1___fltol@exp1,7
  7322  12B7  2ACD               	goto	i1l3283
  7323  12B8  084C               	movf	i1___fltol@exp1,w
  7324  12B9  3A80               	xorlw	128
  7325  12BA  3E97               	addlw	151
  7326  12BB  1C03               	btfss	3,0
  7327  12BC  2A8D               	goto	i1l3261
  7328  12BD                     i1l3281:	
  7329  12BD  3001               	movlw	1
  7330  12BE                     u517_25:	
  7331  12BE  1003               	clrc
  7332  12BF  0CC5               	rrf	i1___fltol@f1+3,f
  7333  12C0  0CC4               	rrf	i1___fltol@f1+2,f
  7334  12C1  0CC3               	rrf	i1___fltol@f1+1,f
  7335  12C2  0CC2               	rrf	i1___fltol@f1,f
  7336  12C3  3EFF               	addlw	-1
  7337  12C4  1D03               	skipz
  7338  12C5  2ABE               	goto	u517_25
  7339  12C6  3001               	movlw	1
  7340  12C7  00C6               	movwf	??i1___fltol
  7341  12C8  0846               	movf	??i1___fltol,w
  7342  12C9  07CC               	addwf	i1___fltol@exp1,f
  7343  12CA  1903               	btfsc	3,2
  7344  12CB  2AE0               	goto	i1l3291
  7345  12CC  2ABD               	goto	i1l3281
  7346  12CD                     i1l3283:	
  7347  12CD  3020               	movlw	32
  7348  12CE  024C               	subwf	i1___fltol@exp1,w
  7349  12CF  1803               	btfsc	3,0
  7350  12D0  2A8D               	goto	i1l3261
  7351  12D1                     i1l512:	
  7352  12D1  084C               	movf	i1___fltol@exp1,w
  7353  12D2  1903               	btfsc	3,2
  7354  12D3  2AE0               	goto	i1l3291
  7355  12D4  3001               	movlw	1
  7356  12D5  00C6               	movwf	??i1___fltol
  7357  12D6                     u520_25:	
  7358  12D6  1003               	clrc
  7359  12D7  0DC2               	rlf	i1___fltol@f1,f
  7360  12D8  0DC3               	rlf	i1___fltol@f1+1,f
  7361  12D9  0DC4               	rlf	i1___fltol@f1+2,f
  7362  12DA  0DC5               	rlf	i1___fltol@f1+3,f
  7363  12DB  0BC6               	decfsz	??i1___fltol,f
  7364  12DC  2AD6               	goto	u520_25
  7365  12DD  3001               	movlw	1
  7366  12DE  02CC               	subwf	i1___fltol@exp1,f
  7367  12DF  2AD1               	goto	i1l512
  7368  12E0                     i1l3291:	
  7369  12E0  084B               	movf	i1___fltol@sign1,w
  7370  12E1  1903               	btfsc	3,2
  7371  12E2  0008               	return
  7372  12E3  09C2               	comf	i1___fltol@f1,f
  7373  12E4  09C3               	comf	i1___fltol@f1+1,f
  7374  12E5  09C4               	comf	i1___fltol@f1+2,f
  7375  12E6  09C5               	comf	i1___fltol@f1+3,f
  7376  12E7  0AC2               	incf	i1___fltol@f1,f
  7377  12E8  1903               	skipnz
  7378  12E9  0AC3               	incf	i1___fltol@f1+1,f
  7379  12EA  1903               	skipnz
  7380  12EB  0AC4               	incf	i1___fltol@f1+2,f
  7381  12EC  1903               	skipnz
  7382  12ED  0AC5               	incf	i1___fltol@f1+3,f
  7383  12EE  0008               	return
  7384  12EF                     __end_ofi1___fltol:	
  7385                           
  7386                           	psect	text24
  7387  1FBC                     __ptext24:	
  7388 ;; *************** function i1___flsub *****************
  7389 ;; Defined at:
  7390 ;;		line 242 in file "D:\PROGRAM\MPLABX v5.20\XC8 v2.05\pic\sources\c90\common\sprcadd.c"
  7391 ;; Parameters:    Size  Location     Type
  7392 ;;  a               4   26[BANK0 ] long 
  7393 ;;  b               4   30[BANK0 ] long 
  7394 ;; Auto vars:     Size  Location     Type
  7395 ;;		None
  7396 ;; Return value:  Size  Location     Type
  7397 ;;                  4   26[BANK0 ] long 
  7398 ;; Registers used:
  7399 ;;		wreg, status,2, status,0, btemp+1, pclath, cstack
  7400 ;; Tracked objects:
  7401 ;;		On entry : 0/0
  7402 ;;		On exit  : 0/0
  7403 ;;		Unchanged: 0/0
  7404 ;; Data sizes:     COMMON   BANK0   BANK1   BANK3   BANK2
  7405 ;;      Params:         0       8       0       0       0
  7406 ;;      Locals:         0       0       0       0       0
  7407 ;;      Temps:          0       0       0       0       0
  7408 ;;      Totals:         0       8       0       0       0
  7409 ;;Total ram usage:        8 bytes
  7410 ;; Hardware stack levels used:    1
  7411 ;; Hardware stack levels required when called:    1
  7412 ;; This function calls:
  7413 ;;		i1___fladd
  7414 ;; This function is called by:
  7415 ;;		_My_interrupt
  7416 ;; This function uses a non-reentrant model
  7417 ;;
  7418                           
  7419                           
  7420                           ;psect for function i1___flsub
  7421  1FBC                     i1___flsub:	
  7422                           
  7423                           ;incstack = 0
  7424                           ; Regs used in i1___flsub: [wreg+status,2+status,0+btemp+1+pclath+cstack]
  7425  1FBC  3080               	movlw	128
  7426  1FBD  1283               	bcf	3,5	;RP0=0, select bank0
  7427  1FBE  1303               	bcf	3,6	;RP1=0, select bank0
  7428  1FBF  06BD               	xorwf	i1___flsub@a+3,f
  7429  1FC0  0841               	movf	i1___flsub@b+3,w
  7430  1FC1  00F3               	movwf	i1___fladd@b+3
  7431  1FC2  0840               	movf	i1___flsub@b+2,w
  7432  1FC3  00F2               	movwf	i1___fladd@b+2
  7433  1FC4  083F               	movf	i1___flsub@b+1,w
  7434  1FC5  00F1               	movwf	i1___fladd@b+1
  7435  1FC6  083E               	movf	i1___flsub@b,w
  7436  1FC7  00F0               	movwf	i1___fladd@b
  7437  1FC8  083D               	movf	i1___flsub@a+3,w
  7438  1FC9  00F7               	movwf	i1___fladd@a+3
  7439  1FCA  083C               	movf	i1___flsub@a+2,w
  7440  1FCB  00F6               	movwf	i1___fladd@a+2
  7441  1FCC  083B               	movf	i1___flsub@a+1,w
  7442  1FCD  00F5               	movwf	i1___fladd@a+1
  7443  1FCE  083A               	movf	i1___flsub@a,w
  7444  1FCF  00F4               	movwf	i1___fladd@a
  7445  1FD0  120A  158A  22D7   	fcall	i1___fladd
  7446  1FD3  0873               	movf	?i1___fladd+3,w
  7447  1FD4  1283               	bcf	3,5	;RP0=0, select bank0
  7448  1FD5  1303               	bcf	3,6	;RP1=0, select bank0
  7449  1FD6  00BD               	movwf	?i1___flsub+3
  7450  1FD7  0872               	movf	?i1___fladd+2,w
  7451  1FD8  00BC               	movwf	?i1___flsub+2
  7452  1FD9  0871               	movf	?i1___fladd+1,w
  7453  1FDA  00BB               	movwf	?i1___flsub+1
  7454  1FDB  0870               	movf	?i1___fladd,w
  7455  1FDC  00BA               	movwf	?i1___flsub
  7456  1FDD  0008               	return
  7457  1FDE                     __end_ofi1___flsub:	
  7458                           
  7459                           	psect	text25
  7460  0AD7                     __ptext25:	
  7461 ;; *************** function i1___fladd *****************
  7462 ;; Defined at:
  7463 ;;		line 10 in file "D:\PROGRAM\MPLABX v5.20\XC8 v2.05\pic\sources\c90\common\sprcadd.c"
  7464 ;; Parameters:    Size  Location     Type
  7465 ;;  b               4    0[COMMON] long 
  7466 ;;  a               4    4[COMMON] long 
  7467 ;; Auto vars:     Size  Location     Type
  7468 ;;  __fladd         1   11[COMMON] unsigned char 
  7469 ;;  __fladd         1   10[COMMON] unsigned char 
  7470 ;;  __fladd         1    9[COMMON] unsigned char 
  7471 ;;  __fladd         1    8[COMMON] unsigned char 
  7472 ;; Return value:  Size  Location     Type
  7473 ;;                  4    0[COMMON] unsigned char 
  7474 ;; Registers used:
  7475 ;;		wreg, status,2, status,0, btemp+1
  7476 ;; Tracked objects:
  7477 ;;		On entry : 0/0
  7478 ;;		On exit  : 0/0
  7479 ;;		Unchanged: 0/0
  7480 ;; Data sizes:     COMMON   BANK0   BANK1   BANK3   BANK2
  7481 ;;      Params:         8       0       0       0       0
  7482 ;;      Locals:         4       0       0       0       0
  7483 ;;      Temps:          0       8       0       0       0
  7484 ;;      Totals:        12       8       0       0       0
  7485 ;;Total ram usage:       20 bytes
  7486 ;; Hardware stack levels used:    1
  7487 ;; This function calls:
  7488 ;;		Nothing
  7489 ;; This function is called by:
  7490 ;;		i1___flsub
  7491 ;; This function uses a non-reentrant model
  7492 ;;
  7493                           
  7494                           
  7495                           ;psect for function i1___fladd
  7496  0AD7                     i1___fladd:	
  7497                           
  7498                           ;incstack = 0
  7499                           ; Regs used in i1___fladd: [wreg+status,2+status,0+btemp+1]
  7500  0AD7  0873               	movf	i1___fladd@b+3,w
  7501  0AD8  3980               	andlw	128
  7502  0AD9  1283               	bcf	3,5	;RP0=0, select bank0
  7503  0ADA  1303               	bcf	3,6	;RP1=0, select bank0
  7504  0ADB  00A0               	movwf	??i1___fladd
  7505  0ADC  0820               	movf	??i1___fladd,w
  7506  0ADD  00F8               	movwf	i1___fladd@signs
  7507  0ADE  0873               	movf	i1___fladd@b+3,w
  7508  0ADF  00A0               	movwf	??i1___fladd
  7509  0AE0  0720               	addwf	??i1___fladd,w
  7510  0AE1  00A1               	movwf	??i1___fladd+1
  7511  0AE2  0821               	movf	??i1___fladd+1,w
  7512  0AE3  00FA               	movwf	i1___fladd@bexp
  7513  0AE4  1BF2               	btfsc	i1___fladd@b+2,7
  7514  0AE5  147A               	bsf	i1___fladd@bexp,0
  7515  0AE6  087A               	movf	i1___fladd@bexp,w
  7516  0AE7  1903               	btfsc	3,2
  7517  0AE8  2AF7               	goto	i1l2877
  7518  0AE9  0A7A               	incf	i1___fladd@bexp,w
  7519  0AEA  1D03               	btfss	3,2
  7520  0AEB  2AF4               	goto	i1l2873
  7521  0AEC  3000               	movlw	0
  7522  0AED  00F3               	movwf	i1___fladd@b+3
  7523  0AEE  3000               	movlw	0
  7524  0AEF  00F2               	movwf	i1___fladd@b+2
  7525  0AF0  3000               	movlw	0
  7526  0AF1  00F1               	movwf	i1___fladd@b+1
  7527  0AF2  3000               	movlw	0
  7528  0AF3  00F0               	movwf	i1___fladd@b
  7529  0AF4                     i1l2873:	
  7530  0AF4  17F2               	bsf	i1___fladd@b+2,7
  7531  0AF5  01F3               	clrf	i1___fladd@b+3
  7532  0AF6  2AFF               	goto	i1l2879
  7533  0AF7                     i1l2877:	
  7534  0AF7  3000               	movlw	0
  7535  0AF8  00F3               	movwf	i1___fladd@b+3
  7536  0AF9  3000               	movlw	0
  7537  0AFA  00F2               	movwf	i1___fladd@b+2
  7538  0AFB  3000               	movlw	0
  7539  0AFC  00F1               	movwf	i1___fladd@b+1
  7540  0AFD  3000               	movlw	0
  7541  0AFE  00F0               	movwf	i1___fladd@b
  7542  0AFF                     i1l2879:	
  7543  0AFF  0877               	movf	i1___fladd@a+3,w
  7544  0B00  3980               	andlw	128
  7545  0B01  00A0               	movwf	??i1___fladd
  7546  0B02  0820               	movf	??i1___fladd,w
  7547  0B03  00F9               	movwf	i1___fladd@aexp
  7548  0B04  0879               	movf	i1___fladd@aexp,w
  7549  0B05  0678               	xorwf	i1___fladd@signs,w
  7550  0B06  1D03               	btfss	3,2
  7551  0B07  1778               	bsf	i1___fladd@signs,6
  7552  0B08  0877               	movf	i1___fladd@a+3,w
  7553  0B09  00A0               	movwf	??i1___fladd
  7554  0B0A  0720               	addwf	??i1___fladd,w
  7555  0B0B  00A1               	movwf	??i1___fladd+1
  7556  0B0C  0821               	movf	??i1___fladd+1,w
  7557  0B0D  00F9               	movwf	i1___fladd@aexp
  7558  0B0E  1BF6               	btfsc	i1___fladd@a+2,7
  7559  0B0F  1479               	bsf	i1___fladd@aexp,0
  7560  0B10  0879               	movf	i1___fladd@aexp,w
  7561  0B11  1903               	btfsc	3,2
  7562  0B12  2B21               	goto	i1l2901
  7563  0B13  0A79               	incf	i1___fladd@aexp,w
  7564  0B14  1D03               	btfss	3,2
  7565  0B15  2B1E               	goto	i1l2897
  7566  0B16  3000               	movlw	0
  7567  0B17  00F7               	movwf	i1___fladd@a+3
  7568  0B18  3000               	movlw	0
  7569  0B19  00F6               	movwf	i1___fladd@a+2
  7570  0B1A  3000               	movlw	0
  7571  0B1B  00F5               	movwf	i1___fladd@a+1
  7572  0B1C  3000               	movlw	0
  7573  0B1D  00F4               	movwf	i1___fladd@a
  7574  0B1E                     i1l2897:	
  7575  0B1E  17F6               	bsf	i1___fladd@a+2,7
  7576  0B1F  01F7               	clrf	i1___fladd@a+3
  7577  0B20  2B29               	goto	i1l612
  7578  0B21                     i1l2901:	
  7579  0B21  3000               	movlw	0
  7580  0B22  00F7               	movwf	i1___fladd@a+3
  7581  0B23  3000               	movlw	0
  7582  0B24  00F6               	movwf	i1___fladd@a+2
  7583  0B25  3000               	movlw	0
  7584  0B26  00F5               	movwf	i1___fladd@a+1
  7585  0B27  3000               	movlw	0
  7586  0B28  00F4               	movwf	i1___fladd@a
  7587  0B29                     i1l612:	
  7588  0B29  087A               	movf	i1___fladd@bexp,w
  7589  0B2A  0279               	subwf	i1___fladd@aexp,w
  7590  0B2B  1803               	skipnc
  7591  0B2C  2B6F               	goto	i1l2937
  7592  0B2D  1F78               	btfss	i1___fladd@signs,6
  7593  0B2E  2B33               	goto	i1l2907
  7594  0B2F  3080               	movlw	128
  7595  0B30  00A0               	movwf	??i1___fladd
  7596  0B31  0820               	movf	??i1___fladd,w
  7597  0B32  06F8               	xorwf	i1___fladd@signs,f
  7598  0B33                     i1l2907:	
  7599  0B33  087A               	movf	i1___fladd@bexp,w
  7600  0B34  00A0               	movwf	??i1___fladd
  7601  0B35  0820               	movf	??i1___fladd,w
  7602  0B36  00FB               	movwf	i1___fladd@grs
  7603  0B37  0879               	movf	i1___fladd@aexp,w
  7604  0B38  00A0               	movwf	??i1___fladd
  7605  0B39  0820               	movf	??i1___fladd,w
  7606  0B3A  00FA               	movwf	i1___fladd@bexp
  7607  0B3B  087B               	movf	i1___fladd@grs,w
  7608  0B3C  00A0               	movwf	??i1___fladd
  7609  0B3D  0820               	movf	??i1___fladd,w
  7610  0B3E  00F9               	movwf	i1___fladd@aexp
  7611  0B3F  0870               	movf	i1___fladd@b,w
  7612  0B40  00A0               	movwf	??i1___fladd
  7613  0B41  0820               	movf	??i1___fladd,w
  7614  0B42  00FB               	movwf	i1___fladd@grs
  7615  0B43  0874               	movf	i1___fladd@a,w
  7616  0B44  00A0               	movwf	??i1___fladd
  7617  0B45  0820               	movf	??i1___fladd,w
  7618  0B46  00F0               	movwf	i1___fladd@b
  7619  0B47  087B               	movf	i1___fladd@grs,w
  7620  0B48  00A0               	movwf	??i1___fladd
  7621  0B49  0820               	movf	??i1___fladd,w
  7622  0B4A  00F4               	movwf	i1___fladd@a
  7623  0B4B  0871               	movf	i1___fladd@b+1,w
  7624  0B4C  00A0               	movwf	??i1___fladd
  7625  0B4D  0820               	movf	??i1___fladd,w
  7626  0B4E  00FB               	movwf	i1___fladd@grs
  7627  0B4F  0875               	movf	i1___fladd@a+1,w
  7628  0B50  00A0               	movwf	??i1___fladd
  7629  0B51  0820               	movf	??i1___fladd,w
  7630  0B52  00F1               	movwf	i1___fladd@b+1
  7631  0B53  087B               	movf	i1___fladd@grs,w
  7632  0B54  00A0               	movwf	??i1___fladd
  7633  0B55  0820               	movf	??i1___fladd,w
  7634  0B56  00F5               	movwf	i1___fladd@a+1
  7635  0B57  0872               	movf	i1___fladd@b+2,w
  7636  0B58  00A0               	movwf	??i1___fladd
  7637  0B59  0820               	movf	??i1___fladd,w
  7638  0B5A  00FB               	movwf	i1___fladd@grs
  7639  0B5B  0876               	movf	i1___fladd@a+2,w
  7640  0B5C  00A0               	movwf	??i1___fladd
  7641  0B5D  0820               	movf	??i1___fladd,w
  7642  0B5E  00F2               	movwf	i1___fladd@b+2
  7643  0B5F  087B               	movf	i1___fladd@grs,w
  7644  0B60  00A0               	movwf	??i1___fladd
  7645  0B61  0820               	movf	??i1___fladd,w
  7646  0B62  00F6               	movwf	i1___fladd@a+2
  7647  0B63  0873               	movf	i1___fladd@b+3,w
  7648  0B64  00A0               	movwf	??i1___fladd
  7649  0B65  0820               	movf	??i1___fladd,w
  7650  0B66  00FB               	movwf	i1___fladd@grs
  7651  0B67  0877               	movf	i1___fladd@a+3,w
  7652  0B68  00A0               	movwf	??i1___fladd
  7653  0B69  0820               	movf	??i1___fladd,w
  7654  0B6A  00F3               	movwf	i1___fladd@b+3
  7655  0B6B  087B               	movf	i1___fladd@grs,w
  7656  0B6C  00A0               	movwf	??i1___fladd
  7657  0B6D  0820               	movf	??i1___fladd,w
  7658  0B6E  00F7               	movwf	i1___fladd@a+3
  7659  0B6F                     i1l2937:	
  7660  0B6F  01FB               	clrf	i1___fladd@grs
  7661  0B70  0879               	movf	i1___fladd@aexp,w
  7662  0B71  00A0               	movwf	??i1___fladd
  7663  0B72  01A1               	clrf	??i1___fladd+1
  7664  0B73  0821               	movf	??i1___fladd+1,w
  7665  0B74  00A3               	movwf	??i1___fladd+3
  7666  0B75  087A               	movf	i1___fladd@bexp,w
  7667  0B76  0220               	subwf	??i1___fladd,w
  7668  0B77  00A2               	movwf	??i1___fladd+2
  7669  0B78  1C03               	skipc
  7670  0B79  03A3               	decf	??i1___fladd+3,f
  7671  0B7A  0823               	movf	??i1___fladd+3,w
  7672  0B7B  3A80               	xorlw	128
  7673  0B7C  00FF               	movwf	127
  7674  0B7D  3080               	movlw	128
  7675  0B7E  027F               	subwf	127,w
  7676  0B7F  1D03               	skipz
  7677  0B80  2B83               	goto	u447_25
  7678  0B81  301A               	movlw	26
  7679  0B82  0222               	subwf	??i1___fladd+2,w
  7680  0B83                     u447_25:	
  7681  0B83  1C03               	skipc
  7682  0B84  2BC0               	goto	i1l2955
  7683  0B85  0873               	movf	i1___fladd@b+3,w
  7684  0B86  0472               	iorwf	i1___fladd@b+2,w
  7685  0B87  0471               	iorwf	i1___fladd@b+1,w
  7686  0B88  0470               	iorwf	i1___fladd@b,w
  7687  0B89  1903               	btfsc	3,2
  7688  0B8A  2B8D               	goto	u448_20
  7689  0B8B  3001               	movlw	1
  7690  0B8C  2B8E               	goto	u449_20
  7691  0B8D                     u448_20:	
  7692  0B8D  3000               	movlw	0
  7693  0B8E                     u449_20:	
  7694  0B8E  1283               	bcf	3,5	;RP0=0, select bank0
  7695  0B8F  1303               	bcf	3,6	;RP1=0, select bank0
  7696  0B90  00A0               	movwf	??i1___fladd
  7697  0B91  0820               	movf	??i1___fladd,w
  7698  0B92  00FB               	movwf	i1___fladd@grs
  7699  0B93  3000               	movlw	0
  7700  0B94  00F3               	movwf	i1___fladd@b+3
  7701  0B95  3000               	movlw	0
  7702  0B96  00F2               	movwf	i1___fladd@b+2
  7703  0B97  3000               	movlw	0
  7704  0B98  00F1               	movwf	i1___fladd@b+1
  7705  0B99  3000               	movlw	0
  7706  0B9A  00F0               	movwf	i1___fladd@b
  7707  0B9B  0879               	movf	i1___fladd@aexp,w
  7708  0B9C  00A0               	movwf	??i1___fladd
  7709  0B9D  0820               	movf	??i1___fladd,w
  7710  0B9E  00FA               	movwf	i1___fladd@bexp
  7711  0B9F  2BC4               	goto	i1l616
  7712  0BA0                     i1l618:	
  7713  0BA0  1C7B               	btfss	i1___fladd@grs,0
  7714  0BA1  2BAD               	goto	i1l2945
  7715  0BA2  087B               	movf	i1___fladd@grs,w
  7716  0BA3  1283               	bcf	3,5	;RP0=0, select bank0
  7717  0BA4  1303               	bcf	3,6	;RP1=0, select bank0
  7718  0BA5  00A0               	movwf	??i1___fladd
  7719  0BA6  1003               	clrc
  7720  0BA7  0C20               	rrf	??i1___fladd,w
  7721  0BA8  3801               	iorlw	1
  7722  0BA9  00A1               	movwf	??i1___fladd+1
  7723  0BAA  0821               	movf	??i1___fladd+1,w
  7724  0BAB  00FB               	movwf	i1___fladd@grs
  7725  0BAC  2BAF               	goto	i1l2947
  7726  0BAD                     i1l2945:	
  7727  0BAD  1003               	clrc
  7728  0BAE  0CFB               	rrf	i1___fladd@grs,f
  7729  0BAF                     i1l2947:	
  7730  0BAF  1870               	btfsc	i1___fladd@b,0
  7731  0BB0  17FB               	bsf	i1___fladd@grs,7
  7732  0BB1  3001               	movlw	1
  7733  0BB2  1283               	bcf	3,5	;RP0=0, select bank0
  7734  0BB3  1303               	bcf	3,6	;RP1=0, select bank0
  7735  0BB4  00A0               	movwf	??i1___fladd
  7736  0BB5                     u452_25:	
  7737  0BB5  0D73               	rlf	i1___fladd@b+3,w
  7738  0BB6  0CF3               	rrf	i1___fladd@b+3,f
  7739  0BB7  0CF2               	rrf	i1___fladd@b+2,f
  7740  0BB8  0CF1               	rrf	i1___fladd@b+1,f
  7741  0BB9  0CF0               	rrf	i1___fladd@b,f
  7742  0BBA  0BA0               	decfsz	??i1___fladd& (0+127),f
  7743  0BBB  2BB5               	goto	u452_25
  7744  0BBC  3001               	movlw	1
  7745  0BBD  00A0               	movwf	??i1___fladd
  7746  0BBE  0820               	movf	??i1___fladd,w
  7747  0BBF  07FA               	addwf	i1___fladd@bexp,f
  7748  0BC0                     i1l2955:	
  7749  0BC0  0879               	movf	i1___fladd@aexp,w
  7750  0BC1  027A               	subwf	i1___fladd@bexp,w
  7751  0BC2  1C03               	skipc
  7752  0BC3  2BA0               	goto	i1l618
  7753  0BC4                     i1l616:	
  7754  0BC4  1B78               	btfsc	i1___fladd@signs,6
  7755  0BC5  2C09               	goto	i1l2981
  7756  0BC6  087A               	movf	i1___fladd@bexp,w
  7757  0BC7  1D03               	btfss	3,2
  7758  0BC8  2BD2               	goto	i1l2963
  7759  0BC9  3000               	movlw	0
  7760  0BCA  00F3               	movwf	?i1___fladd+3
  7761  0BCB  3000               	movlw	0
  7762  0BCC  00F2               	movwf	?i1___fladd+2
  7763  0BCD  3000               	movlw	0
  7764  0BCE  00F1               	movwf	?i1___fladd+1
  7765  0BCF  3000               	movlw	0
  7766  0BD0  00F0               	movwf	?i1___fladd
  7767  0BD1  0008               	return
  7768  0BD2                     i1l2963:	
  7769  0BD2  0874               	movf	i1___fladd@a,w
  7770  0BD3  07F0               	addwf	i1___fladd@b,f
  7771  0BD4  0875               	movf	i1___fladd@a+1,w
  7772  0BD5  1103               	clrz
  7773  0BD6  1803               	skipnc
  7774  0BD7  3E01               	addlw	1
  7775  0BD8  1D03               	btfss	3,2
  7776  0BD9  07F1               	addwf	i1___fladd@b+1,f
  7777  0BDA  0876               	movf	i1___fladd@a+2,w
  7778  0BDB  1103               	clrz
  7779  0BDC  1803               	skipnc
  7780  0BDD  3E01               	addlw	1
  7781  0BDE  1D03               	btfss	3,2
  7782  0BDF  07F2               	addwf	i1___fladd@b+2,f
  7783  0BE0  0877               	movf	i1___fladd@a+3,w
  7784  0BE1  1103               	clrz
  7785  0BE2  1803               	skipnc
  7786  0BE3  3E01               	addlw	1
  7787  0BE4  1D03               	btfss	3,2
  7788  0BE5  07F3               	addwf	i1___fladd@b+3,f
  7789  0BE6  1C73               	btfss	i1___fladd@b+3,0
  7790  0BE7  2CAF               	goto	i1l3015
  7791  0BE8  1C7B               	btfss	i1___fladd@grs,0
  7792  0BE9  2BF5               	goto	i1l2971
  7793  0BEA  087B               	movf	i1___fladd@grs,w
  7794  0BEB  1283               	bcf	3,5	;RP0=0, select bank0
  7795  0BEC  1303               	bcf	3,6	;RP1=0, select bank0
  7796  0BED  00A0               	movwf	??i1___fladd
  7797  0BEE  1003               	clrc
  7798  0BEF  0C20               	rrf	??i1___fladd,w
  7799  0BF0  3801               	iorlw	1
  7800  0BF1  00A1               	movwf	??i1___fladd+1
  7801  0BF2  0821               	movf	??i1___fladd+1,w
  7802  0BF3  00FB               	movwf	i1___fladd@grs
  7803  0BF4  2BF7               	goto	i1l2973
  7804  0BF5                     i1l2971:	
  7805  0BF5  1003               	clrc
  7806  0BF6  0CFB               	rrf	i1___fladd@grs,f
  7807  0BF7                     i1l2973:	
  7808  0BF7  1870               	btfsc	i1___fladd@b,0
  7809  0BF8  17FB               	bsf	i1___fladd@grs,7
  7810  0BF9  3001               	movlw	1
  7811  0BFA  1283               	bcf	3,5	;RP0=0, select bank0
  7812  0BFB  1303               	bcf	3,6	;RP1=0, select bank0
  7813  0BFC  00A0               	movwf	??i1___fladd
  7814  0BFD                     u460_25:	
  7815  0BFD  0D73               	rlf	i1___fladd@b+3,w
  7816  0BFE  0CF3               	rrf	i1___fladd@b+3,f
  7817  0BFF  0CF2               	rrf	i1___fladd@b+2,f
  7818  0C00  0CF1               	rrf	i1___fladd@b+1,f
  7819  0C01  0CF0               	rrf	i1___fladd@b,f
  7820  0C02  0BA0               	decfsz	??i1___fladd& (0+127),f
  7821  0C03  2BFD               	goto	u460_25
  7822  0C04  3001               	movlw	1
  7823  0C05  00A0               	movwf	??i1___fladd
  7824  0C06  0820               	movf	??i1___fladd,w
  7825  0C07  07FA               	addwf	i1___fladd@bexp,f
  7826  0C08  2CAF               	goto	i1l3015
  7827  0C09                     i1l2981:	
  7828  0C09  0873               	movf	i1___fladd@b+3,w
  7829  0C0A  3A80               	xorlw	128
  7830  0C0B  00FF               	movwf	127
  7831  0C0C  0877               	movf	i1___fladd@a+3,w
  7832  0C0D  3A80               	xorlw	128
  7833  0C0E  027F               	subwf	127,w
  7834  0C0F  1D03               	skipz
  7835  0C10  2C1B               	goto	u461_23
  7836  0C11  0876               	movf	i1___fladd@a+2,w
  7837  0C12  0272               	subwf	i1___fladd@b+2,w
  7838  0C13  1D03               	skipz
  7839  0C14  2C1B               	goto	u461_23
  7840  0C15  0875               	movf	i1___fladd@a+1,w
  7841  0C16  0271               	subwf	i1___fladd@b+1,w
  7842  0C17  1D03               	skipz
  7843  0C18  2C1B               	goto	u461_23
  7844  0C19  0874               	movf	i1___fladd@a,w
  7845  0C1A  0270               	subwf	i1___fladd@b,w
  7846  0C1B                     u461_23:	
  7847  0C1B  1803               	skipnc
  7848  0C1C  2C75               	goto	i1l2991
  7849  0C1D  30FF               	movlw	255
  7850  0C1E  1283               	bcf	3,5	;RP0=0, select bank0
  7851  0C1F  1303               	bcf	3,6	;RP1=0, select bank0
  7852  0C20  00A0               	movwf	??i1___fladd
  7853  0C21  30FF               	movlw	255
  7854  0C22  00A1               	movwf	??i1___fladd+1
  7855  0C23  30FF               	movlw	255
  7856  0C24  00A2               	movwf	??i1___fladd+2
  7857  0C25  30FF               	movlw	255
  7858  0C26  00A3               	movwf	??i1___fladd+3
  7859  0C27  0874               	movf	i1___fladd@a,w
  7860  0C28  00A4               	movwf	??i1___fladd+4
  7861  0C29  0875               	movf	i1___fladd@a+1,w
  7862  0C2A  00A5               	movwf	??i1___fladd+5
  7863  0C2B  0876               	movf	i1___fladd@a+2,w
  7864  0C2C  00A6               	movwf	??i1___fladd+6
  7865  0C2D  0877               	movf	i1___fladd@a+3,w
  7866  0C2E  00A7               	movwf	??i1___fladd+7
  7867  0C2F  0870               	movf	i1___fladd@b,w
  7868  0C30  02A4               	subwf	??i1___fladd+4,f
  7869  0C31  0871               	movf	i1___fladd@b+1,w
  7870  0C32  1C03               	skipc
  7871  0C33  0F71               	incfsz	i1___fladd@b+1,w
  7872  0C34  2C36               	goto	u462_21
  7873  0C35  2C37               	goto	u462_22
  7874  0C36                     u462_21:	
  7875  0C36  02A5               	subwf	??i1___fladd+5,f
  7876  0C37                     u462_22:	
  7877  0C37  0872               	movf	i1___fladd@b+2,w
  7878  0C38  1C03               	skipc
  7879  0C39  0F72               	incfsz	i1___fladd@b+2,w
  7880  0C3A  2C3C               	goto	u462_23
  7881  0C3B  2C3D               	goto	u462_24
  7882  0C3C                     u462_23:	
  7883  0C3C  02A6               	subwf	??i1___fladd+6,f
  7884  0C3D                     u462_24:	
  7885  0C3D  0873               	movf	i1___fladd@b+3,w
  7886  0C3E  1C03               	skipc
  7887  0C3F  0F73               	incfsz	i1___fladd@b+3,w
  7888  0C40  2C42               	goto	u462_25
  7889  0C41  2C43               	goto	u462_26
  7890  0C42                     u462_25:	
  7891  0C42  02A7               	subwf	??i1___fladd+7,f
  7892  0C43                     u462_26:	
  7893  0C43  0824               	movf	??i1___fladd+4,w
  7894  0C44  07A0               	addwf	??i1___fladd,f
  7895  0C45  0825               	movf	??i1___fladd+5,w
  7896  0C46  1803               	skipnc
  7897  0C47  0F25               	incfsz	??i1___fladd+5,w
  7898  0C48  2C4A               	goto	u463_20
  7899  0C49  2C4B               	goto	u463_21
  7900  0C4A                     u463_20:	
  7901  0C4A  07A1               	addwf	??i1___fladd+1,f
  7902  0C4B                     u463_21:	
  7903  0C4B  0826               	movf	??i1___fladd+6,w
  7904  0C4C  1803               	skipnc
  7905  0C4D  0F26               	incfsz	??i1___fladd+6,w
  7906  0C4E  2C50               	goto	u463_22
  7907  0C4F  2C51               	goto	u463_23
  7908  0C50                     u463_22:	
  7909  0C50  07A2               	addwf	??i1___fladd+2,f
  7910  0C51                     u463_23:	
  7911  0C51  0827               	movf	??i1___fladd+7,w
  7912  0C52  1803               	skipnc
  7913  0C53  0A27               	incf	??i1___fladd+7,w
  7914  0C54  07A3               	addwf	??i1___fladd+3,f
  7915  0C55  0823               	movf	??i1___fladd+3,w
  7916  0C56  00F3               	movwf	i1___fladd@b+3
  7917  0C57  0822               	movf	??i1___fladd+2,w
  7918  0C58  00F2               	movwf	i1___fladd@b+2
  7919  0C59  0821               	movf	??i1___fladd+1,w
  7920  0C5A  00F1               	movwf	i1___fladd@b+1
  7921  0C5B  0820               	movf	??i1___fladd,w
  7922  0C5C  00F0               	movwf	i1___fladd@b
  7923  0C5D  3080               	movlw	128
  7924  0C5E  00A0               	movwf	??i1___fladd
  7925  0C5F  0820               	movf	??i1___fladd,w
  7926  0C60  06F8               	xorwf	i1___fladd@signs,f
  7927  0C61  09FB               	comf	i1___fladd@grs,f
  7928  0C62  0AFB               	incf	i1___fladd@grs,f
  7929  0C63  087B               	movf	i1___fladd@grs,w
  7930  0C64  1D03               	btfss	3,2
  7931  0C65  2C83               	goto	i1l633
  7932  0C66  3001               	movlw	1
  7933  0C67  07F0               	addwf	i1___fladd@b,f
  7934  0C68  3000               	movlw	0
  7935  0C69  1803               	skipnc
  7936  0C6A  3001               	movlw	1
  7937  0C6B  07F1               	addwf	i1___fladd@b+1,f
  7938  0C6C  3000               	movlw	0
  7939  0C6D  1803               	skipnc
  7940  0C6E  3001               	movlw	1
  7941  0C6F  07F2               	addwf	i1___fladd@b+2,f
  7942  0C70  3000               	movlw	0
  7943  0C71  1803               	skipnc
  7944  0C72  3001               	movlw	1
  7945  0C73  07F3               	addwf	i1___fladd@b+3,f
  7946  0C74  2C83               	goto	i1l633
  7947  0C75                     i1l2991:	
  7948  0C75  0874               	movf	i1___fladd@a,w
  7949  0C76  02F0               	subwf	i1___fladd@b,f
  7950  0C77  0875               	movf	i1___fladd@a+1,w
  7951  0C78  1C03               	skipc
  7952  0C79  0F75               	incfsz	i1___fladd@a+1,w
  7953  0C7A  02F1               	subwf	i1___fladd@b+1,f
  7954  0C7B  0876               	movf	i1___fladd@a+2,w
  7955  0C7C  1C03               	skipc
  7956  0C7D  0F76               	incfsz	i1___fladd@a+2,w
  7957  0C7E  02F2               	subwf	i1___fladd@b+2,f
  7958  0C7F  0877               	movf	i1___fladd@a+3,w
  7959  0C80  1C03               	skipc
  7960  0C81  0F77               	incfsz	i1___fladd@a+3,w
  7961  0C82  02F3               	subwf	i1___fladd@b+3,f
  7962  0C83                     i1l633:	
  7963  0C83  0873               	movf	i1___fladd@b+3,w
  7964  0C84  0472               	iorwf	i1___fladd@b+2,w
  7965  0C85  0471               	iorwf	i1___fladd@b+1,w
  7966  0C86  0470               	iorwf	i1___fladd@b,w
  7967  0C87  1D03               	skipz
  7968  0C88  2CAD               	goto	i1l3013
  7969  0C89  087B               	movf	i1___fladd@grs,w
  7970  0C8A  1D03               	btfss	3,2
  7971  0C8B  2CAD               	goto	i1l3013
  7972  0C8C  3000               	movlw	0
  7973  0C8D  00F3               	movwf	?i1___fladd+3
  7974  0C8E  3000               	movlw	0
  7975  0C8F  00F2               	movwf	?i1___fladd+2
  7976  0C90  3000               	movlw	0
  7977  0C91  00F1               	movwf	?i1___fladd+1
  7978  0C92  3000               	movlw	0
  7979  0C93  00F0               	movwf	?i1___fladd
  7980  0C94  0008               	return
  7981  0C95                     i1l2999:	
  7982  0C95  3001               	movlw	1
  7983  0C96  1283               	bcf	3,5	;RP0=0, select bank0
  7984  0C97  1303               	bcf	3,6	;RP1=0, select bank0
  7985  0C98  00A0               	movwf	??i1___fladd
  7986  0C99                     u467_25:	
  7987  0C99  1003               	clrc
  7988  0C9A  0DF0               	rlf	i1___fladd@b,f
  7989  0C9B  0DF1               	rlf	i1___fladd@b+1,f
  7990  0C9C  0DF2               	rlf	i1___fladd@b+2,f
  7991  0C9D  0DF3               	rlf	i1___fladd@b+3,f
  7992  0C9E  0BA0               	decfsz	??i1___fladd,f
  7993  0C9F  2C99               	goto	u467_25
  7994  0CA0  1BFB               	btfsc	i1___fladd@grs,7
  7995  0CA1  1470               	bsf	i1___fladd@b,0
  7996  0CA2  1C7B               	btfss	i1___fladd@grs,0
  7997  0CA3  2CA6               	goto	i1l3007
  7998  0CA4  1403               	setc
  7999  0CA5  2CA7               	goto	L4
  8000  0CA6                     i1l3007:	
  8001  0CA6  1003               	clrc
  8002  0CA7                     L4:	
  8003  0CA7  0DFB               	rlf	i1___fladd@grs,f
  8004  0CA8  087A               	movf	i1___fladd@bexp,w
  8005  0CA9  1903               	btfsc	3,2
  8006  0CAA  2CAD               	goto	i1l3013
  8007  0CAB  3001               	movlw	1
  8008  0CAC  02FA               	subwf	i1___fladd@bexp,f
  8009  0CAD                     i1l3013:	
  8010  0CAD  1FF2               	btfss	i1___fladd@b+2,7
  8011  0CAE  2C95               	goto	i1l2999
  8012  0CAF                     i1l3015:	
  8013  0CAF  01F9               	clrf	i1___fladd@aexp
  8014  0CB0  1FFB               	btfss	i1___fladd@grs,7
  8015  0CB1  2CBA               	goto	i1l3025
  8016  0CB2  087B               	movf	i1___fladd@grs,w
  8017  0CB3  397F               	andlw	127
  8018  0CB4  1903               	btfsc	3,2
  8019  0CB5  1870               	btfsc	i1___fladd@b,0
  8020  0CB6  2CB8               	goto	i1l3021
  8021  0CB7  2CBA               	goto	i1l3025
  8022  0CB8                     i1l3021:	
  8023  0CB8  01F9               	clrf	i1___fladd@aexp
  8024  0CB9  0AF9               	incf	i1___fladd@aexp,f
  8025  0CBA                     i1l3025:	
  8026  0CBA  0879               	movf	i1___fladd@aexp,w
  8027  0CBB  1903               	btfsc	3,2
  8028  0CBC  2CEF               	goto	i1l646
  8029  0CBD  3001               	movlw	1
  8030  0CBE  07F0               	addwf	i1___fladd@b,f
  8031  0CBF  3000               	movlw	0
  8032  0CC0  1803               	skipnc
  8033  0CC1  3001               	movlw	1
  8034  0CC2  07F1               	addwf	i1___fladd@b+1,f
  8035  0CC3  3000               	movlw	0
  8036  0CC4  1803               	skipnc
  8037  0CC5  3001               	movlw	1
  8038  0CC6  07F2               	addwf	i1___fladd@b+2,f
  8039  0CC7  3000               	movlw	0
  8040  0CC8  1803               	skipnc
  8041  0CC9  3001               	movlw	1
  8042  0CCA  07F3               	addwf	i1___fladd@b+3,f
  8043  0CCB  1C73               	btfss	i1___fladd@b+3,0
  8044  0CCC  2CEF               	goto	i1l646
  8045  0CCD  0870               	movf	i1___fladd@b,w
  8046  0CCE  1283               	bcf	3,5	;RP0=0, select bank0
  8047  0CCF  1303               	bcf	3,6	;RP1=0, select bank0
  8048  0CD0  00A0               	movwf	??i1___fladd
  8049  0CD1  0871               	movf	i1___fladd@b+1,w
  8050  0CD2  00A1               	movwf	??i1___fladd+1
  8051  0CD3  0872               	movf	i1___fladd@b+2,w
  8052  0CD4  00A2               	movwf	??i1___fladd+2
  8053  0CD5  0873               	movf	i1___fladd@b+3,w
  8054  0CD6  00A3               	movwf	??i1___fladd+3
  8055  0CD7  3001               	movlw	1
  8056  0CD8  00A4               	movwf	??i1___fladd+4
  8057  0CD9                     u477_25:	
  8058  0CD9  0D23               	rlf	??i1___fladd+3,w
  8059  0CDA  0CA3               	rrf	??i1___fladd+3,f
  8060  0CDB  0CA2               	rrf	??i1___fladd+2,f
  8061  0CDC  0CA1               	rrf	??i1___fladd+1,f
  8062  0CDD  0CA0               	rrf	??i1___fladd,f
  8063  0CDE  0BA4               	decfsz	??i1___fladd+4,f
  8064  0CDF  2CD9               	goto	u477_25
  8065  0CE0  0823               	movf	??i1___fladd+3,w
  8066  0CE1  00F3               	movwf	i1___fladd@b+3
  8067  0CE2  0822               	movf	??i1___fladd+2,w
  8068  0CE3  00F2               	movwf	i1___fladd@b+2
  8069  0CE4  0821               	movf	??i1___fladd+1,w
  8070  0CE5  00F1               	movwf	i1___fladd@b+1
  8071  0CE6  0820               	movf	??i1___fladd,w
  8072  0CE7  00F0               	movwf	i1___fladd@b
  8073  0CE8  0A7A               	incf	i1___fladd@bexp,w
  8074  0CE9  1903               	btfsc	3,2
  8075  0CEA  2CEF               	goto	i1l646
  8076  0CEB  3001               	movlw	1
  8077  0CEC  00A0               	movwf	??i1___fladd
  8078  0CED  0820               	movf	??i1___fladd,w
  8079  0CEE  07FA               	addwf	i1___fladd@bexp,f
  8080  0CEF                     i1l646:	
  8081  0CEF  0A7A               	incf	i1___fladd@bexp,w
  8082  0CF0  1D03               	btfss	3,2
  8083  0CF1  087A               	movf	i1___fladd@bexp,w
  8084  0CF2  1D03               	btfss	3,2
  8085  0CF3  2CFF               	goto	i1l3043
  8086  0CF4  3000               	movlw	0
  8087  0CF5  00F3               	movwf	i1___fladd@b+3
  8088  0CF6  3000               	movlw	0
  8089  0CF7  00F2               	movwf	i1___fladd@b+2
  8090  0CF8  3000               	movlw	0
  8091  0CF9  00F1               	movwf	i1___fladd@b+1
  8092  0CFA  3000               	movlw	0
  8093  0CFB  00F0               	movwf	i1___fladd@b
  8094  0CFC  087A               	movf	i1___fladd@bexp,w
  8095  0CFD  1903               	btfsc	3,2
  8096  0CFE  01F8               	clrf	i1___fladd@signs
  8097  0CFF                     i1l3043:	
  8098  0CFF  1C7A               	btfss	i1___fladd@bexp,0
  8099  0D00  2D03               	goto	i1l3047
  8100  0D01  17F2               	bsf	i1___fladd@b+2,7
  8101  0D02  2D09               	goto	i1l654
  8102  0D03                     i1l3047:	
  8103  0D03  307F               	movlw	127
  8104  0D04  1283               	bcf	3,5	;RP0=0, select bank0
  8105  0D05  1303               	bcf	3,6	;RP1=0, select bank0
  8106  0D06  00A0               	movwf	??i1___fladd
  8107  0D07  0820               	movf	??i1___fladd,w
  8108  0D08  05F2               	andwf	i1___fladd@b+2,f
  8109  0D09                     i1l654:	
  8110  0D09  087A               	movf	i1___fladd@bexp,w
  8111  0D0A  1283               	bcf	3,5	;RP0=0, select bank0
  8112  0D0B  1303               	bcf	3,6	;RP1=0, select bank0
  8113  0D0C  00A0               	movwf	??i1___fladd
  8114  0D0D  1003               	clrc
  8115  0D0E  0C20               	rrf	??i1___fladd,w
  8116  0D0F  00A1               	movwf	??i1___fladd+1
  8117  0D10  0821               	movf	??i1___fladd+1,w
  8118  0D11  00F3               	movwf	i1___fladd@b+3
  8119  0D12  1FF8               	btfss	i1___fladd@signs,7
  8120  0D13  0008               	return
  8121  0D14  17F3               	bsf	i1___fladd@b+3,7
  8122  0D15  0008               	return
  8123  0D16                     __end_ofi1___fladd:	
  8124                           
  8125                           	psect	text26
  8126  14BA                     __ptext26:	
  8127 ;; *************** function i1___fldiv *****************
  8128 ;; Defined at:
  8129 ;;		line 8 in file "D:\PROGRAM\MPLABX v5.20\XC8 v2.05\pic\sources\c90\common\sprcdiv.c"
  8130 ;; Parameters:    Size  Location     Type
  8131 ;;  a               4    0[BANK0 ] unsigned char 
  8132 ;;  b               4    4[BANK0 ] unsigned char 
  8133 ;; Auto vars:     Size  Location     Type
  8134 ;;  __fldiv         4   20[BANK0 ] unsigned long 
  8135 ;;  __fldiv         4   13[BANK0 ] unsigned long 
  8136 ;;  __fldiv         2   18[BANK0 ] int 
  8137 ;;  __fldiv         1   25[BANK0 ] unsigned char 
  8138 ;;  __fldiv         1   24[BANK0 ] unsigned char 
  8139 ;;  __fldiv         1   17[BANK0 ] unsigned char 
  8140 ;; Return value:  Size  Location     Type
  8141 ;;                  4    0[BANK0 ] unsigned char 
  8142 ;; Registers used:
  8143 ;;		wreg, status,2, status,0, btemp+1
  8144 ;; Tracked objects:
  8145 ;;		On entry : 0/0
  8146 ;;		On exit  : 0/0
  8147 ;;		Unchanged: 0/0
  8148 ;; Data sizes:     COMMON   BANK0   BANK1   BANK3   BANK2
  8149 ;;      Params:         0       8       0       0       0
  8150 ;;      Locals:         0      13       0       0       0
  8151 ;;      Temps:          0       5       0       0       0
  8152 ;;      Totals:         0      26       0       0       0
  8153 ;;Total ram usage:       26 bytes
  8154 ;; Hardware stack levels used:    1
  8155 ;; This function calls:
  8156 ;;		Nothing
  8157 ;; This function is called by:
  8158 ;;		_My_interrupt
  8159 ;; This function uses a non-reentrant model
  8160 ;;
  8161                           
  8162                           
  8163                           ;psect for function i1___fldiv
  8164  14BA                     i1___fldiv:	
  8165                           
  8166                           ;incstack = 0
  8167                           ; Regs used in i1___fldiv: [wreg+status,2+status,0+btemp+1]
  8168  14BA  1283               	bcf	3,5	;RP0=0, select bank0
  8169  14BB  1303               	bcf	3,6	;RP1=0, select bank0
  8170  14BC  0827               	movf	i1___fldiv@b+3,w
  8171  14BD  3980               	andlw	128
  8172  14BE  00A8               	movwf	??i1___fldiv
  8173  14BF  0828               	movf	??i1___fldiv,w
  8174  14C0  00B1               	movwf	i1___fldiv@sign
  8175  14C1  0827               	movf	i1___fldiv@b+3,w
  8176  14C2  00A8               	movwf	??i1___fldiv
  8177  14C3  0728               	addwf	??i1___fldiv,w
  8178  14C4  00A9               	movwf	??i1___fldiv+1
  8179  14C5  0829               	movf	??i1___fldiv+1,w
  8180  14C6  00B8               	movwf	i1___fldiv@bexp
  8181  14C7  1BA6               	btfsc	i1___fldiv@b+2,7
  8182  14C8  1438               	bsf	i1___fldiv@bexp,0
  8183  14C9  0838               	movf	i1___fldiv@bexp,w
  8184  14CA  1903               	btfsc	3,2
  8185  14CB  2CDA               	goto	i1l3319
  8186  14CC  0A38               	incf	i1___fldiv@bexp,w
  8187  14CD  1D03               	btfss	3,2
  8188  14CE  2CD7               	goto	i1l3315
  8189  14CF  3000               	movlw	0
  8190  14D0  00A7               	movwf	i1___fldiv@b+3
  8191  14D1  3000               	movlw	0
  8192  14D2  00A6               	movwf	i1___fldiv@b+2
  8193  14D3  3000               	movlw	0
  8194  14D4  00A5               	movwf	i1___fldiv@b+1
  8195  14D5  3000               	movlw	0
  8196  14D6  00A4               	movwf	i1___fldiv@b
  8197  14D7                     i1l3315:	
  8198  14D7  17A6               	bsf	i1___fldiv@b+2,7
  8199  14D8  01A7               	clrf	i1___fldiv@b+3
  8200  14D9  2CE2               	goto	i1l3321
  8201  14DA                     i1l3319:	
  8202  14DA  3000               	movlw	0
  8203  14DB  00A7               	movwf	i1___fldiv@b+3
  8204  14DC  3000               	movlw	0
  8205  14DD  00A6               	movwf	i1___fldiv@b+2
  8206  14DE  3000               	movlw	0
  8207  14DF  00A5               	movwf	i1___fldiv@b+1
  8208  14E0  3000               	movlw	0
  8209  14E1  00A4               	movwf	i1___fldiv@b
  8210  14E2                     i1l3321:	
  8211  14E2  0823               	movf	i1___fldiv@a+3,w
  8212  14E3  3980               	andlw	128
  8213  14E4  00A8               	movwf	??i1___fldiv
  8214  14E5  0828               	movf	??i1___fldiv,w
  8215  14E6  06B1               	xorwf	i1___fldiv@sign,f
  8216  14E7  0823               	movf	i1___fldiv@a+3,w
  8217  14E8  00A8               	movwf	??i1___fldiv
  8218  14E9  0728               	addwf	??i1___fldiv,w
  8219  14EA  00A9               	movwf	??i1___fldiv+1
  8220  14EB  0829               	movf	??i1___fldiv+1,w
  8221  14EC  00B9               	movwf	i1___fldiv@aexp
  8222  14ED  1BA2               	btfsc	i1___fldiv@a+2,7
  8223  14EE  1439               	bsf	i1___fldiv@aexp,0
  8224  14EF  0839               	movf	i1___fldiv@aexp,w
  8225  14F0  1903               	btfsc	3,2
  8226  14F1  2D00               	goto	i1l3339
  8227  14F2  0A39               	incf	i1___fldiv@aexp,w
  8228  14F3  1D03               	btfss	3,2
  8229  14F4  2CFD               	goto	i1l3335
  8230  14F5  3000               	movlw	0
  8231  14F6  00A3               	movwf	i1___fldiv@a+3
  8232  14F7  3000               	movlw	0
  8233  14F8  00A2               	movwf	i1___fldiv@a+2
  8234  14F9  3000               	movlw	0
  8235  14FA  00A1               	movwf	i1___fldiv@a+1
  8236  14FB  3000               	movlw	0
  8237  14FC  00A0               	movwf	i1___fldiv@a
  8238  14FD                     i1l3335:	
  8239  14FD  17A2               	bsf	i1___fldiv@a+2,7
  8240  14FE  01A3               	clrf	i1___fldiv@a+3
  8241  14FF  2D08               	goto	i1l668
  8242  1500                     i1l3339:	
  8243  1500  3000               	movlw	0
  8244  1501  00A3               	movwf	i1___fldiv@a+3
  8245  1502  3000               	movlw	0
  8246  1503  00A2               	movwf	i1___fldiv@a+2
  8247  1504  3000               	movlw	0
  8248  1505  00A1               	movwf	i1___fldiv@a+1
  8249  1506  3000               	movlw	0
  8250  1507  00A0               	movwf	i1___fldiv@a
  8251  1508                     i1l668:	
  8252  1508  0823               	movf	i1___fldiv@a+3,w
  8253  1509  0422               	iorwf	i1___fldiv@a+2,w
  8254  150A  0421               	iorwf	i1___fldiv@a+1,w
  8255  150B  0420               	iorwf	i1___fldiv@a,w
  8256  150C  1D03               	skipz
  8257  150D  2D27               	goto	i1l3349
  8258  150E  3000               	movlw	0
  8259  150F  00A7               	movwf	i1___fldiv@b+3
  8260  1510  3000               	movlw	0
  8261  1511  00A6               	movwf	i1___fldiv@b+2
  8262  1512  3000               	movlw	0
  8263  1513  00A5               	movwf	i1___fldiv@b+1
  8264  1514  3000               	movlw	0
  8265  1515  00A4               	movwf	i1___fldiv@b
  8266  1516  3080               	movlw	128
  8267  1517  04A6               	iorwf	i1___fldiv@b+2,f
  8268  1518  307F               	movlw	127
  8269  1519  04A7               	iorwf	i1___fldiv@b+3,f
  8270  151A                     L5:	
  8271  151A  0831               	movf	i1___fldiv@sign,w
  8272  151B  00A8               	movwf	??i1___fldiv
  8273  151C  0828               	movf	??i1___fldiv,w
  8274  151D  04A7               	iorwf	i1___fldiv@b+3,f
  8275  151E  0827               	movf	i1___fldiv@b+3,w
  8276  151F  00A3               	movwf	?i1___fldiv+3
  8277  1520  0826               	movf	i1___fldiv@b+2,w
  8278  1521  00A2               	movwf	?i1___fldiv+2
  8279  1522  0825               	movf	i1___fldiv@b+1,w
  8280  1523  00A1               	movwf	?i1___fldiv+1
  8281  1524  0824               	movf	i1___fldiv@b,w
  8282  1525  00A0               	movwf	?i1___fldiv
  8283  1526  0008               	return
  8284  1527                     i1l3349:	
  8285  1527  0838               	movf	i1___fldiv@bexp,w
  8286  1528  1D03               	btfss	3,2
  8287  1529  2D33               	goto	i1l3355
  8288  152A  3000               	movlw	0
  8289  152B  00A3               	movwf	?i1___fldiv+3
  8290  152C  3000               	movlw	0
  8291  152D  00A2               	movwf	?i1___fldiv+2
  8292  152E  3000               	movlw	0
  8293  152F  00A1               	movwf	?i1___fldiv+1
  8294  1530  3000               	movlw	0
  8295  1531  00A0               	movwf	?i1___fldiv
  8296  1532  0008               	return
  8297  1533                     i1l3355:	
  8298  1533  0838               	movf	i1___fldiv@bexp,w
  8299  1534  00A8               	movwf	??i1___fldiv
  8300  1535  01A9               	clrf	??i1___fldiv+1
  8301  1536  0829               	movf	??i1___fldiv+1,w
  8302  1537  00AB               	movwf	??i1___fldiv+3
  8303  1538  0839               	movf	i1___fldiv@aexp,w
  8304  1539  0228               	subwf	??i1___fldiv,w
  8305  153A  00AA               	movwf	??i1___fldiv+2
  8306  153B  1C03               	skipc
  8307  153C  03AB               	decf	??i1___fldiv+3,f
  8308  153D  082A               	movf	??i1___fldiv+2,w
  8309  153E  3E7F               	addlw	127
  8310  153F  00B2               	movwf	i1___fldiv@new_exp
  8311  1540  082B               	movf	??i1___fldiv+3,w
  8312  1541  1803               	skipnc
  8313  1542  3E01               	addlw	1
  8314  1543  3E00               	addlw	0
  8315  1544  00B3               	movwf	i1___fldiv@new_exp+1
  8316  1545  0827               	movf	i1___fldiv@b+3,w
  8317  1546  00B0               	movwf	i1___fldiv@rem+3
  8318  1547  0826               	movf	i1___fldiv@b+2,w
  8319  1548  00AF               	movwf	i1___fldiv@rem+2
  8320  1549  0825               	movf	i1___fldiv@b+1,w
  8321  154A  00AE               	movwf	i1___fldiv@rem+1
  8322  154B  0824               	movf	i1___fldiv@b,w
  8323  154C  00AD               	movwf	i1___fldiv@rem
  8324  154D  3000               	movlw	0
  8325  154E  00A7               	movwf	i1___fldiv@b+3
  8326  154F  3000               	movlw	0
  8327  1550  00A6               	movwf	i1___fldiv@b+2
  8328  1551  3000               	movlw	0
  8329  1552  00A5               	movwf	i1___fldiv@b+1
  8330  1553  3000               	movlw	0
  8331  1554  00A4               	movwf	i1___fldiv@b
  8332  1555  3000               	movlw	0
  8333  1556  00B7               	movwf	i1___fldiv@grs+3
  8334  1557  3000               	movlw	0
  8335  1558  00B6               	movwf	i1___fldiv@grs+2
  8336  1559  3000               	movlw	0
  8337  155A  00B5               	movwf	i1___fldiv@grs+1
  8338  155B  3000               	movlw	0
  8339  155C  00B4               	movwf	i1___fldiv@grs
  8340  155D  01B9               	clrf	i1___fldiv@aexp
  8341  155E                     i1l3383:	
  8342  155E  301A               	movlw	26
  8343  155F  0239               	subwf	i1___fldiv@aexp,w
  8344  1560  1803               	btfsc	3,0
  8345  1561  2DA6               	goto	i1l3385
  8346  1562  0839               	movf	i1___fldiv@aexp,w
  8347  1563  1903               	btfsc	3,2
  8348  1564  2D82               	goto	i1l3375
  8349  1565  3001               	movlw	1
  8350  1566  00A8               	movwf	??i1___fldiv
  8351  1567                     u532_25:	
  8352  1567  1003               	clrc
  8353  1568  0DAD               	rlf	i1___fldiv@rem,f
  8354  1569  0DAE               	rlf	i1___fldiv@rem+1,f
  8355  156A  0DAF               	rlf	i1___fldiv@rem+2,f
  8356  156B  0DB0               	rlf	i1___fldiv@rem+3,f
  8357  156C  0BA8               	decfsz	??i1___fldiv,f
  8358  156D  2D67               	goto	u532_25
  8359  156E  3001               	movlw	1
  8360  156F  00A8               	movwf	??i1___fldiv
  8361  1570                     u533_25:	
  8362  1570  1003               	clrc
  8363  1571  0DA4               	rlf	i1___fldiv@b,f
  8364  1572  0DA5               	rlf	i1___fldiv@b+1,f
  8365  1573  0DA6               	rlf	i1___fldiv@b+2,f
  8366  1574  0DA7               	rlf	i1___fldiv@b+3,f
  8367  1575  0BA8               	decfsz	??i1___fldiv,f
  8368  1576  2D70               	goto	u533_25
  8369  1577  1BB7               	btfsc	i1___fldiv@grs+3,7
  8370  1578  1424               	bsf	i1___fldiv@b,0
  8371  1579  3001               	movlw	1
  8372  157A  00A8               	movwf	??i1___fldiv
  8373  157B                     u535_25:	
  8374  157B  1003               	clrc
  8375  157C  0DB4               	rlf	i1___fldiv@grs,f
  8376  157D  0DB5               	rlf	i1___fldiv@grs+1,f
  8377  157E  0DB6               	rlf	i1___fldiv@grs+2,f
  8378  157F  0DB7               	rlf	i1___fldiv@grs+3,f
  8379  1580  0BA8               	decfsz	??i1___fldiv,f
  8380  1581  2D7B               	goto	u535_25
  8381  1582                     i1l3375:	
  8382  1582  0823               	movf	i1___fldiv@a+3,w
  8383  1583  0230               	subwf	i1___fldiv@rem+3,w
  8384  1584  1D03               	skipz
  8385  1585  2D90               	goto	u536_25
  8386  1586  0822               	movf	i1___fldiv@a+2,w
  8387  1587  022F               	subwf	i1___fldiv@rem+2,w
  8388  1588  1D03               	skipz
  8389  1589  2D90               	goto	u536_25
  8390  158A  0821               	movf	i1___fldiv@a+1,w
  8391  158B  022E               	subwf	i1___fldiv@rem+1,w
  8392  158C  1D03               	skipz
  8393  158D  2D90               	goto	u536_25
  8394  158E  0820               	movf	i1___fldiv@a,w
  8395  158F  022D               	subwf	i1___fldiv@rem,w
  8396  1590                     u536_25:	
  8397  1590  1C03               	skipc
  8398  1591  2DA1               	goto	i1l3381
  8399  1592  1737               	bsf	i1___fldiv@grs+3,6
  8400  1593  0820               	movf	i1___fldiv@a,w
  8401  1594  02AD               	subwf	i1___fldiv@rem,f
  8402  1595  0821               	movf	i1___fldiv@a+1,w
  8403  1596  1C03               	skipc
  8404  1597  0F21               	incfsz	i1___fldiv@a+1,w
  8405  1598  02AE               	subwf	i1___fldiv@rem+1,f
  8406  1599  0822               	movf	i1___fldiv@a+2,w
  8407  159A  1C03               	skipc
  8408  159B  0F22               	incfsz	i1___fldiv@a+2,w
  8409  159C  02AF               	subwf	i1___fldiv@rem+2,f
  8410  159D  0823               	movf	i1___fldiv@a+3,w
  8411  159E  1C03               	skipc
  8412  159F  0F23               	incfsz	i1___fldiv@a+3,w
  8413  15A0  02B0               	subwf	i1___fldiv@rem+3,f
  8414  15A1                     i1l3381:	
  8415  15A1  3001               	movlw	1
  8416  15A2  00A8               	movwf	??i1___fldiv
  8417  15A3  0828               	movf	??i1___fldiv,w
  8418  15A4  07B9               	addwf	i1___fldiv@aexp,f
  8419  15A5  2D5E               	goto	i1l3383
  8420  15A6                     i1l3385:	
  8421  15A6  0830               	movf	i1___fldiv@rem+3,w
  8422  15A7  042F               	iorwf	i1___fldiv@rem+2,w
  8423  15A8  042E               	iorwf	i1___fldiv@rem+1,w
  8424  15A9  042D               	iorwf	i1___fldiv@rem,w
  8425  15AA  1D03               	btfss	3,2
  8426  15AB  1434               	bsf	i1___fldiv@grs,0
  8427  15AC                     i1l3399:	
  8428  15AC  1BA6               	btfsc	i1___fldiv@b+2,7
  8429  15AD  2DC9               	goto	i1l3401
  8430  15AE  3001               	movlw	1
  8431  15AF  00A8               	movwf	??i1___fldiv
  8432  15B0                     u539_25:	
  8433  15B0  1003               	clrc
  8434  15B1  0DA4               	rlf	i1___fldiv@b,f
  8435  15B2  0DA5               	rlf	i1___fldiv@b+1,f
  8436  15B3  0DA6               	rlf	i1___fldiv@b+2,f
  8437  15B4  0DA7               	rlf	i1___fldiv@b+3,f
  8438  15B5  0BA8               	decfsz	??i1___fldiv,f
  8439  15B6  2DB0               	goto	u539_25
  8440  15B7  1BB7               	btfsc	i1___fldiv@grs+3,7
  8441  15B8  1424               	bsf	i1___fldiv@b,0
  8442  15B9  3001               	movlw	1
  8443  15BA  00A8               	movwf	??i1___fldiv
  8444  15BB                     u541_25:	
  8445  15BB  1003               	clrc
  8446  15BC  0DB4               	rlf	i1___fldiv@grs,f
  8447  15BD  0DB5               	rlf	i1___fldiv@grs+1,f
  8448  15BE  0DB6               	rlf	i1___fldiv@grs+2,f
  8449  15BF  0DB7               	rlf	i1___fldiv@grs+3,f
  8450  15C0  0BA8               	decfsz	??i1___fldiv,f
  8451  15C1  2DBB               	goto	u541_25
  8452  15C2  30FF               	movlw	255
  8453  15C3  07B2               	addwf	i1___fldiv@new_exp,f
  8454  15C4  1803               	skipnc
  8455  15C5  0AB3               	incf	i1___fldiv@new_exp+1,f
  8456  15C6  30FF               	movlw	255
  8457  15C7  07B3               	addwf	i1___fldiv@new_exp+1,f
  8458  15C8  2DAC               	goto	i1l3399
  8459  15C9                     i1l3401:	
  8460  15C9  01B9               	clrf	i1___fldiv@aexp
  8461  15CA  1FB7               	btfss	i1___fldiv@grs+3,7
  8462  15CB  2DE2               	goto	i1l3411
  8463  15CC  30FF               	movlw	255
  8464  15CD  0534               	andwf	i1___fldiv@grs,w
  8465  15CE  00A8               	movwf	??i1___fldiv
  8466  15CF  30FF               	movlw	255
  8467  15D0  0535               	andwf	i1___fldiv@grs+1,w
  8468  15D1  00A9               	movwf	??i1___fldiv+1
  8469  15D2  30FF               	movlw	255
  8470  15D3  0536               	andwf	i1___fldiv@grs+2,w
  8471  15D4  00AA               	movwf	??i1___fldiv+2
  8472  15D5  307F               	movlw	127
  8473  15D6  0537               	andwf	i1___fldiv@grs+3,w
  8474  15D7  00AB               	movwf	??i1___fldiv+3
  8475  15D8  082B               	movf	??i1___fldiv+3,w
  8476  15D9  042A               	iorwf	??i1___fldiv+2,w
  8477  15DA  0429               	iorwf	??i1___fldiv+1,w
  8478  15DB  0428               	iorwf	??i1___fldiv,w
  8479  15DC  1903               	skipnz
  8480  15DD  1824               	btfsc	i1___fldiv@b,0
  8481  15DE  2DE0               	goto	i1l3407
  8482  15DF  2DE2               	goto	i1l3411
  8483  15E0                     i1l3407:	
  8484  15E0  01B9               	clrf	i1___fldiv@aexp
  8485  15E1  0AB9               	incf	i1___fldiv@aexp,f
  8486  15E2                     i1l3411:	
  8487  15E2  0839               	movf	i1___fldiv@aexp,w
  8488  15E3  1903               	btfsc	3,2
  8489  15E4  2E14               	goto	i1l3421
  8490  15E5  3001               	movlw	1
  8491  15E6  07A4               	addwf	i1___fldiv@b,f
  8492  15E7  3000               	movlw	0
  8493  15E8  1803               	skipnc
  8494  15E9  3001               	movlw	1
  8495  15EA  07A5               	addwf	i1___fldiv@b+1,f
  8496  15EB  3000               	movlw	0
  8497  15EC  1803               	skipnc
  8498  15ED  3001               	movlw	1
  8499  15EE  07A6               	addwf	i1___fldiv@b+2,f
  8500  15EF  3000               	movlw	0
  8501  15F0  1803               	skipnc
  8502  15F1  3001               	movlw	1
  8503  15F2  07A7               	addwf	i1___fldiv@b+3,f
  8504  15F3  1C27               	btfss	i1___fldiv@b+3,0
  8505  15F4  2E14               	goto	i1l3421
  8506  15F5  0824               	movf	i1___fldiv@b,w
  8507  15F6  00A8               	movwf	??i1___fldiv
  8508  15F7  0825               	movf	i1___fldiv@b+1,w
  8509  15F8  00A9               	movwf	??i1___fldiv+1
  8510  15F9  0826               	movf	i1___fldiv@b+2,w
  8511  15FA  00AA               	movwf	??i1___fldiv+2
  8512  15FB  0827               	movf	i1___fldiv@b+3,w
  8513  15FC  00AB               	movwf	??i1___fldiv+3
  8514  15FD  3001               	movlw	1
  8515  15FE  00AC               	movwf	??i1___fldiv+4
  8516  15FF                     u548_25:	
  8517  15FF  0D2B               	rlf	??i1___fldiv+3,w
  8518  1600  0CAB               	rrf	??i1___fldiv+3,f
  8519  1601  0CAA               	rrf	??i1___fldiv+2,f
  8520  1602  0CA9               	rrf	??i1___fldiv+1,f
  8521  1603  0CA8               	rrf	??i1___fldiv,f
  8522  1604  0BAC               	decfsz	??i1___fldiv+4,f
  8523  1605  2DFF               	goto	u548_25
  8524  1606  082B               	movf	??i1___fldiv+3,w
  8525  1607  00A7               	movwf	i1___fldiv@b+3
  8526  1608  082A               	movf	??i1___fldiv+2,w
  8527  1609  00A6               	movwf	i1___fldiv@b+2
  8528  160A  0829               	movf	??i1___fldiv+1,w
  8529  160B  00A5               	movwf	i1___fldiv@b+1
  8530  160C  0828               	movf	??i1___fldiv,w
  8531  160D  00A4               	movwf	i1___fldiv@b
  8532  160E  3001               	movlw	1
  8533  160F  07B2               	addwf	i1___fldiv@new_exp,f
  8534  1610  1803               	skipnc
  8535  1611  0AB3               	incf	i1___fldiv@new_exp+1,f
  8536  1612  3000               	movlw	0
  8537  1613  07B3               	addwf	i1___fldiv@new_exp+1,f
  8538  1614                     i1l3421:	
  8539  1614  0833               	movf	i1___fldiv@new_exp+1,w
  8540  1615  3A80               	xorlw	128
  8541  1616  00FF               	movwf	127
  8542  1617  3080               	movlw	128
  8543  1618  027F               	subwf	127,w
  8544  1619  1D03               	skipz
  8545  161A  2E1D               	goto	u549_25
  8546  161B  30FF               	movlw	255
  8547  161C  0232               	subwf	i1___fldiv@new_exp,w
  8548  161D                     u549_25:	
  8549  161D  1C03               	skipc
  8550  161E  2E2D               	goto	i1l3425
  8551  161F  30FF               	movlw	255
  8552  1620  1283               	bcf	3,5	;RP0=0, select bank0
  8553  1621  1303               	bcf	3,6	;RP1=0, select bank0
  8554  1622  00B2               	movwf	i1___fldiv@new_exp
  8555  1623  3000               	movlw	0
  8556  1624  00B3               	movwf	i1___fldiv@new_exp+1
  8557  1625  3000               	movlw	0
  8558  1626  00A7               	movwf	i1___fldiv@b+3
  8559  1627  3000               	movlw	0
  8560  1628  00A6               	movwf	i1___fldiv@b+2
  8561  1629  3000               	movlw	0
  8562  162A  00A5               	movwf	i1___fldiv@b+1
  8563  162B  3000               	movlw	0
  8564  162C  00A4               	movwf	i1___fldiv@b
  8565  162D                     i1l3425:	
  8566  162D  1283               	bcf	3,5	;RP0=0, select bank0
  8567  162E  1303               	bcf	3,6	;RP1=0, select bank0
  8568  162F  0833               	movf	i1___fldiv@new_exp+1,w
  8569  1630  3A80               	xorlw	128
  8570  1631  00FF               	movwf	127
  8571  1632  3080               	movlw	128
  8572  1633  027F               	subwf	127,w
  8573  1634  1D03               	skipz
  8574  1635  2E38               	goto	u550_25
  8575  1636  3001               	movlw	1
  8576  1637  0232               	subwf	i1___fldiv@new_exp,w
  8577  1638                     u550_25:	
  8578  1638  1803               	skipnc
  8579  1639  2E47               	goto	i1l690
  8580  163A  1283               	bcf	3,5	;RP0=0, select bank0
  8581  163B  1303               	bcf	3,6	;RP1=0, select bank0
  8582  163C  01B2               	clrf	i1___fldiv@new_exp
  8583  163D  01B3               	clrf	i1___fldiv@new_exp+1
  8584  163E  3000               	movlw	0
  8585  163F  00A7               	movwf	i1___fldiv@b+3
  8586  1640  3000               	movlw	0
  8587  1641  00A6               	movwf	i1___fldiv@b+2
  8588  1642  3000               	movlw	0
  8589  1643  00A5               	movwf	i1___fldiv@b+1
  8590  1644  3000               	movlw	0
  8591  1645  00A4               	movwf	i1___fldiv@b
  8592  1646  01B1               	clrf	i1___fldiv@sign
  8593  1647                     i1l690:	
  8594  1647  1283               	bcf	3,5	;RP0=0, select bank0
  8595  1648  1303               	bcf	3,6	;RP1=0, select bank0
  8596  1649  0832               	movf	i1___fldiv@new_exp,w
  8597  164A  00A8               	movwf	??i1___fldiv
  8598  164B  0828               	movf	??i1___fldiv,w
  8599  164C  00B8               	movwf	i1___fldiv@bexp
  8600  164D  1C38               	btfss	i1___fldiv@bexp,0
  8601  164E  2E51               	goto	i1l3437
  8602  164F  17A6               	bsf	i1___fldiv@b+2,7
  8603  1650  2E55               	goto	i1l692
  8604  1651                     i1l3437:	
  8605  1651  307F               	movlw	127
  8606  1652  00A8               	movwf	??i1___fldiv
  8607  1653  0828               	movf	??i1___fldiv,w
  8608  1654  05A6               	andwf	i1___fldiv@b+2,f
  8609  1655                     i1l692:	
  8610  1655  0838               	movf	i1___fldiv@bexp,w
  8611  1656  00A8               	movwf	??i1___fldiv
  8612  1657  1003               	clrc
  8613  1658  0C28               	rrf	??i1___fldiv,w
  8614  1659  00A9               	movwf	??i1___fldiv+1
  8615  165A  0829               	movf	??i1___fldiv+1,w
  8616  165B  00A7               	movwf	i1___fldiv@b+3
  8617  165C  2D1A               	goto	L5
  8618  165D                     __end_ofi1___fldiv:	
  8619  007E                     btemp	set	126	;btemp
  8620  007E                     wtemp0	set	126


Data Sizes:
    Strings     11
    Constant    0
    Data        2
    BSS         0
    Persistent  48
    Stack       0

Auto Spaces:
    Space          Size  Autos    Used
    COMMON           14     14      14
    BANK0            80     48      66
    BANK1            80     79      79
    BANK3            96     62      94
    BANK2            96      0       0

Pointer List with Targets:

    Lcd_Write_String@a	PTR unsigned char  size(1) Largest target is 11
		 -> STR_1(CODE[11]), 


Critical Paths under _main in COMMON

    None.

Critical Paths under _My_interrupt in COMMON

    _My_interrupt->i1___xxtofl
    i1___fltol->i1___xxtofl
    i1___flsub->i1___xxtofl
    i1___fldiv->i1___xxtofl

Critical Paths under _main in BANK0

    None.

Critical Paths under _My_interrupt in BANK0

    _My_interrupt->i1___fltol
    i1___fltol->i1___flsub
    i1___flsub->i1___fldiv

Critical Paths under _main in BANK1

    _main->___fladd
    _PID_Init->___fladd
    ___xxtofl->_Read_ADC
    ___fltol->___fladd
    ___flsub->___fladd
    ___fladd->___fldiv
    ___flmul->___xxtofl
    ___fldiv->___flmul
    _Lcd_Write_String->_Lcd_Write_Char
    _Lcd_Write_Char->_Lcd_Port
    _Lcd_Set_Cursor->_Lcd_Cmd
    _Lcd_Init->_Lcd_Cmd
    _Lcd_Cmd->_Lcd_Port

Critical Paths under _My_interrupt in BANK1

    None.

Critical Paths under _main in BANK3

    _main->_PID_Init
    _PID_Init->___fltol
    ___fltol->___flsub
    ___flsub->___fladd

Critical Paths under _My_interrupt in BANK3

    None.

Critical Paths under _main in BANK2

    None.

Critical Paths under _My_interrupt in BANK2

    None.

Call Graph Tables:

 ---------------------------------------------------------------------------------
 (Depth) Function   	        Calls       Base Space   Used Autos Params    Refs
 ---------------------------------------------------------------------------------
 (0) _main                                                13    13      0   23434
                                             51 BANK3     11    11      0
                           _ADC_Init
                     _Interrupt_Init
                           _Lcd_Init
                     _Lcd_Set_Cursor
                     _Lcd_Write_Char
                   _Lcd_Write_String
                           _PID_Init
                           _Read_ADC
                            ___awdiv
                            ___awmod
                            ___fladd
                            ___flmul
                            ___fltol
                           ___xxtofl
 ---------------------------------------------------------------------------------
 (1) ___awmod                                              7     3      4     448
                                              0 BANK1      7     3      4
 ---------------------------------------------------------------------------------
 (1) ___awdiv                                              9     5      4     604
                                              0 BANK1      9     5      4
 ---------------------------------------------------------------------------------
 (1) _Read_ADC                                             9     7      2      67
                                              0 BANK1      9     7      2
 ---------------------------------------------------------------------------------
 (1) _PID_Init                                            16    12      4   13736
                                             35 BANK3     16    12      4
                            ___fladd
                            ___fldiv
                             ___flge
                            ___flmul
                            ___flsub
                            ___fltol
                           ___xxtofl
 ---------------------------------------------------------------------------------
 (1) ___xxtofl                                            14    10      4     524
                                              9 BANK1     14    10      4
                           _Read_ADC (ARG)
 ---------------------------------------------------------------------------------
 (1) ___fltol                                             11     7      4     431
                                             24 BANK3     11     7      4
                           _Read_ADC (ARG)
                            ___fladd (ARG)
                            ___flmul (ARG)
                            ___flsub (ARG)
                           ___xxtofl (ARG)
 ---------------------------------------------------------------------------------
 (2) ___flsub                                              8     0      8    3649
                                             16 BANK3      8     0      8
                            ___fladd
                            ___fldiv (ARG)
                            ___flmul (ARG)
 ---------------------------------------------------------------------------------
 (1) ___fladd                                             20    12      8    3048
                                             75 BANK1      4     4      0
                                              0 BANK3     16     8      8
                           _Read_ADC (ARG)
                            ___fldiv (ARG)
                            ___flmul (ARG)
                           ___xxtofl (ARG)
 ---------------------------------------------------------------------------------
 (1) ___flmul                                             26    18      8    3329
                                             23 BANK1     26    18      8
                           _Read_ADC (ARG)
                          __Umul8_16
                           ___xxtofl (ARG)
 ---------------------------------------------------------------------------------
 (2) __Umul8_16                                            9     7      2     799
                                              0 BANK1      9     7      2
 ---------------------------------------------------------------------------------
 (2) ___flge                                              12     4      8     486
                                              0 BANK1     12     4      8
 ---------------------------------------------------------------------------------
 (2) ___fldiv                                             26    18      8    1981
                                             49 BANK1     26    18      8
                            ___flmul (ARG)
 ---------------------------------------------------------------------------------
 (1) _Lcd_Write_String                                     3     3      0     301
                                              6 BANK1      3     3      0
                     _Lcd_Write_Char
 ---------------------------------------------------------------------------------
 (2) _Lcd_Write_Char                                       5     5      0     178
                                              1 BANK1      5     5      0
                           _Lcd_Port
 ---------------------------------------------------------------------------------
 (1) _Lcd_Set_Cursor                                       7     6      1     456
                                              4 BANK1      7     6      1
                            _Lcd_Cmd
 ---------------------------------------------------------------------------------
 (1) _Lcd_Init                                             2     2      0     198
                                              4 BANK1      2     2      0
                            _Lcd_Cmd
                           _Lcd_Port
 ---------------------------------------------------------------------------------
 (2) _Lcd_Cmd                                              3     3      0     110
                                              1 BANK1      3     3      0
                           _Lcd_Port
 ---------------------------------------------------------------------------------
 (3) _Lcd_Port                                             1     1      0      88
                                              0 BANK1      1     1      0
 ---------------------------------------------------------------------------------
 (1) _Interrupt_Init                                       0     0      0       0
 ---------------------------------------------------------------------------------
 (1) _ADC_Init                                             3     3      0      22
                                              0 BANK1      3     3      0
 ---------------------------------------------------------------------------------
 Estimated maximum stack depth 3
 ---------------------------------------------------------------------------------
 (Depth) Function   	        Calls       Base Space   Used Autos Params    Refs
 ---------------------------------------------------------------------------------
 (4) _My_interrupt                                         3     3      0    3909
                                             45 BANK0      3     3      0
                          i1___fldiv
                          i1___flsub
                          i1___fltol
                         i1___xxtofl
 ---------------------------------------------------------------------------------
 (5) i1___xxtofl                                          14    10      4     348
                                              0 COMMON    14    10      4
 ---------------------------------------------------------------------------------
 (5) i1___fltol                                           11     7      4     255
                                             34 BANK0     11     7      4
                          i1___fldiv (ARG)
                          i1___flsub (ARG)
                         i1___xxtofl (ARG)
 ---------------------------------------------------------------------------------
 (5) i1___flsub                                            8     0      8    2133
                                             26 BANK0      8     0      8
                          i1___fladd
                          i1___fldiv (ARG)
                         i1___xxtofl (ARG)
 ---------------------------------------------------------------------------------
 (6) i1___fladd                                           20    12      8    2036
                                              0 COMMON    12     4      8
                                              0 BANK0      8     8      0
 ---------------------------------------------------------------------------------
 (5) i1___fldiv                                           26    18      8    1173
                                              0 BANK0     26    18      8
                         i1___xxtofl (ARG)
 ---------------------------------------------------------------------------------
 Estimated maximum stack depth 6
 ---------------------------------------------------------------------------------

 Call Graph Graphs:

 _main (ROOT)
   _ADC_Init
   _Interrupt_Init
   _Lcd_Init
     _Lcd_Cmd
       _Lcd_Port
     _Lcd_Port
   _Lcd_Set_Cursor
     _Lcd_Cmd
       _Lcd_Port
   _Lcd_Write_Char
     _Lcd_Port
   _Lcd_Write_String
     _Lcd_Write_Char
       _Lcd_Port
   _PID_Init
     ___fladd
       _Read_ADC (ARG)
       ___fldiv (ARG)
         ___flmul (ARG)
           _Read_ADC (ARG)
           __Umul8_16 (ARG)
           ___xxtofl (ARG)
             _Read_ADC (ARG)
       ___flmul (ARG)
         _Read_ADC (ARG)
         __Umul8_16 (ARG)
         ___xxtofl (ARG)
           _Read_ADC (ARG)
       ___xxtofl (ARG)
         _Read_ADC (ARG)
     ___fldiv
       ___flmul (ARG)
         _Read_ADC (ARG)
         __Umul8_16 (ARG)
         ___xxtofl (ARG)
           _Read_ADC (ARG)
     ___flge
     ___flmul
       _Read_ADC (ARG)
       __Umul8_16 (ARG)
       ___xxtofl (ARG)
         _Read_ADC (ARG)
     ___flsub
       ___fladd
         _Read_ADC (ARG)
         ___fldiv (ARG)
           ___flmul (ARG)
             _Read_ADC (ARG)
             __Umul8_16 (ARG)
             ___xxtofl (ARG)
               _Read_ADC (ARG)
         ___flmul (ARG)
           _Read_ADC (ARG)
           __Umul8_16 (ARG)
           ___xxtofl (ARG)
             _Read_ADC (ARG)
         ___xxtofl (ARG)
           _Read_ADC (ARG)
       ___fldiv (ARG)
         ___flmul (ARG)
           _Read_ADC (ARG)
           __Umul8_16 (ARG)
           ___xxtofl (ARG)
             _Read_ADC (ARG)
       ___flmul (ARG)
         _Read_ADC (ARG)
         __Umul8_16 (ARG)
         ___xxtofl (ARG)
           _Read_ADC (ARG)
     ___fltol
       _Read_ADC (ARG)
       ___fladd (ARG)
         _Read_ADC (ARG)
         ___fldiv (ARG)
           ___flmul (ARG)
             _Read_ADC (ARG)
             __Umul8_16 (ARG)
             ___xxtofl (ARG)
               _Read_ADC (ARG)
         ___flmul (ARG)
           _Read_ADC (ARG)
           __Umul8_16 (ARG)
           ___xxtofl (ARG)
             _Read_ADC (ARG)
         ___xxtofl (ARG)
           _Read_ADC (ARG)
       ___flmul (ARG)
         _Read_ADC (ARG)
         __Umul8_16 (ARG)
         ___xxtofl (ARG)
           _Read_ADC (ARG)
       ___flsub (ARG)
         ___fladd
           _Read_ADC (ARG)
           ___fldiv (ARG)
             ___flmul (ARG)
               _Read_ADC (ARG)
               __Umul8_16 (ARG)
               ___xxtofl (ARG)
                 _Read_ADC (ARG)
           ___flmul (ARG)
             _Read_ADC (ARG)
             __Umul8_16 (ARG)
             ___xxtofl (ARG)
               _Read_ADC (ARG)
           ___xxtofl (ARG)
             _Read_ADC (ARG)
         ___fldiv (ARG)
           ___flmul (ARG)
             _Read_ADC (ARG)
             __Umul8_16 (ARG)
             ___xxtofl (ARG)
               _Read_ADC (ARG)
         ___flmul (ARG)
           _Read_ADC (ARG)
           __Umul8_16 (ARG)
           ___xxtofl (ARG)
             _Read_ADC (ARG)
       ___xxtofl (ARG)
         _Read_ADC (ARG)
     ___xxtofl
       _Read_ADC (ARG)
   _Read_ADC
   ___awdiv
   ___awmod
   ___fladd
     _Read_ADC (ARG)
     ___fldiv (ARG)
       ___flmul (ARG)
         _Read_ADC (ARG)
         __Umul8_16 (ARG)
         ___xxtofl (ARG)
           _Read_ADC (ARG)
     ___flmul (ARG)
       _Read_ADC (ARG)
       __Umul8_16 (ARG)
       ___xxtofl (ARG)
         _Read_ADC (ARG)
     ___xxtofl (ARG)
       _Read_ADC (ARG)
   ___flmul
     _Read_ADC (ARG)
     __Umul8_16 (ARG)
     ___xxtofl (ARG)
       _Read_ADC (ARG)
   ___fltol
     _Read_ADC (ARG)
     ___fladd (ARG)
       _Read_ADC (ARG)
       ___fldiv (ARG)
         ___flmul (ARG)
           _Read_ADC (ARG)
           __Umul8_16 (ARG)
           ___xxtofl (ARG)
             _Read_ADC (ARG)
       ___flmul (ARG)
         _Read_ADC (ARG)
         __Umul8_16 (ARG)
         ___xxtofl (ARG)
           _Read_ADC (ARG)
       ___xxtofl (ARG)
         _Read_ADC (ARG)
     ___flmul (ARG)
       _Read_ADC (ARG)
       __Umul8_16 (ARG)
       ___xxtofl (ARG)
         _Read_ADC (ARG)
     ___flsub (ARG)
       ___fladd
         _Read_ADC (ARG)
         ___fldiv (ARG)
           ___flmul (ARG)
             _Read_ADC (ARG)
             __Umul8_16 (ARG)
             ___xxtofl (ARG)
               _Read_ADC (ARG)
         ___flmul (ARG)
           _Read_ADC (ARG)
           __Umul8_16 (ARG)
           ___xxtofl (ARG)
             _Read_ADC (ARG)
         ___xxtofl (ARG)
           _Read_ADC (ARG)
       ___fldiv (ARG)
         ___flmul (ARG)
           _Read_ADC (ARG)
           __Umul8_16 (ARG)
           ___xxtofl (ARG)
             _Read_ADC (ARG)
       ___flmul (ARG)
         _Read_ADC (ARG)
         __Umul8_16 (ARG)
         ___xxtofl (ARG)
           _Read_ADC (ARG)
     ___xxtofl (ARG)
       _Read_ADC (ARG)
   ___xxtofl
     _Read_ADC (ARG)

 _My_interrupt (ROOT)
   i1___fldiv
     i1___xxtofl (ARG)
   i1___flsub
     i1___fladd
     i1___fldiv (ARG)
       i1___xxtofl (ARG)
     i1___xxtofl (ARG)
   i1___fltol
     i1___fldiv (ARG)
       i1___xxtofl (ARG)
     i1___flsub (ARG)
       i1___fladd
       i1___fldiv (ARG)
         i1___xxtofl (ARG)
       i1___xxtofl (ARG)
     i1___xxtofl (ARG)
   i1___xxtofl

 Address spaces:
Name               Size   Autos  Total    Cost      Usage
BANK3               60     3E      5E       9       97.9%
BITBANK3            60      0       0       8        0.0%
SFR3                 0      0       0       4        0.0%
BITSFR3              0      0       0       4        0.0%
BANK2               60      0       0      11        0.0%
BITBANK2            60      0       0      10        0.0%
SFR2                 0      0       0       5        0.0%
BITSFR2              0      0       0       5        0.0%
BANK1               50     4F      4F       7       98.8%
BITBANK1            50      0       0       6        0.0%
SFR1                 0      0       0       2        0.0%
BITSFR1              0      0       0       2        0.0%
BANK0               50     30      42       5       82.5%
BITBANK0            50      0       0       4        0.0%
SFR0                 0      0       0       1        0.0%
BITSFR0              0      0       0       1        0.0%
COMMON               E      E       E       1      100.0%
BITCOMMON            E      0       0       0        0.0%
CODE                 0      0       0       0        0.0%
DATA                 0      0      FD      12        0.0%
ABS                  0      0      FD       3        0.0%
NULL                 0      0       0       0        0.0%
STACK                0      0       0       2        0.0%
EEDATA             100      0       0       0        0.0%


Microchip Technology PIC Macro Assembler V2.05 build -831301201 
Symbol Table                                                                                   Fri Sep 27 22:34:40 2019

         ??_Interrupt_Init 00A0                          _E 01EA                          _T 01DE  
             ___fldiv@aexp 00EA               ___fldiv@bexp 00E9                          pc 0002  
              i1___fladd@a 0074                i1___fladd@b 0070               ___fldiv@sign 00E2  
              i1___fldiv@a 0020                i1___fldiv@b 0024                __CFG_CP$OFF 0000  
                       _E1 01E6                         _E2 01E2                         _a1 005C  
                       _a2 0058                         _a3 0054                         _Kd 01D2  
                       _Ki 01D6                         _Kp 01DA               ___awdiv@sign 00A6  
                       fsr 0004                i1___flsub@a 003A                i1___flsub@b 003E  
      __Umul8_16@word_mpld 00A6                 i1___xxtofl 1417                        l200 10A6  
                      l201 10AE                        l142 10CB                        l144 10CD  
                      l145 10CF                        l153 1163                        l146 10D1  
                      l148 10EB                        l512 07D6                        l195 108D  
                      l196 1090                        l612 0D8C                        l197 1098  
                      l198 109B                        l199 10A3                        l720 077A  
                      l616 0E77                        l633 0F49                        l618 0E48  
                      l493 139E                        l637 0F71                        l654 0FED  
                      l646 0FCC                        l496 1404                        l760 08E1  
                      l752 08C1                        l690 17EA                        l746 0881  
                      l692 17F8                        l668 16AB                        l765 1023  
                      l759 08D7                        _GIE 005F                        _RB1 0031  
                      _RD0 0040                        _RD1 0041                        _RD2 0042  
                      _RD3 0043                        _RD4 0044                        _RD5 0045  
                      _RD6 0046                        _RD7 0047               __CFG_CPD$OFF 0000  
                      fsr0 0004                        _out 01CE               i1___fltol@f1 0042  
             ___awmod@sign 00A6              i1___fladd@grs 007B               __CFG_FOSC$HS 0000  
             ___flmul@aexp 00C9               ___flmul@bexp 00CA               ___flmul@sign 00C4  
             ___flmul@temp 00CF               ___flmul@prod 00CB               __CFG_LVP$OFF 0000  
            i1___fldiv@grs 0034              i1___fldiv@rem 002D               ___fltol@exp1 01B2  
                     l3201 0826                       l2323 0E60                       l2251 0D50  
                     l3203 0834                       l2317 0E57                       l2309 0E06  
                     l2245 0D41                       l3109 1147                       l3213 0855  
                     l2415 0FE1                       l2343 0EB0                       l2335 0E87  
                     l2319 0E59                       l2327 0E71                       l2263 0D6C  
                     l2239 0D30                       l3057 10D3                       l2345 0EB2  
                     l2353 0ECB                       l2273 0D82                       l2249 0D46  
                     l2513 07C2                       l3153 0447                       l3217 085D  
                     l3209 084A                       l3241 1197                       l3233 1191  
                     l2419 0FE7                       l2371 0F61                       l2363 0F3B  
                     l2523 07E5                       l2515 07D2                       l3243 11A5  
                     l3251 11BE                       l2613 1744                       l2429 101B  
                     l2349 0EB9                       l2269 0D7D                       l3149 0416  
                     l3229 118A                       l3167 11F4                       l2631 174F  
                     l2607 1725                       l2615 1701                       l2551 167D  
                     l2711 04BE                       l2279 0D9C                       l3191 081E  
                     l3255 11C6                       l3247 11B3                       l2633 176C  
                     l2617 1749                       l2553 1685                       l2481 13DE  
                     l2393 0F8D                       l2385 0F7D                       l3185 0813  
                     l3099 1039                       l2643 1785                       l2571 16A3  
                     l2547 167A                       l2803 0763                       l2707 04B4  
                     l2379 0F76                       l2387 0F81                       l2653 17B7  
                     l2581 16CA                       l2477 13B8                       l2709 04B6  
                     l2397 0F90                       l2493 0792                       l2821 0879  
                     l2639 1783                       l2567 16A0                       l2719 04CC  
                     l2831 0894                       l3519 09B3                       l2657 17D0  
                     l2497 079B                       l2841 08D5                       l2833 08A6  
                     l2587 16D6                       l2771 06CC                       l2691 0491  
                     l2843 08C6                       l2827 0890                       l2669 17F4  
                     l2773 06E9                       l2693 0499                       l2783 0702  
                     l2855 08FE                       l3577 10DD                       l2793 0734  
                     l2689 048F                       l2779 0700                       l2797 074A  
                     _ADIE 0466                       _ADIF 0066                       _ADFM 04FF  
                     _ADON 00F8                       STR_1 1806                       u3010 0E2D  
                     u3020 0E2E                       u3005 0E21                       u3205 0F63  
                     u3151 0EF8                       u3143 0EDF                       u3135 0EBD  
                     u3055 0E64                       u3160 0F0C                       u3152 0EF9  
                     u4105 06B8                       u4025 05D9                       u3305 0FB0  
                     u3161 0F0D                       u3153 0EFE                       u3162 0F12  
                     u3154 0EFF                       u4115 06D0                       u3163 0F13  
                     u3155 0F04                       u3156 0F05                       u3405 1101  
                     u4205 071F                       u5005 0841                       u4215 073D  
                     u4135 06DB                       u5015 084B                       u3441 13C9  
                     u4225 0755                       u4065 0675                       u5105 11B4  
                     u3442 13CA                       u3443 13CF                       u4315 08CE  
                     u3444 13D0                       u3461 13EF                       u3445 13D5  
                     u4085 069A                       u3525 07C3                       u3462 13F0  
                     u3446 13D6                       u3463 13F5                       u3464 13F6  
                     u3705 171E                       u3465 13FB                       u3385 1024  
                     u3466 13FC                       u3715 1733                       u3555 07DB  
                     u4355 08E9                       u4275 089D                       u5075 119A  
                     _PEIE 005E                       _INTE 005C                       _INTF 0059  
                     u3495 07A4                       u4295 08B9                       u5095 11AB  
                     u3745 1753                       u3835 17A2                       u3675 170A  
                     u3845 17C0                       u3765 175E                       u3685 1713  
                     u3855 17DB                       u4915 11D9                       u5707 0ACF  
                     u5717 115C                       u5807 1367                       u4935 1200  
                     u5727 1115                       u5817 137D                       u5737 112D  
                     u4865 114A                       u5827 106E                       u5747 12FB  
                     u3995 057C                       u5837 107B                       u5757 130B  
                     u5767 131B                       u4975 0829                       u5777 132B  
                     u5697 09A2                       u5787 1341                       u4995 0835  
                     u5797 1351                       _TMR1 000E               __CFG_WRT$OFF 0000  
        ?_Lcd_Write_String 0070                       _main 0907                       _time 0060  
                     btemp 007E           __end_of_ADC_Init 10EC             i1___fladd@aexp 0079  
           i1___fladd@bexp 007A                       start 0010         ??_Lcd_Write_String 00A6  
          ___fldiv@new_exp 00E3            __end_of_Lcd_Cmd 1084             i1___fldiv@aexp 0039  
           i1___fldiv@bexp 0038             i1___fldiv@sign 0031              ___fltol@sign1 01B1  
                    _ADCS0 00FE                      _ADCS1 00FF                      _ADCS2 04FE  
          __end_of___fladd 1000                      ?_main 0070            __end_of___fldiv 1800  
          __end_of___awdiv 0862              __CFG_WDTE$OFF 0000            __end_of___awmod 11CB  
          __end_of___flmul 0787            __end_of___flsub 2000            __end_of___fltol 07F4  
          ___awdiv@divisor 00A0                      _PCFG0 04F8                      _PCFG1 04F9  
                    _PCFG2 04FA                      _PCFG3 04FB                      i1l175 1220  
                    i1l512 12D1                      i1l178 1279                      i1l612 0B29  
                    i1l616 0BC4                      i1l633 0C83                      i1l618 0BA0  
                    i1l654 0D09                      i1l646 0CEF                      i1l760 1494  
                    i1l752 1474                      i1l690 1647                      i1l746 1434  
                    i1l692 1655                      i1l668 1508                      i1l759 148A  
          ___awdiv@counter 00A5                      _PORTD 0008    __size_of_Lcd_Set_Cursor 0050  
                    _TRISD 0088           __end_of_PID_Init 0472             __CFG_BOREN$OFF 0000  
                    pclath 000A             i1___fltol@exp1 004C                      status 0003  
                    wtemp0 007E         __size_ofi1___fladd 023F         __size_ofi1___fldiv 01A3  
          i1___fladd@signs 0078         __size_ofi1___flsub 0022         __size_ofi1___fltol 006D  
         __end_of_Lcd_Init 1382           __end_of_Lcd_Port 10B2            __initialization 0013  
             __end_of_main 0AD7           __end_of_Read_ADC 117E                     ??_main 01C3  
              ?i1___xxtofl 0070                     _ADCON0 001F                     _ADRESH 001E  
                   _ADRESL 009E           ___awdiv@dividend 00A2                     i1l3021 0CB8  
                   i1l3013 0CAD                     i1l3007 0CA6                     i1l3015 0CAF  
                   i1l3025 0CBA                     i1l3043 0CFF                     i1l3047 0D03  
                   i1l3401 15C9                     i1l3321 14E2                     i1l3411 15E2  
                   i1l3315 14D7                     i1l3421 1614                     i1l3261 128D  
                   i1l3407 15E0                     i1l3335 14FD                     i1l3319 14DA  
                   i1l3425 162D                     i1l3281 12BD                     i1l3265 1296  
                   i1l3355 1533                     i1l3339 1500                     i1l3291 12E0  
                   i1l3283 12CD                     i1l3437 1651                     i1l3381 15A1  
                   i1l3349 1527                     i1l2901 0B21                     i1l3461 1459  
                   i1l3375 1582                     i1l3383 155E                     i1l3471 1479  
                   i1l3455 1443                     i1l3385 15A6                     i1l3449 142C  
                   i1l2907 0B33                     i1l3483 14B1                     i1l3459 1447  
                   _T1SYNC 0082                     i1l3469 1488                     i1l3399 15AC  
                   i1l2945 0BAD                     i1l2937 0B6F                     i1l2873 0AF4  
                   i1l2971 0BF5                     i1l2963 0BD2                     i1l2947 0BAF  
                   i1l2955 0BC0                     i1l2973 0BF7                     i1l2981 0C09  
                   i1l2877 0AF7                     i1l2991 0C75                     i1l2879 0AFF  
                   i1l2897 0B1E                     i1l2999 0C95                     _INTEDG 040E  
                   u520_25 12D6                     u514_25 129F                     u532_25 1567  
                   u460_25 0BFD                     u452_25 0BB5                     u461_23 0C1B  
                   u541_25 15BB                     u533_25 1570                     u517_25 12BE  
                   u462_21 0C36                     u462_22 0C37                     u462_23 0C3C  
                   u462_24 0C3D                     u550_25 1638                     u462_25 0C42  
                   u462_26 0C43                     u463_20 0C4A                     u463_21 0C4B  
                   u463_22 0C50                     u463_23 0C51                     u535_25 157B  
                   u447_25 0B83                     u448_20 0B8D                     u536_25 1590  
                   u449_20 0B8E                     u539_25 15B0                     u467_25 0C99  
                   u563_25 149C                     u555_25 1450                     u548_25 15FF  
                   u549_25 161D                     u477_25 0CD9                     u557_25 146C  
                   u559_25 1481                  ??_Lcd_Cmd 00A1                     _TMR1IE 0460  
                   _TMR1IF 0060                     _TMR1CS 0081                     _TMR1ON 0080  
  __size_of_Lcd_Write_Char 0049                     _TRISA0 0428                     _TRISA1 0429  
                   _TRISB0 0430                     _TRISA2 042A                     _TRISB1 0431  
                   _TRISA3 042B           __end_of___xxtofl 0907             __CFG_PWRTE$OFF 0000  
          ADC_Init@channel 00A2                     ___flge 1382            Read_ADC@channel 00A8  
                ??___fladd 0198                  ??___fldiv 00D9                  ??___awdiv 00A4  
                ??___awmod 00A4                  ??___flmul 00BF                  ??___flsub 00EF  
                ??___fltol 01AC           ___awdiv@quotient 00A7            ___awmod@divisor 00A0  
          ___awmod@counter 00A5          __end_ofi1___fladd 0D16          __end_ofi1___fldiv 165D  
        __end_ofi1___flsub 1FDE          __end_ofi1___fltol 12EF         __size_of__Umul8_16 0025  
                ?_ADC_Init 0070                     saved_w 007E            i1___fltol@sign1 004B  
          Lcd_Set_Cursor@a 00A7            Lcd_Set_Cursor@b 00A4            Lcd_Set_Cursor@y 00A9  
          Lcd_Set_Cursor@z 00A8                 ___flge@ff1 00A0                 ___flge@ff2 00A4  
             ___xxtofl@arg 00B3               ___xxtofl@exp 00B2               ___xxtofl@val 00A9  
  __end_of__initialization 001D        __size_ofi1___xxtofl 00A3                 ___fltol@f1 01A8  
                ?_PID_Init 01B3             __pcstackCOMMON 0070               __pidataBANK0 07FC  
           _Lcd_Set_Cursor 11CB                 ??_ADC_Init 00A0                  ?_Lcd_Init 0070  
                ?_Lcd_Port 0070                  ?_Read_ADC 00A0             i1___xxtofl@arg 007A  
           i1___xxtofl@exp 0079             i1___xxtofl@val 0070          __end_of__Umul8_16 1034  
               ??_PID_Init 00EF                 __pmaintext 0907                    ?___flge 00A0  
            ?_My_interrupt 0070                 __pintentry 0004  __size_of_Lcd_Write_String 0026  
   __end_of_Lcd_Set_Cursor 121B                    _T1CKPS0 0084                    _T1CKPS1 0085  
                  _T1OSCEN 0083                  ?___xxtofl 00A9                 ??_Lcd_Init 00A4  
               ??_Lcd_Port 00A0                 __stringtab 1800                 ??_Read_ADC 00A2  
           _Lcd_Write_Char 10EC                    _Lcd_Cmd 105A             ??_My_interrupt 004D  
          __size_of___flge 0095                    ___fladd 0D16                    ___fldiv 165D  
                  ___awdiv 0807                    ___awmod 117E                    ___flmul 0472  
                  ___flsub 1FDE                    ___fltol 0787            ?_Lcd_Set_Cursor 00A4  
             ??i1___xxtofl 0074                    __ptext1 117E                    __ptext2 0807  
                  __ptext3 1135                    __ptext4 0021                    __ptext5 0862  
                  __ptext6 0787                    __ptext7 1FDE                    __ptext8 0D16  
                  __ptext9 0472    __size_of_Interrupt_Init 0008                 ??___xxtofl 00AD  
         ___awmod@dividend 00A2                    _pre_out 0050                    main@sum 01C8  
   __end_of_Lcd_Write_Char 1135       end_of_initialization 001D         __end_ofi1___xxtofl 14BA  
                Lcd_Port@a 00A0                ___fladd@grs 00EE              ___xxtofl@sign 00B1  
                i1___fladd 0AD7                  i1___fldiv 14BA                ___fldiv@grs 00E5  
                i1___flsub 1FBC                  i1___fltol 1282                ___fldiv@rem 00DE  
        __size_of_ADC_Init 003A            ?_Lcd_Write_Char 0070          Lcd_Write_String@a 00A8  
        Lcd_Write_String@i 00A6                ___flmul@grs 00C5                  Read_ADC@N 00A6  
        __size_of_PID_Init 0451             __end_of___flge 1417           _Lcd_Write_String 1034  
      start_initialization 0013                 ?i1___fladd 0070                 ?i1___fldiv 0020  
     __end_of_My_interrupt 1282                 ?i1___flsub 003A                 ?i1___fltol 0042  
        __size_of_Lcd_Init 0093          __size_of_Lcd_Port 002E         PID_Init@nhietdodat 01B5  
        __size_of_Read_ADC 0049                   ??___flge 00A8                  __Umul8_16 100F  
              __pdataBANK0 0060            Lcd_Write_Char@a 00A5            Lcd_Write_Char@y 00A4  
                ___fladd@a 0194                  ___fladd@b 0190             _Interrupt_Init 07F4  
                ___fldiv@a 00D1                  ___fldiv@b 00D5                  ___flmul@a 00BB  
                ___flmul@b 00B7                  ___flsub@a 01A0                  ___flsub@b 01A4  
                ___latbits 0002              __pcstackBANK0 0020              __pcstackBANK1 00A0  
            __pcstackBANK3 0190          __size_of___xxtofl 00A5            i1___xxtofl@sign 0078  
                 ?_Lcd_Cmd 0070          i1___fldiv@new_exp 0032                  __pnvBANK0 0050  
                __pnvBANK3 01CE           ??_Lcd_Set_Cursor 00A5                   ?___fladd 0190  
                 ?___fldiv 00D1                   ?___awdiv 00A0                   ?___awmod 00A0  
                 ?___flmul 00B7                   ?___flsub 01A0                   ?___fltol 01A8  
               ?__Umul8_16 00A0     __end_of_Interrupt_Init 07FC                  __pstrings 1800  
                 _ADC_Init 10B2                ??i1___fladd 0020                ??i1___fldiv 0028  
              ??i1___flsub 007E                ??i1___fltol 0046          interrupt_function 0004  
             _PID_Init$811 01BF               _PID_Init$812 01B7               _PID_Init$813 01BB  
                 Lcd_Cmd@a 00A3                   _PID_Init 0021                   _GO_nDONE 00FA  
          ?_Interrupt_Init 0070                __stringbase 1805      __size_of_My_interrupt 0067  
         ??_Lcd_Write_Char 00A1                   _Lcd_Init 12EF                   _Lcd_Port 1084  
                 _Read_ADC 1135   __end_of_Lcd_Write_String 105A           __size_of_Lcd_Cmd 002A  
             _My_interrupt 121B                ??__Umul8_16 00A2           __size_of___fladd 02EA  
         __size_of___fldiv 01A3           __size_of___awdiv 005B           __size_of___awmod 004D  
         __size_of___flmul 0315           __size_of___flsub 0022           __size_of___fltol 006D  
       __end_of__stringtab 1806            PID_Init@nhietdo 01B3                   ___xxtofl 0862  
                 __ptext10 100F                   __ptext11 1382                   __ptext20 10B2  
                 __ptext12 165D                   __ptext21 121B                   __ptext13 1034  
                 __ptext22 1417                   __ptext14 10EC                   __ptext23 1282  
                 __ptext15 11CB                   __ptext24 1FBC                   __ptext16 12EF  
                 __ptext25 0AD7                   __ptext17 105A                   __ptext26 14BA  
                 __ptext18 1084                   __ptext19 07F4              __size_of_main 01D0  
                 main@temp 01CD         Lcd_Write_Char@temp 00A3                   intlevel1 0000  
                stringcode 1800         Lcd_Set_Cursor@temp 00AA     __Umul8_16@multiplicand 00A0  
                 stringdir 1800                   stringtab 1800              ___fladd@signs 00EB  
             ___fladd@aexp 00EC               ___fladd@bexp 00ED       __Umul8_16@multiplier 00A8  
        __Umul8_16@product 00A4  
