

Microchip MPLAB XC8 Assembler V2.05 build -831301201 
                                                                                               Fri Oct 04 10:48:05 2019

Microchip MPLAB XC8 C Compiler v2.05 (Free license) build 20181220022703 Og1 
     1                           	processor	16F877A
     2                           	opt	pw 120
     3                           	opt	flic
     4                           	psect	idataBANK3,global,class=CODE,delta=2
     5                           	psect	nvBANK0,global,class=BANK0,space=1,delta=1
     6                           	psect	nvBANK3,global,class=BANK3,space=1,delta=1
     7                           	psect	strings,global,class=STRING,delta=2
     8                           	psect	cinit,global,class=CODE,merge=1,delta=2
     9                           	psect	bssBANK0,global,class=BANK0,space=1,delta=1
    10                           	psect	bssBANK3,global,class=BANK3,space=1,delta=1
    11                           	psect	dataBANK3,global,class=BANK3,space=1,delta=1
    12                           	psect	cstackBANK3,global,class=BANK3,space=1,delta=1
    13                           	psect	cstackBANK1,global,class=BANK1,space=1,delta=1
    14                           	psect	cstackCOMMON,global,class=COMMON,space=1,delta=1
    15                           	psect	cstackBANK0,global,class=BANK0,space=1,delta=1
    16                           	psect	maintext,global,class=CODE,split=1,delta=2
    17                           	psect	text1,local,class=CODE,merge=1,delta=2
    18                           	psect	text2,local,class=CODE,merge=1,delta=2,group=1
    19                           	psect	text3,local,class=CODE,merge=1,delta=2,group=1
    20                           	psect	text4,local,class=CODE,merge=1,delta=2,group=1
    21                           	psect	text5,local,class=CODE,merge=1,delta=2
    22                           	psect	text6,local,class=CODE,merge=1,delta=2
    23                           	psect	text7,local,class=CODE,merge=1,delta=2
    24                           	psect	text8,local,class=CODE,merge=1,delta=2,group=1
    25                           	psect	text9,local,class=CODE,merge=1,delta=2,group=1
    26                           	psect	text10,local,class=CODE,merge=1,delta=2,group=1
    27                           	psect	text11,local,class=CODE,merge=1,delta=2,group=1
    28                           	psect	text12,local,class=CODE,merge=1,delta=2,group=1
    29                           	psect	text13,local,class=CODE,merge=1,delta=2,group=1
    30                           	psect	text14,local,class=CODE,merge=1,delta=2,group=1
    31                           	psect	text15,local,class=CODE,merge=1,delta=2
    32                           	psect	text16,local,class=CODE,merge=1,delta=2
    33                           	psect	text17,local,class=CODE,merge=1,delta=2
    34                           	psect	text18,local,class=CODE,merge=1,delta=2
    35                           	psect	text19,local,class=CODE,merge=1,delta=2
    36                           	psect	text20,local,class=CODE,merge=1,delta=2,group=1
    37                           	psect	text21,local,class=CODE,merge=1,delta=2,group=1
    38                           	psect	text22,local,class=CODE,merge=1,delta=2
    39                           	psect	text23,local,class=CODE,merge=1,delta=2
    40                           	psect	text24,local,class=CODE,merge=1,delta=2
    41                           	psect	text25,local,class=CODE,merge=1,delta=2
    42                           	psect	text26,local,class=CODE,merge=1,delta=2
    43                           	psect	text27,local,class=CODE,merge=1,delta=2
    44                           	psect	intentry,global,class=CODE,delta=2
    45                           	psect	text28,local,class=CODE,merge=1,delta=2
    46                           	psect	text29,local,class=CODE,merge=1,delta=2
    47                           	psect	text30,local,class=CODE,merge=1,delta=2
    48                           	psect	text31,local,class=CODE,merge=1,delta=2
    49                           	psect	text32,local,class=CODE,merge=1,delta=2
    50                           	dabs	1,0x7E,2
    51  0000                     
    52                           ; Version 2.05
    53                           ; Generated 20/12/2018 GMT
    54                           ; 
    55                           ; Copyright © 2018, Microchip Technology Inc. and its subsidiaries ("Microchip")
    56                           ; All rights reserved.
    57                           ; 
    58                           ; This software is developed by Microchip Technology Inc. and its subsidiaries ("Microch
      +                          ip").
    59                           ; 
    60                           ; Redistribution and use in source and binary forms, with or without modification, are
    61                           ; permitted provided that the following conditions are met:
    62                           ; 
    63                           ;     1. Redistributions of source code must retain the above copyright notice, this lis
      +                          t of
    64                           ;        conditions and the following disclaimer.
    65                           ; 
    66                           ;     2. Redistributions in binary form must reproduce the above copyright notice, this 
      +                          list
    67                           ;        of conditions and the following disclaimer in the documentation and/or other
    68                           ;        materials provided with the distribution.
    69                           ; 
    70                           ;     3. Microchip's name may not be used to endorse or promote products derived from th
      +                          is
    71                           ;        software without specific prior written permission.
    72                           ; 
    73                           ; THIS SOFTWARE IS PROVIDED BY MICROCHIP "AS IS" AND ANY EXPRESS OR IMPLIED WARRANTIES,
    74                           ; INCLUDING, BUT NOT LIMITED TO, THE IMPLIED WARRANTIES OF MERCHANTABILITY AND FITNESS F
      +                          OR
    75                           ; PURPOSE ARE DISCLAIMED.  IN NO EVENT SHALL MICROCHIP BE LIABLE FOR ANY DIRECT, INDIREC
      +                          T,
    76                           ; INCIDENTAL, SPECIAL, EXEMPLARY, OR CONSEQUENTIAL DAMAGES (INCLUDING BUT NOT LIMITED TO
    77                           ; PROCUREMENT OF SUBSTITUTE GOODS OR SERVICES; LOSS OF USE, DATA OR PROFITS; OR BUSINESS
    78                           ; INTERRUPTION) HOWSOEVER CAUSED AND ON ANY THEORY OF LIABILITY, WHETHER IN CONTRACT, ST
      +                          RICT
    79                           ; LIABILITY, OR TORT (INCLUDING NEGLIGENCE OR OTHERWISE) ARISING IN ANY WAY OUT OF THE U
      +                          SE OF
    80                           ; THIS SOFTWARE, EVEN IF ADVISED OF THE POSSIBILITY OF SUCH DAMAGE.
    81                           ; 
    82                           ; 
    83                           ; Code-generator required, PIC16F877A Definitions
    84                           ; 
    85                           ; SFR Addresses
    86  0000                     	;# 
    87  0001                     	;# 
    88  0002                     	;# 
    89  0003                     	;# 
    90  0004                     	;# 
    91  0005                     	;# 
    92  0006                     	;# 
    93  0007                     	;# 
    94  0008                     	;# 
    95  0009                     	;# 
    96  000A                     	;# 
    97  000B                     	;# 
    98  000C                     	;# 
    99  000D                     	;# 
   100  000E                     	;# 
   101  000E                     	;# 
   102  000F                     	;# 
   103  0010                     	;# 
   104  0011                     	;# 
   105  0012                     	;# 
   106  0013                     	;# 
   107  0014                     	;# 
   108  0015                     	;# 
   109  0015                     	;# 
   110  0016                     	;# 
   111  0017                     	;# 
   112  0018                     	;# 
   113  0019                     	;# 
   114  001A                     	;# 
   115  001B                     	;# 
   116  001B                     	;# 
   117  001C                     	;# 
   118  001D                     	;# 
   119  001E                     	;# 
   120  001F                     	;# 
   121  0081                     	;# 
   122  0085                     	;# 
   123  0086                     	;# 
   124  0087                     	;# 
   125  0088                     	;# 
   126  0089                     	;# 
   127  008C                     	;# 
   128  008D                     	;# 
   129  008E                     	;# 
   130  0091                     	;# 
   131  0092                     	;# 
   132  0093                     	;# 
   133  0094                     	;# 
   134  0098                     	;# 
   135  0099                     	;# 
   136  009C                     	;# 
   137  009D                     	;# 
   138  009E                     	;# 
   139  009F                     	;# 
   140  010C                     	;# 
   141  010D                     	;# 
   142  010E                     	;# 
   143  010F                     	;# 
   144  018C                     	;# 
   145  018D                     	;# 
   146  0000                     	;# 
   147  0001                     	;# 
   148  0002                     	;# 
   149  0003                     	;# 
   150  0004                     	;# 
   151  0005                     	;# 
   152  0006                     	;# 
   153  0007                     	;# 
   154  0008                     	;# 
   155  0009                     	;# 
   156  000A                     	;# 
   157  000B                     	;# 
   158  000C                     	;# 
   159  000D                     	;# 
   160  000E                     	;# 
   161  000E                     	;# 
   162  000F                     	;# 
   163  0010                     	;# 
   164  0011                     	;# 
   165  0012                     	;# 
   166  0013                     	;# 
   167  0014                     	;# 
   168  0015                     	;# 
   169  0015                     	;# 
   170  0016                     	;# 
   171  0017                     	;# 
   172  0018                     	;# 
   173  0019                     	;# 
   174  001A                     	;# 
   175  001B                     	;# 
   176  001B                     	;# 
   177  001C                     	;# 
   178  001D                     	;# 
   179  001E                     	;# 
   180  001F                     	;# 
   181  0081                     	;# 
   182  0085                     	;# 
   183  0086                     	;# 
   184  0087                     	;# 
   185  0088                     	;# 
   186  0089                     	;# 
   187  008C                     	;# 
   188  008D                     	;# 
   189  008E                     	;# 
   190  0091                     	;# 
   191  0092                     	;# 
   192  0093                     	;# 
   193  0094                     	;# 
   194  0098                     	;# 
   195  0099                     	;# 
   196  009C                     	;# 
   197  009D                     	;# 
   198  009E                     	;# 
   199  009F                     	;# 
   200  010C                     	;# 
   201  010D                     	;# 
   202  010E                     	;# 
   203  010F                     	;# 
   204  018C                     	;# 
   205  018D                     	;# 
   206  0000                     	;# 
   207  0001                     	;# 
   208  0002                     	;# 
   209  0003                     	;# 
   210  0004                     	;# 
   211  0005                     	;# 
   212  0006                     	;# 
   213  0007                     	;# 
   214  0008                     	;# 
   215  0009                     	;# 
   216  000A                     	;# 
   217  000B                     	;# 
   218  000C                     	;# 
   219  000D                     	;# 
   220  000E                     	;# 
   221  000E                     	;# 
   222  000F                     	;# 
   223  0010                     	;# 
   224  0011                     	;# 
   225  0012                     	;# 
   226  0013                     	;# 
   227  0014                     	;# 
   228  0015                     	;# 
   229  0015                     	;# 
   230  0016                     	;# 
   231  0017                     	;# 
   232  0018                     	;# 
   233  0019                     	;# 
   234  001A                     	;# 
   235  001B                     	;# 
   236  001B                     	;# 
   237  001C                     	;# 
   238  001D                     	;# 
   239  001E                     	;# 
   240  001F                     	;# 
   241  0081                     	;# 
   242  0085                     	;# 
   243  0086                     	;# 
   244  0087                     	;# 
   245  0088                     	;# 
   246  0089                     	;# 
   247  008C                     	;# 
   248  008D                     	;# 
   249  008E                     	;# 
   250  0091                     	;# 
   251  0092                     	;# 
   252  0093                     	;# 
   253  0094                     	;# 
   254  0098                     	;# 
   255  0099                     	;# 
   256  009C                     	;# 
   257  009D                     	;# 
   258  009E                     	;# 
   259  009F                     	;# 
   260  010C                     	;# 
   261  010D                     	;# 
   262  010E                     	;# 
   263  010F                     	;# 
   264  018C                     	;# 
   265  018D                     	;# 
   266                           
   267                           	psect	idataBANK3
   268  07FD                     __pidataBANK3:	
   269                           
   270                           ;initializer for _set_temp
   271  07FD  3432               	retlw	50
   272                           
   273                           	psect	nvBANK0
   274  0050                     __pnvBANK0:	
   275  0050                     _pre_out:	
   276  0050                     	ds	4
   277  0054                     _a3:	
   278  0054                     	ds	4
   279  0058                     _a2:	
   280  0058                     	ds	4
   281  005C                     _a1:	
   282  005C                     	ds	4
   283  0060                     _E2:	
   284  0060                     	ds	4
   285                           
   286                           	psect	nvBANK3
   287  01CB                     __pnvBANK3:	
   288  01CB                     _out:	
   289  01CB                     	ds	4
   290  01CF                     _Kd:	
   291  01CF                     	ds	4
   292  01D3                     _Ki:	
   293  01D3                     	ds	4
   294  01D7                     _Kp:	
   295  01D7                     	ds	4
   296  01DB                     _T:	
   297  01DB                     	ds	4
   298  01DF                     _E1:	
   299  01DF                     	ds	4
   300  01E3                     _E:	
   301  01E3                     	ds	4
   302  000E                     _TMR1	set	14
   303  000E                     _TMR1L	set	14
   304  000F                     _TMR1H	set	15
   305  001E                     _ADRESH	set	30
   306  001F                     _ADCON0	set	31
   307  0041                     _RD1	set	65
   308  0040                     _RD0	set	64
   309  0045                     _RD5	set	69
   310  0044                     _RD4	set	68
   311  0043                     _RD3	set	67
   312  0042                     _RD2	set	66
   313  0060                     _TMR1IF	set	96
   314  0059                     _INTF	set	89
   315  005E                     _PEIE	set	94
   316  005F                     _GIE	set	95
   317  0080                     _TMR1ON	set	128
   318  0081                     _TMR1CS	set	129
   319  0082                     _T1SYNC	set	130
   320  0083                     _T1OSCEN	set	131
   321  0084                     _T1CKPS0	set	132
   322  0085                     _T1CKPS1	set	133
   323  00FA                     _GO_nDONE	set	250
   324  0066                     _ADIF	set	102
   325  00F8                     _ADON	set	248
   326  00FF                     _ADCS1	set	255
   327  00FE                     _ADCS0	set	254
   328  003A                     _RC2	set	58
   329  0038                     _RC0	set	56
   330  005C                     _INTE	set	92
   331  0039                     _RC1	set	57
   332  0031                     _RB1	set	49
   333  0047                     _RD7	set	71
   334  0046                     _RD6	set	70
   335  0088                     _TRISD	set	136
   336  009E                     _ADRESL	set	158
   337  0441                     _TRISD1	set	1089
   338  0440                     _TRISD0	set	1088
   339  040E                     _INTEDG	set	1038
   340  0460                     _TMR1IE	set	1120
   341  0466                     _ADIE	set	1126
   342  04FF                     _ADFM	set	1279
   343  04FE                     _ADCS2	set	1278
   344  04FB                     _PCFG3	set	1275
   345  04FA                     _PCFG2	set	1274
   346  04F9                     _PCFG1	set	1273
   347  04F8                     _PCFG0	set	1272
   348  043A                     _TRISC2	set	1082
   349  0439                     _TRISC1	set	1081
   350  0438                     _TRISC0	set	1080
   351  0431                     _TRISB1	set	1073
   352  0430                     _TRISB0	set	1072
   353  0429                     _TRISA1	set	1065
   354  0428                     _TRISA0	set	1064
   355                           
   356                           	psect	strings
   357  1800                     __pstrings:	
   358  1800                     stringtab:	
   359  1800                     __stringtab:	
   360  1800                     stringcode:	
   361                           ;	String table - string pointers are 1 byte each
   362                           
   363  1800                     stringdir:	
   364  1800  3018               	movlw	high stringdir
   365  1801  008A               	movwf	10
   366  1802  0804               	movf	4,w
   367  1803  0A84               	incf	4,f
   368  1804  0782               	addwf	2,f
   369  1805                     __stringbase:	
   370  1805  3400               	retlw	0
   371  1806                     __end_of__stringtab:	
   372  1806                     STR_6:	
   373  1806  3453               	retlw	83	;'S'
   374  1807  3465               	retlw	101	;'e'
   375  1808  3474               	retlw	116	;'t'
   376  1809  3420               	retlw	32	;' '
   377  180A  3474               	retlw	116	;'t'
   378  180B  3465               	retlw	101	;'e'
   379  180C  346D               	retlw	109	;'m'
   380  180D  3470               	retlw	112	;'p'
   381  180E  343A               	retlw	58	;':'
   382  180F  3420               	retlw	32	;' '
   383  1810  3420               	retlw	32	;' '
   384  1811  3420               	retlw	32	;' '
   385  1812  3420               	retlw	32	;' '
   386  1813  346F               	retlw	111	;'o'
   387  1814  3443               	retlw	67	;'C'
   388  1815  3400               	retlw	0
   389  1816                     STR_2:	
   390  1816  3432               	retlw	50	;'2'
   391  1817  342E               	retlw	46	;'.'
   392  1818  3420               	retlw	32	;' '
   393  1819  344E               	retlw	78	;'N'
   394  181A  344F               	retlw	79	;'O'
   395  181B  3452               	retlw	82	;'R'
   396  181C  344D               	retlw	77	;'M'
   397  181D  3441               	retlw	65	;'A'
   398  181E  344C               	retlw	76	;'L'
   399  181F  3420               	retlw	32	;' '
   400  1820  344D               	retlw	77	;'M'
   401  1821  344F               	retlw	79	;'O'
   402  1822  3444               	retlw	68	;'D'
   403  1823  3445               	retlw	69	;'E'
   404  1824  3400               	retlw	0
   405  1825                     STR_1:	
   406  1825  3431               	retlw	49	;'1'
   407  1826  342E               	retlw	46	;'.'
   408  1827  3420               	retlw	32	;' '
   409  1828  3454               	retlw	84	;'T'
   410  1829  3445               	retlw	69	;'E'
   411  182A  3453               	retlw	83	;'S'
   412  182B  3454               	retlw	84	;'T'
   413  182C  3420               	retlw	32	;' '
   414  182D  344D               	retlw	77	;'M'
   415  182E  344F               	retlw	79	;'O'
   416  182F  3444               	retlw	68	;'D'
   417  1830  3445               	retlw	69	;'E'
   418  1831  3400               	retlw	0
   419  1832                     STR_4:	
   420  1832  3444               	retlw	68	;'D'
   421  1833  3475               	retlw	117	;'u'
   422  1834  3474               	retlw	116	;'t'
   423  1835  3479               	retlw	121	;'y'
   424  1836  343A               	retlw	58	;':'
   425  1837  3420               	retlw	32	;' '
   426  1838  3420               	retlw	32	;' '
   427  1839  3420               	retlw	32	;' '
   428  183A  3420               	retlw	32	;' '
   429  183B  3420               	retlw	32	;' '
   430  183C  3425               	retlw	37	;'%'
   431  183D  3400               	retlw	0
   432  183E                     STR_3:	
   433  183E  3454               	retlw	84	;'T'
   434  183F  3465               	retlw	101	;'e'
   435  1840  346D               	retlw	109	;'m'
   436  1841  3470               	retlw	112	;'p'
   437  1842  343A               	retlw	58	;':'
   438  1843  3420               	retlw	32	;' '
   439  1844  3420               	retlw	32	;' '
   440  1845  3420               	retlw	32	;' '
   441  1846  3420               	retlw	32	;' '
   442  1847  346F               	retlw	111	;'o'
   443  1848  3443               	retlw	67	;'C'
   444  1849  3400               	retlw	0
   445  183E                     
   446                           ; #config settings
   447  0000                     
   448                           	psect	cinit
   449  0013                     start_initialization:	
   450  0013                     __initialization:	
   451                           
   452                           ; Initialize objects allocated to BANK3
   453  0013  1683               	bsf	3,5	;RP0=1, select bank3
   454  0014  1703               	bsf	3,6	;RP1=1, select bank3
   455  0015  120A  118A  27FD   	fcall	__pidataBANK3	;fetch initializer
   456  0018  00EE               	movwf	__pdataBANK3& (0+127)
   457                           
   458                           ; Clear objects allocated to BANK3
   459  0019  01E7               	clrf	__pbssBANK3& (0+127)
   460  001A  01E8               	clrf	(__pbssBANK3+1)& (0+127)
   461  001B  01E9               	clrf	(__pbssBANK3+2)& (0+127)
   462  001C  01EA               	clrf	(__pbssBANK3+3)& (0+127)
   463  001D  01EB               	clrf	(__pbssBANK3+4)& (0+127)
   464  001E  01EC               	clrf	(__pbssBANK3+5)& (0+127)
   465  001F  01ED               	clrf	(__pbssBANK3+6)& (0+127)
   466                           
   467                           ; Clear objects allocated to BANK0
   468  0020  1283               	bcf	3,5	;RP0=0, select bank0
   469  0021  1303               	bcf	3,6	;RP1=0, select bank0
   470  0022  01E4               	clrf	__pbssBANK0& (0+127)
   471  0023  01E5               	clrf	(__pbssBANK0+1)& (0+127)
   472  0024                     end_of_initialization:	
   473                           ;End of C runtime variable initialization code
   474                           
   475  0024                     __end_of__initialization:	
   476  0024  0183               	clrf	3
   477  0025  120A  118A  2828   	ljmp	_main	;jump to C main() function
   478                           
   479                           	psect	bssBANK0
   480  0064                     __pbssBANK0:	
   481  0064                     _duty:	
   482  0064                     	ds	2
   483                           
   484                           	psect	bssBANK3
   485  01E7                     __pbssBANK3:	
   486  01E7                     _sum_avg:	
   487  01E7                     	ds	2
   488  01E9                     _sum:	
   489  01E9                     	ds	2
   490  01EB                     _temp:	
   491  01EB                     	ds	2
   492  01ED                     _m:	
   493  01ED                     	ds	1
   494                           
   495                           	psect	dataBANK3
   496  01EE                     __pdataBANK3:	
   497  01EE                     _set_temp:	
   498  01EE                     	ds	1
   499                           
   500                           	psect	cstackBANK3
   501  0190                     __pcstackBANK3:	
   502  0190                     ?___fladd:	
   503  0190                     ___fladd@b:	
   504                           ; 4 bytes @ 0x0
   505                           
   506                           
   507                           ; 4 bytes @ 0x0
   508  0190                     	ds	4
   509  0194                     ___fladd@a:	
   510                           
   511                           ; 4 bytes @ 0x4
   512  0194                     	ds	4
   513  0198                     ??___fladd:	
   514                           
   515                           ; 1 bytes @ 0x8
   516  0198                     	ds	8
   517  01A0                     ?___flsub:	
   518  01A0                     ___flsub@a:	
   519                           ; 4 bytes @ 0x10
   520                           
   521                           
   522                           ; 4 bytes @ 0x10
   523  01A0                     	ds	4
   524  01A4                     ___flsub@b:	
   525                           
   526                           ; 4 bytes @ 0x14
   527  01A4                     	ds	4
   528  01A8                     ?___fltol:	
   529  01A8                     ___fltol@f1:	
   530                           ; 4 bytes @ 0x18
   531                           
   532                           
   533                           ; 4 bytes @ 0x18
   534  01A8                     	ds	4
   535  01AC                     ??___fltol:	
   536                           
   537                           ; 1 bytes @ 0x1C
   538  01AC                     	ds	5
   539  01B1                     ___fltol@sign1:	
   540                           
   541                           ; 1 bytes @ 0x21
   542  01B1                     	ds	1
   543  01B2                     ___fltol@exp1:	
   544                           
   545                           ; 1 bytes @ 0x22
   546  01B2                     	ds	1
   547  01B3                     ?_PID_Init:	
   548  01B3                     PID_Init@nhietdo:	
   549                           ; 2 bytes @ 0x23
   550                           
   551                           
   552                           ; 2 bytes @ 0x23
   553  01B3                     	ds	2
   554  01B5                     PID_Init@nhietdodat:	
   555                           
   556                           ; 2 bytes @ 0x25
   557  01B5                     	ds	2
   558  01B7                     _PID_Init$835:	
   559                           
   560                           ; 4 bytes @ 0x27
   561  01B7                     	ds	4
   562  01BB                     _PID_Init$836:	
   563                           
   564                           ; 4 bytes @ 0x2B
   565  01BB                     	ds	4
   566  01BF                     _PID_Init$834:	
   567                           
   568                           ; 4 bytes @ 0x2F
   569  01BF                     	ds	4
   570  01C3                     ??_main:	
   571                           
   572                           ; 1 bytes @ 0x33
   573  01C3                     	ds	4
   574  01C7                     _main$833:	
   575                           
   576                           ; 4 bytes @ 0x37
   577  01C7                     	ds	4
   578                           
   579                           	psect	cstackBANK1
   580  00A0                     __pcstackBANK1:	
   581  00A0                     ??_ADC_Init:	
   582  00A0                     ??_Timer1_Init:	
   583                           ; 1 bytes @ 0x0
   584                           
   585  00A0                     ??_Interrupt_Init:	
   586                           ; 1 bytes @ 0x0
   587                           
   588  00A0                     ??_Lcd_Port:	
   589                           ; 1 bytes @ 0x0
   590                           
   591  00A0                     ?_Read_ADC:	
   592                           ; 1 bytes @ 0x0
   593                           
   594  00A0                     ?__Umul8_16:	
   595                           ; 2 bytes @ 0x0
   596                           
   597  00A0                     ?___awmod:	
   598                           ; 2 bytes @ 0x0
   599                           
   600  00A0                     ?___lmul:	
   601                           ; 2 bytes @ 0x0
   602                           
   603  00A0                     Lcd_Port@Data:	
   604                           ; 4 bytes @ 0x0
   605                           
   606  00A0                     __Umul8_16@multiplicand:	
   607                           ; 1 bytes @ 0x0
   608                           
   609  00A0                     ___awmod@divisor:	
   610                           ; 1 bytes @ 0x0
   611                           
   612  00A0                     ___lmul@multiplier:	
   613                           ; 2 bytes @ 0x0
   614                           
   615                           
   616                           ; 4 bytes @ 0x0
   617  00A0                     	ds	1
   618  00A1                     ??_Lcd_Write_Char:	
   619  00A1                     ??_Lcd_Cmd:	
   620                           ; 1 bytes @ 0x1
   621                           
   622                           
   623                           ; 1 bytes @ 0x1
   624  00A1                     	ds	1
   625  00A2                     ??_Read_ADC:	
   626  00A2                     ??__Umul8_16:	
   627                           ; 1 bytes @ 0x2
   628                           
   629  00A2                     ___awmod@dividend:	
   630                           ; 1 bytes @ 0x2
   631                           
   632                           
   633                           ; 2 bytes @ 0x2
   634  00A2                     	ds	1
   635  00A3                     Lcd_Cmd@CMD:	
   636  00A3                     Lcd_Write_Char@Low4:	
   637                           ; 1 bytes @ 0x3
   638                           
   639                           
   640                           ; 1 bytes @ 0x3
   641  00A3                     	ds	1
   642  00A4                     ??_Lcd_Init:	
   643  00A4                     ?_Lcd_Set_Cursor:	
   644                           ; 1 bytes @ 0x4
   645                           
   646  00A4                     ??_Lcd_Clear:	
   647                           ; 1 bytes @ 0x4
   648                           
   649  00A4                     ??___awmod:	
   650                           ; 1 bytes @ 0x4
   651                           
   652  00A4                     Lcd_Set_Cursor@c:	
   653                           ; 1 bytes @ 0x4
   654                           
   655  00A4                     Lcd_Write_Char@High4:	
   656                           ; 1 bytes @ 0x4
   657                           
   658  00A4                     __Umul8_16@product:	
   659                           ; 1 bytes @ 0x4
   660                           
   661  00A4                     ___lmul@multiplicand:	
   662                           ; 2 bytes @ 0x4
   663                           
   664                           
   665                           ; 4 bytes @ 0x4
   666  00A4                     	ds	1
   667  00A5                     ??_Lcd_Set_Cursor:	
   668  00A5                     Lcd_Write_Char@a:	
   669                           ; 1 bytes @ 0x5
   670                           
   671  00A5                     ___awmod@counter:	
   672                           ; 1 bytes @ 0x5
   673                           
   674                           
   675                           ; 1 bytes @ 0x5
   676  00A5                     	ds	1
   677  00A6                     ??_Lcd_Write_String:	
   678  00A6                     ___awmod@sign:	
   679                           ; 1 bytes @ 0x6
   680                           
   681  00A6                     Read_ADC@N:	
   682                           ; 1 bytes @ 0x6
   683                           
   684  00A6                     Lcd_Write_String@i:	
   685                           ; 2 bytes @ 0x6
   686                           
   687  00A6                     __Umul8_16@word_mpld:	
   688                           ; 2 bytes @ 0x6
   689                           
   690                           
   691                           ; 2 bytes @ 0x6
   692  00A6                     	ds	1
   693  00A7                     ?___awdiv:	
   694  00A7                     Lcd_Set_Cursor@r:	
   695                           ; 2 bytes @ 0x7
   696                           
   697  00A7                     ___awdiv@divisor:	
   698                           ; 1 bytes @ 0x7
   699                           
   700                           
   701                           ; 2 bytes @ 0x7
   702  00A7                     	ds	1
   703  00A8                     ??___lmul:	
   704  00A8                     Read_ADC@channel:	
   705                           ; 1 bytes @ 0x8
   706                           
   707  00A8                     Lcd_Set_Cursor@Low4:	
   708                           ; 1 bytes @ 0x8
   709                           
   710  00A8                     Lcd_Write_String@a:	
   711                           ; 1 bytes @ 0x8
   712                           
   713  00A8                     __Umul8_16@multiplier:	
   714                           ; 1 bytes @ 0x8
   715                           
   716                           
   717                           ; 1 bytes @ 0x8
   718  00A8                     	ds	1
   719  00A9                     ?___xxtofl:	
   720  00A9                     Lcd_Set_Cursor@High4:	
   721                           ; 4 bytes @ 0x9
   722                           
   723  00A9                     ___awdiv@dividend:	
   724                           ; 1 bytes @ 0x9
   725                           
   726  00A9                     ___lmul@product:	
   727                           ; 2 bytes @ 0x9
   728                           
   729  00A9                     ___xxtofl@val:	
   730                           ; 4 bytes @ 0x9
   731                           
   732                           
   733                           ; 4 bytes @ 0x9
   734  00A9                     	ds	1
   735  00AA                     Lcd_Set_Cursor@Temp:	
   736                           
   737                           ; 1 bytes @ 0xA
   738  00AA                     	ds	1
   739  00AB                     ??___awdiv:	
   740                           
   741                           ; 1 bytes @ 0xB
   742  00AB                     	ds	1
   743  00AC                     ___awdiv@counter:	
   744                           
   745                           ; 1 bytes @ 0xC
   746  00AC                     	ds	1
   747  00AD                     ??___xxtofl:	
   748  00AD                     ?___aldiv:	
   749                           ; 1 bytes @ 0xD
   750                           
   751  00AD                     ___awdiv@sign:	
   752                           ; 4 bytes @ 0xD
   753                           
   754  00AD                     ___aldiv@divisor:	
   755                           ; 1 bytes @ 0xD
   756                           
   757                           
   758                           ; 4 bytes @ 0xD
   759  00AD                     	ds	1
   760  00AE                     ___awdiv@quotient:	
   761                           
   762                           ; 2 bytes @ 0xE
   763  00AE                     	ds	2
   764  00B0                     ?_Display:	
   765  00B0                     Display@b:	
   766                           ; 1 bytes @ 0x10
   767                           
   768                           
   769                           ; 1 bytes @ 0x10
   770  00B0                     	ds	1
   771  00B1                     ??_Display:	
   772  00B1                     ___xxtofl@sign:	
   773                           ; 1 bytes @ 0x11
   774                           
   775  00B1                     ___aldiv@dividend:	
   776                           ; 1 bytes @ 0x11
   777                           
   778                           
   779                           ; 4 bytes @ 0x11
   780  00B1                     	ds	1
   781  00B2                     ___xxtofl@exp:	
   782                           
   783                           ; 1 bytes @ 0x12
   784  00B2                     	ds	1
   785  00B3                     Display@a:	
   786  00B3                     ___xxtofl@arg:	
   787                           ; 1 bytes @ 0x13
   788                           
   789                           
   790                           ; 4 bytes @ 0x13
   791  00B3                     	ds	2
   792  00B5                     ??___aldiv:	
   793                           
   794                           ; 1 bytes @ 0x15
   795  00B5                     	ds	1
   796  00B6                     ___aldiv@counter:	
   797                           
   798                           ; 1 bytes @ 0x16
   799  00B6                     	ds	1
   800  00B7                     ?___flmul:	
   801  00B7                     ___aldiv@sign:	
   802                           ; 4 bytes @ 0x17
   803                           
   804  00B7                     ___flmul@b:	
   805                           ; 1 bytes @ 0x17
   806                           
   807                           
   808                           ; 4 bytes @ 0x17
   809  00B7                     	ds	1
   810  00B8                     ___aldiv@quotient:	
   811                           
   812                           ; 4 bytes @ 0x18
   813  00B8                     	ds	3
   814  00BB                     ___flmul@a:	
   815                           
   816                           ; 4 bytes @ 0x1B
   817  00BB                     	ds	1
   818  00BC                     ?_map:	
   819  00BC                     map@x:	
   820                           ; 4 bytes @ 0x1C
   821                           
   822                           
   823                           ; 4 bytes @ 0x1C
   824  00BC                     	ds	3
   825  00BF                     ??___flmul:	
   826                           
   827                           ; 1 bytes @ 0x1F
   828  00BF                     	ds	1
   829  00C0                     map@in_min:	
   830                           
   831                           ; 4 bytes @ 0x20
   832  00C0                     	ds	4
   833  00C4                     ___flmul@sign:	
   834  00C4                     map@in_max:	
   835                           ; 1 bytes @ 0x24
   836                           
   837                           
   838                           ; 4 bytes @ 0x24
   839  00C4                     	ds	1
   840  00C5                     ___flmul@grs:	
   841                           
   842                           ; 4 bytes @ 0x25
   843  00C5                     	ds	3
   844  00C8                     map@out_min:	
   845                           
   846                           ; 4 bytes @ 0x28
   847  00C8                     	ds	1
   848  00C9                     ___flmul@aexp:	
   849                           
   850                           ; 1 bytes @ 0x29
   851  00C9                     	ds	1
   852  00CA                     ___flmul@bexp:	
   853                           
   854                           ; 1 bytes @ 0x2A
   855  00CA                     	ds	1
   856  00CB                     ___flmul@prod:	
   857                           
   858                           ; 4 bytes @ 0x2B
   859  00CB                     	ds	1
   860  00CC                     map@out_max:	
   861                           
   862                           ; 4 bytes @ 0x2C
   863  00CC                     	ds	3
   864  00CF                     ___flmul@temp:	
   865                           
   866                           ; 2 bytes @ 0x2F
   867  00CF                     	ds	1
   868  00D0                     ??_map:	
   869                           
   870                           ; 1 bytes @ 0x30
   871  00D0                     	ds	1
   872  00D1                     ?___fldiv:	
   873  00D1                     ___fldiv@a:	
   874                           ; 4 bytes @ 0x31
   875                           
   876                           
   877                           ; 4 bytes @ 0x31
   878  00D1                     	ds	4
   879  00D5                     ___fldiv@b:	
   880                           
   881                           ; 4 bytes @ 0x35
   882  00D5                     	ds	4
   883  00D9                     ??___fldiv:	
   884                           
   885                           ; 1 bytes @ 0x39
   886  00D9                     	ds	5
   887  00DE                     ___fldiv@rem:	
   888                           
   889                           ; 4 bytes @ 0x3E
   890  00DE                     	ds	2
   891  00E0                     ?___almod:	
   892  00E0                     ___almod@divisor:	
   893                           ; 4 bytes @ 0x40
   894                           
   895                           
   896                           ; 4 bytes @ 0x40
   897  00E0                     	ds	2
   898  00E2                     ___fldiv@sign:	
   899                           
   900                           ; 1 bytes @ 0x42
   901  00E2                     	ds	1
   902  00E3                     ___fldiv@new_exp:	
   903                           
   904                           ; 2 bytes @ 0x43
   905  00E3                     	ds	1
   906  00E4                     ___almod@dividend:	
   907                           
   908                           ; 4 bytes @ 0x44
   909  00E4                     	ds	1
   910  00E5                     ___fldiv@grs:	
   911                           
   912                           ; 4 bytes @ 0x45
   913  00E5                     	ds	3
   914  00E8                     ??___almod:	
   915                           
   916                           ; 1 bytes @ 0x48
   917  00E8                     	ds	1
   918  00E9                     ___almod@counter:	
   919  00E9                     ___fldiv@bexp:	
   920                           ; 1 bytes @ 0x49
   921                           
   922                           
   923                           ; 1 bytes @ 0x49
   924  00E9                     	ds	1
   925  00EA                     ___almod@sign:	
   926  00EA                     ___fldiv@aexp:	
   927                           ; 1 bytes @ 0x4A
   928                           
   929                           
   930                           ; 1 bytes @ 0x4A
   931  00EA                     	ds	1
   932  00EB                     ___fladd@signs:	
   933                           
   934                           ; 1 bytes @ 0x4B
   935  00EB                     	ds	1
   936  00EC                     ___fladd@aexp:	
   937                           
   938                           ; 1 bytes @ 0x4C
   939  00EC                     	ds	1
   940  00ED                     ___fladd@bexp:	
   941                           
   942                           ; 1 bytes @ 0x4D
   943  00ED                     	ds	1
   944  00EE                     ___fladd@grs:	
   945                           
   946                           ; 1 bytes @ 0x4E
   947  00EE                     	ds	1
   948  00EF                     ??_PID_Init:	
   949  00EF                     ??___flsub:	
   950                           ; 1 bytes @ 0x4F
   951                           
   952                           
   953                           	psect	cstackCOMMON
   954  0070                     __pcstackCOMMON:	
   955                           ; 1 bytes @ 0x4F
   956                           
   957  0070                     ?_Lcd_Init:	
   958  0070                     ?_ADC_Init:	
   959                           ; 1 bytes @ 0x0
   960                           
   961  0070                     ?_Timer1_Init:	
   962                           ; 1 bytes @ 0x0
   963                           
   964  0070                     ?_Interrupt_Init:	
   965                           ; 1 bytes @ 0x0
   966                           
   967  0070                     ?_Lcd_Write_String:	
   968                           ; 1 bytes @ 0x0
   969                           
   970  0070                     ?_Lcd_Clear:	
   971                           ; 1 bytes @ 0x0
   972                           
   973  0070                     ?_Lcd_Write_Char:	
   974                           ; 1 bytes @ 0x0
   975                           
   976  0070                     ?_main:	
   977                           ; 1 bytes @ 0x0
   978                           
   979  0070                     ?_My_interrupt:	
   980                           ; 1 bytes @ 0x0
   981                           
   982  0070                     ?_Lcd_Port:	
   983                           ; 1 bytes @ 0x0
   984                           
   985  0070                     ?_Lcd_Cmd:	
   986                           ; 1 bytes @ 0x0
   987                           
   988  0070                     ?i1___fladd:	
   989                           ; 1 bytes @ 0x0
   990                           
   991  0070                     ?i1___xxtofl:	
   992                           ; 4 bytes @ 0x0
   993                           
   994  0070                     i1___fladd@b:	
   995                           ; 4 bytes @ 0x0
   996                           
   997  0070                     i1___xxtofl@val:	
   998                           ; 4 bytes @ 0x0
   999                           
  1000                           
  1001                           ; 4 bytes @ 0x0
  1002  0070                     	ds	4
  1003  0074                     ??i1___xxtofl:	
  1004  0074                     i1___fladd@a:	
  1005                           ; 1 bytes @ 0x4
  1006                           
  1007                           
  1008                           ; 4 bytes @ 0x4
  1009  0074                     	ds	4
  1010  0078                     i1___fladd@signs:	
  1011  0078                     i1___xxtofl@sign:	
  1012                           ; 1 bytes @ 0x8
  1013                           
  1014                           
  1015                           ; 1 bytes @ 0x8
  1016  0078                     	ds	1
  1017  0079                     i1___fladd@aexp:	
  1018  0079                     i1___xxtofl@exp:	
  1019                           ; 1 bytes @ 0x9
  1020                           
  1021                           
  1022                           ; 1 bytes @ 0x9
  1023  0079                     	ds	1
  1024  007A                     i1___fladd@bexp:	
  1025  007A                     i1___xxtofl@arg:	
  1026                           ; 1 bytes @ 0xA
  1027                           
  1028                           
  1029                           ; 4 bytes @ 0xA
  1030  007A                     	ds	1
  1031  007B                     i1___fladd@grs:	
  1032                           
  1033                           ; 1 bytes @ 0xB
  1034  007B                     	ds	3
  1035  007E                     ??i1___flsub:	
  1036                           
  1037                           	psect	cstackBANK0
  1038  0020                     __pcstackBANK0:	
  1039                           ; 1 bytes @ 0xE
  1040                           
  1041  0020                     ??i1___fladd:	
  1042  0020                     ?i1___fldiv:	
  1043                           ; 1 bytes @ 0x0
  1044                           
  1045  0020                     i1___fldiv@a:	
  1046                           ; 4 bytes @ 0x0
  1047                           
  1048                           
  1049                           ; 4 bytes @ 0x0
  1050  0020                     	ds	4
  1051  0024                     i1___fldiv@b:	
  1052                           
  1053                           ; 4 bytes @ 0x4
  1054  0024                     	ds	4
  1055  0028                     ??i1___fldiv:	
  1056                           
  1057                           ; 1 bytes @ 0x8
  1058  0028                     	ds	5
  1059  002D                     i1___fldiv@rem:	
  1060                           
  1061                           ; 4 bytes @ 0xD
  1062  002D                     	ds	4
  1063  0031                     i1___fldiv@sign:	
  1064                           
  1065                           ; 1 bytes @ 0x11
  1066  0031                     	ds	1
  1067  0032                     i1___fldiv@new_exp:	
  1068                           
  1069                           ; 2 bytes @ 0x12
  1070  0032                     	ds	2
  1071  0034                     i1___fldiv@grs:	
  1072                           
  1073                           ; 4 bytes @ 0x14
  1074  0034                     	ds	4
  1075  0038                     i1___fldiv@bexp:	
  1076                           
  1077                           ; 1 bytes @ 0x18
  1078  0038                     	ds	1
  1079  0039                     i1___fldiv@aexp:	
  1080                           
  1081                           ; 1 bytes @ 0x19
  1082  0039                     	ds	1
  1083  003A                     ?i1___flsub:	
  1084  003A                     i1___flsub@a:	
  1085                           ; 4 bytes @ 0x1A
  1086                           
  1087                           
  1088                           ; 4 bytes @ 0x1A
  1089  003A                     	ds	4
  1090  003E                     i1___flsub@b:	
  1091                           
  1092                           ; 4 bytes @ 0x1E
  1093  003E                     	ds	4
  1094  0042                     ?i1___fltol:	
  1095  0042                     i1___fltol@f1:	
  1096                           ; 4 bytes @ 0x22
  1097                           
  1098                           
  1099                           ; 4 bytes @ 0x22
  1100  0042                     	ds	4
  1101  0046                     ??i1___fltol:	
  1102                           
  1103                           ; 1 bytes @ 0x26
  1104  0046                     	ds	5
  1105  004B                     i1___fltol@sign1:	
  1106                           
  1107                           ; 1 bytes @ 0x2B
  1108  004B                     	ds	1
  1109  004C                     i1___fltol@exp1:	
  1110                           
  1111                           ; 1 bytes @ 0x2C
  1112  004C                     	ds	1
  1113  004D                     ??_My_interrupt:	
  1114                           
  1115                           ; 1 bytes @ 0x2D
  1116  004D                     	ds	3
  1117                           
  1118                           	psect	maintext
  1119  0028                     __pmaintext:	
  1120 ;;
  1121 ;;Main: autosize = 0, tempsize = 4, incstack = 0, save=0
  1122 ;;
  1123 ;; *************** function _main *****************
  1124 ;; Defined at:
  1125 ;;		line 35 in file "deadline.c"
  1126 ;; Parameters:    Size  Location     Type
  1127 ;;		None
  1128 ;; Auto vars:     Size  Location     Type
  1129 ;;		None
  1130 ;; Return value:  Size  Location     Type
  1131 ;;                  1    wreg      void 
  1132 ;; Registers used:
  1133 ;;		wreg, fsr0l, fsr0h, status,2, status,0, btemp+1, pclath, cstack
  1134 ;; Tracked objects:
  1135 ;;		On entry : B00/0
  1136 ;;		On exit  : 0/0
  1137 ;;		Unchanged: 0/0
  1138 ;; Data sizes:     COMMON   BANK0   BANK1   BANK3   BANK2
  1139 ;;      Params:         0       0       0       0       0
  1140 ;;      Locals:         0       0       0       4       0
  1141 ;;      Temps:          0       0       0       4       0
  1142 ;;      Totals:         0       0       0       8       0
  1143 ;;Total ram usage:        8 bytes
  1144 ;; Hardware stack levels required when called:    7
  1145 ;; This function calls:
  1146 ;;		_ADC_Init
  1147 ;;		_Display
  1148 ;;		_Interrupt_Init
  1149 ;;		_Lcd_Clear
  1150 ;;		_Lcd_Init
  1151 ;;		_Lcd_Set_Cursor
  1152 ;;		_Lcd_Write_Char
  1153 ;;		_Lcd_Write_String
  1154 ;;		_PID_Init
  1155 ;;		_Read_ADC
  1156 ;;		_Timer1_Init
  1157 ;;		___aldiv
  1158 ;;		___almod
  1159 ;;		___awdiv
  1160 ;;		___awmod
  1161 ;;		___fladd
  1162 ;;		___flmul
  1163 ;;		___fltol
  1164 ;;		___xxtofl
  1165 ;;		_map
  1166 ;; This function is called by:
  1167 ;;		Startup code after reset
  1168 ;; This function uses a non-reentrant model
  1169 ;;
  1170                           
  1171                           
  1172                           ;psect for function _main
  1173  0028                     _main:	
  1174                           
  1175                           ;deadline.c: 38:  T = 0.5;
  1176                           
  1177                           ;incstack = 0
  1178                           ; Regs used in _main: [wreg-fsr0h+status,2+status,0+btemp+1+pclath+cstack]
  1179  0028  303F               	movlw	63
  1180  0029  1683               	bsf	3,5	;RP0=1, select bank3
  1181  002A  1703               	bsf	3,6	;RP1=1, select bank3
  1182  002B  00DE               	movwf	(_T+3)^(0+384)
  1183  002C  3000               	movlw	0
  1184  002D  00DD               	movwf	(_T+2)^(0+384)
  1185  002E  3000               	movlw	0
  1186  002F  00DC               	movwf	(_T+1)^(0+384)
  1187  0030  3000               	movlw	0
  1188  0031  00DB               	movwf	_T^(0+384)
  1189                           
  1190                           ;deadline.c: 39:  Kp = 100;
  1191  0032  3042               	movlw	66
  1192  0033  00DA               	movwf	(_Kp+3)^(0+384)
  1193  0034  30C8               	movlw	200
  1194  0035  00D9               	movwf	(_Kp+2)^(0+384)
  1195  0036  3000               	movlw	0
  1196  0037  00D8               	movwf	(_Kp+1)^(0+384)
  1197  0038  3000               	movlw	0
  1198  0039  00D7               	movwf	_Kp^(0+384)
  1199                           
  1200                           ;deadline.c: 40:  Ki = 0.0002151;
  1201  003A  3039               	movlw	57
  1202  003B  00D6               	movwf	(_Ki+3)^(0+384)
  1203  003C  3061               	movlw	97
  1204  003D  00D5               	movwf	(_Ki+2)^(0+384)
  1205  003E  308C               	movlw	140
  1206  003F  00D4               	movwf	(_Ki+1)^(0+384)
  1207  0040  3077               	movlw	119
  1208  0041  00D3               	movwf	_Ki^(0+384)
  1209                           
  1210                           ;deadline.c: 41:  Kd = 0;
  1211  0042  3000               	movlw	0
  1212  0043  00D2               	movwf	(_Kd+3)^(0+384)
  1213  0044  3000               	movlw	0
  1214  0045  00D1               	movwf	(_Kd+2)^(0+384)
  1215  0046  3000               	movlw	0
  1216  0047  00D0               	movwf	(_Kd+1)^(0+384)
  1217  0048  3000               	movlw	0
  1218  0049  00CF               	movwf	_Kd^(0+384)
  1219                           
  1220                           ;deadline.c: 42:  E = E1 = E2 = 0;
  1221  004A  3000               	movlw	0
  1222  004B  1283               	bcf	3,5	;RP0=0, select bank0
  1223  004C  1303               	bcf	3,6	;RP1=0, select bank0
  1224  004D  00E3               	movwf	_E2+3
  1225  004E  3000               	movlw	0
  1226  004F  00E2               	movwf	_E2+2
  1227  0050  3000               	movlw	0
  1228  0051  00E1               	movwf	_E2+1
  1229  0052  3000               	movlw	0
  1230  0053  00E0               	movwf	_E2
  1231  0054  0863               	movf	_E2+3,w
  1232  0055  1683               	bsf	3,5	;RP0=1, select bank3
  1233  0056  1703               	bsf	3,6	;RP1=1, select bank3
  1234  0057  00E2               	movwf	(_E1+3)^(0+384)
  1235  0058  1283               	bcf	3,5	;RP0=0, select bank0
  1236  0059  1303               	bcf	3,6	;RP1=0, select bank0
  1237  005A  0862               	movf	_E2+2,w
  1238  005B  1683               	bsf	3,5	;RP0=1, select bank3
  1239  005C  1703               	bsf	3,6	;RP1=1, select bank3
  1240  005D  00E1               	movwf	(_E1+2)^(0+384)
  1241  005E  1283               	bcf	3,5	;RP0=0, select bank0
  1242  005F  1303               	bcf	3,6	;RP1=0, select bank0
  1243  0060  0861               	movf	_E2+1,w
  1244  0061  1683               	bsf	3,5	;RP0=1, select bank3
  1245  0062  1703               	bsf	3,6	;RP1=1, select bank3
  1246  0063  00E0               	movwf	(_E1+1)^(0+384)
  1247  0064  1283               	bcf	3,5	;RP0=0, select bank0
  1248  0065  1303               	bcf	3,6	;RP1=0, select bank0
  1249  0066  0860               	movf	_E2,w
  1250  0067  1683               	bsf	3,5	;RP0=1, select bank3
  1251  0068  1703               	bsf	3,6	;RP1=1, select bank3
  1252  0069  00DF               	movwf	_E1^(0+384)
  1253  006A  0862               	movf	(_E1+3)^(0+384),w
  1254  006B  00E6               	movwf	(_E+3)^(0+384)
  1255  006C  0861               	movf	(_E1+2)^(0+384),w
  1256  006D  00E5               	movwf	(_E+2)^(0+384)
  1257  006E  0860               	movf	(_E1+1)^(0+384),w
  1258  006F  00E4               	movwf	(_E+1)^(0+384)
  1259  0070  085F               	movf	_E1^(0+384),w
  1260  0071  00E3               	movwf	_E^(0+384)
  1261                           
  1262                           ;deadline.c: 43:  a1 = a2 = a3 = 0;
  1263  0072  3000               	movlw	0
  1264  0073  1283               	bcf	3,5	;RP0=0, select bank0
  1265  0074  1303               	bcf	3,6	;RP1=0, select bank0
  1266  0075  00D7               	movwf	_a3+3
  1267  0076  3000               	movlw	0
  1268  0077  00D6               	movwf	_a3+2
  1269  0078  3000               	movlw	0
  1270  0079  00D5               	movwf	_a3+1
  1271  007A  3000               	movlw	0
  1272  007B  00D4               	movwf	_a3
  1273  007C  0857               	movf	_a3+3,w
  1274  007D  00DB               	movwf	_a2+3
  1275  007E  0856               	movf	_a3+2,w
  1276  007F  00DA               	movwf	_a2+2
  1277  0080  0855               	movf	_a3+1,w
  1278  0081  00D9               	movwf	_a2+1
  1279  0082  0854               	movf	_a3,w
  1280  0083  00D8               	movwf	_a2
  1281  0084  085B               	movf	_a2+3,w
  1282  0085  00DF               	movwf	_a1+3
  1283  0086  085A               	movf	_a2+2,w
  1284  0087  00DE               	movwf	_a1+2
  1285  0088  0859               	movf	_a2+1,w
  1286  0089  00DD               	movwf	_a1+1
  1287  008A  0858               	movf	_a2,w
  1288  008B  00DC               	movwf	_a1
  1289                           
  1290                           ;deadline.c: 44:  out = pre_out = 0;
  1291  008C  3000               	movlw	0
  1292  008D  00D3               	movwf	_pre_out+3
  1293  008E  3000               	movlw	0
  1294  008F  00D2               	movwf	_pre_out+2
  1295  0090  3000               	movlw	0
  1296  0091  00D1               	movwf	_pre_out+1
  1297  0092  3000               	movlw	0
  1298  0093  00D0               	movwf	_pre_out
  1299  0094  0853               	movf	_pre_out+3,w
  1300  0095  1683               	bsf	3,5	;RP0=1, select bank3
  1301  0096  1703               	bsf	3,6	;RP1=1, select bank3
  1302  0097  00CE               	movwf	(_out+3)^(0+384)
  1303  0098  1283               	bcf	3,5	;RP0=0, select bank0
  1304  0099  1303               	bcf	3,6	;RP1=0, select bank0
  1305  009A  0852               	movf	_pre_out+2,w
  1306  009B  1683               	bsf	3,5	;RP0=1, select bank3
  1307  009C  1703               	bsf	3,6	;RP1=1, select bank3
  1308  009D  00CD               	movwf	(_out+2)^(0+384)
  1309  009E  1283               	bcf	3,5	;RP0=0, select bank0
  1310  009F  1303               	bcf	3,6	;RP1=0, select bank0
  1311  00A0  0851               	movf	_pre_out+1,w
  1312  00A1  1683               	bsf	3,5	;RP0=1, select bank3
  1313  00A2  1703               	bsf	3,6	;RP1=1, select bank3
  1314  00A3  00CC               	movwf	(_out+1)^(0+384)
  1315  00A4  1283               	bcf	3,5	;RP0=0, select bank0
  1316  00A5  1303               	bcf	3,6	;RP1=0, select bank0
  1317  00A6  0850               	movf	_pre_out,w
  1318  00A7  1683               	bsf	3,5	;RP0=1, select bank3
  1319  00A8  1703               	bsf	3,6	;RP1=1, select bank3
  1320  00A9  00CB               	movwf	_out^(0+384)
  1321                           
  1322                           ;deadline.c: 46:     TRISA0 = 1;
  1323  00AA  1683               	bsf	3,5	;RP0=1, select bank1
  1324  00AB  1303               	bcf	3,6	;RP1=0, select bank1
  1325  00AC  1405               	bsf	5,0	;volatile
  1326                           
  1327                           ;deadline.c: 47:     TRISA1 = 1;
  1328  00AD  1485               	bsf	5,1	;volatile
  1329                           
  1330                           ;deadline.c: 48:     TRISB0 = 1;
  1331  00AE  1406               	bsf	6,0	;volatile
  1332                           
  1333                           ;deadline.c: 49:     TRISB1 = 0;
  1334  00AF  1086               	bcf	6,1	;volatile
  1335                           
  1336                           ;deadline.c: 50:     TRISC0 = 1;
  1337  00B0  1407               	bsf	7,0	;volatile
  1338                           
  1339                           ;deadline.c: 51:     TRISC1 = 1;
  1340  00B1  1487               	bsf	7,1	;volatile
  1341                           
  1342                           ;deadline.c: 52:     TRISC2 = 1;
  1343  00B2  1507               	bsf	7,2	;volatile
  1344                           
  1345                           ;deadline.c: 54:     RD6 = 1;
  1346  00B3  1283               	bcf	3,5	;RP0=0, select bank0
  1347  00B4  1303               	bcf	3,6	;RP1=0, select bank0
  1348  00B5  1708               	bsf	8,6	;volatile
  1349                           
  1350                           ;deadline.c: 55:     RD7 = 1;
  1351  00B6  1788               	bsf	8,7	;volatile
  1352                           
  1353                           ;deadline.c: 56:     RB1 = 0;
  1354  00B7  1086               	bcf	6,1	;volatile
  1355                           
  1356                           ;deadline.c: 58:     Lcd_Init();
  1357  00B8  160A  158A  249E  120A  118A  	fcall	_Lcd_Init
  1358                           
  1359                           ;deadline.c: 59:     ADC_Init();
  1360  00BD  160A  158A  21AA  120A  118A  	fcall	_ADC_Init
  1361                           
  1362                           ;deadline.c: 60:     Timer1_Init();
  1363  00C2  160A  158A  219A  120A  118A  	fcall	_Timer1_Init
  1364                           
  1365                           ;deadline.c: 61:     Interrupt_Init();
  1366  00C7  160A  158A  2188  120A  118A  	fcall	_Interrupt_Init
  1367                           
  1368                           ;deadline.c: 63:     Lcd_Set_Cursor(1,1);
  1369  00CC  1683               	bsf	3,5	;RP0=1, select bank1
  1370  00CD  1303               	bcf	3,6	;RP1=0, select bank1
  1371  00CE  01A4               	clrf	Lcd_Set_Cursor@c^(0+128)
  1372  00CF  0AA4               	incf	Lcd_Set_Cursor@c^(0+128),f
  1373  00D0  3001               	movlw	1
  1374  00D1  160A  158A  232C  120A  118A  	fcall	_Lcd_Set_Cursor
  1375                           
  1376                           ;deadline.c: 64:     Lcd_Write_String("1. TEST MODE");
  1377  00D6  3020               	movlw	(low ((STR_1-__stringbase)| (0+32768)))& (0+255)
  1378  00D7  160A  158A  224A  120A  118A  	fcall	_Lcd_Write_String
  1379                           
  1380                           ;deadline.c: 65:     Lcd_Set_Cursor(2,1);
  1381  00DC  1683               	bsf	3,5	;RP0=1, select bank1
  1382  00DD  1303               	bcf	3,6	;RP1=0, select bank1
  1383  00DE  01A4               	clrf	Lcd_Set_Cursor@c^(0+128)
  1384  00DF  0AA4               	incf	Lcd_Set_Cursor@c^(0+128),f
  1385  00E0  3002               	movlw	2
  1386  00E1  160A  158A  232C  120A  118A  	fcall	_Lcd_Set_Cursor
  1387                           
  1388                           ;deadline.c: 66:     Lcd_Write_String("2. NORMAL MODE");
  1389  00E6  3011               	movlw	(low ((STR_2-__stringbase)| (0+32768)))& (0+255)
  1390  00E7  160A  158A  224A  120A  118A  	fcall	_Lcd_Write_String
  1391  00EC                     l3804:	
  1392                           
  1393                           ;deadline.c: 68:     {;deadline.c: 69:         if(RC1 == 0)
  1394  00EC  1283               	bcf	3,5	;RP0=0, select bank0
  1395  00ED  1303               	bcf	3,6	;RP1=0, select bank0
  1396  00EE  1887               	btfsc	7,1	;volatile
  1397  00EF  2C8C               	goto	l156
  1398                           
  1399                           ;deadline.c: 70:         {;deadline.c: 71:             _delay((unsigned long)((10)*(2000
      +                          0000/4000.0)));
  1400  00F0  3041               	movlw	65
  1401  00F1  1683               	bsf	3,5	;RP0=1, select bank3
  1402  00F2  1703               	bsf	3,6	;RP1=1, select bank3
  1403  00F3  00C4               	movwf	(??_main^(0+384)+1)
  1404  00F4  30ED               	movlw	237
  1405  00F5  00C3               	movwf	??_main^(0+384)
  1406  00F6                     u6657:	
  1407  00F6  0BC3               	decfsz	??_main^(0+384),f
  1408  00F7  28F6               	goto	u6657
  1409  00F8  0BC4               	decfsz	(??_main^(0+384)+1),f
  1410  00F9  28F6               	goto	u6657
  1411  00FA  28FB               	nop2
  1412                           
  1413                           ;deadline.c: 72:             if(RC1 == 0)
  1414  00FB  1283               	bcf	3,5	;RP0=0, select bank0
  1415  00FC  1303               	bcf	3,6	;RP1=0, select bank0
  1416  00FD  1887               	btfsc	7,1	;volatile
  1417  00FE  2C8C               	goto	l156
  1418                           
  1419                           ;deadline.c: 73:             {;deadline.c: 74:                 _delay((unsigned long)((1
      +                          0)*(20000000/4000.0)));
  1420  00FF  3041               	movlw	65
  1421  0100  1683               	bsf	3,5	;RP0=1, select bank3
  1422  0101  1703               	bsf	3,6	;RP1=1, select bank3
  1423  0102  00C4               	movwf	(??_main^(0+384)+1)
  1424  0103  30ED               	movlw	237
  1425  0104  00C3               	movwf	??_main^(0+384)
  1426  0105                     u6667:	
  1427  0105  0BC3               	decfsz	??_main^(0+384),f
  1428  0106  2905               	goto	u6667
  1429  0107  0BC4               	decfsz	(??_main^(0+384)+1),f
  1430  0108  2905               	goto	u6667
  1431  0109  290A               	nop2
  1432  010A                     l158:	
  1433                           ;deadline.c: 75:                 while(RC1 == 0);
  1434                           
  1435  010A  1283               	bcf	3,5	;RP0=0, select bank0
  1436  010B  1303               	bcf	3,6	;RP1=0, select bank0
  1437  010C  1C87               	btfss	7,1	;volatile
  1438  010D  290A               	goto	l158
  1439  010E                     l161:	
  1440                           ;deadline.c: 77:                 mode1:;
  1441                           
  1442                           
  1443                           ;deadline.c: 78:                 RD6 = 0;
  1444  010E  1308               	bcf	8,6	;volatile
  1445                           
  1446                           ;deadline.c: 79:                 RD7 = 1;
  1447  010F  1788               	bsf	8,7	;volatile
  1448                           
  1449                           ;deadline.c: 80:                 INTE = 1;
  1450  0110  160B               	bsf	11,4	;volatile
  1451                           
  1452                           ;deadline.c: 81:                 Lcd_Clear();
  1453  0111  160A  158A  218F  120A  118A  	fcall	_Lcd_Clear
  1454                           
  1455                           ;deadline.c: 82:                 Lcd_Set_Cursor(1,1);
  1456  0116  1683               	bsf	3,5	;RP0=1, select bank1
  1457  0117  1303               	bcf	3,6	;RP1=0, select bank1
  1458  0118  01A4               	clrf	Lcd_Set_Cursor@c^(0+128)
  1459  0119  0AA4               	incf	Lcd_Set_Cursor@c^(0+128),f
  1460  011A  3001               	movlw	1
  1461  011B  160A  158A  232C  120A  118A  	fcall	_Lcd_Set_Cursor
  1462                           
  1463                           ;deadline.c: 83:                 Lcd_Write_String("Temp:    oC");
  1464  0120  3039               	movlw	(low ((STR_3-__stringbase)| (0+32768)))& (0+255)
  1465  0121  160A  158A  224A  120A  118A  	fcall	_Lcd_Write_String
  1466                           
  1467                           ;deadline.c: 84:                 Lcd_Set_Cursor(2,1);
  1468  0126  1683               	bsf	3,5	;RP0=1, select bank1
  1469  0127  1303               	bcf	3,6	;RP1=0, select bank1
  1470  0128  01A4               	clrf	Lcd_Set_Cursor@c^(0+128)
  1471  0129  0AA4               	incf	Lcd_Set_Cursor@c^(0+128),f
  1472  012A  3002               	movlw	2
  1473  012B  160A  158A  232C  120A  118A  	fcall	_Lcd_Set_Cursor
  1474                           
  1475                           ;deadline.c: 85:                 Lcd_Write_String("Duty:     %");
  1476  0130  302D               	movlw	(low ((STR_4-__stringbase)| (0+32768)))& (0+255)
  1477  0131  160A  158A  224A  120A  118A  	fcall	_Lcd_Write_String
  1478  0136                     l3818:	
  1479                           
  1480                           ;deadline.c: 87:                 {;deadline.c: 88:                     temp = Read_ADC(0
      +                          )*0.488f+0.5f;
  1481  0136  3000               	movlw	0
  1482  0137  120A  158A  2005  120A  118A  	fcall	_Read_ADC
  1483  013C  1683               	bsf	3,5	;RP0=1, select bank1
  1484  013D  1303               	bcf	3,6	;RP1=0, select bank1
  1485  013E  0820               	movf	?_Read_ADC^(0+128),w
  1486  013F  1683               	bsf	3,5	;RP0=1, select bank3
  1487  0140  1703               	bsf	3,6	;RP1=1, select bank3
  1488  0141  00C3               	movwf	??_main^(0+384)
  1489  0142  1683               	bsf	3,5	;RP0=1, select bank1
  1490  0143  1303               	bcf	3,6	;RP1=0, select bank1
  1491  0144  0821               	movf	(?_Read_ADC+1)^(0+128),w
  1492  0145  1683               	bsf	3,5	;RP0=1, select bank3
  1493  0146  1703               	bsf	3,6	;RP1=1, select bank3
  1494  0147  00C4               	movwf	(??_main^(0+384)+1)
  1495  0148  01C5               	clrf	(??_main^(0+384)+2)
  1496  0149  01C6               	clrf	(??_main^(0+384)+3)
  1497  014A  0846               	movf	(??_main+3)^(0+384),w
  1498  014B  1683               	bsf	3,5	;RP0=1, select bank1
  1499  014C  1303               	bcf	3,6	;RP1=0, select bank1
  1500  014D  00AC               	movwf	(___xxtofl@val+3)^(0+128)
  1501  014E  1683               	bsf	3,5	;RP0=1, select bank3
  1502  014F  1703               	bsf	3,6	;RP1=1, select bank3
  1503  0150  0845               	movf	(??_main+2)^(0+384),w
  1504  0151  1683               	bsf	3,5	;RP0=1, select bank1
  1505  0152  1303               	bcf	3,6	;RP1=0, select bank1
  1506  0153  00AB               	movwf	(___xxtofl@val+2)^(0+128)
  1507  0154  1683               	bsf	3,5	;RP0=1, select bank3
  1508  0155  1703               	bsf	3,6	;RP1=1, select bank3
  1509  0156  0844               	movf	(??_main+1)^(0+384),w
  1510  0157  1683               	bsf	3,5	;RP0=1, select bank1
  1511  0158  1303               	bcf	3,6	;RP1=0, select bank1
  1512  0159  00AA               	movwf	(___xxtofl@val+1)^(0+128)
  1513  015A  1683               	bsf	3,5	;RP0=1, select bank3
  1514  015B  1703               	bsf	3,6	;RP1=1, select bank3
  1515  015C  0843               	movf	??_main^(0+384),w
  1516  015D  1683               	bsf	3,5	;RP0=1, select bank1
  1517  015E  1303               	bcf	3,6	;RP1=0, select bank1
  1518  015F  00A9               	movwf	___xxtofl@val^(0+128)
  1519  0160  3000               	movlw	0
  1520  0161  120A  158A  2047  120A  118A  	fcall	___xxtofl
  1521  0166  1683               	bsf	3,5	;RP0=1, select bank1
  1522  0167  1303               	bcf	3,6	;RP1=0, select bank1
  1523  0168  082C               	movf	(?___xxtofl+3)^(0+128),w
  1524  0169  00BE               	movwf	(___flmul@a+3)^(0+128)
  1525  016A  082B               	movf	(?___xxtofl+2)^(0+128),w
  1526  016B  00BD               	movwf	(___flmul@a+2)^(0+128)
  1527  016C  082A               	movf	(?___xxtofl+1)^(0+128),w
  1528  016D  00BC               	movwf	(___flmul@a+1)^(0+128)
  1529  016E  0829               	movf	?___xxtofl^(0+128),w
  1530  016F  00BB               	movwf	___flmul@a^(0+128)
  1531  0170  303E               	movlw	62
  1532  0171  00BA               	movwf	(___flmul@b+3)^(0+128)
  1533  0172  30F9               	movlw	249
  1534  0173  00B9               	movwf	(___flmul@b+2)^(0+128)
  1535  0174  30DB               	movlw	219
  1536  0175  00B8               	movwf	(___flmul@b+1)^(0+128)
  1537  0176  3023               	movlw	35
  1538  0177  00B7               	movwf	___flmul@b^(0+128)
  1539  0178  120A  158A  20EC  120A  118A  	fcall	___flmul
  1540  017D  1683               	bsf	3,5	;RP0=1, select bank1
  1541  017E  1303               	bcf	3,6	;RP1=0, select bank1
  1542  017F  083A               	movf	(?___flmul+3)^(0+128),w
  1543  0180  1683               	bsf	3,5	;RP0=1, select bank3
  1544  0181  1703               	bsf	3,6	;RP1=1, select bank3
  1545  0182  0097               	movwf	(___fladd@a+3)^(0+384)
  1546  0183  1683               	bsf	3,5	;RP0=1, select bank1
  1547  0184  1303               	bcf	3,6	;RP1=0, select bank1
  1548  0185  0839               	movf	(?___flmul+2)^(0+128),w
  1549  0186  1683               	bsf	3,5	;RP0=1, select bank3
  1550  0187  1703               	bsf	3,6	;RP1=1, select bank3
  1551  0188  0096               	movwf	(___fladd@a+2)^(0+384)
  1552  0189  1683               	bsf	3,5	;RP0=1, select bank1
  1553  018A  1303               	bcf	3,6	;RP1=0, select bank1
  1554  018B  0838               	movf	(?___flmul+1)^(0+128),w
  1555  018C  1683               	bsf	3,5	;RP0=1, select bank3
  1556  018D  1703               	bsf	3,6	;RP1=1, select bank3
  1557  018E  0095               	movwf	(___fladd@a+1)^(0+384)
  1558  018F  1683               	bsf	3,5	;RP0=1, select bank1
  1559  0190  1303               	bcf	3,6	;RP1=0, select bank1
  1560  0191  0837               	movf	?___flmul^(0+128),w
  1561  0192  1683               	bsf	3,5	;RP0=1, select bank3
  1562  0193  1703               	bsf	3,6	;RP1=1, select bank3
  1563  0194  0094               	movwf	___fladd@a^(0+384)
  1564  0195  303F               	movlw	63
  1565  0196  0093               	movwf	(___fladd@b+3)^(0+384)
  1566  0197  3000               	movlw	0
  1567  0198  0092               	movwf	(___fladd@b+2)^(0+384)
  1568  0199  3000               	movlw	0
  1569  019A  0091               	movwf	(___fladd@b+1)^(0+384)
  1570  019B  3000               	movlw	0
  1571  019C  0090               	movwf	___fladd@b^(0+384)
  1572  019D  160A  118A  2516  120A  118A  	fcall	___fladd
  1573  01A2  1683               	bsf	3,5	;RP0=1, select bank3
  1574  01A3  1703               	bsf	3,6	;RP1=1, select bank3
  1575  01A4  0813               	movf	(?___fladd+3)^(0+384),w
  1576  01A5  00AB               	movwf	(___fltol@f1+3)^(0+384)
  1577  01A6  0812               	movf	(?___fladd+2)^(0+384),w
  1578  01A7  00AA               	movwf	(___fltol@f1+2)^(0+384)
  1579  01A8  0811               	movf	(?___fladd+1)^(0+384),w
  1580  01A9  00A9               	movwf	(___fltol@f1+1)^(0+384)
  1581  01AA  0810               	movf	?___fladd^(0+384),w
  1582  01AB  00A8               	movwf	___fltol@f1^(0+384)
  1583  01AC  160A  158A  2577  120A  118A  	fcall	___fltol
  1584  01B1  1683               	bsf	3,5	;RP0=1, select bank3
  1585  01B2  1703               	bsf	3,6	;RP1=1, select bank3
  1586  01B3  0829               	movf	(?___fltol+1)^(0+384),w
  1587  01B4  00EC               	movwf	(_temp+1)^(0+384)
  1588  01B5  0828               	movf	?___fltol^(0+384),w
  1589  01B6  00EB               	movwf	_temp^(0+384)
  1590                           
  1591                           ;deadline.c: 89:                     duty = map(Read_ADC(1),0,1023,0,8000);
  1592  01B7  3001               	movlw	1
  1593  01B8  120A  158A  2005  120A  118A  	fcall	_Read_ADC
  1594  01BD  1683               	bsf	3,5	;RP0=1, select bank1
  1595  01BE  1303               	bcf	3,6	;RP1=0, select bank1
  1596  01BF  0820               	movf	?_Read_ADC^(0+128),w
  1597  01C0  1683               	bsf	3,5	;RP0=1, select bank3
  1598  01C1  1703               	bsf	3,6	;RP1=1, select bank3
  1599  01C2  00C3               	movwf	??_main^(0+384)
  1600  01C3  1683               	bsf	3,5	;RP0=1, select bank1
  1601  01C4  1303               	bcf	3,6	;RP1=0, select bank1
  1602  01C5  0821               	movf	(?_Read_ADC+1)^(0+128),w
  1603  01C6  1683               	bsf	3,5	;RP0=1, select bank3
  1604  01C7  1703               	bsf	3,6	;RP1=1, select bank3
  1605  01C8  00C4               	movwf	(??_main^(0+384)+1)
  1606  01C9  01C5               	clrf	(??_main^(0+384)+2)
  1607  01CA  01C6               	clrf	(??_main^(0+384)+3)
  1608  01CB  0846               	movf	(??_main+3)^(0+384),w
  1609  01CC  1683               	bsf	3,5	;RP0=1, select bank1
  1610  01CD  1303               	bcf	3,6	;RP1=0, select bank1
  1611  01CE  00BF               	movwf	(map@x+3)^(0+128)
  1612  01CF  1683               	bsf	3,5	;RP0=1, select bank3
  1613  01D0  1703               	bsf	3,6	;RP1=1, select bank3
  1614  01D1  0845               	movf	(??_main+2)^(0+384),w
  1615  01D2  1683               	bsf	3,5	;RP0=1, select bank1
  1616  01D3  1303               	bcf	3,6	;RP1=0, select bank1
  1617  01D4  00BE               	movwf	(map@x+2)^(0+128)
  1618  01D5  1683               	bsf	3,5	;RP0=1, select bank3
  1619  01D6  1703               	bsf	3,6	;RP1=1, select bank3
  1620  01D7  0844               	movf	(??_main+1)^(0+384),w
  1621  01D8  1683               	bsf	3,5	;RP0=1, select bank1
  1622  01D9  1303               	bcf	3,6	;RP1=0, select bank1
  1623  01DA  00BD               	movwf	(map@x+1)^(0+128)
  1624  01DB  1683               	bsf	3,5	;RP0=1, select bank3
  1625  01DC  1703               	bsf	3,6	;RP1=1, select bank3
  1626  01DD  0843               	movf	??_main^(0+384),w
  1627  01DE  1683               	bsf	3,5	;RP0=1, select bank1
  1628  01DF  1303               	bcf	3,6	;RP1=0, select bank1
  1629  01E0  00BC               	movwf	map@x^(0+128)
  1630  01E1  3000               	movlw	0
  1631  01E2  00C3               	movwf	(map@in_min+3)^(0+128)
  1632  01E3  3000               	movlw	0
  1633  01E4  00C2               	movwf	(map@in_min+2)^(0+128)
  1634  01E5  3000               	movlw	0
  1635  01E6  00C1               	movwf	(map@in_min+1)^(0+128)
  1636  01E7  3000               	movlw	0
  1637  01E8  00C0               	movwf	map@in_min^(0+128)
  1638  01E9  3000               	movlw	0
  1639  01EA  00C7               	movwf	(map@in_max+3)^(0+128)
  1640  01EB  3000               	movlw	0
  1641  01EC  00C6               	movwf	(map@in_max+2)^(0+128)
  1642  01ED  3003               	movlw	3
  1643  01EE  00C5               	movwf	(map@in_max+1)^(0+128)
  1644  01EF  30FF               	movlw	255
  1645  01F0  00C4               	movwf	map@in_max^(0+128)
  1646  01F1  3000               	movlw	0
  1647  01F2  00CB               	movwf	(map@out_min+3)^(0+128)
  1648  01F3  3000               	movlw	0
  1649  01F4  00CA               	movwf	(map@out_min+2)^(0+128)
  1650  01F5  3000               	movlw	0
  1651  01F6  00C9               	movwf	(map@out_min+1)^(0+128)
  1652  01F7  3000               	movlw	0
  1653  01F8  00C8               	movwf	map@out_min^(0+128)
  1654  01F9  3000               	movlw	0
  1655  01FA  00CF               	movwf	(map@out_max+3)^(0+128)
  1656  01FB  3000               	movlw	0
  1657  01FC  00CE               	movwf	(map@out_max+2)^(0+128)
  1658  01FD  301F               	movlw	31
  1659  01FE  00CD               	movwf	(map@out_max+1)^(0+128)
  1660  01FF  3040               	movlw	64
  1661  0200  00CC               	movwf	map@out_max^(0+128)
  1662  0201  120A  118A  26C4  120A  118A  	fcall	_map
  1663  0206  1683               	bsf	3,5	;RP0=1, select bank1
  1664  0207  1303               	bcf	3,6	;RP1=0, select bank1
  1665  0208  083D               	movf	(?_map+1)^(0+128),w
  1666  0209  1283               	bcf	3,5	;RP0=0, select bank0
  1667  020A  1303               	bcf	3,6	;RP1=0, select bank0
  1668  020B  00E5               	movwf	_duty+1
  1669  020C  1683               	bsf	3,5	;RP0=1, select bank1
  1670  020D  1303               	bcf	3,6	;RP1=0, select bank1
  1671  020E  083C               	movf	?_map^(0+128),w
  1672  020F  1283               	bcf	3,5	;RP0=0, select bank0
  1673  0210  1303               	bcf	3,6	;RP1=0, select bank0
  1674  0211  00E4               	movwf	_duty
  1675                           
  1676                           ;deadline.c: 91:                     sum +=temp;
  1677  0212  1683               	bsf	3,5	;RP0=1, select bank3
  1678  0213  1703               	bsf	3,6	;RP1=1, select bank3
  1679  0214  086B               	movf	_temp^(0+384),w
  1680  0215  07E9               	addwf	_sum^(0+384),f
  1681  0216  1803               	skipnc
  1682  0217  0AEA               	incf	(_sum+1)^(0+384),f
  1683  0218  086C               	movf	(_temp+1)^(0+384),w
  1684  0219  07EA               	addwf	(_sum+1)^(0+384),f
  1685                           
  1686                           ;deadline.c: 92:                     if (m < 9) m++;
  1687  021A  3009               	movlw	9
  1688  021B  026D               	subwf	_m^(0+384),w
  1689  021C  1803               	skipnc
  1690  021D  2A23               	goto	l3828
  1691  021E  3001               	movlw	1
  1692  021F  00C3               	movwf	??_main^(0+384)
  1693  0220  0843               	movf	??_main^(0+384),w
  1694  0221  07ED               	addwf	_m^(0+384),f
  1695  0222  2A49               	goto	l164
  1696  0223                     l3828:	
  1697                           
  1698                           ;deadline.c: 94:                     {;deadline.c: 95:                         sum_avg =
      +                           sum / 10;
  1699  0223  300A               	movlw	10
  1700  0224  1683               	bsf	3,5	;RP0=1, select bank1
  1701  0225  1303               	bcf	3,6	;RP1=0, select bank1
  1702  0226  00A7               	movwf	___awdiv@divisor^(0+128)
  1703  0227  3000               	movlw	0
  1704  0228  00A8               	movwf	(___awdiv@divisor^(0+128)+1)
  1705  0229  1683               	bsf	3,5	;RP0=1, select bank3
  1706  022A  1703               	bsf	3,6	;RP1=1, select bank3
  1707  022B  086A               	movf	(_sum+1)^(0+384),w
  1708  022C  1683               	bsf	3,5	;RP0=1, select bank1
  1709  022D  1303               	bcf	3,6	;RP1=0, select bank1
  1710  022E  00AA               	movwf	(___awdiv@dividend+1)^(0+128)
  1711  022F  1683               	bsf	3,5	;RP0=1, select bank3
  1712  0230  1703               	bsf	3,6	;RP1=1, select bank3
  1713  0231  0869               	movf	_sum^(0+384),w
  1714  0232  1683               	bsf	3,5	;RP0=1, select bank1
  1715  0233  1303               	bcf	3,6	;RP1=0, select bank1
  1716  0234  00A9               	movwf	___awdiv@dividend^(0+128)
  1717  0235  160A  158A  237F  120A  118A  	fcall	___awdiv
  1718  023A  1683               	bsf	3,5	;RP0=1, select bank1
  1719  023B  1303               	bcf	3,6	;RP1=0, select bank1
  1720  023C  0828               	movf	(?___awdiv+1)^(0+128),w
  1721  023D  1683               	bsf	3,5	;RP0=1, select bank3
  1722  023E  1703               	bsf	3,6	;RP1=1, select bank3
  1723  023F  00E8               	movwf	(_sum_avg+1)^(0+384)
  1724  0240  1683               	bsf	3,5	;RP0=1, select bank1
  1725  0241  1303               	bcf	3,6	;RP1=0, select bank1
  1726  0242  0827               	movf	?___awdiv^(0+128),w
  1727  0243  1683               	bsf	3,5	;RP0=1, select bank3
  1728  0244  1703               	bsf	3,6	;RP1=1, select bank3
  1729  0245  00E7               	movwf	_sum_avg^(0+384)
  1730                           
  1731                           ;deadline.c: 96:                         sum = 0;
  1732  0246  01E9               	clrf	_sum^(0+384)
  1733  0247  01EA               	clrf	(_sum+1)^(0+384)
  1734                           
  1735                           ;deadline.c: 97:                         m=0;
  1736  0248  01ED               	clrf	_m^(0+384)
  1737  0249                     l164:	
  1738                           ;deadline.c: 98:                     }
  1739                           
  1740                           
  1741                           ;deadline.c: 100:                     Lcd_Set_Cursor(1,7);
  1742  0249  3007               	movlw	7
  1743  024A  00C3               	movwf	??_main^(0+384)
  1744  024B  0843               	movf	??_main^(0+384),w
  1745  024C  1683               	bsf	3,5	;RP0=1, select bank1
  1746  024D  1303               	bcf	3,6	;RP1=0, select bank1
  1747  024E  00A4               	movwf	Lcd_Set_Cursor@c^(0+128)
  1748  024F  3001               	movlw	1
  1749  0250  160A  158A  232C  120A  118A  	fcall	_Lcd_Set_Cursor
  1750                           
  1751                           ;deadline.c: 101:                     Lcd_Write_Char(sum_avg/10+48);
  1752  0255  300A               	movlw	10
  1753  0256  1683               	bsf	3,5	;RP0=1, select bank1
  1754  0257  1303               	bcf	3,6	;RP1=0, select bank1
  1755  0258  00A7               	movwf	___awdiv@divisor^(0+128)
  1756  0259  3000               	movlw	0
  1757  025A  00A8               	movwf	(___awdiv@divisor^(0+128)+1)
  1758  025B  1683               	bsf	3,5	;RP0=1, select bank3
  1759  025C  1703               	bsf	3,6	;RP1=1, select bank3
  1760  025D  0868               	movf	(_sum_avg+1)^(0+384),w
  1761  025E  1683               	bsf	3,5	;RP0=1, select bank1
  1762  025F  1303               	bcf	3,6	;RP1=0, select bank1
  1763  0260  00AA               	movwf	(___awdiv@dividend+1)^(0+128)
  1764  0261  1683               	bsf	3,5	;RP0=1, select bank3
  1765  0262  1703               	bsf	3,6	;RP1=1, select bank3
  1766  0263  0867               	movf	_sum_avg^(0+384),w
  1767  0264  1683               	bsf	3,5	;RP0=1, select bank1
  1768  0265  1303               	bcf	3,6	;RP1=0, select bank1
  1769  0266  00A9               	movwf	___awdiv@dividend^(0+128)
  1770  0267  160A  158A  237F  120A  118A  	fcall	___awdiv
  1771  026C  1683               	bsf	3,5	;RP0=1, select bank1
  1772  026D  1303               	bcf	3,6	;RP1=0, select bank1
  1773  026E  0827               	movf	?___awdiv^(0+128),w
  1774  026F  3E30               	addlw	48
  1775  0270  160A  158A  23DA  120A  118A  	fcall	_Lcd_Write_Char
  1776                           
  1777                           ;deadline.c: 102:                     Lcd_Write_Char(sum_avg%10+48);
  1778  0275  300A               	movlw	10
  1779  0276  1683               	bsf	3,5	;RP0=1, select bank1
  1780  0277  1303               	bcf	3,6	;RP1=0, select bank1
  1781  0278  00A0               	movwf	___awmod@divisor^(0+128)
  1782  0279  3000               	movlw	0
  1783  027A  00A1               	movwf	(___awmod@divisor^(0+128)+1)
  1784  027B  1683               	bsf	3,5	;RP0=1, select bank3
  1785  027C  1703               	bsf	3,6	;RP1=1, select bank3
  1786  027D  0868               	movf	(_sum_avg+1)^(0+384),w
  1787  027E  1683               	bsf	3,5	;RP0=1, select bank1
  1788  027F  1303               	bcf	3,6	;RP1=0, select bank1
  1789  0280  00A3               	movwf	(___awmod@dividend+1)^(0+128)
  1790  0281  1683               	bsf	3,5	;RP0=1, select bank3
  1791  0282  1703               	bsf	3,6	;RP1=1, select bank3
  1792  0283  0867               	movf	_sum_avg^(0+384),w
  1793  0284  1683               	bsf	3,5	;RP0=1, select bank1
  1794  0285  1303               	bcf	3,6	;RP1=0, select bank1
  1795  0286  00A2               	movwf	___awmod@dividend^(0+128)
  1796  0287  160A  158A  22DF  120A  118A  	fcall	___awmod
  1797  028C  1683               	bsf	3,5	;RP0=1, select bank1
  1798  028D  1303               	bcf	3,6	;RP1=0, select bank1
  1799  028E  0820               	movf	?___awmod^(0+128),w
  1800  028F  3E30               	addlw	48
  1801  0290  160A  158A  23DA  120A  118A  	fcall	_Lcd_Write_Char
  1802                           
  1803                           ;deadline.c: 103:                     Lcd_Set_Cursor(2,7);
  1804  0295  3007               	movlw	7
  1805  0296  1683               	bsf	3,5	;RP0=1, select bank3
  1806  0297  1703               	bsf	3,6	;RP1=1, select bank3
  1807  0298  00C3               	movwf	??_main^(0+384)
  1808  0299  0843               	movf	??_main^(0+384),w
  1809  029A  1683               	bsf	3,5	;RP0=1, select bank1
  1810  029B  1303               	bcf	3,6	;RP1=0, select bank1
  1811  029C  00A4               	movwf	Lcd_Set_Cursor@c^(0+128)
  1812  029D  3002               	movlw	2
  1813  029E  160A  158A  232C  120A  118A  	fcall	_Lcd_Set_Cursor
  1814                           
  1815                           ;deadline.c: 104:                     Lcd_Write_Char(map(Read_ADC(1),0,1023,100,0)/100+4
      +                          8);
  1816  02A3  3000               	movlw	0
  1817  02A4  1683               	bsf	3,5	;RP0=1, select bank1
  1818  02A5  1303               	bcf	3,6	;RP1=0, select bank1
  1819  02A6  00CF               	movwf	(map@out_max+3)^(0+128)
  1820  02A7  3000               	movlw	0
  1821  02A8  00CE               	movwf	(map@out_max+2)^(0+128)
  1822  02A9  3000               	movlw	0
  1823  02AA  00CD               	movwf	(map@out_max+1)^(0+128)
  1824  02AB  3000               	movlw	0
  1825  02AC  00CC               	movwf	map@out_max^(0+128)
  1826  02AD  3000               	movlw	0
  1827  02AE  00CB               	movwf	(map@out_min+3)^(0+128)
  1828  02AF  3000               	movlw	0
  1829  02B0  00CA               	movwf	(map@out_min+2)^(0+128)
  1830  02B1  3000               	movlw	0
  1831  02B2  00C9               	movwf	(map@out_min+1)^(0+128)
  1832  02B3  3064               	movlw	100
  1833  02B4  00C8               	movwf	map@out_min^(0+128)
  1834  02B5  3000               	movlw	0
  1835  02B6  00C7               	movwf	(map@in_max+3)^(0+128)
  1836  02B7  3000               	movlw	0
  1837  02B8  00C6               	movwf	(map@in_max+2)^(0+128)
  1838  02B9  3003               	movlw	3
  1839  02BA  00C5               	movwf	(map@in_max+1)^(0+128)
  1840  02BB  30FF               	movlw	255
  1841  02BC  00C4               	movwf	map@in_max^(0+128)
  1842  02BD  3000               	movlw	0
  1843  02BE  00C3               	movwf	(map@in_min+3)^(0+128)
  1844  02BF  3000               	movlw	0
  1845  02C0  00C2               	movwf	(map@in_min+2)^(0+128)
  1846  02C1  3000               	movlw	0
  1847  02C2  00C1               	movwf	(map@in_min+1)^(0+128)
  1848  02C3  3000               	movlw	0
  1849  02C4  00C0               	movwf	map@in_min^(0+128)
  1850  02C5  3001               	movlw	1
  1851  02C6  120A  158A  2005  120A  118A  	fcall	_Read_ADC
  1852  02CB  1683               	bsf	3,5	;RP0=1, select bank1
  1853  02CC  1303               	bcf	3,6	;RP1=0, select bank1
  1854  02CD  0820               	movf	?_Read_ADC^(0+128),w
  1855  02CE  1683               	bsf	3,5	;RP0=1, select bank3
  1856  02CF  1703               	bsf	3,6	;RP1=1, select bank3
  1857  02D0  00C3               	movwf	??_main^(0+384)
  1858  02D1  1683               	bsf	3,5	;RP0=1, select bank1
  1859  02D2  1303               	bcf	3,6	;RP1=0, select bank1
  1860  02D3  0821               	movf	(?_Read_ADC+1)^(0+128),w
  1861  02D4  1683               	bsf	3,5	;RP0=1, select bank3
  1862  02D5  1703               	bsf	3,6	;RP1=1, select bank3
  1863  02D6  00C4               	movwf	(??_main^(0+384)+1)
  1864  02D7  01C5               	clrf	(??_main^(0+384)+2)
  1865  02D8  01C6               	clrf	(??_main^(0+384)+3)
  1866  02D9  0846               	movf	(??_main+3)^(0+384),w
  1867  02DA  1683               	bsf	3,5	;RP0=1, select bank1
  1868  02DB  1303               	bcf	3,6	;RP1=0, select bank1
  1869  02DC  00BF               	movwf	(map@x+3)^(0+128)
  1870  02DD  1683               	bsf	3,5	;RP0=1, select bank3
  1871  02DE  1703               	bsf	3,6	;RP1=1, select bank3
  1872  02DF  0845               	movf	(??_main+2)^(0+384),w
  1873  02E0  1683               	bsf	3,5	;RP0=1, select bank1
  1874  02E1  1303               	bcf	3,6	;RP1=0, select bank1
  1875  02E2  00BE               	movwf	(map@x+2)^(0+128)
  1876  02E3  1683               	bsf	3,5	;RP0=1, select bank3
  1877  02E4  1703               	bsf	3,6	;RP1=1, select bank3
  1878  02E5  0844               	movf	(??_main+1)^(0+384),w
  1879  02E6  1683               	bsf	3,5	;RP0=1, select bank1
  1880  02E7  1303               	bcf	3,6	;RP1=0, select bank1
  1881  02E8  00BD               	movwf	(map@x+1)^(0+128)
  1882  02E9  1683               	bsf	3,5	;RP0=1, select bank3
  1883  02EA  1703               	bsf	3,6	;RP1=1, select bank3
  1884  02EB  0843               	movf	??_main^(0+384),w
  1885  02EC  1683               	bsf	3,5	;RP0=1, select bank1
  1886  02ED  1303               	bcf	3,6	;RP1=0, select bank1
  1887  02EE  00BC               	movwf	map@x^(0+128)
  1888  02EF  120A  118A  26C4  120A  118A  	fcall	_map
  1889  02F4  1683               	bsf	3,5	;RP0=1, select bank1
  1890  02F5  1303               	bcf	3,6	;RP1=0, select bank1
  1891  02F6  083F               	movf	(?_map+3)^(0+128),w
  1892  02F7  1683               	bsf	3,5	;RP0=1, select bank3
  1893  02F8  1703               	bsf	3,6	;RP1=1, select bank3
  1894  02F9  00CA               	movwf	(_main$833+3)^(0+384)
  1895  02FA  1683               	bsf	3,5	;RP0=1, select bank1
  1896  02FB  1303               	bcf	3,6	;RP1=0, select bank1
  1897  02FC  083E               	movf	(?_map+2)^(0+128),w
  1898  02FD  1683               	bsf	3,5	;RP0=1, select bank3
  1899  02FE  1703               	bsf	3,6	;RP1=1, select bank3
  1900  02FF  00C9               	movwf	(_main$833+2)^(0+384)
  1901  0300  1683               	bsf	3,5	;RP0=1, select bank1
  1902  0301  1303               	bcf	3,6	;RP1=0, select bank1
  1903  0302  083D               	movf	(?_map+1)^(0+128),w
  1904  0303  1683               	bsf	3,5	;RP0=1, select bank3
  1905  0304  1703               	bsf	3,6	;RP1=1, select bank3
  1906  0305  00C8               	movwf	(_main$833+1)^(0+384)
  1907  0306  1683               	bsf	3,5	;RP0=1, select bank1
  1908  0307  1303               	bcf	3,6	;RP1=0, select bank1
  1909  0308  083C               	movf	?_map^(0+128),w
  1910  0309  1683               	bsf	3,5	;RP0=1, select bank3
  1911  030A  1703               	bsf	3,6	;RP1=1, select bank3
  1912  030B  00C7               	movwf	_main$833^(0+384)
  1913                           
  1914                           ;deadline.c: 104:                     Lcd_Write_Char(map(Read_ADC(1),0,1023,100,0)/100+4
      +                          8);
  1915  030C  3000               	movlw	0
  1916  030D  1683               	bsf	3,5	;RP0=1, select bank1
  1917  030E  1303               	bcf	3,6	;RP1=0, select bank1
  1918  030F  00B0               	movwf	(___aldiv@divisor+3)^(0+128)
  1919  0310  3000               	movlw	0
  1920  0311  00AF               	movwf	(___aldiv@divisor+2)^(0+128)
  1921  0312  3000               	movlw	0
  1922  0313  00AE               	movwf	(___aldiv@divisor+1)^(0+128)
  1923  0314  3064               	movlw	100
  1924  0315  00AD               	movwf	___aldiv@divisor^(0+128)
  1925  0316  1683               	bsf	3,5	;RP0=1, select bank3
  1926  0317  1703               	bsf	3,6	;RP1=1, select bank3
  1927  0318  084A               	movf	(_main$833+3)^(0+384),w
  1928  0319  1683               	bsf	3,5	;RP0=1, select bank1
  1929  031A  1303               	bcf	3,6	;RP1=0, select bank1
  1930  031B  00B4               	movwf	(___aldiv@dividend+3)^(0+128)
  1931  031C  1683               	bsf	3,5	;RP0=1, select bank3
  1932  031D  1703               	bsf	3,6	;RP1=1, select bank3
  1933  031E  0849               	movf	(_main$833+2)^(0+384),w
  1934  031F  1683               	bsf	3,5	;RP0=1, select bank1
  1935  0320  1303               	bcf	3,6	;RP1=0, select bank1
  1936  0321  00B3               	movwf	(___aldiv@dividend+2)^(0+128)
  1937  0322  1683               	bsf	3,5	;RP0=1, select bank3
  1938  0323  1703               	bsf	3,6	;RP1=1, select bank3
  1939  0324  0848               	movf	(_main$833+1)^(0+384),w
  1940  0325  1683               	bsf	3,5	;RP0=1, select bank1
  1941  0326  1303               	bcf	3,6	;RP1=0, select bank1
  1942  0327  00B2               	movwf	(___aldiv@dividend+1)^(0+128)
  1943  0328  1683               	bsf	3,5	;RP0=1, select bank3
  1944  0329  1703               	bsf	3,6	;RP1=1, select bank3
  1945  032A  0847               	movf	_main$833^(0+384),w
  1946  032B  1683               	bsf	3,5	;RP0=1, select bank1
  1947  032C  1303               	bcf	3,6	;RP1=0, select bank1
  1948  032D  00B1               	movwf	___aldiv@dividend^(0+128)
  1949  032E  160A  118A  2002  120A  118A  	fcall	___aldiv
  1950  0333  1683               	bsf	3,5	;RP0=1, select bank1
  1951  0334  1303               	bcf	3,6	;RP1=0, select bank1
  1952  0335  082D               	movf	?___aldiv^(0+128),w
  1953  0336  3E30               	addlw	48
  1954  0337  160A  158A  23DA  120A  118A  	fcall	_Lcd_Write_Char
  1955                           
  1956                           ;deadline.c: 105:                     Lcd_Write_Char(map(Read_ADC(1),0,1023,100,0)%100/1
      +                          0+48);
  1957  033C  3000               	movlw	0
  1958  033D  1683               	bsf	3,5	;RP0=1, select bank1
  1959  033E  1303               	bcf	3,6	;RP1=0, select bank1
  1960  033F  00CF               	movwf	(map@out_max+3)^(0+128)
  1961  0340  3000               	movlw	0
  1962  0341  00CE               	movwf	(map@out_max+2)^(0+128)
  1963  0342  3000               	movlw	0
  1964  0343  00CD               	movwf	(map@out_max+1)^(0+128)
  1965  0344  3000               	movlw	0
  1966  0345  00CC               	movwf	map@out_max^(0+128)
  1967  0346  3000               	movlw	0
  1968  0347  00CB               	movwf	(map@out_min+3)^(0+128)
  1969  0348  3000               	movlw	0
  1970  0349  00CA               	movwf	(map@out_min+2)^(0+128)
  1971  034A  3000               	movlw	0
  1972  034B  00C9               	movwf	(map@out_min+1)^(0+128)
  1973  034C  3064               	movlw	100
  1974  034D  00C8               	movwf	map@out_min^(0+128)
  1975  034E  3000               	movlw	0
  1976  034F  00C7               	movwf	(map@in_max+3)^(0+128)
  1977  0350  3000               	movlw	0
  1978  0351  00C6               	movwf	(map@in_max+2)^(0+128)
  1979  0352  3003               	movlw	3
  1980  0353  00C5               	movwf	(map@in_max+1)^(0+128)
  1981  0354  30FF               	movlw	255
  1982  0355  00C4               	movwf	map@in_max^(0+128)
  1983  0356  3000               	movlw	0
  1984  0357  00C3               	movwf	(map@in_min+3)^(0+128)
  1985  0358  3000               	movlw	0
  1986  0359  00C2               	movwf	(map@in_min+2)^(0+128)
  1987  035A  3000               	movlw	0
  1988  035B  00C1               	movwf	(map@in_min+1)^(0+128)
  1989  035C  3000               	movlw	0
  1990  035D  00C0               	movwf	map@in_min^(0+128)
  1991  035E  3001               	movlw	1
  1992  035F  120A  158A  2005  120A  118A  	fcall	_Read_ADC
  1993  0364  1683               	bsf	3,5	;RP0=1, select bank1
  1994  0365  1303               	bcf	3,6	;RP1=0, select bank1
  1995  0366  0820               	movf	?_Read_ADC^(0+128),w
  1996  0367  1683               	bsf	3,5	;RP0=1, select bank3
  1997  0368  1703               	bsf	3,6	;RP1=1, select bank3
  1998  0369  00C3               	movwf	??_main^(0+384)
  1999  036A  1683               	bsf	3,5	;RP0=1, select bank1
  2000  036B  1303               	bcf	3,6	;RP1=0, select bank1
  2001  036C  0821               	movf	(?_Read_ADC+1)^(0+128),w
  2002  036D  1683               	bsf	3,5	;RP0=1, select bank3
  2003  036E  1703               	bsf	3,6	;RP1=1, select bank3
  2004  036F  00C4               	movwf	(??_main^(0+384)+1)
  2005  0370  01C5               	clrf	(??_main^(0+384)+2)
  2006  0371  01C6               	clrf	(??_main^(0+384)+3)
  2007  0372  0846               	movf	(??_main+3)^(0+384),w
  2008  0373  1683               	bsf	3,5	;RP0=1, select bank1
  2009  0374  1303               	bcf	3,6	;RP1=0, select bank1
  2010  0375  00BF               	movwf	(map@x+3)^(0+128)
  2011  0376  1683               	bsf	3,5	;RP0=1, select bank3
  2012  0377  1703               	bsf	3,6	;RP1=1, select bank3
  2013  0378  0845               	movf	(??_main+2)^(0+384),w
  2014  0379  1683               	bsf	3,5	;RP0=1, select bank1
  2015  037A  1303               	bcf	3,6	;RP1=0, select bank1
  2016  037B  00BE               	movwf	(map@x+2)^(0+128)
  2017  037C  1683               	bsf	3,5	;RP0=1, select bank3
  2018  037D  1703               	bsf	3,6	;RP1=1, select bank3
  2019  037E  0844               	movf	(??_main+1)^(0+384),w
  2020  037F  1683               	bsf	3,5	;RP0=1, select bank1
  2021  0380  1303               	bcf	3,6	;RP1=0, select bank1
  2022  0381  00BD               	movwf	(map@x+1)^(0+128)
  2023  0382  1683               	bsf	3,5	;RP0=1, select bank3
  2024  0383  1703               	bsf	3,6	;RP1=1, select bank3
  2025  0384  0843               	movf	??_main^(0+384),w
  2026  0385  1683               	bsf	3,5	;RP0=1, select bank1
  2027  0386  1303               	bcf	3,6	;RP1=0, select bank1
  2028  0387  00BC               	movwf	map@x^(0+128)
  2029  0388  120A  118A  26C4  120A  118A  	fcall	_map
  2030  038D  1683               	bsf	3,5	;RP0=1, select bank1
  2031  038E  1303               	bcf	3,6	;RP1=0, select bank1
  2032  038F  083F               	movf	(?_map+3)^(0+128),w
  2033  0390  00E7               	movwf	(___almod@dividend+3)^(0+128)
  2034  0391  083E               	movf	(?_map+2)^(0+128),w
  2035  0392  00E6               	movwf	(___almod@dividend+2)^(0+128)
  2036  0393  083D               	movf	(?_map+1)^(0+128),w
  2037  0394  00E5               	movwf	(___almod@dividend+1)^(0+128)
  2038  0395  083C               	movf	?_map^(0+128),w
  2039  0396  00E4               	movwf	___almod@dividend^(0+128)
  2040  0397  3000               	movlw	0
  2041  0398  00E3               	movwf	(___almod@divisor+3)^(0+128)
  2042  0399  3000               	movlw	0
  2043  039A  00E2               	movwf	(___almod@divisor+2)^(0+128)
  2044  039B  3000               	movlw	0
  2045  039C  00E1               	movwf	(___almod@divisor+1)^(0+128)
  2046  039D  3064               	movlw	100
  2047  039E  00E0               	movwf	___almod@divisor^(0+128)
  2048  039F  160A  158A  25E4  120A  118A  	fcall	___almod
  2049  03A4  1683               	bsf	3,5	;RP0=1, select bank1
  2050  03A5  1303               	bcf	3,6	;RP1=0, select bank1
  2051  03A6  0863               	movf	(?___almod+3)^(0+128),w
  2052  03A7  1683               	bsf	3,5	;RP0=1, select bank3
  2053  03A8  1703               	bsf	3,6	;RP1=1, select bank3
  2054  03A9  00CA               	movwf	(_main$833+3)^(0+384)
  2055  03AA  1683               	bsf	3,5	;RP0=1, select bank1
  2056  03AB  1303               	bcf	3,6	;RP1=0, select bank1
  2057  03AC  0862               	movf	(?___almod+2)^(0+128),w
  2058  03AD  1683               	bsf	3,5	;RP0=1, select bank3
  2059  03AE  1703               	bsf	3,6	;RP1=1, select bank3
  2060  03AF  00C9               	movwf	(_main$833+2)^(0+384)
  2061  03B0  1683               	bsf	3,5	;RP0=1, select bank1
  2062  03B1  1303               	bcf	3,6	;RP1=0, select bank1
  2063  03B2  0861               	movf	(?___almod+1)^(0+128),w
  2064  03B3  1683               	bsf	3,5	;RP0=1, select bank3
  2065  03B4  1703               	bsf	3,6	;RP1=1, select bank3
  2066  03B5  00C8               	movwf	(_main$833+1)^(0+384)
  2067  03B6  1683               	bsf	3,5	;RP0=1, select bank1
  2068  03B7  1303               	bcf	3,6	;RP1=0, select bank1
  2069  03B8  0860               	movf	?___almod^(0+128),w
  2070  03B9  1683               	bsf	3,5	;RP0=1, select bank3
  2071  03BA  1703               	bsf	3,6	;RP1=1, select bank3
  2072  03BB  00C7               	movwf	_main$833^(0+384)
  2073                           
  2074                           ;deadline.c: 105:                     Lcd_Write_Char(map(Read_ADC(1),0,1023,100,0)%100/1
      +                          0+48);
  2075  03BC  3000               	movlw	0
  2076  03BD  1683               	bsf	3,5	;RP0=1, select bank1
  2077  03BE  1303               	bcf	3,6	;RP1=0, select bank1
  2078  03BF  00B0               	movwf	(___aldiv@divisor+3)^(0+128)
  2079  03C0  3000               	movlw	0
  2080  03C1  00AF               	movwf	(___aldiv@divisor+2)^(0+128)
  2081  03C2  3000               	movlw	0
  2082  03C3  00AE               	movwf	(___aldiv@divisor+1)^(0+128)
  2083  03C4  300A               	movlw	10
  2084  03C5  00AD               	movwf	___aldiv@divisor^(0+128)
  2085  03C6  1683               	bsf	3,5	;RP0=1, select bank3
  2086  03C7  1703               	bsf	3,6	;RP1=1, select bank3
  2087  03C8  084A               	movf	(_main$833+3)^(0+384),w
  2088  03C9  1683               	bsf	3,5	;RP0=1, select bank1
  2089  03CA  1303               	bcf	3,6	;RP1=0, select bank1
  2090  03CB  00B4               	movwf	(___aldiv@dividend+3)^(0+128)
  2091  03CC  1683               	bsf	3,5	;RP0=1, select bank3
  2092  03CD  1703               	bsf	3,6	;RP1=1, select bank3
  2093  03CE  0849               	movf	(_main$833+2)^(0+384),w
  2094  03CF  1683               	bsf	3,5	;RP0=1, select bank1
  2095  03D0  1303               	bcf	3,6	;RP1=0, select bank1
  2096  03D1  00B3               	movwf	(___aldiv@dividend+2)^(0+128)
  2097  03D2  1683               	bsf	3,5	;RP0=1, select bank3
  2098  03D3  1703               	bsf	3,6	;RP1=1, select bank3
  2099  03D4  0848               	movf	(_main$833+1)^(0+384),w
  2100  03D5  1683               	bsf	3,5	;RP0=1, select bank1
  2101  03D6  1303               	bcf	3,6	;RP1=0, select bank1
  2102  03D7  00B2               	movwf	(___aldiv@dividend+1)^(0+128)
  2103  03D8  1683               	bsf	3,5	;RP0=1, select bank3
  2104  03D9  1703               	bsf	3,6	;RP1=1, select bank3
  2105  03DA  0847               	movf	_main$833^(0+384),w
  2106  03DB  1683               	bsf	3,5	;RP0=1, select bank1
  2107  03DC  1303               	bcf	3,6	;RP1=0, select bank1
  2108  03DD  00B1               	movwf	___aldiv@dividend^(0+128)
  2109  03DE  160A  118A  2002  120A  118A  	fcall	___aldiv
  2110  03E3  1683               	bsf	3,5	;RP0=1, select bank1
  2111  03E4  1303               	bcf	3,6	;RP1=0, select bank1
  2112  03E5  082D               	movf	?___aldiv^(0+128),w
  2113  03E6  3E30               	addlw	48
  2114  03E7  160A  158A  23DA  120A  118A  	fcall	_Lcd_Write_Char
  2115                           
  2116                           ;deadline.c: 106:                     Lcd_Write_Char(map(Read_ADC(1),0,1023,100,0)%10+48
      +                          );
  2117  03EC  3000               	movlw	0
  2118  03ED  1683               	bsf	3,5	;RP0=1, select bank1
  2119  03EE  1303               	bcf	3,6	;RP1=0, select bank1
  2120  03EF  00E3               	movwf	(___almod@divisor+3)^(0+128)
  2121  03F0  3000               	movlw	0
  2122  03F1  00E2               	movwf	(___almod@divisor+2)^(0+128)
  2123  03F2  3000               	movlw	0
  2124  03F3  00E1               	movwf	(___almod@divisor+1)^(0+128)
  2125  03F4  300A               	movlw	10
  2126  03F5  00E0               	movwf	___almod@divisor^(0+128)
  2127  03F6  3000               	movlw	0
  2128  03F7  00CF               	movwf	(map@out_max+3)^(0+128)
  2129  03F8  3000               	movlw	0
  2130  03F9  00CE               	movwf	(map@out_max+2)^(0+128)
  2131  03FA  3000               	movlw	0
  2132  03FB  00CD               	movwf	(map@out_max+1)^(0+128)
  2133  03FC  3000               	movlw	0
  2134  03FD  00CC               	movwf	map@out_max^(0+128)
  2135  03FE  3000               	movlw	0
  2136  03FF  00CB               	movwf	(map@out_min+3)^(0+128)
  2137  0400  3000               	movlw	0
  2138  0401  00CA               	movwf	(map@out_min+2)^(0+128)
  2139  0402  3000               	movlw	0
  2140  0403  00C9               	movwf	(map@out_min+1)^(0+128)
  2141  0404  3064               	movlw	100
  2142  0405  00C8               	movwf	map@out_min^(0+128)
  2143  0406  3000               	movlw	0
  2144  0407  00C7               	movwf	(map@in_max+3)^(0+128)
  2145  0408  3000               	movlw	0
  2146  0409  00C6               	movwf	(map@in_max+2)^(0+128)
  2147  040A  3003               	movlw	3
  2148  040B  00C5               	movwf	(map@in_max+1)^(0+128)
  2149  040C  30FF               	movlw	255
  2150  040D  00C4               	movwf	map@in_max^(0+128)
  2151  040E  3000               	movlw	0
  2152  040F  00C3               	movwf	(map@in_min+3)^(0+128)
  2153  0410  3000               	movlw	0
  2154  0411  00C2               	movwf	(map@in_min+2)^(0+128)
  2155  0412  3000               	movlw	0
  2156  0413  00C1               	movwf	(map@in_min+1)^(0+128)
  2157  0414  3000               	movlw	0
  2158  0415  00C0               	movwf	map@in_min^(0+128)
  2159  0416  3001               	movlw	1
  2160  0417  120A  158A  2005  120A  118A  	fcall	_Read_ADC
  2161  041C  1683               	bsf	3,5	;RP0=1, select bank1
  2162  041D  1303               	bcf	3,6	;RP1=0, select bank1
  2163  041E  0820               	movf	?_Read_ADC^(0+128),w
  2164  041F  1683               	bsf	3,5	;RP0=1, select bank3
  2165  0420  1703               	bsf	3,6	;RP1=1, select bank3
  2166  0421  00C3               	movwf	??_main^(0+384)
  2167  0422  1683               	bsf	3,5	;RP0=1, select bank1
  2168  0423  1303               	bcf	3,6	;RP1=0, select bank1
  2169  0424  0821               	movf	(?_Read_ADC+1)^(0+128),w
  2170  0425  1683               	bsf	3,5	;RP0=1, select bank3
  2171  0426  1703               	bsf	3,6	;RP1=1, select bank3
  2172  0427  00C4               	movwf	(??_main^(0+384)+1)
  2173  0428  01C5               	clrf	(??_main^(0+384)+2)
  2174  0429  01C6               	clrf	(??_main^(0+384)+3)
  2175  042A  0846               	movf	(??_main+3)^(0+384),w
  2176  042B  1683               	bsf	3,5	;RP0=1, select bank1
  2177  042C  1303               	bcf	3,6	;RP1=0, select bank1
  2178  042D  00BF               	movwf	(map@x+3)^(0+128)
  2179  042E  1683               	bsf	3,5	;RP0=1, select bank3
  2180  042F  1703               	bsf	3,6	;RP1=1, select bank3
  2181  0430  0845               	movf	(??_main+2)^(0+384),w
  2182  0431  1683               	bsf	3,5	;RP0=1, select bank1
  2183  0432  1303               	bcf	3,6	;RP1=0, select bank1
  2184  0433  00BE               	movwf	(map@x+2)^(0+128)
  2185  0434  1683               	bsf	3,5	;RP0=1, select bank3
  2186  0435  1703               	bsf	3,6	;RP1=1, select bank3
  2187  0436  0844               	movf	(??_main+1)^(0+384),w
  2188  0437  1683               	bsf	3,5	;RP0=1, select bank1
  2189  0438  1303               	bcf	3,6	;RP1=0, select bank1
  2190  0439  00BD               	movwf	(map@x+1)^(0+128)
  2191  043A  1683               	bsf	3,5	;RP0=1, select bank3
  2192  043B  1703               	bsf	3,6	;RP1=1, select bank3
  2193  043C  0843               	movf	??_main^(0+384),w
  2194  043D  1683               	bsf	3,5	;RP0=1, select bank1
  2195  043E  1303               	bcf	3,6	;RP1=0, select bank1
  2196  043F  00BC               	movwf	map@x^(0+128)
  2197  0440  120A  118A  26C4  120A  118A  	fcall	_map
  2198  0445  1683               	bsf	3,5	;RP0=1, select bank1
  2199  0446  1303               	bcf	3,6	;RP1=0, select bank1
  2200  0447  083F               	movf	(?_map+3)^(0+128),w
  2201  0448  00E7               	movwf	(___almod@dividend+3)^(0+128)
  2202  0449  083E               	movf	(?_map+2)^(0+128),w
  2203  044A  00E6               	movwf	(___almod@dividend+2)^(0+128)
  2204  044B  083D               	movf	(?_map+1)^(0+128),w
  2205  044C  00E5               	movwf	(___almod@dividend+1)^(0+128)
  2206  044D  083C               	movf	?_map^(0+128),w
  2207  044E  00E4               	movwf	___almod@dividend^(0+128)
  2208  044F  160A  158A  25E4  120A  118A  	fcall	___almod
  2209  0454  1683               	bsf	3,5	;RP0=1, select bank1
  2210  0455  1303               	bcf	3,6	;RP1=0, select bank1
  2211  0456  0860               	movf	?___almod^(0+128),w
  2212  0457  3E30               	addlw	48
  2213  0458  160A  158A  23DA  120A  118A  	fcall	_Lcd_Write_Char
  2214                           
  2215                           ;deadline.c: 107:                     if(RC0 == 0)
  2216  045D  1283               	bcf	3,5	;RP0=0, select bank0
  2217  045E  1303               	bcf	3,6	;RP1=0, select bank0
  2218  045F  1807               	btfsc	7,0	;volatile
  2219  0460  2C80               	goto	l3842
  2220                           
  2221                           ;deadline.c: 108:                     {;deadline.c: 109:                         _delay(
      +                          (unsigned long)((10)*(20000000/4000.0)));
  2222  0461  3041               	movlw	65
  2223  0462  1683               	bsf	3,5	;RP0=1, select bank3
  2224  0463  1703               	bsf	3,6	;RP1=1, select bank3
  2225  0464  00C4               	movwf	(??_main^(0+384)+1)
  2226  0465  30ED               	movlw	237
  2227  0466  00C3               	movwf	??_main^(0+384)
  2228  0467                     u6677:	
  2229  0467  0BC3               	decfsz	??_main^(0+384),f
  2230  0468  2C67               	goto	u6677
  2231  0469  0BC4               	decfsz	(??_main^(0+384)+1),f
  2232  046A  2C67               	goto	u6677
  2233  046B  2C6C               	nop2
  2234                           
  2235                           ;deadline.c: 110:                         if(RC0 == 0)
  2236  046C  1283               	bcf	3,5	;RP0=0, select bank0
  2237  046D  1303               	bcf	3,6	;RP1=0, select bank0
  2238  046E  1807               	btfsc	7,0	;volatile
  2239  046F  2C80               	goto	l3842
  2240                           
  2241                           ;deadline.c: 111:                         {;deadline.c: 112:                            
      +                           _delay((unsigned long)((10)*(20000000/4000.0)));
  2242  0470  3041               	movlw	65
  2243  0471  1683               	bsf	3,5	;RP0=1, select bank3
  2244  0472  1703               	bsf	3,6	;RP1=1, select bank3
  2245  0473  00C4               	movwf	(??_main^(0+384)+1)
  2246  0474  30ED               	movlw	237
  2247  0475  00C3               	movwf	??_main^(0+384)
  2248  0476                     u6687:	
  2249  0476  0BC3               	decfsz	??_main^(0+384),f
  2250  0477  2C76               	goto	u6687
  2251  0478  0BC4               	decfsz	(??_main^(0+384)+1),f
  2252  0479  2C76               	goto	u6687
  2253  047A  2C7B               	nop2
  2254  047B                     l167:	
  2255                           ;deadline.c: 113:                             while(RC0 == 0);
  2256                           
  2257  047B  1283               	bcf	3,5	;RP0=0, select bank0
  2258  047C  1303               	bcf	3,6	;RP1=0, select bank0
  2259  047D  1807               	btfsc	7,0	;volatile
  2260  047E  2CAC               	goto	l170
  2261  047F  2C7B               	goto	l167
  2262  0480                     l3842:	
  2263                           
  2264                           ;deadline.c: 117:                     _delay((unsigned long)((10)*(20000000/4000.0)));
  2265  0480  3041               	movlw	65
  2266  0481  1683               	bsf	3,5	;RP0=1, select bank3
  2267  0482  1703               	bsf	3,6	;RP1=1, select bank3
  2268  0483  00C4               	movwf	(??_main^(0+384)+1)
  2269  0484  30ED               	movlw	237
  2270  0485  00C3               	movwf	??_main^(0+384)
  2271  0486                     u6697:	
  2272  0486  0BC3               	decfsz	??_main^(0+384),f
  2273  0487  2C86               	goto	u6697
  2274  0488  0BC4               	decfsz	(??_main^(0+384)+1),f
  2275  0489  2C86               	goto	u6697
  2276  048A  2C8B               	nop2
  2277  048B  2936               	goto	l3818
  2278  048C                     l156:	
  2279                           ;deadline.c: 121:         }
  2280                           
  2281                           
  2282                           ;deadline.c: 122:         if(RC2 == 0)
  2283  048C  1907               	btfsc	7,2	;volatile
  2284  048D  28EC               	goto	l3804
  2285                           
  2286                           ;deadline.c: 123:         {;deadline.c: 124:             _delay((unsigned long)((10)*(20
      +                          000000/4000.0)));
  2287  048E  3041               	movlw	65
  2288  048F  1683               	bsf	3,5	;RP0=1, select bank3
  2289  0490  1703               	bsf	3,6	;RP1=1, select bank3
  2290  0491  00C4               	movwf	(??_main^(0+384)+1)
  2291  0492  30ED               	movlw	237
  2292  0493  00C3               	movwf	??_main^(0+384)
  2293  0494                     u6707:	
  2294  0494  0BC3               	decfsz	??_main^(0+384),f
  2295  0495  2C94               	goto	u6707
  2296  0496  0BC4               	decfsz	(??_main^(0+384)+1),f
  2297  0497  2C94               	goto	u6707
  2298  0498  2C99               	nop2
  2299                           
  2300                           ;deadline.c: 125:             if(RC2 == 0)
  2301  0499  1283               	bcf	3,5	;RP0=0, select bank0
  2302  049A  1303               	bcf	3,6	;RP1=0, select bank0
  2303  049B  1907               	btfsc	7,2	;volatile
  2304  049C  28EC               	goto	l3804
  2305                           
  2306                           ;deadline.c: 126:             {;deadline.c: 127:                 _delay((unsigned long)(
      +                          (10)*(20000000/4000.0)));
  2307  049D  3041               	movlw	65
  2308  049E  1683               	bsf	3,5	;RP0=1, select bank3
  2309  049F  1703               	bsf	3,6	;RP1=1, select bank3
  2310  04A0  00C4               	movwf	(??_main^(0+384)+1)
  2311  04A1  30ED               	movlw	237
  2312  04A2  00C3               	movwf	??_main^(0+384)
  2313  04A3                     u6717:	
  2314  04A3  0BC3               	decfsz	??_main^(0+384),f
  2315  04A4  2CA3               	goto	u6717
  2316  04A5  0BC4               	decfsz	(??_main^(0+384)+1),f
  2317  04A6  2CA3               	goto	u6717
  2318  04A7  2CA8               	nop2
  2319  04A8                     l175:	
  2320                           ;deadline.c: 128:                 while(RC2 == 0);
  2321                           
  2322  04A8  1283               	bcf	3,5	;RP0=0, select bank0
  2323  04A9  1303               	bcf	3,6	;RP1=0, select bank0
  2324  04AA  1D07               	btfss	7,2	;volatile
  2325  04AB  2CA8               	goto	l175
  2326  04AC                     l170:	
  2327                           ;deadline.c: 129:                 mode2:;
  2328                           
  2329                           
  2330                           ;deadline.c: 131:                 INTE = 1;
  2331  04AC  160B               	bsf	11,4	;volatile
  2332                           
  2333                           ;deadline.c: 132:                 RD6 = 1;
  2334  04AD  1708               	bsf	8,6	;volatile
  2335                           
  2336                           ;deadline.c: 133:                 RD7 = 0;
  2337  04AE  1388               	bcf	8,7	;volatile
  2338                           
  2339                           ;deadline.c: 134:                 Lcd_Clear();
  2340  04AF  160A  158A  218F  120A  118A  	fcall	_Lcd_Clear
  2341                           
  2342                           ;deadline.c: 135:                 Lcd_Set_Cursor(1,1);
  2343  04B4  1683               	bsf	3,5	;RP0=1, select bank1
  2344  04B5  1303               	bcf	3,6	;RP1=0, select bank1
  2345  04B6  01A4               	clrf	Lcd_Set_Cursor@c^(0+128)
  2346  04B7  0AA4               	incf	Lcd_Set_Cursor@c^(0+128),f
  2347  04B8  3001               	movlw	1
  2348  04B9  160A  158A  232C  120A  118A  	fcall	_Lcd_Set_Cursor
  2349                           
  2350                           ;deadline.c: 136:                 Lcd_Write_String("Temp:    oC");
  2351  04BE  3039               	movlw	(low ((STR_3-__stringbase)| (0+32768)))& (0+255)
  2352  04BF  160A  158A  224A  120A  118A  	fcall	_Lcd_Write_String
  2353                           
  2354                           ;deadline.c: 137:                 Lcd_Set_Cursor(2,1);
  2355  04C4  1683               	bsf	3,5	;RP0=1, select bank1
  2356  04C5  1303               	bcf	3,6	;RP1=0, select bank1
  2357  04C6  01A4               	clrf	Lcd_Set_Cursor@c^(0+128)
  2358  04C7  0AA4               	incf	Lcd_Set_Cursor@c^(0+128),f
  2359  04C8  3002               	movlw	2
  2360  04C9  160A  158A  232C  120A  118A  	fcall	_Lcd_Set_Cursor
  2361                           
  2362                           ;deadline.c: 138:                 Lcd_Write_String("Set temp:    oC");
  2363  04CE  3001               	movlw	(low ((STR_6-__stringbase)| (0+32768)))& (0+255)
  2364  04CF  160A  158A  224A  120A  118A  	fcall	_Lcd_Write_String
  2365  04D4                     l3856:	
  2366                           
  2367                           ;deadline.c: 140:                 {;deadline.c: 141:                     temp = Read_ADC
      +                          (0)*0.488f+0.5f;
  2368  04D4  3000               	movlw	0
  2369  04D5  120A  158A  2005  120A  118A  	fcall	_Read_ADC
  2370  04DA  1683               	bsf	3,5	;RP0=1, select bank1
  2371  04DB  1303               	bcf	3,6	;RP1=0, select bank1
  2372  04DC  0820               	movf	?_Read_ADC^(0+128),w
  2373  04DD  1683               	bsf	3,5	;RP0=1, select bank3
  2374  04DE  1703               	bsf	3,6	;RP1=1, select bank3
  2375  04DF  00C3               	movwf	??_main^(0+384)
  2376  04E0  1683               	bsf	3,5	;RP0=1, select bank1
  2377  04E1  1303               	bcf	3,6	;RP1=0, select bank1
  2378  04E2  0821               	movf	(?_Read_ADC+1)^(0+128),w
  2379  04E3  1683               	bsf	3,5	;RP0=1, select bank3
  2380  04E4  1703               	bsf	3,6	;RP1=1, select bank3
  2381  04E5  00C4               	movwf	(??_main^(0+384)+1)
  2382  04E6  01C5               	clrf	(??_main^(0+384)+2)
  2383  04E7  01C6               	clrf	(??_main^(0+384)+3)
  2384  04E8  0846               	movf	(??_main+3)^(0+384),w
  2385  04E9  1683               	bsf	3,5	;RP0=1, select bank1
  2386  04EA  1303               	bcf	3,6	;RP1=0, select bank1
  2387  04EB  00AC               	movwf	(___xxtofl@val+3)^(0+128)
  2388  04EC  1683               	bsf	3,5	;RP0=1, select bank3
  2389  04ED  1703               	bsf	3,6	;RP1=1, select bank3
  2390  04EE  0845               	movf	(??_main+2)^(0+384),w
  2391  04EF  1683               	bsf	3,5	;RP0=1, select bank1
  2392  04F0  1303               	bcf	3,6	;RP1=0, select bank1
  2393  04F1  00AB               	movwf	(___xxtofl@val+2)^(0+128)
  2394  04F2  1683               	bsf	3,5	;RP0=1, select bank3
  2395  04F3  1703               	bsf	3,6	;RP1=1, select bank3
  2396  04F4  0844               	movf	(??_main+1)^(0+384),w
  2397  04F5  1683               	bsf	3,5	;RP0=1, select bank1
  2398  04F6  1303               	bcf	3,6	;RP1=0, select bank1
  2399  04F7  00AA               	movwf	(___xxtofl@val+1)^(0+128)
  2400  04F8  1683               	bsf	3,5	;RP0=1, select bank3
  2401  04F9  1703               	bsf	3,6	;RP1=1, select bank3
  2402  04FA  0843               	movf	??_main^(0+384),w
  2403  04FB  1683               	bsf	3,5	;RP0=1, select bank1
  2404  04FC  1303               	bcf	3,6	;RP1=0, select bank1
  2405  04FD  00A9               	movwf	___xxtofl@val^(0+128)
  2406  04FE  3000               	movlw	0
  2407  04FF  120A  158A  2047  120A  118A  	fcall	___xxtofl
  2408  0504  1683               	bsf	3,5	;RP0=1, select bank1
  2409  0505  1303               	bcf	3,6	;RP1=0, select bank1
  2410  0506  082C               	movf	(?___xxtofl+3)^(0+128),w
  2411  0507  00BE               	movwf	(___flmul@a+3)^(0+128)
  2412  0508  082B               	movf	(?___xxtofl+2)^(0+128),w
  2413  0509  00BD               	movwf	(___flmul@a+2)^(0+128)
  2414  050A  082A               	movf	(?___xxtofl+1)^(0+128),w
  2415  050B  00BC               	movwf	(___flmul@a+1)^(0+128)
  2416  050C  0829               	movf	?___xxtofl^(0+128),w
  2417  050D  00BB               	movwf	___flmul@a^(0+128)
  2418  050E  303E               	movlw	62
  2419  050F  00BA               	movwf	(___flmul@b+3)^(0+128)
  2420  0510  30F9               	movlw	249
  2421  0511  00B9               	movwf	(___flmul@b+2)^(0+128)
  2422  0512  30DB               	movlw	219
  2423  0513  00B8               	movwf	(___flmul@b+1)^(0+128)
  2424  0514  3023               	movlw	35
  2425  0515  00B7               	movwf	___flmul@b^(0+128)
  2426  0516  120A  158A  20EC  120A  118A  	fcall	___flmul
  2427  051B  1683               	bsf	3,5	;RP0=1, select bank1
  2428  051C  1303               	bcf	3,6	;RP1=0, select bank1
  2429  051D  083A               	movf	(?___flmul+3)^(0+128),w
  2430  051E  1683               	bsf	3,5	;RP0=1, select bank3
  2431  051F  1703               	bsf	3,6	;RP1=1, select bank3
  2432  0520  0097               	movwf	(___fladd@a+3)^(0+384)
  2433  0521  1683               	bsf	3,5	;RP0=1, select bank1
  2434  0522  1303               	bcf	3,6	;RP1=0, select bank1
  2435  0523  0839               	movf	(?___flmul+2)^(0+128),w
  2436  0524  1683               	bsf	3,5	;RP0=1, select bank3
  2437  0525  1703               	bsf	3,6	;RP1=1, select bank3
  2438  0526  0096               	movwf	(___fladd@a+2)^(0+384)
  2439  0527  1683               	bsf	3,5	;RP0=1, select bank1
  2440  0528  1303               	bcf	3,6	;RP1=0, select bank1
  2441  0529  0838               	movf	(?___flmul+1)^(0+128),w
  2442  052A  1683               	bsf	3,5	;RP0=1, select bank3
  2443  052B  1703               	bsf	3,6	;RP1=1, select bank3
  2444  052C  0095               	movwf	(___fladd@a+1)^(0+384)
  2445  052D  1683               	bsf	3,5	;RP0=1, select bank1
  2446  052E  1303               	bcf	3,6	;RP1=0, select bank1
  2447  052F  0837               	movf	?___flmul^(0+128),w
  2448  0530  1683               	bsf	3,5	;RP0=1, select bank3
  2449  0531  1703               	bsf	3,6	;RP1=1, select bank3
  2450  0532  0094               	movwf	___fladd@a^(0+384)
  2451  0533  303F               	movlw	63
  2452  0534  0093               	movwf	(___fladd@b+3)^(0+384)
  2453  0535  3000               	movlw	0
  2454  0536  0092               	movwf	(___fladd@b+2)^(0+384)
  2455  0537  3000               	movlw	0
  2456  0538  0091               	movwf	(___fladd@b+1)^(0+384)
  2457  0539  3000               	movlw	0
  2458  053A  0090               	movwf	___fladd@b^(0+384)
  2459  053B  160A  118A  2516  120A  118A  	fcall	___fladd
  2460  0540  1683               	bsf	3,5	;RP0=1, select bank3
  2461  0541  1703               	bsf	3,6	;RP1=1, select bank3
  2462  0542  0813               	movf	(?___fladd+3)^(0+384),w
  2463  0543  00AB               	movwf	(___fltol@f1+3)^(0+384)
  2464  0544  0812               	movf	(?___fladd+2)^(0+384),w
  2465  0545  00AA               	movwf	(___fltol@f1+2)^(0+384)
  2466  0546  0811               	movf	(?___fladd+1)^(0+384),w
  2467  0547  00A9               	movwf	(___fltol@f1+1)^(0+384)
  2468  0548  0810               	movf	?___fladd^(0+384),w
  2469  0549  00A8               	movwf	___fltol@f1^(0+384)
  2470  054A  160A  158A  2577  120A  118A  	fcall	___fltol
  2471  054F  1683               	bsf	3,5	;RP0=1, select bank3
  2472  0550  1703               	bsf	3,6	;RP1=1, select bank3
  2473  0551  0829               	movf	(?___fltol+1)^(0+384),w
  2474  0552  00EC               	movwf	(_temp+1)^(0+384)
  2475  0553  0828               	movf	?___fltol^(0+384),w
  2476  0554  00EB               	movwf	_temp^(0+384)
  2477                           
  2478                           ;deadline.c: 142:                     duty = PID_Init(temp, set_temp);
  2479  0555  086C               	movf	(_temp+1)^(0+384),w
  2480  0556  00B4               	movwf	(PID_Init@nhietdo+1)^(0+384)
  2481  0557  086B               	movf	_temp^(0+384),w
  2482  0558  00B3               	movwf	PID_Init@nhietdo^(0+384)
  2483  0559  086E               	movf	_set_temp^(0+384),w
  2484  055A  00C3               	movwf	??_main^(0+384)
  2485  055B  01C4               	clrf	(??_main^(0+384)+1)
  2486  055C  0843               	movf	??_main^(0+384),w
  2487  055D  00B5               	movwf	PID_Init@nhietdodat^(0+384)
  2488  055E  0844               	movf	(??_main+1)^(0+384),w
  2489  055F  00B6               	movwf	(PID_Init@nhietdodat+1)^(0+384)
  2490  0560  120A  158A  2401  120A  118A  	fcall	_PID_Init
  2491  0565  1683               	bsf	3,5	;RP0=1, select bank3
  2492  0566  1703               	bsf	3,6	;RP1=1, select bank3
  2493  0567  0834               	movf	(?_PID_Init+1)^(0+384),w
  2494  0568  1283               	bcf	3,5	;RP0=0, select bank0
  2495  0569  1303               	bcf	3,6	;RP1=0, select bank0
  2496  056A  00E5               	movwf	_duty+1
  2497  056B  1683               	bsf	3,5	;RP0=1, select bank3
  2498  056C  1703               	bsf	3,6	;RP1=1, select bank3
  2499  056D  0833               	movf	?_PID_Init^(0+384),w
  2500  056E  1283               	bcf	3,5	;RP0=0, select bank0
  2501  056F  1303               	bcf	3,6	;RP1=0, select bank0
  2502  0570  00E4               	movwf	_duty
  2503                           
  2504                           ;deadline.c: 144:                     sum +=temp;
  2505  0571  1683               	bsf	3,5	;RP0=1, select bank3
  2506  0572  1703               	bsf	3,6	;RP1=1, select bank3
  2507  0573  086B               	movf	_temp^(0+384),w
  2508  0574  07E9               	addwf	_sum^(0+384),f
  2509  0575  1803               	skipnc
  2510  0576  0AEA               	incf	(_sum+1)^(0+384),f
  2511  0577  086C               	movf	(_temp+1)^(0+384),w
  2512  0578  07EA               	addwf	(_sum+1)^(0+384),f
  2513                           
  2514                           ;deadline.c: 145:                     if (m < 9) m++;
  2515  0579  3009               	movlw	9
  2516  057A  026D               	subwf	_m^(0+384),w
  2517  057B  1803               	skipnc
  2518  057C  2D82               	goto	l3866
  2519  057D  3001               	movlw	1
  2520  057E  00C3               	movwf	??_main^(0+384)
  2521  057F  0843               	movf	??_main^(0+384),w
  2522  0580  07ED               	addwf	_m^(0+384),f
  2523  0581  2DA8               	goto	l3872
  2524  0582                     l3866:	
  2525                           
  2526                           ;deadline.c: 147:                     {;deadline.c: 148:                     sum_avg = s
      +                          um / 10;
  2527  0582  300A               	movlw	10
  2528  0583  1683               	bsf	3,5	;RP0=1, select bank1
  2529  0584  1303               	bcf	3,6	;RP1=0, select bank1
  2530  0585  00A7               	movwf	___awdiv@divisor^(0+128)
  2531  0586  3000               	movlw	0
  2532  0587  00A8               	movwf	(___awdiv@divisor^(0+128)+1)
  2533  0588  1683               	bsf	3,5	;RP0=1, select bank3
  2534  0589  1703               	bsf	3,6	;RP1=1, select bank3
  2535  058A  086A               	movf	(_sum+1)^(0+384),w
  2536  058B  1683               	bsf	3,5	;RP0=1, select bank1
  2537  058C  1303               	bcf	3,6	;RP1=0, select bank1
  2538  058D  00AA               	movwf	(___awdiv@dividend+1)^(0+128)
  2539  058E  1683               	bsf	3,5	;RP0=1, select bank3
  2540  058F  1703               	bsf	3,6	;RP1=1, select bank3
  2541  0590  0869               	movf	_sum^(0+384),w
  2542  0591  1683               	bsf	3,5	;RP0=1, select bank1
  2543  0592  1303               	bcf	3,6	;RP1=0, select bank1
  2544  0593  00A9               	movwf	___awdiv@dividend^(0+128)
  2545  0594  160A  158A  237F  120A  118A  	fcall	___awdiv
  2546  0599  1683               	bsf	3,5	;RP0=1, select bank1
  2547  059A  1303               	bcf	3,6	;RP1=0, select bank1
  2548  059B  0828               	movf	(?___awdiv+1)^(0+128),w
  2549  059C  1683               	bsf	3,5	;RP0=1, select bank3
  2550  059D  1703               	bsf	3,6	;RP1=1, select bank3
  2551  059E  00E8               	movwf	(_sum_avg+1)^(0+384)
  2552  059F  1683               	bsf	3,5	;RP0=1, select bank1
  2553  05A0  1303               	bcf	3,6	;RP1=0, select bank1
  2554  05A1  0827               	movf	?___awdiv^(0+128),w
  2555  05A2  1683               	bsf	3,5	;RP0=1, select bank3
  2556  05A3  1703               	bsf	3,6	;RP1=1, select bank3
  2557  05A4  00E7               	movwf	_sum_avg^(0+384)
  2558                           
  2559                           ;deadline.c: 149:                     sum = 0;
  2560  05A5  01E9               	clrf	_sum^(0+384)
  2561  05A6  01EA               	clrf	(_sum+1)^(0+384)
  2562                           
  2563                           ;deadline.c: 150:                     m=0;
  2564  05A7  01ED               	clrf	_m^(0+384)
  2565  05A8                     l3872:	
  2566                           
  2567                           ;deadline.c: 153:                     if(RC1==0 && set_temp < 80)
  2568  05A8  1283               	bcf	3,5	;RP0=0, select bank0
  2569  05A9  1303               	bcf	3,6	;RP1=0, select bank0
  2570  05AA  1887               	btfsc	7,1	;volatile
  2571  05AB  2E07               	goto	l181
  2572  05AC  3050               	movlw	80
  2573  05AD  1683               	bsf	3,5	;RP0=1, select bank3
  2574  05AE  1703               	bsf	3,6	;RP1=1, select bank3
  2575  05AF  026E               	subwf	_set_temp^(0+384),w
  2576  05B0  1803               	skipnc
  2577  05B1  2E07               	goto	l181
  2578                           
  2579                           ;deadline.c: 154:                     {;deadline.c: 155:                         _delay(
      +                          (unsigned long)((10)*(20000000/4000.0)));
  2580  05B2  3041               	movlw	65
  2581  05B3  1683               	bsf	3,5	;RP0=1, select bank3
  2582  05B4  1703               	bsf	3,6	;RP1=1, select bank3
  2583  05B5  00C4               	movwf	(??_main^(0+384)+1)
  2584  05B6  30ED               	movlw	237
  2585  05B7  00C3               	movwf	??_main^(0+384)
  2586  05B8                     u6727:	
  2587  05B8  0BC3               	decfsz	??_main^(0+384),f
  2588  05B9  2DB8               	goto	u6727
  2589  05BA  0BC4               	decfsz	(??_main^(0+384)+1),f
  2590  05BB  2DB8               	goto	u6727
  2591  05BC  2DBD               	nop2
  2592                           
  2593                           ;deadline.c: 156:                         if(RC1==0 && set_temp < 80)
  2594  05BD  1283               	bcf	3,5	;RP0=0, select bank0
  2595  05BE  1303               	bcf	3,6	;RP1=0, select bank0
  2596  05BF  1887               	btfsc	7,1	;volatile
  2597  05C0  2E07               	goto	l181
  2598  05C1  3050               	movlw	80
  2599  05C2  1683               	bsf	3,5	;RP0=1, select bank3
  2600  05C3  1703               	bsf	3,6	;RP1=1, select bank3
  2601  05C4  026E               	subwf	_set_temp^(0+384),w
  2602  05C5  1803               	skipnc
  2603  05C6  2E07               	goto	l181
  2604                           
  2605                           ;deadline.c: 157:                         {;deadline.c: 158:                            
      +                           _delay((unsigned long)((10)*(20000000/4000.0)));
  2606  05C7  3041               	movlw	65
  2607  05C8  1683               	bsf	3,5	;RP0=1, select bank3
  2608  05C9  1703               	bsf	3,6	;RP1=1, select bank3
  2609  05CA  00C4               	movwf	(??_main^(0+384)+1)
  2610  05CB  30ED               	movlw	237
  2611  05CC  00C3               	movwf	??_main^(0+384)
  2612  05CD                     u6737:	
  2613  05CD  0BC3               	decfsz	??_main^(0+384),f
  2614  05CE  2DCD               	goto	u6737
  2615  05CF  0BC4               	decfsz	(??_main^(0+384)+1),f
  2616  05D0  2DCD               	goto	u6737
  2617  05D1  2DD2               	nop2
  2618                           
  2619                           ;deadline.c: 159:                             if(RC1==0 && set_temp < 80)
  2620  05D2  1283               	bcf	3,5	;RP0=0, select bank0
  2621  05D3  1303               	bcf	3,6	;RP1=0, select bank0
  2622  05D4  1887               	btfsc	7,1	;volatile
  2623  05D5  2E07               	goto	l181
  2624  05D6  3050               	movlw	80
  2625  05D7  1683               	bsf	3,5	;RP0=1, select bank3
  2626  05D8  1703               	bsf	3,6	;RP1=1, select bank3
  2627  05D9  026E               	subwf	_set_temp^(0+384),w
  2628  05DA  1C03               	btfss	3,0
  2629  05DB  2DFD               	goto	l3896
  2630  05DC  2E07               	goto	l181
  2631  05DD                     l3890:	
  2632                           
  2633                           ;deadline.c: 161:                                 {;deadline.c: 162:                    
      +                                           set_temp++;
  2634  05DD  3001               	movlw	1
  2635  05DE  00C3               	movwf	??_main^(0+384)
  2636  05DF  0843               	movf	??_main^(0+384),w
  2637  05E0  07EE               	addwf	_set_temp^(0+384),f
  2638                           
  2639                           ;deadline.c: 163:                                     Display(sum_avg,set_temp);
  2640  05E1  086E               	movf	_set_temp^(0+384),w
  2641  05E2  00C3               	movwf	??_main^(0+384)
  2642  05E3  0843               	movf	??_main^(0+384),w
  2643  05E4  1683               	bsf	3,5	;RP0=1, select bank1
  2644  05E5  1303               	bcf	3,6	;RP1=0, select bank1
  2645  05E6  00B0               	movwf	Display@b^(0+128)
  2646  05E7  1683               	bsf	3,5	;RP0=1, select bank3
  2647  05E8  1703               	bsf	3,6	;RP1=1, select bank3
  2648  05E9  0867               	movf	_sum_avg^(0+384),w
  2649  05EA  120A  118A  276A  120A  118A  	fcall	_Display
  2650                           
  2651                           ;deadline.c: 164:                                     _delay((unsigned long)((250)*(2000
      +                          0000/4000.0)));
  2652  05EF  3007               	movlw	7
  2653  05F0  1683               	bsf	3,5	;RP0=1, select bank3
  2654  05F1  1703               	bsf	3,6	;RP1=1, select bank3
  2655  05F2  00C5               	movwf	(??_main^(0+384)+2)
  2656  05F3  3058               	movlw	88
  2657  05F4  00C4               	movwf	(??_main^(0+384)+1)
  2658  05F5  3059               	movlw	89
  2659  05F6  00C3               	movwf	??_main^(0+384)
  2660  05F7                     u6747:	
  2661  05F7  0BC3               	decfsz	??_main^(0+384),f
  2662  05F8  2DF7               	goto	u6747
  2663  05F9  0BC4               	decfsz	(??_main^(0+384)+1),f
  2664  05FA  2DF7               	goto	u6747
  2665  05FB  0BC5               	decfsz	(??_main^(0+384)+2),f
  2666  05FC  2DF7               	goto	u6747
  2667  05FD                     l3896:	
  2668                           
  2669                           ;deadline.c: 160:                                 while(RC1==0 && set_temp < 80)
  2670  05FD  1283               	bcf	3,5	;RP0=0, select bank0
  2671  05FE  1303               	bcf	3,6	;RP1=0, select bank0
  2672  05FF  1887               	btfsc	7,1	;volatile
  2673  0600  2E07               	goto	l181
  2674  0601  3050               	movlw	80
  2675  0602  1683               	bsf	3,5	;RP0=1, select bank3
  2676  0603  1703               	bsf	3,6	;RP1=1, select bank3
  2677  0604  026E               	subwf	_set_temp^(0+384),w
  2678  0605  1C03               	skipc
  2679  0606  2DDD               	goto	l3890
  2680  0607                     l181:	
  2681                           ;deadline.c: 167:                     }
  2682                           
  2683                           ;deadline.c: 165:                                 }
  2684                           
  2685                           
  2686                           ;deadline.c: 168:                     if(RC2==0 && set_temp > 40)
  2687  0607  1283               	bcf	3,5	;RP0=0, select bank0
  2688  0608  1303               	bcf	3,6	;RP1=0, select bank0
  2689  0609  1907               	btfsc	7,2	;volatile
  2690  060A  2E64               	goto	l189
  2691  060B  3029               	movlw	41
  2692  060C  1683               	bsf	3,5	;RP0=1, select bank3
  2693  060D  1703               	bsf	3,6	;RP1=1, select bank3
  2694  060E  026E               	subwf	_set_temp^(0+384),w
  2695  060F  1C03               	skipc
  2696  0610  2E64               	goto	l189
  2697                           
  2698                           ;deadline.c: 169:                     {;deadline.c: 170:                         _delay(
      +                          (unsigned long)((10)*(20000000/4000.0)));
  2699  0611  3041               	movlw	65
  2700  0612  1683               	bsf	3,5	;RP0=1, select bank3
  2701  0613  1703               	bsf	3,6	;RP1=1, select bank3
  2702  0614  00C4               	movwf	(??_main^(0+384)+1)
  2703  0615  30ED               	movlw	237
  2704  0616  00C3               	movwf	??_main^(0+384)
  2705  0617                     u6757:	
  2706  0617  0BC3               	decfsz	??_main^(0+384),f
  2707  0618  2E17               	goto	u6757
  2708  0619  0BC4               	decfsz	(??_main^(0+384)+1),f
  2709  061A  2E17               	goto	u6757
  2710  061B  2E1C               	nop2
  2711                           
  2712                           ;deadline.c: 171:                         if(RC2==0 && set_temp > 40)
  2713  061C  1283               	bcf	3,5	;RP0=0, select bank0
  2714  061D  1303               	bcf	3,6	;RP1=0, select bank0
  2715  061E  1907               	btfsc	7,2	;volatile
  2716  061F  2E64               	goto	l189
  2717  0620  3029               	movlw	41
  2718  0621  1683               	bsf	3,5	;RP0=1, select bank3
  2719  0622  1703               	bsf	3,6	;RP1=1, select bank3
  2720  0623  026E               	subwf	_set_temp^(0+384),w
  2721  0624  1C03               	skipc
  2722  0625  2E64               	goto	l189
  2723                           
  2724                           ;deadline.c: 172:                         {;deadline.c: 173:                            
      +                           _delay((unsigned long)((10)*(20000000/4000.0)));
  2725  0626  3041               	movlw	65
  2726  0627  1683               	bsf	3,5	;RP0=1, select bank3
  2727  0628  1703               	bsf	3,6	;RP1=1, select bank3
  2728  0629  00C4               	movwf	(??_main^(0+384)+1)
  2729  062A  30ED               	movlw	237
  2730  062B  00C3               	movwf	??_main^(0+384)
  2731  062C                     u6767:	
  2732  062C  0BC3               	decfsz	??_main^(0+384),f
  2733  062D  2E2C               	goto	u6767
  2734  062E  0BC4               	decfsz	(??_main^(0+384)+1),f
  2735  062F  2E2C               	goto	u6767
  2736  0630  2E31               	nop2
  2737                           
  2738                           ;deadline.c: 174:                             if(RC2==0 && set_temp > 40)
  2739  0631  1283               	bcf	3,5	;RP0=0, select bank0
  2740  0632  1303               	bcf	3,6	;RP1=0, select bank0
  2741  0633  1907               	btfsc	7,2	;volatile
  2742  0634  2E64               	goto	l189
  2743  0635  3029               	movlw	41
  2744  0636  1683               	bsf	3,5	;RP0=1, select bank3
  2745  0637  1703               	bsf	3,6	;RP1=1, select bank3
  2746  0638  026E               	subwf	_set_temp^(0+384),w
  2747  0639  1803               	btfsc	3,0
  2748  063A  2E5A               	goto	l3922
  2749  063B  2E64               	goto	l189
  2750  063C                     l3916:	
  2751                           
  2752                           ;deadline.c: 177:                                 {;deadline.c: 178:                    
      +                                           set_temp--;
  2753  063C  3001               	movlw	1
  2754  063D  02EE               	subwf	_set_temp^(0+384),f
  2755                           
  2756                           ;deadline.c: 179:                                     Display(sum_avg,set_temp);
  2757  063E  086E               	movf	_set_temp^(0+384),w
  2758  063F  00C3               	movwf	??_main^(0+384)
  2759  0640  0843               	movf	??_main^(0+384),w
  2760  0641  1683               	bsf	3,5	;RP0=1, select bank1
  2761  0642  1303               	bcf	3,6	;RP1=0, select bank1
  2762  0643  00B0               	movwf	Display@b^(0+128)
  2763  0644  1683               	bsf	3,5	;RP0=1, select bank3
  2764  0645  1703               	bsf	3,6	;RP1=1, select bank3
  2765  0646  0867               	movf	_sum_avg^(0+384),w
  2766  0647  120A  118A  276A  120A  118A  	fcall	_Display
  2767                           
  2768                           ;deadline.c: 180:                                     _delay((unsigned long)((250)*(2000
      +                          0000/4000.0)));
  2769  064C  3007               	movlw	7
  2770  064D  1683               	bsf	3,5	;RP0=1, select bank3
  2771  064E  1703               	bsf	3,6	;RP1=1, select bank3
  2772  064F  00C5               	movwf	(??_main^(0+384)+2)
  2773  0650  3058               	movlw	88
  2774  0651  00C4               	movwf	(??_main^(0+384)+1)
  2775  0652  3059               	movlw	89
  2776  0653  00C3               	movwf	??_main^(0+384)
  2777  0654                     u6777:	
  2778  0654  0BC3               	decfsz	??_main^(0+384),f
  2779  0655  2E54               	goto	u6777
  2780  0656  0BC4               	decfsz	(??_main^(0+384)+1),f
  2781  0657  2E54               	goto	u6777
  2782  0658  0BC5               	decfsz	(??_main^(0+384)+2),f
  2783  0659  2E54               	goto	u6777
  2784  065A                     l3922:	
  2785                           
  2786                           ;deadline.c: 176:                                 while(RC2==0 && set_temp > 40)
  2787  065A  1283               	bcf	3,5	;RP0=0, select bank0
  2788  065B  1303               	bcf	3,6	;RP1=0, select bank0
  2789  065C  1907               	btfsc	7,2	;volatile
  2790  065D  2E64               	goto	l189
  2791  065E  3029               	movlw	41
  2792  065F  1683               	bsf	3,5	;RP0=1, select bank3
  2793  0660  1703               	bsf	3,6	;RP1=1, select bank3
  2794  0661  026E               	subwf	_set_temp^(0+384),w
  2795  0662  1803               	skipnc
  2796  0663  2E3C               	goto	l3916
  2797  0664                     l189:	
  2798                           ;deadline.c: 184:                     }
  2799                           
  2800                           ;deadline.c: 182:                             }
  2801                           
  2802                           
  2803                           ;deadline.c: 185:                     if(RC0 == 0)
  2804  0664  1283               	bcf	3,5	;RP0=0, select bank0
  2805  0665  1303               	bcf	3,6	;RP1=0, select bank0
  2806  0666  1807               	btfsc	7,0	;volatile
  2807  0667  2E87               	goto	l197
  2808                           
  2809                           ;deadline.c: 186:                     {;deadline.c: 187:                         _delay(
      +                          (unsigned long)((10)*(20000000/4000.0)));
  2810  0668  3041               	movlw	65
  2811  0669  1683               	bsf	3,5	;RP0=1, select bank3
  2812  066A  1703               	bsf	3,6	;RP1=1, select bank3
  2813  066B  00C4               	movwf	(??_main^(0+384)+1)
  2814  066C  30ED               	movlw	237
  2815  066D  00C3               	movwf	??_main^(0+384)
  2816  066E                     u6787:	
  2817  066E  0BC3               	decfsz	??_main^(0+384),f
  2818  066F  2E6E               	goto	u6787
  2819  0670  0BC4               	decfsz	(??_main^(0+384)+1),f
  2820  0671  2E6E               	goto	u6787
  2821  0672  2E73               	nop2
  2822                           
  2823                           ;deadline.c: 188:                         if(RC0 == 0)
  2824  0673  1283               	bcf	3,5	;RP0=0, select bank0
  2825  0674  1303               	bcf	3,6	;RP1=0, select bank0
  2826  0675  1807               	btfsc	7,0	;volatile
  2827  0676  2E87               	goto	l197
  2828                           
  2829                           ;deadline.c: 189:                         {;deadline.c: 190:                            
      +                           _delay((unsigned long)((10)*(20000000/4000.0)));
  2830  0677  3041               	movlw	65
  2831  0678  1683               	bsf	3,5	;RP0=1, select bank3
  2832  0679  1703               	bsf	3,6	;RP1=1, select bank3
  2833  067A  00C4               	movwf	(??_main^(0+384)+1)
  2834  067B  30ED               	movlw	237
  2835  067C  00C3               	movwf	??_main^(0+384)
  2836  067D                     u6797:	
  2837  067D  0BC3               	decfsz	??_main^(0+384),f
  2838  067E  2E7D               	goto	u6797
  2839  067F  0BC4               	decfsz	(??_main^(0+384)+1),f
  2840  0680  2E7D               	goto	u6797
  2841  0681  2E82               	nop2
  2842  0682                     l199:	
  2843                           ;deadline.c: 191:                             while(RC0 == 0);
  2844                           
  2845  0682  1283               	bcf	3,5	;RP0=0, select bank0
  2846  0683  1303               	bcf	3,6	;RP1=0, select bank0
  2847  0684  1807               	btfsc	7,0	;volatile
  2848  0685  290E               	goto	l161
  2849  0686  2E82               	goto	l199
  2850  0687                     l197:	
  2851                           ;deadline.c: 194:                     }
  2852                           
  2853                           
  2854                           ;deadline.c: 196:                     if(RC0 == 0)
  2855  0687  1807               	btfsc	7,0	;volatile
  2856  0688  2EA8               	goto	l3938
  2857                           
  2858                           ;deadline.c: 197:                     {;deadline.c: 198:                         _delay(
      +                          (unsigned long)((10)*(20000000/4000.0)));
  2859  0689  3041               	movlw	65
  2860  068A  1683               	bsf	3,5	;RP0=1, select bank3
  2861  068B  1703               	bsf	3,6	;RP1=1, select bank3
  2862  068C  00C4               	movwf	(??_main^(0+384)+1)
  2863  068D  30ED               	movlw	237
  2864  068E  00C3               	movwf	??_main^(0+384)
  2865  068F                     u6807:	
  2866  068F  0BC3               	decfsz	??_main^(0+384),f
  2867  0690  2E8F               	goto	u6807
  2868  0691  0BC4               	decfsz	(??_main^(0+384)+1),f
  2869  0692  2E8F               	goto	u6807
  2870  0693  2E94               	nop2
  2871                           
  2872                           ;deadline.c: 199:                         if(RC0 == 0)
  2873  0694  1283               	bcf	3,5	;RP0=0, select bank0
  2874  0695  1303               	bcf	3,6	;RP1=0, select bank0
  2875  0696  1807               	btfsc	7,0	;volatile
  2876  0697  2EA8               	goto	l3938
  2877                           
  2878                           ;deadline.c: 200:                         {;deadline.c: 201:                            
      +                           _delay((unsigned long)((10)*(20000000/4000.0)));
  2879  0698  3041               	movlw	65
  2880  0699  1683               	bsf	3,5	;RP0=1, select bank3
  2881  069A  1703               	bsf	3,6	;RP1=1, select bank3
  2882  069B  00C4               	movwf	(??_main^(0+384)+1)
  2883  069C  30ED               	movlw	237
  2884  069D  00C3               	movwf	??_main^(0+384)
  2885  069E                     u6817:	
  2886  069E  0BC3               	decfsz	??_main^(0+384),f
  2887  069F  2E9E               	goto	u6817
  2888  06A0  0BC4               	decfsz	(??_main^(0+384)+1),f
  2889  06A1  2E9E               	goto	u6817
  2890  06A2  2EA3               	nop2
  2891  06A3                     l204:	
  2892                           ;deadline.c: 202:                             while(RC0 == 0);
  2893                           
  2894  06A3  1283               	bcf	3,5	;RP0=0, select bank0
  2895  06A4  1303               	bcf	3,6	;RP1=0, select bank0
  2896  06A5  1807               	btfsc	7,0	;volatile
  2897  06A6  290E               	goto	l161
  2898  06A7  2EA3               	goto	l204
  2899  06A8                     l3938:	
  2900                           
  2901                           ;deadline.c: 207:                     Display(sum_avg,set_temp);
  2902  06A8  1683               	bsf	3,5	;RP0=1, select bank3
  2903  06A9  1703               	bsf	3,6	;RP1=1, select bank3
  2904  06AA  086E               	movf	_set_temp^(0+384),w
  2905  06AB  00C3               	movwf	??_main^(0+384)
  2906  06AC  0843               	movf	??_main^(0+384),w
  2907  06AD  1683               	bsf	3,5	;RP0=1, select bank1
  2908  06AE  1303               	bcf	3,6	;RP1=0, select bank1
  2909  06AF  00B0               	movwf	Display@b^(0+128)
  2910  06B0  1683               	bsf	3,5	;RP0=1, select bank3
  2911  06B1  1703               	bsf	3,6	;RP1=1, select bank3
  2912  06B2  0867               	movf	_sum_avg^(0+384),w
  2913  06B3  120A  118A  276A  120A  118A  	fcall	_Display
  2914                           
  2915                           ;deadline.c: 208:                     _delay((unsigned long)((10)*(20000000/4000.0)));
  2916  06B8  3041               	movlw	65
  2917  06B9  1683               	bsf	3,5	;RP0=1, select bank3
  2918  06BA  1703               	bsf	3,6	;RP1=1, select bank3
  2919  06BB  00C4               	movwf	(??_main^(0+384)+1)
  2920  06BC  30ED               	movlw	237
  2921  06BD  00C3               	movwf	??_main^(0+384)
  2922  06BE                     u6827:	
  2923  06BE  0BC3               	decfsz	??_main^(0+384),f
  2924  06BF  2EBE               	goto	u6827
  2925  06C0  0BC4               	decfsz	(??_main^(0+384)+1),f
  2926  06C1  2EBE               	goto	u6827
  2927  06C2  2EC3               	nop2
  2928  06C3  2CD4               	goto	l3856
  2929  06C4                     __end_of_main:	
  2930                           
  2931                           	psect	text1
  2932  06C4                     __ptext1:	
  2933 ;; *************** function _map *****************
  2934 ;; Defined at:
  2935 ;;		line 226 in file "deadline.c"
  2936 ;; Parameters:    Size  Location     Type
  2937 ;;  x               4   28[BANK1 ] long 
  2938 ;;  in_min          4   32[BANK1 ] long 
  2939 ;;  in_max          4   36[BANK1 ] long 
  2940 ;;  out_min         4   40[BANK1 ] long 
  2941 ;;  out_max         4   44[BANK1 ] long 
  2942 ;; Auto vars:     Size  Location     Type
  2943 ;;		None
  2944 ;; Return value:  Size  Location     Type
  2945 ;;                  4   28[BANK1 ] long 
  2946 ;; Registers used:
  2947 ;;		wreg, status,2, status,0, pclath, cstack
  2948 ;; Tracked objects:
  2949 ;;		On entry : 0/0
  2950 ;;		On exit  : 0/0
  2951 ;;		Unchanged: 0/0
  2952 ;; Data sizes:     COMMON   BANK0   BANK1   BANK3   BANK2
  2953 ;;      Params:         0       0      20       0       0
  2954 ;;      Locals:         0       0       0       0       0
  2955 ;;      Temps:          0       0      16       0       0
  2956 ;;      Totals:         0       0      36       0       0
  2957 ;;Total ram usage:       36 bytes
  2958 ;; Hardware stack levels used:    1
  2959 ;; Hardware stack levels required when called:    4
  2960 ;; This function calls:
  2961 ;;		___aldiv
  2962 ;;		___lmul
  2963 ;; This function is called by:
  2964 ;;		_main
  2965 ;; This function uses a non-reentrant model
  2966 ;;
  2967                           
  2968                           
  2969                           ;psect for function _map
  2970  06C4                     _map:	
  2971                           
  2972                           ;deadline.c: 226: long map(long x, long in_min, long in_max, long out_min, long out_max)
      +                          ;deadline.c: 227: {;deadline.c: 228:  return (x - in_min) * (out_max - out_min) / (in_ma
      +                          x - in_min) + out_min;
  2973                           
  2974                           ;incstack = 0
  2975                           ; Regs used in _map: [wreg+status,2+status,0+pclath+cstack]
  2976  06C4  1683               	bsf	3,5	;RP0=1, select bank1
  2977  06C5  1303               	bcf	3,6	;RP1=0, select bank1
  2978  06C6  0844               	movf	map@in_max^(0+128),w
  2979  06C7  00D0               	movwf	??_map^(0+128)
  2980  06C8  0845               	movf	(map@in_max+1)^(0+128),w
  2981  06C9  00D1               	movwf	(??_map^(0+128)+1)
  2982  06CA  0846               	movf	(map@in_max+2)^(0+128),w
  2983  06CB  00D2               	movwf	(??_map^(0+128)+2)
  2984  06CC  0847               	movf	(map@in_max+3)^(0+128),w
  2985  06CD  00D3               	movwf	(??_map^(0+128)+3)
  2986  06CE  0840               	movf	map@in_min^(0+128),w
  2987  06CF  02D0               	subwf	??_map^(0+128),f
  2988  06D0  0841               	movf	(map@in_min+1)^(0+128),w
  2989  06D1  1C03               	skipc
  2990  06D2  0F41               	incfsz	(map@in_min+1)^(0+128),w
  2991  06D3  2ED5               	goto	u5641
  2992  06D4  2ED6               	goto	u5642
  2993  06D5                     u5641:	
  2994  06D5  02D1               	subwf	(??_map^(0+128)+1),f
  2995  06D6                     u5642:	
  2996  06D6  0842               	movf	(map@in_min+2)^(0+128),w
  2997  06D7  1C03               	skipc
  2998  06D8  0F42               	incfsz	(map@in_min+2)^(0+128),w
  2999  06D9  2EDB               	goto	u5643
  3000  06DA  2EDC               	goto	u5644
  3001  06DB                     u5643:	
  3002  06DB  02D2               	subwf	(??_map^(0+128)+2),f
  3003  06DC                     u5644:	
  3004  06DC  0843               	movf	(map@in_min+3)^(0+128),w
  3005  06DD  1C03               	skipc
  3006  06DE  0F43               	incfsz	(map@in_min+3)^(0+128),w
  3007  06DF  2EE1               	goto	u5645
  3008  06E0  2EE2               	goto	u5646
  3009  06E1                     u5645:	
  3010  06E1  02D3               	subwf	(??_map^(0+128)+3),f
  3011  06E2                     u5646:	
  3012  06E2  0853               	movf	(??_map+3)^(0+128),w
  3013  06E3  00B0               	movwf	(___aldiv@divisor+3)^(0+128)
  3014  06E4  0852               	movf	(??_map+2)^(0+128),w
  3015  06E5  00AF               	movwf	(___aldiv@divisor+2)^(0+128)
  3016  06E6  0851               	movf	(??_map+1)^(0+128),w
  3017  06E7  00AE               	movwf	(___aldiv@divisor+1)^(0+128)
  3018  06E8  0850               	movf	??_map^(0+128),w
  3019  06E9  00AD               	movwf	___aldiv@divisor^(0+128)
  3020  06EA  083C               	movf	map@x^(0+128),w
  3021  06EB  00D4               	movwf	(??_map+4)^(0+128)
  3022  06EC  083D               	movf	(map@x+1)^(0+128),w
  3023  06ED  00D5               	movwf	((??_map+4)^(0+128)+1)
  3024  06EE  083E               	movf	(map@x+2)^(0+128),w
  3025  06EF  00D6               	movwf	((??_map+4)^(0+128)+2)
  3026  06F0  083F               	movf	(map@x+3)^(0+128),w
  3027  06F1  00D7               	movwf	((??_map+4)^(0+128)+3)
  3028  06F2  0840               	movf	map@in_min^(0+128),w
  3029  06F3  02D4               	subwf	(??_map+4)^(0+128),f
  3030  06F4  0841               	movf	(map@in_min+1)^(0+128),w
  3031  06F5  1C03               	skipc
  3032  06F6  0F41               	incfsz	(map@in_min+1)^(0+128),w
  3033  06F7  2EF9               	goto	u5651
  3034  06F8  2EFA               	goto	u5652
  3035  06F9                     u5651:	
  3036  06F9  02D5               	subwf	((??_map+4)^(0+128)+1),f
  3037  06FA                     u5652:	
  3038  06FA  0842               	movf	(map@in_min+2)^(0+128),w
  3039  06FB  1C03               	skipc
  3040  06FC  0F42               	incfsz	(map@in_min+2)^(0+128),w
  3041  06FD  2EFF               	goto	u5653
  3042  06FE  2F00               	goto	u5654
  3043  06FF                     u5653:	
  3044  06FF  02D6               	subwf	((??_map+4)^(0+128)+2),f
  3045  0700                     u5654:	
  3046  0700  0843               	movf	(map@in_min+3)^(0+128),w
  3047  0701  1C03               	skipc
  3048  0702  0F43               	incfsz	(map@in_min+3)^(0+128),w
  3049  0703  2F05               	goto	u5655
  3050  0704  2F06               	goto	u5656
  3051  0705                     u5655:	
  3052  0705  02D7               	subwf	((??_map+4)^(0+128)+3),f
  3053  0706                     u5656:	
  3054  0706  0857               	movf	(??_map+7)^(0+128),w
  3055  0707  00A3               	movwf	(___lmul@multiplier+3)^(0+128)
  3056  0708  0856               	movf	(??_map+6)^(0+128),w
  3057  0709  00A2               	movwf	(___lmul@multiplier+2)^(0+128)
  3058  070A  0855               	movf	(??_map+5)^(0+128),w
  3059  070B  00A1               	movwf	(___lmul@multiplier+1)^(0+128)
  3060  070C  0854               	movf	(??_map+4)^(0+128),w
  3061  070D  00A0               	movwf	___lmul@multiplier^(0+128)
  3062  070E  084C               	movf	map@out_max^(0+128),w
  3063  070F  00D8               	movwf	(??_map+8)^(0+128)
  3064  0710  084D               	movf	(map@out_max+1)^(0+128),w
  3065  0711  00D9               	movwf	((??_map+8)^(0+128)+1)
  3066  0712  084E               	movf	(map@out_max+2)^(0+128),w
  3067  0713  00DA               	movwf	((??_map+8)^(0+128)+2)
  3068  0714  084F               	movf	(map@out_max+3)^(0+128),w
  3069  0715  00DB               	movwf	((??_map+8)^(0+128)+3)
  3070  0716  0848               	movf	map@out_min^(0+128),w
  3071  0717  02D8               	subwf	(??_map+8)^(0+128),f
  3072  0718  0849               	movf	(map@out_min+1)^(0+128),w
  3073  0719  1C03               	skipc
  3074  071A  0F49               	incfsz	(map@out_min+1)^(0+128),w
  3075  071B  2F1D               	goto	u5661
  3076  071C  2F1E               	goto	u5662
  3077  071D                     u5661:	
  3078  071D  02D9               	subwf	((??_map+8)^(0+128)+1),f
  3079  071E                     u5662:	
  3080  071E  084A               	movf	(map@out_min+2)^(0+128),w
  3081  071F  1C03               	skipc
  3082  0720  0F4A               	incfsz	(map@out_min+2)^(0+128),w
  3083  0721  2F23               	goto	u5663
  3084  0722  2F24               	goto	u5664
  3085  0723                     u5663:	
  3086  0723  02DA               	subwf	((??_map+8)^(0+128)+2),f
  3087  0724                     u5664:	
  3088  0724  084B               	movf	(map@out_min+3)^(0+128),w
  3089  0725  1C03               	skipc
  3090  0726  0F4B               	incfsz	(map@out_min+3)^(0+128),w
  3091  0727  2F29               	goto	u5665
  3092  0728  2F2A               	goto	u5666
  3093  0729                     u5665:	
  3094  0729  02DB               	subwf	((??_map+8)^(0+128)+3),f
  3095  072A                     u5666:	
  3096  072A  085B               	movf	(??_map+11)^(0+128),w
  3097  072B  00A7               	movwf	(___lmul@multiplicand+3)^(0+128)
  3098  072C  085A               	movf	(??_map+10)^(0+128),w
  3099  072D  00A6               	movwf	(___lmul@multiplicand+2)^(0+128)
  3100  072E  0859               	movf	(??_map+9)^(0+128),w
  3101  072F  00A5               	movwf	(___lmul@multiplicand+1)^(0+128)
  3102  0730  0858               	movf	(??_map+8)^(0+128),w
  3103  0731  00A4               	movwf	___lmul@multiplicand^(0+128)
  3104  0732  160A  158A  229E  120A  118A  	fcall	___lmul
  3105  0737  1683               	bsf	3,5	;RP0=1, select bank1
  3106  0738  1303               	bcf	3,6	;RP1=0, select bank1
  3107  0739  0823               	movf	(?___lmul+3)^(0+128),w
  3108  073A  00B4               	movwf	(___aldiv@dividend+3)^(0+128)
  3109  073B  0822               	movf	(?___lmul+2)^(0+128),w
  3110  073C  00B3               	movwf	(___aldiv@dividend+2)^(0+128)
  3111  073D  0821               	movf	(?___lmul+1)^(0+128),w
  3112  073E  00B2               	movwf	(___aldiv@dividend+1)^(0+128)
  3113  073F  0820               	movf	?___lmul^(0+128),w
  3114  0740  00B1               	movwf	___aldiv@dividend^(0+128)
  3115  0741  160A  118A  2002   	fcall	___aldiv
  3116  0744  1683               	bsf	3,5	;RP0=1, select bank1
  3117  0745  1303               	bcf	3,6	;RP1=0, select bank1
  3118  0746  082D               	movf	?___aldiv^(0+128),w
  3119  0747  0748               	addwf	map@out_min^(0+128),w
  3120  0748  00DC               	movwf	(??_map+12)^(0+128)
  3121  0749  3000               	movlw	0
  3122  074A  1803               	skipnc
  3123  074B  3001               	movlw	1
  3124  074C  072E               	addwf	(?___aldiv+1)^(0+128),w
  3125  074D  01DE               	clrf	((??_map+12)^(0+128)+2)
  3126  074E  1803               	skipnc
  3127  074F  0ADE               	incf	((??_map+12)^(0+128)+2),f
  3128  0750  0749               	addwf	(map@out_min+1)^(0+128),w
  3129  0751  00DD               	movwf	((??_map+12)^(0+128)+1)
  3130  0752  1803               	skipnc
  3131  0753  0ADE               	incf	((??_map+12)^(0+128)+2),f
  3132  0754  082F               	movf	(?___aldiv+2)^(0+128),w
  3133  0755  075E               	addwf	((??_map+12)^(0+128)+2),w
  3134  0756  01DF               	clrf	((??_map+12)^(0+128)+3)
  3135  0757  1803               	skipnc
  3136  0758  0ADF               	incf	((??_map+12)^(0+128)+3),f
  3137  0759  074A               	addwf	(map@out_min+2)^(0+128),w
  3138  075A  00DE               	movwf	((??_map+12)^(0+128)+2)
  3139  075B  1803               	skipnc
  3140  075C  0ADF               	incf	((??_map+12)^(0+128)+3),f
  3141  075D  0830               	movf	(?___aldiv+3)^(0+128),w
  3142  075E  075F               	addwf	((??_map+12)^(0+128)+3),w
  3143  075F  074B               	addwf	(map@out_min+3)^(0+128),w
  3144  0760  00DF               	movwf	((??_map+12)^(0+128)+3)
  3145  0761  085F               	movf	(??_map+15)^(0+128),w
  3146  0762  00BF               	movwf	(?_map+3)^(0+128)
  3147  0763  085E               	movf	(??_map+14)^(0+128),w
  3148  0764  00BE               	movwf	(?_map+2)^(0+128)
  3149  0765  085D               	movf	(??_map+13)^(0+128),w
  3150  0766  00BD               	movwf	(?_map+1)^(0+128)
  3151  0767  085C               	movf	(??_map+12)^(0+128),w
  3152  0768  00BC               	movwf	?_map^(0+128)
  3153  0769  0008               	return
  3154  076A                     __end_of_map:	
  3155                           
  3156                           	psect	text2
  3157  1A9E                     __ptext2:	
  3158 ;; *************** function ___lmul *****************
  3159 ;; Defined at:
  3160 ;;		line 15 in file "D:\PROGRAM\MPLABX v5.20\XC8 v2.05\pic\sources\c90\common\Umul32.c"
  3161 ;; Parameters:    Size  Location     Type
  3162 ;;  multiplier      4    0[BANK1 ] unsigned long 
  3163 ;;  multiplicand    4    4[BANK1 ] unsigned long 
  3164 ;; Auto vars:     Size  Location     Type
  3165 ;;  product         4    9[BANK1 ] unsigned long 
  3166 ;; Return value:  Size  Location     Type
  3167 ;;                  4    0[BANK1 ] unsigned long 
  3168 ;; Registers used:
  3169 ;;		wreg, status,2, status,0
  3170 ;; Tracked objects:
  3171 ;;		On entry : 0/0
  3172 ;;		On exit  : 0/0
  3173 ;;		Unchanged: 0/0
  3174 ;; Data sizes:     COMMON   BANK0   BANK1   BANK3   BANK2
  3175 ;;      Params:         0       0       8       0       0
  3176 ;;      Locals:         0       0       4       0       0
  3177 ;;      Temps:          0       0       1       0       0
  3178 ;;      Totals:         0       0      13       0       0
  3179 ;;Total ram usage:       13 bytes
  3180 ;; Hardware stack levels used:    1
  3181 ;; Hardware stack levels required when called:    3
  3182 ;; This function calls:
  3183 ;;		Nothing
  3184 ;; This function is called by:
  3185 ;;		_map
  3186 ;; This function uses a non-reentrant model
  3187 ;;
  3188                           
  3189                           
  3190                           ;psect for function ___lmul
  3191  1A9E                     ___lmul:	
  3192                           
  3193                           ;incstack = 0
  3194                           ; Regs used in ___lmul: [wreg+status,2+status,0]
  3195  1A9E  3000               	movlw	0
  3196  1A9F  1683               	bsf	3,5	;RP0=1, select bank1
  3197  1AA0  1303               	bcf	3,6	;RP1=0, select bank1
  3198  1AA1  00AC               	movwf	(___lmul@product+3)^(0+128)
  3199  1AA2  3000               	movlw	0
  3200  1AA3  00AB               	movwf	(___lmul@product+2)^(0+128)
  3201  1AA4  3000               	movlw	0
  3202  1AA5  00AA               	movwf	(___lmul@product+1)^(0+128)
  3203  1AA6  3000               	movlw	0
  3204  1AA7  00A9               	movwf	___lmul@product^(0+128)
  3205  1AA8                     l2702:	
  3206  1AA8  1C20               	btfss	___lmul@multiplier^(0+128),0
  3207  1AA9  2ABE               	goto	l2706
  3208  1AAA  0824               	movf	___lmul@multiplicand^(0+128),w
  3209  1AAB  07A9               	addwf	___lmul@product^(0+128),f
  3210  1AAC  0825               	movf	(___lmul@multiplicand+1)^(0+128),w
  3211  1AAD  1103               	clrz
  3212  1AAE  1803               	skipnc
  3213  1AAF  3E01               	addlw	1
  3214  1AB0  1D03               	btfss	3,2
  3215  1AB1  07AA               	addwf	(___lmul@product+1)^(0+128),f
  3216  1AB2  0826               	movf	(___lmul@multiplicand+2)^(0+128),w
  3217  1AB3  1103               	clrz
  3218  1AB4  1803               	skipnc
  3219  1AB5  3E01               	addlw	1
  3220  1AB6  1D03               	btfss	3,2
  3221  1AB7  07AB               	addwf	(___lmul@product+2)^(0+128),f
  3222  1AB8  0827               	movf	(___lmul@multiplicand+3)^(0+128),w
  3223  1AB9  1103               	clrz
  3224  1ABA  1803               	skipnc
  3225  1ABB  3E01               	addlw	1
  3226  1ABC  1D03               	btfss	3,2
  3227  1ABD  07AC               	addwf	(___lmul@product+3)^(0+128),f
  3228  1ABE                     l2706:	
  3229  1ABE  3001               	movlw	1
  3230  1ABF  00A8               	movwf	??___lmul^(0+128)
  3231  1AC0                     u3935:	
  3232  1AC0  1003               	clrc
  3233  1AC1  0DA4               	rlf	___lmul@multiplicand^(0+128),f
  3234  1AC2  0DA5               	rlf	(___lmul@multiplicand+1)^(0+128),f
  3235  1AC3  0DA6               	rlf	(___lmul@multiplicand+2)^(0+128),f
  3236  1AC4  0DA7               	rlf	(___lmul@multiplicand+3)^(0+128),f
  3237  1AC5  0BA8               	decfsz	??___lmul^(0+128),f
  3238  1AC6  2AC0               	goto	u3935
  3239  1AC7  3001               	movlw	1
  3240  1AC8                     u3945:	
  3241  1AC8  1003               	clrc
  3242  1AC9  0CA3               	rrf	(___lmul@multiplier+3)^(0+128),f
  3243  1ACA  0CA2               	rrf	(___lmul@multiplier+2)^(0+128),f
  3244  1ACB  0CA1               	rrf	(___lmul@multiplier+1)^(0+128),f
  3245  1ACC  0CA0               	rrf	___lmul@multiplier^(0+128),f
  3246  1ACD  3EFF               	addlw	-1
  3247  1ACE  1D03               	skipz
  3248  1ACF  2AC8               	goto	u3945
  3249  1AD0  0823               	movf	(___lmul@multiplier+3)^(0+128),w
  3250  1AD1  0422               	iorwf	(___lmul@multiplier+2)^(0+128),w
  3251  1AD2  0421               	iorwf	(___lmul@multiplier+1)^(0+128),w
  3252  1AD3  0420               	iorwf	___lmul@multiplier^(0+128),w
  3253  1AD4  1D03               	skipz
  3254  1AD5  2AA8               	goto	l2702
  3255  1AD6  082C               	movf	(___lmul@product+3)^(0+128),w
  3256  1AD7  00A3               	movwf	(?___lmul+3)^(0+128)
  3257  1AD8  082B               	movf	(___lmul@product+2)^(0+128),w
  3258  1AD9  00A2               	movwf	(?___lmul+2)^(0+128)
  3259  1ADA  082A               	movf	(___lmul@product+1)^(0+128),w
  3260  1ADB  00A1               	movwf	(?___lmul+1)^(0+128)
  3261  1ADC  0829               	movf	___lmul@product^(0+128),w
  3262  1ADD  00A0               	movwf	?___lmul^(0+128)
  3263  1ADE  0008               	return
  3264  1ADF                     __end_of___lmul:	
  3265                           
  3266                           	psect	text3
  3267  1002                     __ptext3:	
  3268 ;; *************** function ___aldiv *****************
  3269 ;; Defined at:
  3270 ;;		line 5 in file "D:\PROGRAM\MPLABX v5.20\XC8 v2.05\pic\sources\c90\common\aldiv.c"
  3271 ;; Parameters:    Size  Location     Type
  3272 ;;  divisor         4   13[BANK1 ] long 
  3273 ;;  dividend        4   17[BANK1 ] long 
  3274 ;; Auto vars:     Size  Location     Type
  3275 ;;  quotient        4   24[BANK1 ] long 
  3276 ;;  sign            1   23[BANK1 ] unsigned char 
  3277 ;;  counter         1   22[BANK1 ] unsigned char 
  3278 ;; Return value:  Size  Location     Type
  3279 ;;                  4   13[BANK1 ] long 
  3280 ;; Registers used:
  3281 ;;		wreg, status,2, status,0
  3282 ;; Tracked objects:
  3283 ;;		On entry : 0/0
  3284 ;;		On exit  : 0/0
  3285 ;;		Unchanged: 0/0
  3286 ;; Data sizes:     COMMON   BANK0   BANK1   BANK3   BANK2
  3287 ;;      Params:         0       0       8       0       0
  3288 ;;      Locals:         0       0       6       0       0
  3289 ;;      Temps:          0       0       1       0       0
  3290 ;;      Totals:         0       0      15       0       0
  3291 ;;Total ram usage:       15 bytes
  3292 ;; Hardware stack levels used:    1
  3293 ;; Hardware stack levels required when called:    3
  3294 ;; This function calls:
  3295 ;;		Nothing
  3296 ;; This function is called by:
  3297 ;;		_main
  3298 ;;		_map
  3299 ;; This function uses a non-reentrant model
  3300 ;;
  3301                           
  3302                           
  3303                           ;psect for function ___aldiv
  3304  1002                     ___aldiv:	
  3305                           
  3306                           ;incstack = 0
  3307                           ; Regs used in ___aldiv: [wreg+status,2+status,0]
  3308  1002  1683               	bsf	3,5	;RP0=1, select bank1
  3309  1003  1303               	bcf	3,6	;RP1=0, select bank1
  3310  1004  01B7               	clrf	___aldiv@sign^(0+128)
  3311  1005  1FB0               	btfss	(___aldiv@divisor+3)^(0+128),7
  3312  1006  2814               	goto	l455
  3313  1007  09AD               	comf	___aldiv@divisor^(0+128),f
  3314  1008  09AE               	comf	(___aldiv@divisor+1)^(0+128),f
  3315  1009  09AF               	comf	(___aldiv@divisor+2)^(0+128),f
  3316  100A  09B0               	comf	(___aldiv@divisor+3)^(0+128),f
  3317  100B  0AAD               	incf	___aldiv@divisor^(0+128),f
  3318  100C  1903               	skipnz
  3319  100D  0AAE               	incf	(___aldiv@divisor+1)^(0+128),f
  3320  100E  1903               	skipnz
  3321  100F  0AAF               	incf	(___aldiv@divisor+2)^(0+128),f
  3322  1010  1903               	skipnz
  3323  1011  0AB0               	incf	(___aldiv@divisor+3)^(0+128),f
  3324  1012  01B7               	clrf	___aldiv@sign^(0+128)
  3325  1013  0AB7               	incf	___aldiv@sign^(0+128),f
  3326  1014                     l455:	
  3327  1014  1FB4               	btfss	(___aldiv@dividend+3)^(0+128),7
  3328  1015  2825               	goto	l2724
  3329  1016  09B1               	comf	___aldiv@dividend^(0+128),f
  3330  1017  09B2               	comf	(___aldiv@dividend+1)^(0+128),f
  3331  1018  09B3               	comf	(___aldiv@dividend+2)^(0+128),f
  3332  1019  09B4               	comf	(___aldiv@dividend+3)^(0+128),f
  3333  101A  0AB1               	incf	___aldiv@dividend^(0+128),f
  3334  101B  1903               	skipnz
  3335  101C  0AB2               	incf	(___aldiv@dividend+1)^(0+128),f
  3336  101D  1903               	skipnz
  3337  101E  0AB3               	incf	(___aldiv@dividend+2)^(0+128),f
  3338  101F  1903               	skipnz
  3339  1020  0AB4               	incf	(___aldiv@dividend+3)^(0+128),f
  3340  1021  3001               	movlw	1
  3341  1022  00B5               	movwf	??___aldiv^(0+128)
  3342  1023  0835               	movf	??___aldiv^(0+128),w
  3343  1024  06B7               	xorwf	___aldiv@sign^(0+128),f
  3344  1025                     l2724:	
  3345  1025  3000               	movlw	0
  3346  1026  00BB               	movwf	(___aldiv@quotient+3)^(0+128)
  3347  1027  3000               	movlw	0
  3348  1028  00BA               	movwf	(___aldiv@quotient+2)^(0+128)
  3349  1029  3000               	movlw	0
  3350  102A  00B9               	movwf	(___aldiv@quotient+1)^(0+128)
  3351  102B  3000               	movlw	0
  3352  102C  00B8               	movwf	___aldiv@quotient^(0+128)
  3353  102D  0830               	movf	(___aldiv@divisor+3)^(0+128),w
  3354  102E  042F               	iorwf	(___aldiv@divisor+2)^(0+128),w
  3355  102F  042E               	iorwf	(___aldiv@divisor+1)^(0+128),w
  3356  1030  042D               	iorwf	___aldiv@divisor^(0+128),w
  3357  1031  1903               	skipnz
  3358  1032  287A               	goto	l2746
  3359  1033  01B6               	clrf	___aldiv@counter^(0+128)
  3360  1034  0AB6               	incf	___aldiv@counter^(0+128),f
  3361  1035                     l2732:	
  3362  1035  1BB0               	btfsc	(___aldiv@divisor+3)^(0+128),7
  3363  1036  2845               	goto	l2734
  3364  1037  3001               	movlw	1
  3365  1038  00B5               	movwf	??___aldiv^(0+128)
  3366  1039                     u3995:	
  3367  1039  1003               	clrc
  3368  103A  0DAD               	rlf	___aldiv@divisor^(0+128),f
  3369  103B  0DAE               	rlf	(___aldiv@divisor+1)^(0+128),f
  3370  103C  0DAF               	rlf	(___aldiv@divisor+2)^(0+128),f
  3371  103D  0DB0               	rlf	(___aldiv@divisor+3)^(0+128),f
  3372  103E  0BB5               	decfsz	??___aldiv^(0+128),f
  3373  103F  2839               	goto	u3995
  3374  1040  3001               	movlw	1
  3375  1041  00B5               	movwf	??___aldiv^(0+128)
  3376  1042  0835               	movf	??___aldiv^(0+128),w
  3377  1043  07B6               	addwf	___aldiv@counter^(0+128),f
  3378  1044  2835               	goto	l2732
  3379  1045                     l2734:	
  3380  1045  3001               	movlw	1
  3381  1046  00B5               	movwf	??___aldiv^(0+128)
  3382  1047                     u4015:	
  3383  1047  1003               	clrc
  3384  1048  0DB8               	rlf	___aldiv@quotient^(0+128),f
  3385  1049  0DB9               	rlf	(___aldiv@quotient+1)^(0+128),f
  3386  104A  0DBA               	rlf	(___aldiv@quotient+2)^(0+128),f
  3387  104B  0DBB               	rlf	(___aldiv@quotient+3)^(0+128),f
  3388  104C  0BB5               	decfsz	??___aldiv^(0+128),f
  3389  104D  2847               	goto	u4015
  3390  104E  0830               	movf	(___aldiv@divisor+3)^(0+128),w
  3391  104F  0234               	subwf	(___aldiv@dividend+3)^(0+128),w
  3392  1050  1D03               	skipz
  3393  1051  285C               	goto	u4025
  3394  1052  082F               	movf	(___aldiv@divisor+2)^(0+128),w
  3395  1053  0233               	subwf	(___aldiv@dividend+2)^(0+128),w
  3396  1054  1D03               	skipz
  3397  1055  285C               	goto	u4025
  3398  1056  082E               	movf	(___aldiv@divisor+1)^(0+128),w
  3399  1057  0232               	subwf	(___aldiv@dividend+1)^(0+128),w
  3400  1058  1D03               	skipz
  3401  1059  285C               	goto	u4025
  3402  105A  082D               	movf	___aldiv@divisor^(0+128),w
  3403  105B  0231               	subwf	___aldiv@dividend^(0+128),w
  3404  105C                     u4025:	
  3405  105C  1C03               	skipc
  3406  105D  286D               	goto	l2742
  3407  105E  082D               	movf	___aldiv@divisor^(0+128),w
  3408  105F  02B1               	subwf	___aldiv@dividend^(0+128),f
  3409  1060  082E               	movf	(___aldiv@divisor+1)^(0+128),w
  3410  1061  1C03               	skipc
  3411  1062  0F2E               	incfsz	(___aldiv@divisor+1)^(0+128),w
  3412  1063  02B2               	subwf	(___aldiv@dividend+1)^(0+128),f
  3413  1064  082F               	movf	(___aldiv@divisor+2)^(0+128),w
  3414  1065  1C03               	skipc
  3415  1066  0F2F               	incfsz	(___aldiv@divisor+2)^(0+128),w
  3416  1067  02B3               	subwf	(___aldiv@dividend+2)^(0+128),f
  3417  1068  0830               	movf	(___aldiv@divisor+3)^(0+128),w
  3418  1069  1C03               	skipc
  3419  106A  0F30               	incfsz	(___aldiv@divisor+3)^(0+128),w
  3420  106B  02B4               	subwf	(___aldiv@dividend+3)^(0+128),f
  3421  106C  1438               	bsf	___aldiv@quotient^(0+128),0
  3422  106D                     l2742:	
  3423  106D  3001               	movlw	1
  3424  106E                     u4035:	
  3425  106E  1003               	clrc
  3426  106F  0CB0               	rrf	(___aldiv@divisor+3)^(0+128),f
  3427  1070  0CAF               	rrf	(___aldiv@divisor+2)^(0+128),f
  3428  1071  0CAE               	rrf	(___aldiv@divisor+1)^(0+128),f
  3429  1072  0CAD               	rrf	___aldiv@divisor^(0+128),f
  3430  1073  3EFF               	addlw	-1
  3431  1074  1D03               	skipz
  3432  1075  286E               	goto	u4035
  3433  1076  3001               	movlw	1
  3434  1077  02B6               	subwf	___aldiv@counter^(0+128),f
  3435  1078  1D03               	btfss	3,2
  3436  1079  2845               	goto	l2734
  3437  107A                     l2746:	
  3438  107A  0837               	movf	___aldiv@sign^(0+128),w
  3439  107B  1903               	btfsc	3,2
  3440  107C  2888               	goto	l2750
  3441  107D  09B8               	comf	___aldiv@quotient^(0+128),f
  3442  107E  09B9               	comf	(___aldiv@quotient+1)^(0+128),f
  3443  107F  09BA               	comf	(___aldiv@quotient+2)^(0+128),f
  3444  1080  09BB               	comf	(___aldiv@quotient+3)^(0+128),f
  3445  1081  0AB8               	incf	___aldiv@quotient^(0+128),f
  3446  1082  1903               	skipnz
  3447  1083  0AB9               	incf	(___aldiv@quotient+1)^(0+128),f
  3448  1084  1903               	skipnz
  3449  1085  0ABA               	incf	(___aldiv@quotient+2)^(0+128),f
  3450  1086  1903               	skipnz
  3451  1087  0ABB               	incf	(___aldiv@quotient+3)^(0+128),f
  3452  1088                     l2750:	
  3453  1088  083B               	movf	(___aldiv@quotient+3)^(0+128),w
  3454  1089  00B0               	movwf	(?___aldiv+3)^(0+128)
  3455  108A  083A               	movf	(___aldiv@quotient+2)^(0+128),w
  3456  108B  00AF               	movwf	(?___aldiv+2)^(0+128)
  3457  108C  0839               	movf	(___aldiv@quotient+1)^(0+128),w
  3458  108D  00AE               	movwf	(?___aldiv+1)^(0+128)
  3459  108E  0838               	movf	___aldiv@quotient^(0+128),w
  3460  108F  00AD               	movwf	?___aldiv^(0+128)
  3461  1090  0008               	return
  3462  1091                     __end_of___aldiv:	
  3463                           
  3464                           	psect	text4
  3465  1DE4                     __ptext4:	
  3466 ;; *************** function ___almod *****************
  3467 ;; Defined at:
  3468 ;;		line 5 in file "D:\PROGRAM\MPLABX v5.20\XC8 v2.05\pic\sources\c90\common\almod.c"
  3469 ;; Parameters:    Size  Location     Type
  3470 ;;  divisor         4   64[BANK1 ] long 
  3471 ;;  dividend        4   68[BANK1 ] long 
  3472 ;; Auto vars:     Size  Location     Type
  3473 ;;  sign            1   74[BANK1 ] unsigned char 
  3474 ;;  counter         1   73[BANK1 ] unsigned char 
  3475 ;; Return value:  Size  Location     Type
  3476 ;;                  4   64[BANK1 ] long 
  3477 ;; Registers used:
  3478 ;;		wreg, status,2, status,0
  3479 ;; Tracked objects:
  3480 ;;		On entry : 0/0
  3481 ;;		On exit  : 0/0
  3482 ;;		Unchanged: 0/0
  3483 ;; Data sizes:     COMMON   BANK0   BANK1   BANK3   BANK2
  3484 ;;      Params:         0       0       8       0       0
  3485 ;;      Locals:         0       0       2       0       0
  3486 ;;      Temps:          0       0       1       0       0
  3487 ;;      Totals:         0       0      11       0       0
  3488 ;;Total ram usage:       11 bytes
  3489 ;; Hardware stack levels used:    1
  3490 ;; Hardware stack levels required when called:    3
  3491 ;; This function calls:
  3492 ;;		Nothing
  3493 ;; This function is called by:
  3494 ;;		_main
  3495 ;; This function uses a non-reentrant model
  3496 ;;
  3497                           
  3498                           
  3499                           ;psect for function ___almod
  3500  1DE4                     ___almod:	
  3501                           
  3502                           ;incstack = 0
  3503                           ; Regs used in ___almod: [wreg+status,2+status,0]
  3504  1DE4  1683               	bsf	3,5	;RP0=1, select bank1
  3505  1DE5  1303               	bcf	3,6	;RP1=0, select bank1
  3506  1DE6  01EA               	clrf	___almod@sign^(0+128)
  3507  1DE7  1FE7               	btfss	(___almod@dividend+3)^(0+128),7
  3508  1DE8  2DF6               	goto	l468
  3509  1DE9  09E4               	comf	___almod@dividend^(0+128),f
  3510  1DEA  09E5               	comf	(___almod@dividend+1)^(0+128),f
  3511  1DEB  09E6               	comf	(___almod@dividend+2)^(0+128),f
  3512  1DEC  09E7               	comf	(___almod@dividend+3)^(0+128),f
  3513  1DED  0AE4               	incf	___almod@dividend^(0+128),f
  3514  1DEE  1903               	skipnz
  3515  1DEF  0AE5               	incf	(___almod@dividend+1)^(0+128),f
  3516  1DF0  1903               	skipnz
  3517  1DF1  0AE6               	incf	(___almod@dividend+2)^(0+128),f
  3518  1DF2  1903               	skipnz
  3519  1DF3  0AE7               	incf	(___almod@dividend+3)^(0+128),f
  3520  1DF4  01EA               	clrf	___almod@sign^(0+128)
  3521  1DF5  0AEA               	incf	___almod@sign^(0+128),f
  3522  1DF6                     l468:	
  3523  1DF6  1FE3               	btfss	(___almod@divisor+3)^(0+128),7
  3524  1DF7  2E03               	goto	l3520
  3525  1DF8  09E0               	comf	___almod@divisor^(0+128),f
  3526  1DF9  09E1               	comf	(___almod@divisor+1)^(0+128),f
  3527  1DFA  09E2               	comf	(___almod@divisor+2)^(0+128),f
  3528  1DFB  09E3               	comf	(___almod@divisor+3)^(0+128),f
  3529  1DFC  0AE0               	incf	___almod@divisor^(0+128),f
  3530  1DFD  1903               	skipnz
  3531  1DFE  0AE1               	incf	(___almod@divisor+1)^(0+128),f
  3532  1DFF  1903               	skipnz
  3533  1E00  0AE2               	incf	(___almod@divisor+2)^(0+128),f
  3534  1E01  1903               	skipnz
  3535  1E02  0AE3               	incf	(___almod@divisor+3)^(0+128),f
  3536  1E03                     l3520:	
  3537  1E03  0863               	movf	(___almod@divisor+3)^(0+128),w
  3538  1E04  0462               	iorwf	(___almod@divisor+2)^(0+128),w
  3539  1E05  0461               	iorwf	(___almod@divisor+1)^(0+128),w
  3540  1E06  0460               	iorwf	___almod@divisor^(0+128),w
  3541  1E07  1903               	skipnz
  3542  1E08  2E46               	goto	l3536
  3543  1E09  01E9               	clrf	___almod@counter^(0+128)
  3544  1E0A  0AE9               	incf	___almod@counter^(0+128),f
  3545  1E0B                     l3526:	
  3546  1E0B  1BE3               	btfsc	(___almod@divisor+3)^(0+128),7
  3547  1E0C  2E1B               	goto	l3528
  3548  1E0D  3001               	movlw	1
  3549  1E0E  00E8               	movwf	??___almod^(0+128)
  3550  1E0F                     u5705:	
  3551  1E0F  1003               	clrc
  3552  1E10  0DE0               	rlf	___almod@divisor^(0+128),f
  3553  1E11  0DE1               	rlf	(___almod@divisor+1)^(0+128),f
  3554  1E12  0DE2               	rlf	(___almod@divisor+2)^(0+128),f
  3555  1E13  0DE3               	rlf	(___almod@divisor+3)^(0+128),f
  3556  1E14  0BE8               	decfsz	??___almod^(0+128),f
  3557  1E15  2E0F               	goto	u5705
  3558  1E16  3001               	movlw	1
  3559  1E17  00E8               	movwf	??___almod^(0+128)
  3560  1E18  0868               	movf	??___almod^(0+128),w
  3561  1E19  07E9               	addwf	___almod@counter^(0+128),f
  3562  1E1A  2E0B               	goto	l3526
  3563  1E1B                     l3528:	
  3564  1E1B  0863               	movf	(___almod@divisor+3)^(0+128),w
  3565  1E1C  0267               	subwf	(___almod@dividend+3)^(0+128),w
  3566  1E1D  1D03               	skipz
  3567  1E1E  2E29               	goto	u5725
  3568  1E1F  0862               	movf	(___almod@divisor+2)^(0+128),w
  3569  1E20  0266               	subwf	(___almod@dividend+2)^(0+128),w
  3570  1E21  1D03               	skipz
  3571  1E22  2E29               	goto	u5725
  3572  1E23  0861               	movf	(___almod@divisor+1)^(0+128),w
  3573  1E24  0265               	subwf	(___almod@dividend+1)^(0+128),w
  3574  1E25  1D03               	skipz
  3575  1E26  2E29               	goto	u5725
  3576  1E27  0860               	movf	___almod@divisor^(0+128),w
  3577  1E28  0264               	subwf	___almod@dividend^(0+128),w
  3578  1E29                     u5725:	
  3579  1E29  1C03               	skipc
  3580  1E2A  2E39               	goto	l3532
  3581  1E2B  0860               	movf	___almod@divisor^(0+128),w
  3582  1E2C  02E4               	subwf	___almod@dividend^(0+128),f
  3583  1E2D  0861               	movf	(___almod@divisor+1)^(0+128),w
  3584  1E2E  1C03               	skipc
  3585  1E2F  0F61               	incfsz	(___almod@divisor+1)^(0+128),w
  3586  1E30  02E5               	subwf	(___almod@dividend+1)^(0+128),f
  3587  1E31  0862               	movf	(___almod@divisor+2)^(0+128),w
  3588  1E32  1C03               	skipc
  3589  1E33  0F62               	incfsz	(___almod@divisor+2)^(0+128),w
  3590  1E34  02E6               	subwf	(___almod@dividend+2)^(0+128),f
  3591  1E35  0863               	movf	(___almod@divisor+3)^(0+128),w
  3592  1E36  1C03               	skipc
  3593  1E37  0F63               	incfsz	(___almod@divisor+3)^(0+128),w
  3594  1E38  02E7               	subwf	(___almod@dividend+3)^(0+128),f
  3595  1E39                     l3532:	
  3596  1E39  3001               	movlw	1
  3597  1E3A                     u5735:	
  3598  1E3A  1003               	clrc
  3599  1E3B  0CE3               	rrf	(___almod@divisor+3)^(0+128),f
  3600  1E3C  0CE2               	rrf	(___almod@divisor+2)^(0+128),f
  3601  1E3D  0CE1               	rrf	(___almod@divisor+1)^(0+128),f
  3602  1E3E  0CE0               	rrf	___almod@divisor^(0+128),f
  3603  1E3F  3EFF               	addlw	-1
  3604  1E40  1D03               	skipz
  3605  1E41  2E3A               	goto	u5735
  3606  1E42  3001               	movlw	1
  3607  1E43  02E9               	subwf	___almod@counter^(0+128),f
  3608  1E44  1D03               	btfss	3,2
  3609  1E45  2E1B               	goto	l3528
  3610  1E46                     l3536:	
  3611  1E46  086A               	movf	___almod@sign^(0+128),w
  3612  1E47  1903               	btfsc	3,2
  3613  1E48  2E54               	goto	l3540
  3614  1E49  09E4               	comf	___almod@dividend^(0+128),f
  3615  1E4A  09E5               	comf	(___almod@dividend+1)^(0+128),f
  3616  1E4B  09E6               	comf	(___almod@dividend+2)^(0+128),f
  3617  1E4C  09E7               	comf	(___almod@dividend+3)^(0+128),f
  3618  1E4D  0AE4               	incf	___almod@dividend^(0+128),f
  3619  1E4E  1903               	skipnz
  3620  1E4F  0AE5               	incf	(___almod@dividend+1)^(0+128),f
  3621  1E50  1903               	skipnz
  3622  1E51  0AE6               	incf	(___almod@dividend+2)^(0+128),f
  3623  1E52  1903               	skipnz
  3624  1E53  0AE7               	incf	(___almod@dividend+3)^(0+128),f
  3625  1E54                     l3540:	
  3626  1E54  0867               	movf	(___almod@dividend+3)^(0+128),w
  3627  1E55  00E3               	movwf	(?___almod+3)^(0+128)
  3628  1E56  0866               	movf	(___almod@dividend+2)^(0+128),w
  3629  1E57  00E2               	movwf	(?___almod+2)^(0+128)
  3630  1E58  0865               	movf	(___almod@dividend+1)^(0+128),w
  3631  1E59  00E1               	movwf	(?___almod+1)^(0+128)
  3632  1E5A  0864               	movf	___almod@dividend^(0+128),w
  3633  1E5B  00E0               	movwf	?___almod^(0+128)
  3634  1E5C  0008               	return
  3635  1E5D                     __end_of___almod:	
  3636                           
  3637                           	psect	text5
  3638  199A                     __ptext5:	
  3639 ;; *************** function _Timer1_Init *****************
  3640 ;; Defined at:
  3641 ;;		line 261 in file "deadline.c"
  3642 ;; Parameters:    Size  Location     Type
  3643 ;;		None
  3644 ;; Auto vars:     Size  Location     Type
  3645 ;;		None
  3646 ;; Return value:  Size  Location     Type
  3647 ;;                  1    wreg      void 
  3648 ;; Registers used:
  3649 ;;		status,2
  3650 ;; Tracked objects:
  3651 ;;		On entry : 0/0
  3652 ;;		On exit  : 0/0
  3653 ;;		Unchanged: 0/0
  3654 ;; Data sizes:     COMMON   BANK0   BANK1   BANK3   BANK2
  3655 ;;      Params:         0       0       0       0       0
  3656 ;;      Locals:         0       0       0       0       0
  3657 ;;      Temps:          0       0       0       0       0
  3658 ;;      Totals:         0       0       0       0       0
  3659 ;;Total ram usage:        0 bytes
  3660 ;; Hardware stack levels used:    1
  3661 ;; Hardware stack levels required when called:    3
  3662 ;; This function calls:
  3663 ;;		Nothing
  3664 ;; This function is called by:
  3665 ;;		_main
  3666 ;; This function uses a non-reentrant model
  3667 ;;
  3668                           
  3669                           
  3670                           ;psect for function _Timer1_Init
  3671  199A                     _Timer1_Init:	
  3672                           
  3673                           ;deadline.c: 263:     TMR1H=0x00;
  3674                           
  3675                           ;incstack = 0
  3676                           ; Regs used in _Timer1_Init: [status,2]
  3677  199A  1283               	bcf	3,5	;RP0=0, select bank0
  3678  199B  1303               	bcf	3,6	;RP1=0, select bank0
  3679  199C  018F               	clrf	15	;volatile
  3680                           
  3681                           ;deadline.c: 264:     TMR1L=0x00;
  3682  199D  018E               	clrf	14	;volatile
  3683                           
  3684                           ;deadline.c: 266:     T1CKPS1 = 0;
  3685  199E  1290               	bcf	16,5	;volatile
  3686                           
  3687                           ;deadline.c: 267:     T1CKPS0 = 0;
  3688  199F  1210               	bcf	16,4	;volatile
  3689                           
  3690                           ;deadline.c: 268:     T1OSCEN = 0;
  3691  19A0  1190               	bcf	16,3	;volatile
  3692                           
  3693                           ;deadline.c: 269:     T1SYNC = 0;
  3694  19A1  1110               	bcf	16,2	;volatile
  3695                           
  3696                           ;deadline.c: 270:     TMR1CS = 0;
  3697  19A2  1090               	bcf	16,1	;volatile
  3698                           
  3699                           ;deadline.c: 272:     TMR1IE = 0;
  3700  19A3  1683               	bsf	3,5	;RP0=1, select bank1
  3701  19A4  1303               	bcf	3,6	;RP1=0, select bank1
  3702  19A5  100C               	bcf	12,0	;volatile
  3703                           
  3704                           ;deadline.c: 274:     TMR1ON = 0;
  3705  19A6  1283               	bcf	3,5	;RP0=0, select bank0
  3706  19A7  1303               	bcf	3,6	;RP1=0, select bank0
  3707  19A8  1010               	bcf	16,0	;volatile
  3708  19A9  0008               	return
  3709  19AA                     __end_of_Timer1_Init:	
  3710                           
  3711                           	psect	text6
  3712  0805                     __ptext6:	
  3713 ;; *************** function _Read_ADC *****************
  3714 ;; Defined at:
  3715 ;;		line 249 in file "deadline.c"
  3716 ;; Parameters:    Size  Location     Type
  3717 ;;  channel         1    wreg     unsigned char 
  3718 ;; Auto vars:     Size  Location     Type
  3719 ;;  channel         1    8[BANK1 ] unsigned char 
  3720 ;;  N               2    6[BANK1 ] unsigned int 
  3721 ;; Return value:  Size  Location     Type
  3722 ;;                  2    0[BANK1 ] unsigned int 
  3723 ;; Registers used:
  3724 ;;		wreg, status,2, status,0
  3725 ;; Tracked objects:
  3726 ;;		On entry : 0/0
  3727 ;;		On exit  : 0/0
  3728 ;;		Unchanged: 0/0
  3729 ;; Data sizes:     COMMON   BANK0   BANK1   BANK3   BANK2
  3730 ;;      Params:         0       0       2       0       0
  3731 ;;      Locals:         0       0       3       0       0
  3732 ;;      Temps:          0       0       4       0       0
  3733 ;;      Totals:         0       0       9       0       0
  3734 ;;Total ram usage:        9 bytes
  3735 ;; Hardware stack levels used:    1
  3736 ;; Hardware stack levels required when called:    3
  3737 ;; This function calls:
  3738 ;;		Nothing
  3739 ;; This function is called by:
  3740 ;;		_main
  3741 ;; This function uses a non-reentrant model
  3742 ;;
  3743                           
  3744                           
  3745                           ;psect for function _Read_ADC
  3746  0805                     _Read_ADC:	
  3747                           
  3748                           ;incstack = 0
  3749                           ; Regs used in _Read_ADC: [wreg+status,2+status,0]
  3750                           ;Read_ADC@channel stored from wreg
  3751  0805  1683               	bsf	3,5	;RP0=1, select bank1
  3752  0806  1303               	bcf	3,6	;RP1=0, select bank1
  3753  0807  00A8               	movwf	Read_ADC@channel^(0+128)
  3754                           
  3755                           ;deadline.c: 249: unsigned int Read_ADC(unsigned char channel);deadline.c: 250: {;deadli
      +                          ne.c: 251:     unsigned int N;;deadline.c: 252:     ADCON0 &= 0x11000101;
  3756  0808  3001               	movlw	1
  3757  0809  00A2               	movwf	??_Read_ADC^(0+128)
  3758  080A  0822               	movf	??_Read_ADC^(0+128),w
  3759  080B  1283               	bcf	3,5	;RP0=0, select bank0
  3760  080C  1303               	bcf	3,6	;RP1=0, select bank0
  3761  080D  059F               	andwf	31,f	;volatile
  3762                           
  3763                           ;deadline.c: 253:     ADCON0 |= channel << 3;
  3764  080E  1683               	bsf	3,5	;RP0=1, select bank1
  3765  080F  1303               	bcf	3,6	;RP1=0, select bank1
  3766  0810  0828               	movf	Read_ADC@channel^(0+128),w	;volatile
  3767  0811  00A2               	movwf	??_Read_ADC^(0+128)
  3768  0812  3002               	movlw	2
  3769  0813                     u5625:	
  3770  0813  1003               	clrc
  3771  0814  0DA2               	rlf	??_Read_ADC^(0+128),f
  3772  0815  3EFF               	addlw	-1
  3773  0816  1D03               	skipz
  3774  0817  2813               	goto	u5625
  3775  0818  1003               	clrc
  3776  0819  0D22               	rlf	??_Read_ADC^(0+128),w
  3777  081A  00A3               	movwf	(??_Read_ADC+1)^(0+128)
  3778  081B  0823               	movf	(??_Read_ADC+1)^(0+128),w
  3779  081C  1283               	bcf	3,5	;RP0=0, select bank0
  3780  081D  1303               	bcf	3,6	;RP1=0, select bank0
  3781  081E  049F               	iorwf	31,f	;volatile
  3782                           
  3783                           ;deadline.c: 254:     _delay((unsigned long)((2)*(20000000/4000.0)));
  3784  081F  300D               	movlw	13
  3785  0820  1683               	bsf	3,5	;RP0=1, select bank1
  3786  0821  1303               	bcf	3,6	;RP1=0, select bank1
  3787  0822  00A3               	movwf	(??_Read_ADC^(0+128)+1)
  3788  0823  30FB               	movlw	251
  3789  0824  00A2               	movwf	??_Read_ADC^(0+128)
  3790  0825                     u6837:	
  3791  0825  0BA2               	decfsz	??_Read_ADC^(0+128),f
  3792  0826  2825               	goto	u6837
  3793  0827  0BA3               	decfsz	(??_Read_ADC^(0+128)+1),f
  3794  0828  2825               	goto	u6837
  3795                           
  3796                           ;deadline.c: 255:     GO_nDONE = 1;
  3797  0829  1283               	bcf	3,5	;RP0=0, select bank0
  3798  082A  1303               	bcf	3,6	;RP1=0, select bank0
  3799  082B  151F               	bsf	31,2	;volatile
  3800  082C                     l223:	
  3801                           ;deadline.c: 256:     while(GO_nDONE);
  3802                           
  3803  082C  191F               	btfsc	31,2	;volatile
  3804  082D  282C               	goto	l223
  3805                           
  3806                           ;deadline.c: 257:     N = ADRESH;
  3807  082E  081E               	movf	30,w	;volatile
  3808  082F  1683               	bsf	3,5	;RP0=1, select bank1
  3809  0830  1303               	bcf	3,6	;RP1=0, select bank1
  3810  0831  00A2               	movwf	??_Read_ADC^(0+128)
  3811  0832  01A3               	clrf	(??_Read_ADC^(0+128)+1)
  3812  0833  0822               	movf	??_Read_ADC^(0+128),w
  3813  0834  00A6               	movwf	Read_ADC@N^(0+128)
  3814  0835  0823               	movf	(??_Read_ADC+1)^(0+128),w
  3815  0836  00A7               	movwf	(Read_ADC@N+1)^(0+128)
  3816                           
  3817                           ;deadline.c: 258:     return ((N<<8)+ADRESL);
  3818  0837  0826               	movf	Read_ADC@N^(0+128),w
  3819  0838  00A3               	movwf	(??_Read_ADC^(0+128)+1)
  3820  0839  01A2               	clrf	??_Read_ADC^(0+128)
  3821  083A  081E               	movf	30,w	;volatile
  3822  083B  0722               	addwf	??_Read_ADC^(0+128),w
  3823  083C  00A4               	movwf	(??_Read_ADC+2)^(0+128)
  3824  083D  3000               	movlw	0
  3825  083E  1803               	skipnc
  3826  083F  3001               	movlw	1
  3827  0840  0723               	addwf	(??_Read_ADC+1)^(0+128),w
  3828  0841  00A5               	movwf	(??_Read_ADC+3)^(0+128)
  3829  0842  0824               	movf	(??_Read_ADC+2)^(0+128),w
  3830  0843  00A0               	movwf	?_Read_ADC^(0+128)
  3831  0844  0825               	movf	(??_Read_ADC+3)^(0+128),w
  3832  0845  00A1               	movwf	(?_Read_ADC+1)^(0+128)
  3833  0846  0008               	return
  3834  0847                     __end_of_Read_ADC:	
  3835                           
  3836                           	psect	text7
  3837  0C01                     __ptext7:	
  3838 ;; *************** function _PID_Init *****************
  3839 ;; Defined at:
  3840 ;;		line 285 in file "deadline.c"
  3841 ;; Parameters:    Size  Location     Type
  3842 ;;  nhietdo         2   35[BANK3 ] unsigned int 
  3843 ;;  nhietdodat      2   37[BANK3 ] unsigned int 
  3844 ;; Auto vars:     Size  Location     Type
  3845 ;;		None
  3846 ;; Return value:  Size  Location     Type
  3847 ;;                  2   35[BANK3 ] unsigned int 
  3848 ;; Registers used:
  3849 ;;		wreg, status,2, status,0, btemp+1, pclath, cstack
  3850 ;; Tracked objects:
  3851 ;;		On entry : 0/0
  3852 ;;		On exit  : 0/0
  3853 ;;		Unchanged: 0/0
  3854 ;; Data sizes:     COMMON   BANK0   BANK1   BANK3   BANK2
  3855 ;;      Params:         0       0       0       4       0
  3856 ;;      Locals:         0       0       0      12       0
  3857 ;;      Temps:          0       0       0       0       0
  3858 ;;      Totals:         0       0       0      16       0
  3859 ;;Total ram usage:       16 bytes
  3860 ;; Hardware stack levels used:    1
  3861 ;; Hardware stack levels required when called:    5
  3862 ;; This function calls:
  3863 ;;		___fladd
  3864 ;;		___fldiv
  3865 ;;		___flmul
  3866 ;;		___flsub
  3867 ;;		___fltol
  3868 ;;		___xxtofl
  3869 ;; This function is called by:
  3870 ;;		_main
  3871 ;; This function uses a non-reentrant model
  3872 ;;
  3873                           
  3874                           
  3875                           ;psect for function _PID_Init
  3876  0C01                     _PID_Init:	
  3877                           
  3878                           ;deadline.c: 285: unsigned int PID_Init(unsigned int nhietdo, unsigned int nhietdodat);d
      +                          eadline.c: 286: {;deadline.c: 287:     E = nhietdodat-nhietdo;
  3879                           
  3880                           ;incstack = 0
  3881                           ; Regs used in _PID_Init: [wreg+status,2+status,0+btemp+1+pclath+cstack]
  3882  0C01  1683               	bsf	3,5	;RP0=1, select bank3
  3883  0C02  1703               	bsf	3,6	;RP1=1, select bank3
  3884  0C03  0833               	movf	PID_Init@nhietdo^(0+384),w
  3885  0C04  0235               	subwf	PID_Init@nhietdodat^(0+384),w
  3886  0C05  1683               	bsf	3,5	;RP0=1, select bank1
  3887  0C06  1303               	bcf	3,6	;RP1=0, select bank1
  3888  0C07  00A9               	movwf	___xxtofl@val^(0+128)
  3889  0C08  1683               	bsf	3,5	;RP0=1, select bank3
  3890  0C09  1703               	bsf	3,6	;RP1=1, select bank3
  3891  0C0A  0834               	movf	(PID_Init@nhietdo+1)^(0+384),w
  3892  0C0B  1C03               	skipc
  3893  0C0C  0A34               	incf	(PID_Init@nhietdo+1)^(0+384),w
  3894  0C0D  0236               	subwf	(PID_Init@nhietdodat+1)^(0+384),w
  3895  0C0E  1683               	bsf	3,5	;RP0=1, select bank1
  3896  0C0F  1303               	bcf	3,6	;RP1=0, select bank1
  3897  0C10  00AA               	movwf	(___xxtofl@val+1)^(0+128)
  3898  0C11  01AB               	clrf	(___xxtofl@val+2)^(0+128)
  3899  0C12  01AC               	clrf	(___xxtofl@val+3)^(0+128)
  3900  0C13  3000               	movlw	0
  3901  0C14  120A  158A  2047  120A  158A  	fcall	___xxtofl
  3902  0C19  1683               	bsf	3,5	;RP0=1, select bank1
  3903  0C1A  1303               	bcf	3,6	;RP1=0, select bank1
  3904  0C1B  082C               	movf	(?___xxtofl+3)^(0+128),w
  3905  0C1C  1683               	bsf	3,5	;RP0=1, select bank3
  3906  0C1D  1703               	bsf	3,6	;RP1=1, select bank3
  3907  0C1E  00E6               	movwf	(_E+3)^(0+384)
  3908  0C1F  1683               	bsf	3,5	;RP0=1, select bank1
  3909  0C20  1303               	bcf	3,6	;RP1=0, select bank1
  3910  0C21  082B               	movf	(?___xxtofl+2)^(0+128),w
  3911  0C22  1683               	bsf	3,5	;RP0=1, select bank3
  3912  0C23  1703               	bsf	3,6	;RP1=1, select bank3
  3913  0C24  00E5               	movwf	(_E+2)^(0+384)
  3914  0C25  1683               	bsf	3,5	;RP0=1, select bank1
  3915  0C26  1303               	bcf	3,6	;RP1=0, select bank1
  3916  0C27  082A               	movf	(?___xxtofl+1)^(0+128),w
  3917  0C28  1683               	bsf	3,5	;RP0=1, select bank3
  3918  0C29  1703               	bsf	3,6	;RP1=1, select bank3
  3919  0C2A  00E4               	movwf	(_E+1)^(0+384)
  3920  0C2B  1683               	bsf	3,5	;RP0=1, select bank1
  3921  0C2C  1303               	bcf	3,6	;RP1=0, select bank1
  3922  0C2D  0829               	movf	?___xxtofl^(0+128),w
  3923  0C2E  1683               	bsf	3,5	;RP0=1, select bank3
  3924  0C2F  1703               	bsf	3,6	;RP1=1, select bank3
  3925  0C30  00E3               	movwf	_E^(0+384)
  3926                           
  3927                           ;deadline.c: 288:     a1 = Kp + (Ki*T)/2 + Kd/2;
  3928  0C31  085A               	movf	(_Kp+3)^(0+384),w
  3929  0C32  0093               	movwf	(___fladd@b+3)^(0+384)
  3930  0C33  0859               	movf	(_Kp+2)^(0+384),w
  3931  0C34  0092               	movwf	(___fladd@b+2)^(0+384)
  3932  0C35  0858               	movf	(_Kp+1)^(0+384),w
  3933  0C36  0091               	movwf	(___fladd@b+1)^(0+384)
  3934  0C37  0857               	movf	_Kp^(0+384),w
  3935  0C38  0090               	movwf	___fladd@b^(0+384)
  3936  0C39  3040               	movlw	64
  3937  0C3A  1683               	bsf	3,5	;RP0=1, select bank1
  3938  0C3B  1303               	bcf	3,6	;RP1=0, select bank1
  3939  0C3C  00D4               	movwf	(___fldiv@a+3)^(0+128)
  3940  0C3D  3000               	movlw	0
  3941  0C3E  00D3               	movwf	(___fldiv@a+2)^(0+128)
  3942  0C3F  3000               	movlw	0
  3943  0C40  00D2               	movwf	(___fldiv@a+1)^(0+128)
  3944  0C41  3000               	movlw	0
  3945  0C42  00D1               	movwf	___fldiv@a^(0+128)
  3946  0C43  1683               	bsf	3,5	;RP0=1, select bank3
  3947  0C44  1703               	bsf	3,6	;RP1=1, select bank3
  3948  0C45  085E               	movf	(_T+3)^(0+384),w
  3949  0C46  1683               	bsf	3,5	;RP0=1, select bank1
  3950  0C47  1303               	bcf	3,6	;RP1=0, select bank1
  3951  0C48  00BA               	movwf	(___flmul@b+3)^(0+128)
  3952  0C49  1683               	bsf	3,5	;RP0=1, select bank3
  3953  0C4A  1703               	bsf	3,6	;RP1=1, select bank3
  3954  0C4B  085D               	movf	(_T+2)^(0+384),w
  3955  0C4C  1683               	bsf	3,5	;RP0=1, select bank1
  3956  0C4D  1303               	bcf	3,6	;RP1=0, select bank1
  3957  0C4E  00B9               	movwf	(___flmul@b+2)^(0+128)
  3958  0C4F  1683               	bsf	3,5	;RP0=1, select bank3
  3959  0C50  1703               	bsf	3,6	;RP1=1, select bank3
  3960  0C51  085C               	movf	(_T+1)^(0+384),w
  3961  0C52  1683               	bsf	3,5	;RP0=1, select bank1
  3962  0C53  1303               	bcf	3,6	;RP1=0, select bank1
  3963  0C54  00B8               	movwf	(___flmul@b+1)^(0+128)
  3964  0C55  1683               	bsf	3,5	;RP0=1, select bank3
  3965  0C56  1703               	bsf	3,6	;RP1=1, select bank3
  3966  0C57  085B               	movf	_T^(0+384),w
  3967  0C58  1683               	bsf	3,5	;RP0=1, select bank1
  3968  0C59  1303               	bcf	3,6	;RP1=0, select bank1
  3969  0C5A  00B7               	movwf	___flmul@b^(0+128)
  3970  0C5B  1683               	bsf	3,5	;RP0=1, select bank3
  3971  0C5C  1703               	bsf	3,6	;RP1=1, select bank3
  3972  0C5D  0856               	movf	(_Ki+3)^(0+384),w
  3973  0C5E  1683               	bsf	3,5	;RP0=1, select bank1
  3974  0C5F  1303               	bcf	3,6	;RP1=0, select bank1
  3975  0C60  00BE               	movwf	(___flmul@a+3)^(0+128)
  3976  0C61  1683               	bsf	3,5	;RP0=1, select bank3
  3977  0C62  1703               	bsf	3,6	;RP1=1, select bank3
  3978  0C63  0855               	movf	(_Ki+2)^(0+384),w
  3979  0C64  1683               	bsf	3,5	;RP0=1, select bank1
  3980  0C65  1303               	bcf	3,6	;RP1=0, select bank1
  3981  0C66  00BD               	movwf	(___flmul@a+2)^(0+128)
  3982  0C67  1683               	bsf	3,5	;RP0=1, select bank3
  3983  0C68  1703               	bsf	3,6	;RP1=1, select bank3
  3984  0C69  0854               	movf	(_Ki+1)^(0+384),w
  3985  0C6A  1683               	bsf	3,5	;RP0=1, select bank1
  3986  0C6B  1303               	bcf	3,6	;RP1=0, select bank1
  3987  0C6C  00BC               	movwf	(___flmul@a+1)^(0+128)
  3988  0C6D  1683               	bsf	3,5	;RP0=1, select bank3
  3989  0C6E  1703               	bsf	3,6	;RP1=1, select bank3
  3990  0C6F  0853               	movf	_Ki^(0+384),w
  3991  0C70  1683               	bsf	3,5	;RP0=1, select bank1
  3992  0C71  1303               	bcf	3,6	;RP1=0, select bank1
  3993  0C72  00BB               	movwf	___flmul@a^(0+128)
  3994  0C73  120A  158A  20EC  120A  158A  	fcall	___flmul
  3995  0C78  1683               	bsf	3,5	;RP0=1, select bank1
  3996  0C79  1303               	bcf	3,6	;RP1=0, select bank1
  3997  0C7A  083A               	movf	(?___flmul+3)^(0+128),w
  3998  0C7B  00D8               	movwf	(___fldiv@b+3)^(0+128)
  3999  0C7C  0839               	movf	(?___flmul+2)^(0+128),w
  4000  0C7D  00D7               	movwf	(___fldiv@b+2)^(0+128)
  4001  0C7E  0838               	movf	(?___flmul+1)^(0+128),w
  4002  0C7F  00D6               	movwf	(___fldiv@b+1)^(0+128)
  4003  0C80  0837               	movf	?___flmul^(0+128),w
  4004  0C81  00D5               	movwf	___fldiv@b^(0+128)
  4005  0C82  160A  118A  2134  120A  158A  	fcall	___fldiv
  4006  0C87  1683               	bsf	3,5	;RP0=1, select bank1
  4007  0C88  1303               	bcf	3,6	;RP1=0, select bank1
  4008  0C89  0854               	movf	(?___fldiv+3)^(0+128),w
  4009  0C8A  1683               	bsf	3,5	;RP0=1, select bank3
  4010  0C8B  1703               	bsf	3,6	;RP1=1, select bank3
  4011  0C8C  0097               	movwf	(___fladd@a+3)^(0+384)
  4012  0C8D  1683               	bsf	3,5	;RP0=1, select bank1
  4013  0C8E  1303               	bcf	3,6	;RP1=0, select bank1
  4014  0C8F  0853               	movf	(?___fldiv+2)^(0+128),w
  4015  0C90  1683               	bsf	3,5	;RP0=1, select bank3
  4016  0C91  1703               	bsf	3,6	;RP1=1, select bank3
  4017  0C92  0096               	movwf	(___fladd@a+2)^(0+384)
  4018  0C93  1683               	bsf	3,5	;RP0=1, select bank1
  4019  0C94  1303               	bcf	3,6	;RP1=0, select bank1
  4020  0C95  0852               	movf	(?___fldiv+1)^(0+128),w
  4021  0C96  1683               	bsf	3,5	;RP0=1, select bank3
  4022  0C97  1703               	bsf	3,6	;RP1=1, select bank3
  4023  0C98  0095               	movwf	(___fladd@a+1)^(0+384)
  4024  0C99  1683               	bsf	3,5	;RP0=1, select bank1
  4025  0C9A  1303               	bcf	3,6	;RP1=0, select bank1
  4026  0C9B  0851               	movf	?___fldiv^(0+128),w
  4027  0C9C  1683               	bsf	3,5	;RP0=1, select bank3
  4028  0C9D  1703               	bsf	3,6	;RP1=1, select bank3
  4029  0C9E  0094               	movwf	___fladd@a^(0+384)
  4030  0C9F  160A  118A  2516  120A  158A  	fcall	___fladd
  4031  0CA4  1683               	bsf	3,5	;RP0=1, select bank3
  4032  0CA5  1703               	bsf	3,6	;RP1=1, select bank3
  4033  0CA6  0813               	movf	(?___fladd+3)^(0+384),w
  4034  0CA7  00C2               	movwf	(_PID_Init$834+3)^(0+384)
  4035  0CA8  0812               	movf	(?___fladd+2)^(0+384),w
  4036  0CA9  00C1               	movwf	(_PID_Init$834+2)^(0+384)
  4037  0CAA  0811               	movf	(?___fladd+1)^(0+384),w
  4038  0CAB  00C0               	movwf	(_PID_Init$834+1)^(0+384)
  4039  0CAC  0810               	movf	?___fladd^(0+384),w
  4040  0CAD  00BF               	movwf	_PID_Init$834^(0+384)
  4041                           
  4042                           ;deadline.c: 288:     a1 = Kp + (Ki*T)/2 + Kd/2;
  4043  0CAE  3040               	movlw	64
  4044  0CAF  1683               	bsf	3,5	;RP0=1, select bank1
  4045  0CB0  1303               	bcf	3,6	;RP1=0, select bank1
  4046  0CB1  00D4               	movwf	(___fldiv@a+3)^(0+128)
  4047  0CB2  3000               	movlw	0
  4048  0CB3  00D3               	movwf	(___fldiv@a+2)^(0+128)
  4049  0CB4  3000               	movlw	0
  4050  0CB5  00D2               	movwf	(___fldiv@a+1)^(0+128)
  4051  0CB6  3000               	movlw	0
  4052  0CB7  00D1               	movwf	___fldiv@a^(0+128)
  4053  0CB8  1683               	bsf	3,5	;RP0=1, select bank3
  4054  0CB9  1703               	bsf	3,6	;RP1=1, select bank3
  4055  0CBA  0852               	movf	(_Kd+3)^(0+384),w
  4056  0CBB  1683               	bsf	3,5	;RP0=1, select bank1
  4057  0CBC  1303               	bcf	3,6	;RP1=0, select bank1
  4058  0CBD  00D8               	movwf	(___fldiv@b+3)^(0+128)
  4059  0CBE  1683               	bsf	3,5	;RP0=1, select bank3
  4060  0CBF  1703               	bsf	3,6	;RP1=1, select bank3
  4061  0CC0  0851               	movf	(_Kd+2)^(0+384),w
  4062  0CC1  1683               	bsf	3,5	;RP0=1, select bank1
  4063  0CC2  1303               	bcf	3,6	;RP1=0, select bank1
  4064  0CC3  00D7               	movwf	(___fldiv@b+2)^(0+128)
  4065  0CC4  1683               	bsf	3,5	;RP0=1, select bank3
  4066  0CC5  1703               	bsf	3,6	;RP1=1, select bank3
  4067  0CC6  0850               	movf	(_Kd+1)^(0+384),w
  4068  0CC7  1683               	bsf	3,5	;RP0=1, select bank1
  4069  0CC8  1303               	bcf	3,6	;RP1=0, select bank1
  4070  0CC9  00D6               	movwf	(___fldiv@b+1)^(0+128)
  4071  0CCA  1683               	bsf	3,5	;RP0=1, select bank3
  4072  0CCB  1703               	bsf	3,6	;RP1=1, select bank3
  4073  0CCC  084F               	movf	_Kd^(0+384),w
  4074  0CCD  1683               	bsf	3,5	;RP0=1, select bank1
  4075  0CCE  1303               	bcf	3,6	;RP1=0, select bank1
  4076  0CCF  00D5               	movwf	___fldiv@b^(0+128)
  4077  0CD0  160A  118A  2134  120A  158A  	fcall	___fldiv
  4078  0CD5  1683               	bsf	3,5	;RP0=1, select bank1
  4079  0CD6  1303               	bcf	3,6	;RP1=0, select bank1
  4080  0CD7  0854               	movf	(?___fldiv+3)^(0+128),w
  4081  0CD8  1683               	bsf	3,5	;RP0=1, select bank3
  4082  0CD9  1703               	bsf	3,6	;RP1=1, select bank3
  4083  0CDA  0093               	movwf	(___fladd@b+3)^(0+384)
  4084  0CDB  1683               	bsf	3,5	;RP0=1, select bank1
  4085  0CDC  1303               	bcf	3,6	;RP1=0, select bank1
  4086  0CDD  0853               	movf	(?___fldiv+2)^(0+128),w
  4087  0CDE  1683               	bsf	3,5	;RP0=1, select bank3
  4088  0CDF  1703               	bsf	3,6	;RP1=1, select bank3
  4089  0CE0  0092               	movwf	(___fladd@b+2)^(0+384)
  4090  0CE1  1683               	bsf	3,5	;RP0=1, select bank1
  4091  0CE2  1303               	bcf	3,6	;RP1=0, select bank1
  4092  0CE3  0852               	movf	(?___fldiv+1)^(0+128),w
  4093  0CE4  1683               	bsf	3,5	;RP0=1, select bank3
  4094  0CE5  1703               	bsf	3,6	;RP1=1, select bank3
  4095  0CE6  0091               	movwf	(___fladd@b+1)^(0+384)
  4096  0CE7  1683               	bsf	3,5	;RP0=1, select bank1
  4097  0CE8  1303               	bcf	3,6	;RP1=0, select bank1
  4098  0CE9  0851               	movf	?___fldiv^(0+128),w
  4099  0CEA  1683               	bsf	3,5	;RP0=1, select bank3
  4100  0CEB  1703               	bsf	3,6	;RP1=1, select bank3
  4101  0CEC  0090               	movwf	___fladd@b^(0+384)
  4102  0CED  0842               	movf	(_PID_Init$834+3)^(0+384),w
  4103  0CEE  0097               	movwf	(___fladd@a+3)^(0+384)
  4104  0CEF  0841               	movf	(_PID_Init$834+2)^(0+384),w
  4105  0CF0  0096               	movwf	(___fladd@a+2)^(0+384)
  4106  0CF1  0840               	movf	(_PID_Init$834+1)^(0+384),w
  4107  0CF2  0095               	movwf	(___fladd@a+1)^(0+384)
  4108  0CF3  083F               	movf	_PID_Init$834^(0+384),w
  4109  0CF4  0094               	movwf	___fladd@a^(0+384)
  4110  0CF5  160A  118A  2516  120A  158A  	fcall	___fladd
  4111  0CFA  1683               	bsf	3,5	;RP0=1, select bank3
  4112  0CFB  1703               	bsf	3,6	;RP1=1, select bank3
  4113  0CFC  0813               	movf	(?___fladd+3)^(0+384),w
  4114  0CFD  1283               	bcf	3,5	;RP0=0, select bank0
  4115  0CFE  1303               	bcf	3,6	;RP1=0, select bank0
  4116  0CFF  00DF               	movwf	_a1+3
  4117  0D00  1683               	bsf	3,5	;RP0=1, select bank3
  4118  0D01  1703               	bsf	3,6	;RP1=1, select bank3
  4119  0D02  0812               	movf	(?___fladd+2)^(0+384),w
  4120  0D03  1283               	bcf	3,5	;RP0=0, select bank0
  4121  0D04  1303               	bcf	3,6	;RP1=0, select bank0
  4122  0D05  00DE               	movwf	_a1+2
  4123  0D06  1683               	bsf	3,5	;RP0=1, select bank3
  4124  0D07  1703               	bsf	3,6	;RP1=1, select bank3
  4125  0D08  0811               	movf	(?___fladd+1)^(0+384),w
  4126  0D09  1283               	bcf	3,5	;RP0=0, select bank0
  4127  0D0A  1303               	bcf	3,6	;RP1=0, select bank0
  4128  0D0B  00DD               	movwf	_a1+1
  4129  0D0C  1683               	bsf	3,5	;RP0=1, select bank3
  4130  0D0D  1703               	bsf	3,6	;RP1=1, select bank3
  4131  0D0E  0810               	movf	?___fladd^(0+384),w
  4132  0D0F  1283               	bcf	3,5	;RP0=0, select bank0
  4133  0D10  1303               	bcf	3,6	;RP1=0, select bank0
  4134  0D11  00DC               	movwf	_a1
  4135                           
  4136                           ;deadline.c: 289:  a2 = -Kp + (Ki*T)/2 - 2*Kd/T;
  4137  0D12  1683               	bsf	3,5	;RP0=1, select bank3
  4138  0D13  1703               	bsf	3,6	;RP1=1, select bank3
  4139  0D14  085A               	movf	(_Kp+3)^(0+384),w
  4140  0D15  00A3               	movwf	(___flsub@a+3)^(0+384)
  4141  0D16  0859               	movf	(_Kp+2)^(0+384),w
  4142  0D17  00A2               	movwf	(___flsub@a+2)^(0+384)
  4143  0D18  0858               	movf	(_Kp+1)^(0+384),w
  4144  0D19  00A1               	movwf	(___flsub@a+1)^(0+384)
  4145  0D1A  0857               	movf	_Kp^(0+384),w
  4146  0D1B  00A0               	movwf	___flsub@a^(0+384)
  4147  0D1C  3040               	movlw	64
  4148  0D1D  1683               	bsf	3,5	;RP0=1, select bank1
  4149  0D1E  1303               	bcf	3,6	;RP1=0, select bank1
  4150  0D1F  00D4               	movwf	(___fldiv@a+3)^(0+128)
  4151  0D20  3000               	movlw	0
  4152  0D21  00D3               	movwf	(___fldiv@a+2)^(0+128)
  4153  0D22  3000               	movlw	0
  4154  0D23  00D2               	movwf	(___fldiv@a+1)^(0+128)
  4155  0D24  3000               	movlw	0
  4156  0D25  00D1               	movwf	___fldiv@a^(0+128)
  4157  0D26  1683               	bsf	3,5	;RP0=1, select bank3
  4158  0D27  1703               	bsf	3,6	;RP1=1, select bank3
  4159  0D28  085E               	movf	(_T+3)^(0+384),w
  4160  0D29  1683               	bsf	3,5	;RP0=1, select bank1
  4161  0D2A  1303               	bcf	3,6	;RP1=0, select bank1
  4162  0D2B  00BA               	movwf	(___flmul@b+3)^(0+128)
  4163  0D2C  1683               	bsf	3,5	;RP0=1, select bank3
  4164  0D2D  1703               	bsf	3,6	;RP1=1, select bank3
  4165  0D2E  085D               	movf	(_T+2)^(0+384),w
  4166  0D2F  1683               	bsf	3,5	;RP0=1, select bank1
  4167  0D30  1303               	bcf	3,6	;RP1=0, select bank1
  4168  0D31  00B9               	movwf	(___flmul@b+2)^(0+128)
  4169  0D32  1683               	bsf	3,5	;RP0=1, select bank3
  4170  0D33  1703               	bsf	3,6	;RP1=1, select bank3
  4171  0D34  085C               	movf	(_T+1)^(0+384),w
  4172  0D35  1683               	bsf	3,5	;RP0=1, select bank1
  4173  0D36  1303               	bcf	3,6	;RP1=0, select bank1
  4174  0D37  00B8               	movwf	(___flmul@b+1)^(0+128)
  4175  0D38  1683               	bsf	3,5	;RP0=1, select bank3
  4176  0D39  1703               	bsf	3,6	;RP1=1, select bank3
  4177  0D3A  085B               	movf	_T^(0+384),w
  4178  0D3B  1683               	bsf	3,5	;RP0=1, select bank1
  4179  0D3C  1303               	bcf	3,6	;RP1=0, select bank1
  4180  0D3D  00B7               	movwf	___flmul@b^(0+128)
  4181  0D3E  1683               	bsf	3,5	;RP0=1, select bank3
  4182  0D3F  1703               	bsf	3,6	;RP1=1, select bank3
  4183  0D40  0856               	movf	(_Ki+3)^(0+384),w
  4184  0D41  1683               	bsf	3,5	;RP0=1, select bank1
  4185  0D42  1303               	bcf	3,6	;RP1=0, select bank1
  4186  0D43  00BE               	movwf	(___flmul@a+3)^(0+128)
  4187  0D44  1683               	bsf	3,5	;RP0=1, select bank3
  4188  0D45  1703               	bsf	3,6	;RP1=1, select bank3
  4189  0D46  0855               	movf	(_Ki+2)^(0+384),w
  4190  0D47  1683               	bsf	3,5	;RP0=1, select bank1
  4191  0D48  1303               	bcf	3,6	;RP1=0, select bank1
  4192  0D49  00BD               	movwf	(___flmul@a+2)^(0+128)
  4193  0D4A  1683               	bsf	3,5	;RP0=1, select bank3
  4194  0D4B  1703               	bsf	3,6	;RP1=1, select bank3
  4195  0D4C  0854               	movf	(_Ki+1)^(0+384),w
  4196  0D4D  1683               	bsf	3,5	;RP0=1, select bank1
  4197  0D4E  1303               	bcf	3,6	;RP1=0, select bank1
  4198  0D4F  00BC               	movwf	(___flmul@a+1)^(0+128)
  4199  0D50  1683               	bsf	3,5	;RP0=1, select bank3
  4200  0D51  1703               	bsf	3,6	;RP1=1, select bank3
  4201  0D52  0853               	movf	_Ki^(0+384),w
  4202  0D53  1683               	bsf	3,5	;RP0=1, select bank1
  4203  0D54  1303               	bcf	3,6	;RP1=0, select bank1
  4204  0D55  00BB               	movwf	___flmul@a^(0+128)
  4205  0D56  120A  158A  20EC  120A  158A  	fcall	___flmul
  4206  0D5B  1683               	bsf	3,5	;RP0=1, select bank1
  4207  0D5C  1303               	bcf	3,6	;RP1=0, select bank1
  4208  0D5D  083A               	movf	(?___flmul+3)^(0+128),w
  4209  0D5E  00D8               	movwf	(___fldiv@b+3)^(0+128)
  4210  0D5F  0839               	movf	(?___flmul+2)^(0+128),w
  4211  0D60  00D7               	movwf	(___fldiv@b+2)^(0+128)
  4212  0D61  0838               	movf	(?___flmul+1)^(0+128),w
  4213  0D62  00D6               	movwf	(___fldiv@b+1)^(0+128)
  4214  0D63  0837               	movf	?___flmul^(0+128),w
  4215  0D64  00D5               	movwf	___fldiv@b^(0+128)
  4216  0D65  160A  118A  2134  120A  158A  	fcall	___fldiv
  4217  0D6A  1683               	bsf	3,5	;RP0=1, select bank1
  4218  0D6B  1303               	bcf	3,6	;RP1=0, select bank1
  4219  0D6C  0854               	movf	(?___fldiv+3)^(0+128),w
  4220  0D6D  1683               	bsf	3,5	;RP0=1, select bank3
  4221  0D6E  1703               	bsf	3,6	;RP1=1, select bank3
  4222  0D6F  00A7               	movwf	(___flsub@b+3)^(0+384)
  4223  0D70  1683               	bsf	3,5	;RP0=1, select bank1
  4224  0D71  1303               	bcf	3,6	;RP1=0, select bank1
  4225  0D72  0853               	movf	(?___fldiv+2)^(0+128),w
  4226  0D73  1683               	bsf	3,5	;RP0=1, select bank3
  4227  0D74  1703               	bsf	3,6	;RP1=1, select bank3
  4228  0D75  00A6               	movwf	(___flsub@b+2)^(0+384)
  4229  0D76  1683               	bsf	3,5	;RP0=1, select bank1
  4230  0D77  1303               	bcf	3,6	;RP1=0, select bank1
  4231  0D78  0852               	movf	(?___fldiv+1)^(0+128),w
  4232  0D79  1683               	bsf	3,5	;RP0=1, select bank3
  4233  0D7A  1703               	bsf	3,6	;RP1=1, select bank3
  4234  0D7B  00A5               	movwf	(___flsub@b+1)^(0+384)
  4235  0D7C  1683               	bsf	3,5	;RP0=1, select bank1
  4236  0D7D  1303               	bcf	3,6	;RP1=0, select bank1
  4237  0D7E  0851               	movf	?___fldiv^(0+128),w
  4238  0D7F  1683               	bsf	3,5	;RP0=1, select bank3
  4239  0D80  1703               	bsf	3,6	;RP1=1, select bank3
  4240  0D81  00A4               	movwf	___flsub@b^(0+384)
  4241  0D82  160A  158A  2203  120A  158A  	fcall	___flsub
  4242  0D87  1683               	bsf	3,5	;RP0=1, select bank3
  4243  0D88  1703               	bsf	3,6	;RP1=1, select bank3
  4244  0D89  0823               	movf	(?___flsub+3)^(0+384),w
  4245  0D8A  00BA               	movwf	(_PID_Init$835+3)^(0+384)
  4246  0D8B  0822               	movf	(?___flsub+2)^(0+384),w
  4247  0D8C  00B9               	movwf	(_PID_Init$835+2)^(0+384)
  4248  0D8D  0821               	movf	(?___flsub+1)^(0+384),w
  4249  0D8E  00B8               	movwf	(_PID_Init$835+1)^(0+384)
  4250  0D8F  0820               	movf	?___flsub^(0+384),w
  4251  0D90  00B7               	movwf	_PID_Init$835^(0+384)
  4252                           
  4253                           ;deadline.c: 289:  a2 = -Kp + (Ki*T)/2 - 2*Kd/T;
  4254  0D91  085E               	movf	(_T+3)^(0+384),w
  4255  0D92  1683               	bsf	3,5	;RP0=1, select bank1
  4256  0D93  1303               	bcf	3,6	;RP1=0, select bank1
  4257  0D94  00D4               	movwf	(___fldiv@a+3)^(0+128)
  4258  0D95  1683               	bsf	3,5	;RP0=1, select bank3
  4259  0D96  1703               	bsf	3,6	;RP1=1, select bank3
  4260  0D97  085D               	movf	(_T+2)^(0+384),w
  4261  0D98  1683               	bsf	3,5	;RP0=1, select bank1
  4262  0D99  1303               	bcf	3,6	;RP1=0, select bank1
  4263  0D9A  00D3               	movwf	(___fldiv@a+2)^(0+128)
  4264  0D9B  1683               	bsf	3,5	;RP0=1, select bank3
  4265  0D9C  1703               	bsf	3,6	;RP1=1, select bank3
  4266  0D9D  085C               	movf	(_T+1)^(0+384),w
  4267  0D9E  1683               	bsf	3,5	;RP0=1, select bank1
  4268  0D9F  1303               	bcf	3,6	;RP1=0, select bank1
  4269  0DA0  00D2               	movwf	(___fldiv@a+1)^(0+128)
  4270  0DA1  1683               	bsf	3,5	;RP0=1, select bank3
  4271  0DA2  1703               	bsf	3,6	;RP1=1, select bank3
  4272  0DA3  085B               	movf	_T^(0+384),w
  4273  0DA4  1683               	bsf	3,5	;RP0=1, select bank1
  4274  0DA5  1303               	bcf	3,6	;RP1=0, select bank1
  4275  0DA6  00D1               	movwf	___fldiv@a^(0+128)
  4276  0DA7  3040               	movlw	64
  4277  0DA8  00BA               	movwf	(___flmul@b+3)^(0+128)
  4278  0DA9  3000               	movlw	0
  4279  0DAA  00B9               	movwf	(___flmul@b+2)^(0+128)
  4280  0DAB  3000               	movlw	0
  4281  0DAC  00B8               	movwf	(___flmul@b+1)^(0+128)
  4282  0DAD  3000               	movlw	0
  4283  0DAE  00B7               	movwf	___flmul@b^(0+128)
  4284  0DAF  1683               	bsf	3,5	;RP0=1, select bank3
  4285  0DB0  1703               	bsf	3,6	;RP1=1, select bank3
  4286  0DB1  0852               	movf	(_Kd+3)^(0+384),w
  4287  0DB2  1683               	bsf	3,5	;RP0=1, select bank1
  4288  0DB3  1303               	bcf	3,6	;RP1=0, select bank1
  4289  0DB4  00BE               	movwf	(___flmul@a+3)^(0+128)
  4290  0DB5  1683               	bsf	3,5	;RP0=1, select bank3
  4291  0DB6  1703               	bsf	3,6	;RP1=1, select bank3
  4292  0DB7  0851               	movf	(_Kd+2)^(0+384),w
  4293  0DB8  1683               	bsf	3,5	;RP0=1, select bank1
  4294  0DB9  1303               	bcf	3,6	;RP1=0, select bank1
  4295  0DBA  00BD               	movwf	(___flmul@a+2)^(0+128)
  4296  0DBB  1683               	bsf	3,5	;RP0=1, select bank3
  4297  0DBC  1703               	bsf	3,6	;RP1=1, select bank3
  4298  0DBD  0850               	movf	(_Kd+1)^(0+384),w
  4299  0DBE  1683               	bsf	3,5	;RP0=1, select bank1
  4300  0DBF  1303               	bcf	3,6	;RP1=0, select bank1
  4301  0DC0  00BC               	movwf	(___flmul@a+1)^(0+128)
  4302  0DC1  1683               	bsf	3,5	;RP0=1, select bank3
  4303  0DC2  1703               	bsf	3,6	;RP1=1, select bank3
  4304  0DC3  084F               	movf	_Kd^(0+384),w
  4305  0DC4  1683               	bsf	3,5	;RP0=1, select bank1
  4306  0DC5  1303               	bcf	3,6	;RP1=0, select bank1
  4307  0DC6  00BB               	movwf	___flmul@a^(0+128)
  4308  0DC7  120A  158A  20EC  120A  158A  	fcall	___flmul
  4309  0DCC  1683               	bsf	3,5	;RP0=1, select bank1
  4310  0DCD  1303               	bcf	3,6	;RP1=0, select bank1
  4311  0DCE  083A               	movf	(?___flmul+3)^(0+128),w
  4312  0DCF  00D8               	movwf	(___fldiv@b+3)^(0+128)
  4313  0DD0  0839               	movf	(?___flmul+2)^(0+128),w
  4314  0DD1  00D7               	movwf	(___fldiv@b+2)^(0+128)
  4315  0DD2  0838               	movf	(?___flmul+1)^(0+128),w
  4316  0DD3  00D6               	movwf	(___fldiv@b+1)^(0+128)
  4317  0DD4  0837               	movf	?___flmul^(0+128),w
  4318  0DD5  00D5               	movwf	___fldiv@b^(0+128)
  4319  0DD6  160A  118A  2134  120A  158A  	fcall	___fldiv
  4320  0DDB  1683               	bsf	3,5	;RP0=1, select bank1
  4321  0DDC  1303               	bcf	3,6	;RP1=0, select bank1
  4322  0DDD  0854               	movf	(?___fldiv+3)^(0+128),w
  4323  0DDE  1683               	bsf	3,5	;RP0=1, select bank3
  4324  0DDF  1703               	bsf	3,6	;RP1=1, select bank3
  4325  0DE0  00A3               	movwf	(___flsub@a+3)^(0+384)
  4326  0DE1  1683               	bsf	3,5	;RP0=1, select bank1
  4327  0DE2  1303               	bcf	3,6	;RP1=0, select bank1
  4328  0DE3  0853               	movf	(?___fldiv+2)^(0+128),w
  4329  0DE4  1683               	bsf	3,5	;RP0=1, select bank3
  4330  0DE5  1703               	bsf	3,6	;RP1=1, select bank3
  4331  0DE6  00A2               	movwf	(___flsub@a+2)^(0+384)
  4332  0DE7  1683               	bsf	3,5	;RP0=1, select bank1
  4333  0DE8  1303               	bcf	3,6	;RP1=0, select bank1
  4334  0DE9  0852               	movf	(?___fldiv+1)^(0+128),w
  4335  0DEA  1683               	bsf	3,5	;RP0=1, select bank3
  4336  0DEB  1703               	bsf	3,6	;RP1=1, select bank3
  4337  0DEC  00A1               	movwf	(___flsub@a+1)^(0+384)
  4338  0DED  1683               	bsf	3,5	;RP0=1, select bank1
  4339  0DEE  1303               	bcf	3,6	;RP1=0, select bank1
  4340  0DEF  0851               	movf	?___fldiv^(0+128),w
  4341  0DF0  1683               	bsf	3,5	;RP0=1, select bank3
  4342  0DF1  1703               	bsf	3,6	;RP1=1, select bank3
  4343  0DF2  00A0               	movwf	___flsub@a^(0+384)
  4344  0DF3  083A               	movf	(_PID_Init$835+3)^(0+384),w
  4345  0DF4  00A7               	movwf	(___flsub@b+3)^(0+384)
  4346  0DF5  0839               	movf	(_PID_Init$835+2)^(0+384),w
  4347  0DF6  00A6               	movwf	(___flsub@b+2)^(0+384)
  4348  0DF7  0838               	movf	(_PID_Init$835+1)^(0+384),w
  4349  0DF8  00A5               	movwf	(___flsub@b+1)^(0+384)
  4350  0DF9  0837               	movf	_PID_Init$835^(0+384),w
  4351  0DFA  00A4               	movwf	___flsub@b^(0+384)
  4352  0DFB  160A  158A  2203  120A  158A  	fcall	___flsub
  4353  0E00  1683               	bsf	3,5	;RP0=1, select bank3
  4354  0E01  1703               	bsf	3,6	;RP1=1, select bank3
  4355  0E02  0823               	movf	(?___flsub+3)^(0+384),w
  4356  0E03  1283               	bcf	3,5	;RP0=0, select bank0
  4357  0E04  1303               	bcf	3,6	;RP1=0, select bank0
  4358  0E05  00DB               	movwf	_a2+3
  4359  0E06  1683               	bsf	3,5	;RP0=1, select bank3
  4360  0E07  1703               	bsf	3,6	;RP1=1, select bank3
  4361  0E08  0822               	movf	(?___flsub+2)^(0+384),w
  4362  0E09  1283               	bcf	3,5	;RP0=0, select bank0
  4363  0E0A  1303               	bcf	3,6	;RP1=0, select bank0
  4364  0E0B  00DA               	movwf	_a2+2
  4365  0E0C  1683               	bsf	3,5	;RP0=1, select bank3
  4366  0E0D  1703               	bsf	3,6	;RP1=1, select bank3
  4367  0E0E  0821               	movf	(?___flsub+1)^(0+384),w
  4368  0E0F  1283               	bcf	3,5	;RP0=0, select bank0
  4369  0E10  1303               	bcf	3,6	;RP1=0, select bank0
  4370  0E11  00D9               	movwf	_a2+1
  4371  0E12  1683               	bsf	3,5	;RP0=1, select bank3
  4372  0E13  1703               	bsf	3,6	;RP1=1, select bank3
  4373  0E14  0820               	movf	?___flsub^(0+384),w
  4374  0E15  1283               	bcf	3,5	;RP0=0, select bank0
  4375  0E16  1303               	bcf	3,6	;RP1=0, select bank0
  4376  0E17  00D8               	movwf	_a2
  4377                           
  4378                           ;deadline.c: 290:  a3 = Kd/T;
  4379  0E18  1683               	bsf	3,5	;RP0=1, select bank3
  4380  0E19  1703               	bsf	3,6	;RP1=1, select bank3
  4381  0E1A  085E               	movf	(_T+3)^(0+384),w
  4382  0E1B  1683               	bsf	3,5	;RP0=1, select bank1
  4383  0E1C  1303               	bcf	3,6	;RP1=0, select bank1
  4384  0E1D  00D4               	movwf	(___fldiv@a+3)^(0+128)
  4385  0E1E  1683               	bsf	3,5	;RP0=1, select bank3
  4386  0E1F  1703               	bsf	3,6	;RP1=1, select bank3
  4387  0E20  085D               	movf	(_T+2)^(0+384),w
  4388  0E21  1683               	bsf	3,5	;RP0=1, select bank1
  4389  0E22  1303               	bcf	3,6	;RP1=0, select bank1
  4390  0E23  00D3               	movwf	(___fldiv@a+2)^(0+128)
  4391  0E24  1683               	bsf	3,5	;RP0=1, select bank3
  4392  0E25  1703               	bsf	3,6	;RP1=1, select bank3
  4393  0E26  085C               	movf	(_T+1)^(0+384),w
  4394  0E27  1683               	bsf	3,5	;RP0=1, select bank1
  4395  0E28  1303               	bcf	3,6	;RP1=0, select bank1
  4396  0E29  00D2               	movwf	(___fldiv@a+1)^(0+128)
  4397  0E2A  1683               	bsf	3,5	;RP0=1, select bank3
  4398  0E2B  1703               	bsf	3,6	;RP1=1, select bank3
  4399  0E2C  085B               	movf	_T^(0+384),w
  4400  0E2D  1683               	bsf	3,5	;RP0=1, select bank1
  4401  0E2E  1303               	bcf	3,6	;RP1=0, select bank1
  4402  0E2F  00D1               	movwf	___fldiv@a^(0+128)
  4403  0E30  1683               	bsf	3,5	;RP0=1, select bank3
  4404  0E31  1703               	bsf	3,6	;RP1=1, select bank3
  4405  0E32  0852               	movf	(_Kd+3)^(0+384),w
  4406  0E33  1683               	bsf	3,5	;RP0=1, select bank1
  4407  0E34  1303               	bcf	3,6	;RP1=0, select bank1
  4408  0E35  00D8               	movwf	(___fldiv@b+3)^(0+128)
  4409  0E36  1683               	bsf	3,5	;RP0=1, select bank3
  4410  0E37  1703               	bsf	3,6	;RP1=1, select bank3
  4411  0E38  0851               	movf	(_Kd+2)^(0+384),w
  4412  0E39  1683               	bsf	3,5	;RP0=1, select bank1
  4413  0E3A  1303               	bcf	3,6	;RP1=0, select bank1
  4414  0E3B  00D7               	movwf	(___fldiv@b+2)^(0+128)
  4415  0E3C  1683               	bsf	3,5	;RP0=1, select bank3
  4416  0E3D  1703               	bsf	3,6	;RP1=1, select bank3
  4417  0E3E  0850               	movf	(_Kd+1)^(0+384),w
  4418  0E3F  1683               	bsf	3,5	;RP0=1, select bank1
  4419  0E40  1303               	bcf	3,6	;RP1=0, select bank1
  4420  0E41  00D6               	movwf	(___fldiv@b+1)^(0+128)
  4421  0E42  1683               	bsf	3,5	;RP0=1, select bank3
  4422  0E43  1703               	bsf	3,6	;RP1=1, select bank3
  4423  0E44  084F               	movf	_Kd^(0+384),w
  4424  0E45  1683               	bsf	3,5	;RP0=1, select bank1
  4425  0E46  1303               	bcf	3,6	;RP1=0, select bank1
  4426  0E47  00D5               	movwf	___fldiv@b^(0+128)
  4427  0E48  160A  118A  2134  120A  158A  	fcall	___fldiv
  4428  0E4D  1683               	bsf	3,5	;RP0=1, select bank1
  4429  0E4E  1303               	bcf	3,6	;RP1=0, select bank1
  4430  0E4F  0854               	movf	(?___fldiv+3)^(0+128),w
  4431  0E50  1283               	bcf	3,5	;RP0=0, select bank0
  4432  0E51  1303               	bcf	3,6	;RP1=0, select bank0
  4433  0E52  00D7               	movwf	_a3+3
  4434  0E53  1683               	bsf	3,5	;RP0=1, select bank1
  4435  0E54  1303               	bcf	3,6	;RP1=0, select bank1
  4436  0E55  0853               	movf	(?___fldiv+2)^(0+128),w
  4437  0E56  1283               	bcf	3,5	;RP0=0, select bank0
  4438  0E57  1303               	bcf	3,6	;RP1=0, select bank0
  4439  0E58  00D6               	movwf	_a3+2
  4440  0E59  1683               	bsf	3,5	;RP0=1, select bank1
  4441  0E5A  1303               	bcf	3,6	;RP1=0, select bank1
  4442  0E5B  0852               	movf	(?___fldiv+1)^(0+128),w
  4443  0E5C  1283               	bcf	3,5	;RP0=0, select bank0
  4444  0E5D  1303               	bcf	3,6	;RP1=0, select bank0
  4445  0E5E  00D5               	movwf	_a3+1
  4446  0E5F  1683               	bsf	3,5	;RP0=1, select bank1
  4447  0E60  1303               	bcf	3,6	;RP1=0, select bank1
  4448  0E61  0851               	movf	?___fldiv^(0+128),w
  4449  0E62  1283               	bcf	3,5	;RP0=0, select bank0
  4450  0E63  1303               	bcf	3,6	;RP1=0, select bank0
  4451  0E64  00D4               	movwf	_a3
  4452                           
  4453                           ;deadline.c: 291:  out = pre_out + E*a1 + E1*a2 + E2*a3;
  4454  0E65  0853               	movf	_pre_out+3,w
  4455  0E66  1683               	bsf	3,5	;RP0=1, select bank3
  4456  0E67  1703               	bsf	3,6	;RP1=1, select bank3
  4457  0E68  0093               	movwf	(___fladd@b+3)^(0+384)
  4458  0E69  1283               	bcf	3,5	;RP0=0, select bank0
  4459  0E6A  1303               	bcf	3,6	;RP1=0, select bank0
  4460  0E6B  0852               	movf	_pre_out+2,w
  4461  0E6C  1683               	bsf	3,5	;RP0=1, select bank3
  4462  0E6D  1703               	bsf	3,6	;RP1=1, select bank3
  4463  0E6E  0092               	movwf	(___fladd@b+2)^(0+384)
  4464  0E6F  1283               	bcf	3,5	;RP0=0, select bank0
  4465  0E70  1303               	bcf	3,6	;RP1=0, select bank0
  4466  0E71  0851               	movf	_pre_out+1,w
  4467  0E72  1683               	bsf	3,5	;RP0=1, select bank3
  4468  0E73  1703               	bsf	3,6	;RP1=1, select bank3
  4469  0E74  0091               	movwf	(___fladd@b+1)^(0+384)
  4470  0E75  1283               	bcf	3,5	;RP0=0, select bank0
  4471  0E76  1303               	bcf	3,6	;RP1=0, select bank0
  4472  0E77  0850               	movf	_pre_out,w
  4473  0E78  1683               	bsf	3,5	;RP0=1, select bank3
  4474  0E79  1703               	bsf	3,6	;RP1=1, select bank3
  4475  0E7A  0090               	movwf	___fladd@b^(0+384)
  4476  0E7B  1283               	bcf	3,5	;RP0=0, select bank0
  4477  0E7C  1303               	bcf	3,6	;RP1=0, select bank0
  4478  0E7D  085F               	movf	_a1+3,w
  4479  0E7E  1683               	bsf	3,5	;RP0=1, select bank1
  4480  0E7F  1303               	bcf	3,6	;RP1=0, select bank1
  4481  0E80  00BA               	movwf	(___flmul@b+3)^(0+128)
  4482  0E81  1283               	bcf	3,5	;RP0=0, select bank0
  4483  0E82  1303               	bcf	3,6	;RP1=0, select bank0
  4484  0E83  085E               	movf	_a1+2,w
  4485  0E84  1683               	bsf	3,5	;RP0=1, select bank1
  4486  0E85  1303               	bcf	3,6	;RP1=0, select bank1
  4487  0E86  00B9               	movwf	(___flmul@b+2)^(0+128)
  4488  0E87  1283               	bcf	3,5	;RP0=0, select bank0
  4489  0E88  1303               	bcf	3,6	;RP1=0, select bank0
  4490  0E89  085D               	movf	_a1+1,w
  4491  0E8A  1683               	bsf	3,5	;RP0=1, select bank1
  4492  0E8B  1303               	bcf	3,6	;RP1=0, select bank1
  4493  0E8C  00B8               	movwf	(___flmul@b+1)^(0+128)
  4494  0E8D  1283               	bcf	3,5	;RP0=0, select bank0
  4495  0E8E  1303               	bcf	3,6	;RP1=0, select bank0
  4496  0E8F  085C               	movf	_a1,w
  4497  0E90  1683               	bsf	3,5	;RP0=1, select bank1
  4498  0E91  1303               	bcf	3,6	;RP1=0, select bank1
  4499  0E92  00B7               	movwf	___flmul@b^(0+128)
  4500  0E93  1683               	bsf	3,5	;RP0=1, select bank3
  4501  0E94  1703               	bsf	3,6	;RP1=1, select bank3
  4502  0E95  0866               	movf	(_E+3)^(0+384),w
  4503  0E96  1683               	bsf	3,5	;RP0=1, select bank1
  4504  0E97  1303               	bcf	3,6	;RP1=0, select bank1
  4505  0E98  00BE               	movwf	(___flmul@a+3)^(0+128)
  4506  0E99  1683               	bsf	3,5	;RP0=1, select bank3
  4507  0E9A  1703               	bsf	3,6	;RP1=1, select bank3
  4508  0E9B  0865               	movf	(_E+2)^(0+384),w
  4509  0E9C  1683               	bsf	3,5	;RP0=1, select bank1
  4510  0E9D  1303               	bcf	3,6	;RP1=0, select bank1
  4511  0E9E  00BD               	movwf	(___flmul@a+2)^(0+128)
  4512  0E9F  1683               	bsf	3,5	;RP0=1, select bank3
  4513  0EA0  1703               	bsf	3,6	;RP1=1, select bank3
  4514  0EA1  0864               	movf	(_E+1)^(0+384),w
  4515  0EA2  1683               	bsf	3,5	;RP0=1, select bank1
  4516  0EA3  1303               	bcf	3,6	;RP1=0, select bank1
  4517  0EA4  00BC               	movwf	(___flmul@a+1)^(0+128)
  4518  0EA5  1683               	bsf	3,5	;RP0=1, select bank3
  4519  0EA6  1703               	bsf	3,6	;RP1=1, select bank3
  4520  0EA7  0863               	movf	_E^(0+384),w
  4521  0EA8  1683               	bsf	3,5	;RP0=1, select bank1
  4522  0EA9  1303               	bcf	3,6	;RP1=0, select bank1
  4523  0EAA  00BB               	movwf	___flmul@a^(0+128)
  4524  0EAB  120A  158A  20EC  120A  158A  	fcall	___flmul
  4525  0EB0  1683               	bsf	3,5	;RP0=1, select bank1
  4526  0EB1  1303               	bcf	3,6	;RP1=0, select bank1
  4527  0EB2  083A               	movf	(?___flmul+3)^(0+128),w
  4528  0EB3  1683               	bsf	3,5	;RP0=1, select bank3
  4529  0EB4  1703               	bsf	3,6	;RP1=1, select bank3
  4530  0EB5  0097               	movwf	(___fladd@a+3)^(0+384)
  4531  0EB6  1683               	bsf	3,5	;RP0=1, select bank1
  4532  0EB7  1303               	bcf	3,6	;RP1=0, select bank1
  4533  0EB8  0839               	movf	(?___flmul+2)^(0+128),w
  4534  0EB9  1683               	bsf	3,5	;RP0=1, select bank3
  4535  0EBA  1703               	bsf	3,6	;RP1=1, select bank3
  4536  0EBB  0096               	movwf	(___fladd@a+2)^(0+384)
  4537  0EBC  1683               	bsf	3,5	;RP0=1, select bank1
  4538  0EBD  1303               	bcf	3,6	;RP1=0, select bank1
  4539  0EBE  0838               	movf	(?___flmul+1)^(0+128),w
  4540  0EBF  1683               	bsf	3,5	;RP0=1, select bank3
  4541  0EC0  1703               	bsf	3,6	;RP1=1, select bank3
  4542  0EC1  0095               	movwf	(___fladd@a+1)^(0+384)
  4543  0EC2  1683               	bsf	3,5	;RP0=1, select bank1
  4544  0EC3  1303               	bcf	3,6	;RP1=0, select bank1
  4545  0EC4  0837               	movf	?___flmul^(0+128),w
  4546  0EC5  1683               	bsf	3,5	;RP0=1, select bank3
  4547  0EC6  1703               	bsf	3,6	;RP1=1, select bank3
  4548  0EC7  0094               	movwf	___fladd@a^(0+384)
  4549  0EC8  160A  118A  2516  120A  158A  	fcall	___fladd
  4550  0ECD  1683               	bsf	3,5	;RP0=1, select bank3
  4551  0ECE  1703               	bsf	3,6	;RP1=1, select bank3
  4552  0ECF  0813               	movf	(?___fladd+3)^(0+384),w
  4553  0ED0  00C2               	movwf	(_PID_Init$834+3)^(0+384)
  4554  0ED1  0812               	movf	(?___fladd+2)^(0+384),w
  4555  0ED2  00C1               	movwf	(_PID_Init$834+2)^(0+384)
  4556  0ED3  0811               	movf	(?___fladd+1)^(0+384),w
  4557  0ED4  00C0               	movwf	(_PID_Init$834+1)^(0+384)
  4558  0ED5  0810               	movf	?___fladd^(0+384),w
  4559  0ED6  00BF               	movwf	_PID_Init$834^(0+384)
  4560                           
  4561                           ;deadline.c: 291:  out = pre_out + E*a1 + E1*a2 + E2*a3;
  4562  0ED7  1283               	bcf	3,5	;RP0=0, select bank0
  4563  0ED8  1303               	bcf	3,6	;RP1=0, select bank0
  4564  0ED9  085B               	movf	_a2+3,w
  4565  0EDA  1683               	bsf	3,5	;RP0=1, select bank1
  4566  0EDB  1303               	bcf	3,6	;RP1=0, select bank1
  4567  0EDC  00BA               	movwf	(___flmul@b+3)^(0+128)
  4568  0EDD  1283               	bcf	3,5	;RP0=0, select bank0
  4569  0EDE  1303               	bcf	3,6	;RP1=0, select bank0
  4570  0EDF  085A               	movf	_a2+2,w
  4571  0EE0  1683               	bsf	3,5	;RP0=1, select bank1
  4572  0EE1  1303               	bcf	3,6	;RP1=0, select bank1
  4573  0EE2  00B9               	movwf	(___flmul@b+2)^(0+128)
  4574  0EE3  1283               	bcf	3,5	;RP0=0, select bank0
  4575  0EE4  1303               	bcf	3,6	;RP1=0, select bank0
  4576  0EE5  0859               	movf	_a2+1,w
  4577  0EE6  1683               	bsf	3,5	;RP0=1, select bank1
  4578  0EE7  1303               	bcf	3,6	;RP1=0, select bank1
  4579  0EE8  00B8               	movwf	(___flmul@b+1)^(0+128)
  4580  0EE9  1283               	bcf	3,5	;RP0=0, select bank0
  4581  0EEA  1303               	bcf	3,6	;RP1=0, select bank0
  4582  0EEB  0858               	movf	_a2,w
  4583  0EEC  1683               	bsf	3,5	;RP0=1, select bank1
  4584  0EED  1303               	bcf	3,6	;RP1=0, select bank1
  4585  0EEE  00B7               	movwf	___flmul@b^(0+128)
  4586  0EEF  1683               	bsf	3,5	;RP0=1, select bank3
  4587  0EF0  1703               	bsf	3,6	;RP1=1, select bank3
  4588  0EF1  0862               	movf	(_E1+3)^(0+384),w
  4589  0EF2  1683               	bsf	3,5	;RP0=1, select bank1
  4590  0EF3  1303               	bcf	3,6	;RP1=0, select bank1
  4591  0EF4  00BE               	movwf	(___flmul@a+3)^(0+128)
  4592  0EF5  1683               	bsf	3,5	;RP0=1, select bank3
  4593  0EF6  1703               	bsf	3,6	;RP1=1, select bank3
  4594  0EF7  0861               	movf	(_E1+2)^(0+384),w
  4595  0EF8  1683               	bsf	3,5	;RP0=1, select bank1
  4596  0EF9  1303               	bcf	3,6	;RP1=0, select bank1
  4597  0EFA  00BD               	movwf	(___flmul@a+2)^(0+128)
  4598  0EFB  1683               	bsf	3,5	;RP0=1, select bank3
  4599  0EFC  1703               	bsf	3,6	;RP1=1, select bank3
  4600  0EFD  0860               	movf	(_E1+1)^(0+384),w
  4601  0EFE  1683               	bsf	3,5	;RP0=1, select bank1
  4602  0EFF  1303               	bcf	3,6	;RP1=0, select bank1
  4603  0F00  00BC               	movwf	(___flmul@a+1)^(0+128)
  4604  0F01  1683               	bsf	3,5	;RP0=1, select bank3
  4605  0F02  1703               	bsf	3,6	;RP1=1, select bank3
  4606  0F03  085F               	movf	_E1^(0+384),w
  4607  0F04  1683               	bsf	3,5	;RP0=1, select bank1
  4608  0F05  1303               	bcf	3,6	;RP1=0, select bank1
  4609  0F06  00BB               	movwf	___flmul@a^(0+128)
  4610  0F07  120A  158A  20EC  120A  158A  	fcall	___flmul
  4611  0F0C  1683               	bsf	3,5	;RP0=1, select bank1
  4612  0F0D  1303               	bcf	3,6	;RP1=0, select bank1
  4613  0F0E  083A               	movf	(?___flmul+3)^(0+128),w
  4614  0F0F  1683               	bsf	3,5	;RP0=1, select bank3
  4615  0F10  1703               	bsf	3,6	;RP1=1, select bank3
  4616  0F11  0093               	movwf	(___fladd@b+3)^(0+384)
  4617  0F12  1683               	bsf	3,5	;RP0=1, select bank1
  4618  0F13  1303               	bcf	3,6	;RP1=0, select bank1
  4619  0F14  0839               	movf	(?___flmul+2)^(0+128),w
  4620  0F15  1683               	bsf	3,5	;RP0=1, select bank3
  4621  0F16  1703               	bsf	3,6	;RP1=1, select bank3
  4622  0F17  0092               	movwf	(___fladd@b+2)^(0+384)
  4623  0F18  1683               	bsf	3,5	;RP0=1, select bank1
  4624  0F19  1303               	bcf	3,6	;RP1=0, select bank1
  4625  0F1A  0838               	movf	(?___flmul+1)^(0+128),w
  4626  0F1B  1683               	bsf	3,5	;RP0=1, select bank3
  4627  0F1C  1703               	bsf	3,6	;RP1=1, select bank3
  4628  0F1D  0091               	movwf	(___fladd@b+1)^(0+384)
  4629  0F1E  1683               	bsf	3,5	;RP0=1, select bank1
  4630  0F1F  1303               	bcf	3,6	;RP1=0, select bank1
  4631  0F20  0837               	movf	?___flmul^(0+128),w
  4632  0F21  1683               	bsf	3,5	;RP0=1, select bank3
  4633  0F22  1703               	bsf	3,6	;RP1=1, select bank3
  4634  0F23  0090               	movwf	___fladd@b^(0+384)
  4635  0F24  0842               	movf	(_PID_Init$834+3)^(0+384),w
  4636  0F25  0097               	movwf	(___fladd@a+3)^(0+384)
  4637  0F26  0841               	movf	(_PID_Init$834+2)^(0+384),w
  4638  0F27  0096               	movwf	(___fladd@a+2)^(0+384)
  4639  0F28  0840               	movf	(_PID_Init$834+1)^(0+384),w
  4640  0F29  0095               	movwf	(___fladd@a+1)^(0+384)
  4641  0F2A  083F               	movf	_PID_Init$834^(0+384),w
  4642  0F2B  0094               	movwf	___fladd@a^(0+384)
  4643  0F2C  160A  118A  2516  120A  158A  	fcall	___fladd
  4644  0F31  1683               	bsf	3,5	;RP0=1, select bank3
  4645  0F32  1703               	bsf	3,6	;RP1=1, select bank3
  4646  0F33  0813               	movf	(?___fladd+3)^(0+384),w
  4647  0F34  00BE               	movwf	(_PID_Init$836+3)^(0+384)
  4648  0F35  0812               	movf	(?___fladd+2)^(0+384),w
  4649  0F36  00BD               	movwf	(_PID_Init$836+2)^(0+384)
  4650  0F37  0811               	movf	(?___fladd+1)^(0+384),w
  4651  0F38  00BC               	movwf	(_PID_Init$836+1)^(0+384)
  4652  0F39  0810               	movf	?___fladd^(0+384),w
  4653  0F3A  00BB               	movwf	_PID_Init$836^(0+384)
  4654                           
  4655                           ;deadline.c: 291:  out = pre_out + E*a1 + E1*a2 + E2*a3;
  4656  0F3B  1283               	bcf	3,5	;RP0=0, select bank0
  4657  0F3C  1303               	bcf	3,6	;RP1=0, select bank0
  4658  0F3D  0857               	movf	_a3+3,w
  4659  0F3E  1683               	bsf	3,5	;RP0=1, select bank1
  4660  0F3F  1303               	bcf	3,6	;RP1=0, select bank1
  4661  0F40  00BA               	movwf	(___flmul@b+3)^(0+128)
  4662  0F41  1283               	bcf	3,5	;RP0=0, select bank0
  4663  0F42  1303               	bcf	3,6	;RP1=0, select bank0
  4664  0F43  0856               	movf	_a3+2,w
  4665  0F44  1683               	bsf	3,5	;RP0=1, select bank1
  4666  0F45  1303               	bcf	3,6	;RP1=0, select bank1
  4667  0F46  00B9               	movwf	(___flmul@b+2)^(0+128)
  4668  0F47  1283               	bcf	3,5	;RP0=0, select bank0
  4669  0F48  1303               	bcf	3,6	;RP1=0, select bank0
  4670  0F49  0855               	movf	_a3+1,w
  4671  0F4A  1683               	bsf	3,5	;RP0=1, select bank1
  4672  0F4B  1303               	bcf	3,6	;RP1=0, select bank1
  4673  0F4C  00B8               	movwf	(___flmul@b+1)^(0+128)
  4674  0F4D  1283               	bcf	3,5	;RP0=0, select bank0
  4675  0F4E  1303               	bcf	3,6	;RP1=0, select bank0
  4676  0F4F  0854               	movf	_a3,w
  4677  0F50  1683               	bsf	3,5	;RP0=1, select bank1
  4678  0F51  1303               	bcf	3,6	;RP1=0, select bank1
  4679  0F52  00B7               	movwf	___flmul@b^(0+128)
  4680  0F53  1283               	bcf	3,5	;RP0=0, select bank0
  4681  0F54  1303               	bcf	3,6	;RP1=0, select bank0
  4682  0F55  0863               	movf	_E2+3,w
  4683  0F56  1683               	bsf	3,5	;RP0=1, select bank1
  4684  0F57  1303               	bcf	3,6	;RP1=0, select bank1
  4685  0F58  00BE               	movwf	(___flmul@a+3)^(0+128)
  4686  0F59  1283               	bcf	3,5	;RP0=0, select bank0
  4687  0F5A  1303               	bcf	3,6	;RP1=0, select bank0
  4688  0F5B  0862               	movf	_E2+2,w
  4689  0F5C  1683               	bsf	3,5	;RP0=1, select bank1
  4690  0F5D  1303               	bcf	3,6	;RP1=0, select bank1
  4691  0F5E  00BD               	movwf	(___flmul@a+2)^(0+128)
  4692  0F5F  1283               	bcf	3,5	;RP0=0, select bank0
  4693  0F60  1303               	bcf	3,6	;RP1=0, select bank0
  4694  0F61  0861               	movf	_E2+1,w
  4695  0F62  1683               	bsf	3,5	;RP0=1, select bank1
  4696  0F63  1303               	bcf	3,6	;RP1=0, select bank1
  4697  0F64  00BC               	movwf	(___flmul@a+1)^(0+128)
  4698  0F65  1283               	bcf	3,5	;RP0=0, select bank0
  4699  0F66  1303               	bcf	3,6	;RP1=0, select bank0
  4700  0F67  0860               	movf	_E2,w
  4701  0F68  1683               	bsf	3,5	;RP0=1, select bank1
  4702  0F69  1303               	bcf	3,6	;RP1=0, select bank1
  4703  0F6A  00BB               	movwf	___flmul@a^(0+128)
  4704  0F6B  120A  158A  20EC  120A  158A  	fcall	___flmul
  4705  0F70  1683               	bsf	3,5	;RP0=1, select bank1
  4706  0F71  1303               	bcf	3,6	;RP1=0, select bank1
  4707  0F72  083A               	movf	(?___flmul+3)^(0+128),w
  4708  0F73  1683               	bsf	3,5	;RP0=1, select bank3
  4709  0F74  1703               	bsf	3,6	;RP1=1, select bank3
  4710  0F75  0093               	movwf	(___fladd@b+3)^(0+384)
  4711  0F76  1683               	bsf	3,5	;RP0=1, select bank1
  4712  0F77  1303               	bcf	3,6	;RP1=0, select bank1
  4713  0F78  0839               	movf	(?___flmul+2)^(0+128),w
  4714  0F79  1683               	bsf	3,5	;RP0=1, select bank3
  4715  0F7A  1703               	bsf	3,6	;RP1=1, select bank3
  4716  0F7B  0092               	movwf	(___fladd@b+2)^(0+384)
  4717  0F7C  1683               	bsf	3,5	;RP0=1, select bank1
  4718  0F7D  1303               	bcf	3,6	;RP1=0, select bank1
  4719  0F7E  0838               	movf	(?___flmul+1)^(0+128),w
  4720  0F7F  1683               	bsf	3,5	;RP0=1, select bank3
  4721  0F80  1703               	bsf	3,6	;RP1=1, select bank3
  4722  0F81  0091               	movwf	(___fladd@b+1)^(0+384)
  4723  0F82  1683               	bsf	3,5	;RP0=1, select bank1
  4724  0F83  1303               	bcf	3,6	;RP1=0, select bank1
  4725  0F84  0837               	movf	?___flmul^(0+128),w
  4726  0F85  1683               	bsf	3,5	;RP0=1, select bank3
  4727  0F86  1703               	bsf	3,6	;RP1=1, select bank3
  4728  0F87  0090               	movwf	___fladd@b^(0+384)
  4729  0F88  083E               	movf	(_PID_Init$836+3)^(0+384),w
  4730  0F89  0097               	movwf	(___fladd@a+3)^(0+384)
  4731  0F8A  083D               	movf	(_PID_Init$836+2)^(0+384),w
  4732  0F8B  0096               	movwf	(___fladd@a+2)^(0+384)
  4733  0F8C  083C               	movf	(_PID_Init$836+1)^(0+384),w
  4734  0F8D  0095               	movwf	(___fladd@a+1)^(0+384)
  4735  0F8E  083B               	movf	_PID_Init$836^(0+384),w
  4736  0F8F  0094               	movwf	___fladd@a^(0+384)
  4737  0F90  160A  118A  2516  120A  158A  	fcall	___fladd
  4738  0F95  1683               	bsf	3,5	;RP0=1, select bank3
  4739  0F96  1703               	bsf	3,6	;RP1=1, select bank3
  4740  0F97  0813               	movf	(?___fladd+3)^(0+384),w
  4741  0F98  00CE               	movwf	(_out+3)^(0+384)
  4742  0F99  0812               	movf	(?___fladd+2)^(0+384),w
  4743  0F9A  00CD               	movwf	(_out+2)^(0+384)
  4744  0F9B  0811               	movf	(?___fladd+1)^(0+384),w
  4745  0F9C  00CC               	movwf	(_out+1)^(0+384)
  4746  0F9D  0810               	movf	?___fladd^(0+384),w
  4747  0F9E  00CB               	movwf	_out^(0+384)
  4748                           
  4749                           ;deadline.c: 292:  pre_out = out;
  4750  0F9F  084E               	movf	(_out+3)^(0+384),w
  4751  0FA0  1283               	bcf	3,5	;RP0=0, select bank0
  4752  0FA1  1303               	bcf	3,6	;RP1=0, select bank0
  4753  0FA2  00D3               	movwf	_pre_out+3
  4754  0FA3  1683               	bsf	3,5	;RP0=1, select bank3
  4755  0FA4  1703               	bsf	3,6	;RP1=1, select bank3
  4756  0FA5  084D               	movf	(_out+2)^(0+384),w
  4757  0FA6  1283               	bcf	3,5	;RP0=0, select bank0
  4758  0FA7  1303               	bcf	3,6	;RP1=0, select bank0
  4759  0FA8  00D2               	movwf	_pre_out+2
  4760  0FA9  1683               	bsf	3,5	;RP0=1, select bank3
  4761  0FAA  1703               	bsf	3,6	;RP1=1, select bank3
  4762  0FAB  084C               	movf	(_out+1)^(0+384),w
  4763  0FAC  1283               	bcf	3,5	;RP0=0, select bank0
  4764  0FAD  1303               	bcf	3,6	;RP1=0, select bank0
  4765  0FAE  00D1               	movwf	_pre_out+1
  4766  0FAF  1683               	bsf	3,5	;RP0=1, select bank3
  4767  0FB0  1703               	bsf	3,6	;RP1=1, select bank3
  4768  0FB1  084B               	movf	_out^(0+384),w
  4769  0FB2  1283               	bcf	3,5	;RP0=0, select bank0
  4770  0FB3  1303               	bcf	3,6	;RP1=0, select bank0
  4771  0FB4  00D0               	movwf	_pre_out
  4772                           
  4773                           ;deadline.c: 293:  E2 = E1;
  4774  0FB5  1683               	bsf	3,5	;RP0=1, select bank3
  4775  0FB6  1703               	bsf	3,6	;RP1=1, select bank3
  4776  0FB7  0862               	movf	(_E1+3)^(0+384),w
  4777  0FB8  1283               	bcf	3,5	;RP0=0, select bank0
  4778  0FB9  1303               	bcf	3,6	;RP1=0, select bank0
  4779  0FBA  00E3               	movwf	_E2+3
  4780  0FBB  1683               	bsf	3,5	;RP0=1, select bank3
  4781  0FBC  1703               	bsf	3,6	;RP1=1, select bank3
  4782  0FBD  0861               	movf	(_E1+2)^(0+384),w
  4783  0FBE  1283               	bcf	3,5	;RP0=0, select bank0
  4784  0FBF  1303               	bcf	3,6	;RP1=0, select bank0
  4785  0FC0  00E2               	movwf	_E2+2
  4786  0FC1  1683               	bsf	3,5	;RP0=1, select bank3
  4787  0FC2  1703               	bsf	3,6	;RP1=1, select bank3
  4788  0FC3  0860               	movf	(_E1+1)^(0+384),w
  4789  0FC4  1283               	bcf	3,5	;RP0=0, select bank0
  4790  0FC5  1303               	bcf	3,6	;RP1=0, select bank0
  4791  0FC6  00E1               	movwf	_E2+1
  4792  0FC7  1683               	bsf	3,5	;RP0=1, select bank3
  4793  0FC8  1703               	bsf	3,6	;RP1=1, select bank3
  4794  0FC9  085F               	movf	_E1^(0+384),w
  4795  0FCA  1283               	bcf	3,5	;RP0=0, select bank0
  4796  0FCB  1303               	bcf	3,6	;RP1=0, select bank0
  4797  0FCC  00E0               	movwf	_E2
  4798                           
  4799                           ;deadline.c: 294:  E1 = E;
  4800  0FCD  1683               	bsf	3,5	;RP0=1, select bank3
  4801  0FCE  1703               	bsf	3,6	;RP1=1, select bank3
  4802  0FCF  0866               	movf	(_E+3)^(0+384),w
  4803  0FD0  00E2               	movwf	(_E1+3)^(0+384)
  4804  0FD1  0865               	movf	(_E+2)^(0+384),w
  4805  0FD2  00E1               	movwf	(_E1+2)^(0+384)
  4806  0FD3  0864               	movf	(_E+1)^(0+384),w
  4807  0FD4  00E0               	movwf	(_E1+1)^(0+384)
  4808  0FD5  0863               	movf	_E^(0+384),w
  4809  0FD6  00DF               	movwf	_E1^(0+384)
  4810                           
  4811                           ;deadline.c: 295:  return 6000-out;
  4812  0FD7  3045               	movlw	69
  4813  0FD8  00A7               	movwf	(___flsub@b+3)^(0+384)
  4814  0FD9  30BB               	movlw	187
  4815  0FDA  00A6               	movwf	(___flsub@b+2)^(0+384)
  4816  0FDB  3080               	movlw	128
  4817  0FDC  00A5               	movwf	(___flsub@b+1)^(0+384)
  4818  0FDD  3000               	movlw	0
  4819  0FDE  00A4               	movwf	___flsub@b^(0+384)
  4820  0FDF  084E               	movf	(_out+3)^(0+384),w
  4821  0FE0  00A3               	movwf	(___flsub@a+3)^(0+384)
  4822  0FE1  084D               	movf	(_out+2)^(0+384),w
  4823  0FE2  00A2               	movwf	(___flsub@a+2)^(0+384)
  4824  0FE3  084C               	movf	(_out+1)^(0+384),w
  4825  0FE4  00A1               	movwf	(___flsub@a+1)^(0+384)
  4826  0FE5  084B               	movf	_out^(0+384),w
  4827  0FE6  00A0               	movwf	___flsub@a^(0+384)
  4828  0FE7  160A  158A  2203  120A  158A  	fcall	___flsub
  4829  0FEC  1683               	bsf	3,5	;RP0=1, select bank3
  4830  0FED  1703               	bsf	3,6	;RP1=1, select bank3
  4831  0FEE  0823               	movf	(?___flsub+3)^(0+384),w
  4832  0FEF  00AB               	movwf	(___fltol@f1+3)^(0+384)
  4833  0FF0  0822               	movf	(?___flsub+2)^(0+384),w
  4834  0FF1  00AA               	movwf	(___fltol@f1+2)^(0+384)
  4835  0FF2  0821               	movf	(?___flsub+1)^(0+384),w
  4836  0FF3  00A9               	movwf	(___fltol@f1+1)^(0+384)
  4837  0FF4  0820               	movf	?___flsub^(0+384),w
  4838  0FF5  00A8               	movwf	___fltol@f1^(0+384)
  4839  0FF6  160A  158A  2577   	fcall	___fltol
  4840  0FF9  1683               	bsf	3,5	;RP0=1, select bank3
  4841  0FFA  1703               	bsf	3,6	;RP1=1, select bank3
  4842  0FFB  0829               	movf	(?___fltol+1)^(0+384),w
  4843  0FFC  00B4               	movwf	(?_PID_Init+1)^(0+384)
  4844  0FFD  0828               	movf	?___fltol^(0+384),w
  4845  0FFE  00B3               	movwf	?_PID_Init^(0+384)
  4846  0FFF  0008               	return
  4847  1000                     __end_of_PID_Init:	
  4848                           
  4849                           	psect	text8
  4850  0847                     __ptext8:	
  4851 ;; *************** function ___xxtofl *****************
  4852 ;; Defined at:
  4853 ;;		line 10 in file "D:\PROGRAM\MPLABX v5.20\XC8 v2.05\pic\sources\c90\common\xxtofl.c"
  4854 ;; Parameters:    Size  Location     Type
  4855 ;;  sign            1    wreg     unsigned char 
  4856 ;;  val             4    9[BANK1 ] long 
  4857 ;; Auto vars:     Size  Location     Type
  4858 ;;  sign            1   17[BANK1 ] unsigned char 
  4859 ;;  arg             4   19[BANK1 ] unsigned long 
  4860 ;;  exp             1   18[BANK1 ] unsigned char 
  4861 ;; Return value:  Size  Location     Type
  4862 ;;                  4    9[BANK1 ] unsigned char 
  4863 ;; Registers used:
  4864 ;;		wreg, status,2, status,0
  4865 ;; Tracked objects:
  4866 ;;		On entry : 0/0
  4867 ;;		On exit  : 0/0
  4868 ;;		Unchanged: 0/0
  4869 ;; Data sizes:     COMMON   BANK0   BANK1   BANK3   BANK2
  4870 ;;      Params:         0       0       4       0       0
  4871 ;;      Locals:         0       0       6       0       0
  4872 ;;      Temps:          0       0       4       0       0
  4873 ;;      Totals:         0       0      14       0       0
  4874 ;;Total ram usage:       14 bytes
  4875 ;; Hardware stack levels used:    1
  4876 ;; Hardware stack levels required when called:    3
  4877 ;; This function calls:
  4878 ;;		Nothing
  4879 ;; This function is called by:
  4880 ;;		_main
  4881 ;;		_PID_Init
  4882 ;; This function uses a non-reentrant model
  4883 ;;
  4884                           
  4885                           
  4886                           ;psect for function ___xxtofl
  4887  0847                     ___xxtofl:	
  4888                           
  4889                           ;incstack = 0
  4890                           ; Regs used in ___xxtofl: [wreg+status,2+status,0]
  4891                           ;___xxtofl@sign stored from wreg
  4892  0847  1683               	bsf	3,5	;RP0=1, select bank1
  4893  0848  1303               	bcf	3,6	;RP1=0, select bank1
  4894  0849  00B1               	movwf	___xxtofl@sign^(0+128)
  4895  084A  0831               	movf	___xxtofl@sign^(0+128),w
  4896  084B  1D03               	btfss	3,2
  4897  084C  1FAC               	btfss	(___xxtofl@val+3)^(0+128),7
  4898  084D  285E               	goto	l3166
  4899  084E  0929               	comf	___xxtofl@val^(0+128),w
  4900  084F  00B3               	movwf	___xxtofl@arg^(0+128)
  4901  0850  092A               	comf	(___xxtofl@val^(0+128)+1),w
  4902  0851  00B4               	movwf	(___xxtofl@arg+1)^(0+128)
  4903  0852  092B               	comf	(___xxtofl@val^(0+128)+2),w
  4904  0853  00B5               	movwf	(___xxtofl@arg+2)^(0+128)
  4905  0854  092C               	comf	(___xxtofl@val^(0+128)+3),w
  4906  0855  00B6               	movwf	(___xxtofl@arg+3)^(0+128)
  4907  0856  0AB3               	incf	___xxtofl@arg^(0+128),f
  4908  0857  1903               	skipnz
  4909  0858  0AB4               	incf	(___xxtofl@arg+1)^(0+128),f
  4910  0859  1903               	skipnz
  4911  085A  0AB5               	incf	(___xxtofl@arg+2)^(0+128),f
  4912  085B  1903               	skipnz
  4913  085C  0AB6               	incf	(___xxtofl@arg+3)^(0+128),f
  4914  085D  2866               	goto	l817
  4915  085E                     l3166:	
  4916  085E  082C               	movf	(___xxtofl@val+3)^(0+128),w
  4917  085F  00B6               	movwf	(___xxtofl@arg+3)^(0+128)
  4918  0860  082B               	movf	(___xxtofl@val+2)^(0+128),w
  4919  0861  00B5               	movwf	(___xxtofl@arg+2)^(0+128)
  4920  0862  082A               	movf	(___xxtofl@val+1)^(0+128),w
  4921  0863  00B4               	movwf	(___xxtofl@arg+1)^(0+128)
  4922  0864  0829               	movf	___xxtofl@val^(0+128),w
  4923  0865  00B3               	movwf	___xxtofl@arg^(0+128)
  4924  0866                     l817:	
  4925  0866  082C               	movf	(___xxtofl@val+3)^(0+128),w
  4926  0867  042B               	iorwf	(___xxtofl@val+2)^(0+128),w
  4927  0868  042A               	iorwf	(___xxtofl@val+1)^(0+128),w
  4928  0869  0429               	iorwf	___xxtofl@val^(0+128),w
  4929  086A  1D03               	skipz
  4930  086B  2875               	goto	l3172
  4931  086C  3000               	movlw	0
  4932  086D  00AC               	movwf	(?___xxtofl+3)^(0+128)
  4933  086E  3000               	movlw	0
  4934  086F  00AB               	movwf	(?___xxtofl+2)^(0+128)
  4935  0870  3000               	movlw	0
  4936  0871  00AA               	movwf	(?___xxtofl+1)^(0+128)
  4937  0872  3000               	movlw	0
  4938  0873  00A9               	movwf	?___xxtofl^(0+128)
  4939  0874  0008               	return
  4940  0875                     l3172:	
  4941  0875  3096               	movlw	150
  4942  0876  00AD               	movwf	??___xxtofl^(0+128)
  4943  0877  082D               	movf	??___xxtofl^(0+128),w
  4944  0878  00B2               	movwf	___xxtofl@exp^(0+128)
  4945  0879                     l3176:	
  4946  0879  30FE               	movlw	254
  4947  087A  0536               	andwf	(___xxtofl@arg+3)^(0+128),w
  4948  087B  1903               	btfsc	3,2
  4949  087C  28A6               	goto	l823
  4950  087D  3001               	movlw	1
  4951  087E  00AD               	movwf	??___xxtofl^(0+128)
  4952  087F  082D               	movf	??___xxtofl^(0+128),w
  4953  0880  07B2               	addwf	___xxtofl@exp^(0+128),f
  4954  0881  3001               	movlw	1
  4955  0882                     u5045:	
  4956  0882  1003               	clrc
  4957  0883  0CB6               	rrf	(___xxtofl@arg+3)^(0+128),f
  4958  0884  0CB5               	rrf	(___xxtofl@arg+2)^(0+128),f
  4959  0885  0CB4               	rrf	(___xxtofl@arg+1)^(0+128),f
  4960  0886  0CB3               	rrf	___xxtofl@arg^(0+128),f
  4961  0887  3EFF               	addlw	-1
  4962  0888  1D03               	skipz
  4963  0889  2882               	goto	u5045
  4964  088A  2879               	goto	l3176
  4965  088B                     l3178:	
  4966  088B  3001               	movlw	1
  4967  088C  00AD               	movwf	??___xxtofl^(0+128)
  4968  088D  082D               	movf	??___xxtofl^(0+128),w
  4969  088E  07B2               	addwf	___xxtofl@exp^(0+128),f
  4970  088F  3001               	movlw	1
  4971  0890  07B3               	addwf	___xxtofl@arg^(0+128),f
  4972  0891  3000               	movlw	0
  4973  0892  1803               	skipnc
  4974  0893  3001               	movlw	1
  4975  0894  07B4               	addwf	(___xxtofl@arg+1)^(0+128),f
  4976  0895  3000               	movlw	0
  4977  0896  1803               	skipnc
  4978  0897  3001               	movlw	1
  4979  0898  07B5               	addwf	(___xxtofl@arg+2)^(0+128),f
  4980  0899  3000               	movlw	0
  4981  089A  1803               	skipnc
  4982  089B  3001               	movlw	1
  4983  089C  07B6               	addwf	(___xxtofl@arg+3)^(0+128),f
  4984  089D  3001               	movlw	1
  4985  089E                     u5065:	
  4986  089E  1003               	clrc
  4987  089F  0CB6               	rrf	(___xxtofl@arg+3)^(0+128),f
  4988  08A0  0CB5               	rrf	(___xxtofl@arg+2)^(0+128),f
  4989  08A1  0CB4               	rrf	(___xxtofl@arg+1)^(0+128),f
  4990  08A2  0CB3               	rrf	___xxtofl@arg^(0+128),f
  4991  08A3  3EFF               	addlw	-1
  4992  08A4  1D03               	skipz
  4993  08A5  289E               	goto	u5065
  4994  08A6                     l823:	
  4995  08A6  30FF               	movlw	255
  4996  08A7  0536               	andwf	(___xxtofl@arg+3)^(0+128),w
  4997  08A8  1903               	btfsc	3,2
  4998  08A9  28BA               	goto	l3186
  4999  08AA  288B               	goto	l3178
  5000  08AB                     l3188:	
  5001  08AB  3002               	movlw	2
  5002  08AC  0232               	subwf	___xxtofl@exp^(0+128),w
  5003  08AD  1C03               	btfss	3,0
  5004  08AE  28BC               	goto	l830
  5005  08AF  3001               	movlw	1
  5006  08B0  02B2               	subwf	___xxtofl@exp^(0+128),f
  5007  08B1  3001               	movlw	1
  5008  08B2  00AD               	movwf	??___xxtofl^(0+128)
  5009  08B3                     u5085:	
  5010  08B3  1003               	clrc
  5011  08B4  0DB3               	rlf	___xxtofl@arg^(0+128),f
  5012  08B5  0DB4               	rlf	(___xxtofl@arg+1)^(0+128),f
  5013  08B6  0DB5               	rlf	(___xxtofl@arg+2)^(0+128),f
  5014  08B7  0DB6               	rlf	(___xxtofl@arg+3)^(0+128),f
  5015  08B8  0BAD               	decfsz	??___xxtofl^(0+128),f
  5016  08B9  28B3               	goto	u5085
  5017  08BA                     l3186:	
  5018  08BA  1FB5               	btfss	(___xxtofl@arg+2)^(0+128),7
  5019  08BB  28AB               	goto	l3188
  5020  08BC                     l830:	
  5021  08BC  1832               	btfsc	___xxtofl@exp^(0+128),0
  5022  08BD  28C6               	goto	l831
  5023  08BE  30FF               	movlw	255
  5024  08BF  05B3               	andwf	___xxtofl@arg^(0+128),f
  5025  08C0  30FF               	movlw	255
  5026  08C1  05B4               	andwf	(___xxtofl@arg+1)^(0+128),f
  5027  08C2  307F               	movlw	127
  5028  08C3  05B5               	andwf	(___xxtofl@arg+2)^(0+128),f
  5029  08C4  30FF               	movlw	255
  5030  08C5  05B6               	andwf	(___xxtofl@arg+3)^(0+128),f
  5031  08C6                     l831:	
  5032  08C6  1003               	clrc
  5033  08C7  0CB2               	rrf	___xxtofl@exp^(0+128),f
  5034  08C8  0832               	movf	___xxtofl@exp^(0+128),w
  5035  08C9  00AD               	movwf	??___xxtofl^(0+128)
  5036  08CA  01AE               	clrf	(??___xxtofl^(0+128)+1)
  5037  08CB  01AF               	clrf	(??___xxtofl^(0+128)+2)
  5038  08CC  01B0               	clrf	(??___xxtofl^(0+128)+3)
  5039  08CD  3018               	movlw	24
  5040  08CE                     u5125:	
  5041  08CE  1003               	clrc
  5042  08CF  0DAD               	rlf	??___xxtofl^(0+128),f
  5043  08D0  0DAE               	rlf	(??___xxtofl^(0+128)+1),f
  5044  08D1  0DAF               	rlf	(??___xxtofl^(0+128)+2),f
  5045  08D2  0DB0               	rlf	(??___xxtofl^(0+128)+3),f
  5046  08D3  3EFF               	addlw	-1
  5047  08D4  1D03               	skipz
  5048  08D5  28CE               	goto	u5125
  5049  08D6  082D               	movf	??___xxtofl^(0+128),w
  5050  08D7  04B3               	iorwf	___xxtofl@arg^(0+128),f
  5051  08D8  082E               	movf	(??___xxtofl+1)^(0+128),w
  5052  08D9  04B4               	iorwf	(___xxtofl@arg+1)^(0+128),f
  5053  08DA  082F               	movf	(??___xxtofl+2)^(0+128),w
  5054  08DB  04B5               	iorwf	(___xxtofl@arg+2)^(0+128),f
  5055  08DC  0830               	movf	(??___xxtofl+3)^(0+128),w
  5056  08DD  04B6               	iorwf	(___xxtofl@arg+3)^(0+128),f
  5057  08DE  0831               	movf	___xxtofl@sign^(0+128),w
  5058  08DF  1D03               	btfss	3,2
  5059  08E0  1FAC               	btfss	(___xxtofl@val+3)^(0+128),7
  5060  08E1  28E3               	goto	l3200
  5061  08E2  17B6               	bsf	(___xxtofl@arg^(0+128)+3),7
  5062  08E3                     l3200:	
  5063  08E3  0836               	movf	(___xxtofl@arg+3)^(0+128),w
  5064  08E4  00AC               	movwf	(?___xxtofl+3)^(0+128)
  5065  08E5  0835               	movf	(___xxtofl@arg+2)^(0+128),w
  5066  08E6  00AB               	movwf	(?___xxtofl+2)^(0+128)
  5067  08E7  0834               	movf	(___xxtofl@arg+1)^(0+128),w
  5068  08E8  00AA               	movwf	(?___xxtofl+1)^(0+128)
  5069  08E9  0833               	movf	___xxtofl@arg^(0+128),w
  5070  08EA  00A9               	movwf	?___xxtofl^(0+128)
  5071  08EB  0008               	return
  5072  08EC                     __end_of___xxtofl:	
  5073                           
  5074                           	psect	text9
  5075  1D77                     __ptext9:	
  5076 ;; *************** function ___fltol *****************
  5077 ;; Defined at:
  5078 ;;		line 43 in file "D:\PROGRAM\MPLABX v5.20\XC8 v2.05\pic\sources\c90\common\fltol.c"
  5079 ;; Parameters:    Size  Location     Type
  5080 ;;  f1              4   24[BANK3 ] unsigned char 
  5081 ;; Auto vars:     Size  Location     Type
  5082 ;;  exp1            1   34[BANK3 ] unsigned char 
  5083 ;;  sign1           1   33[BANK3 ] unsigned char 
  5084 ;; Return value:  Size  Location     Type
  5085 ;;                  4   24[BANK3 ] long 
  5086 ;; Registers used:
  5087 ;;		wreg, status,2, status,0
  5088 ;; Tracked objects:
  5089 ;;		On entry : 0/0
  5090 ;;		On exit  : 0/0
  5091 ;;		Unchanged: 0/0
  5092 ;; Data sizes:     COMMON   BANK0   BANK1   BANK3   BANK2
  5093 ;;      Params:         0       0       0       4       0
  5094 ;;      Locals:         0       0       0       2       0
  5095 ;;      Temps:          0       0       0       5       0
  5096 ;;      Totals:         0       0       0      11       0
  5097 ;;Total ram usage:       11 bytes
  5098 ;; Hardware stack levels used:    1
  5099 ;; Hardware stack levels required when called:    3
  5100 ;; This function calls:
  5101 ;;		Nothing
  5102 ;; This function is called by:
  5103 ;;		_main
  5104 ;;		_PID_Init
  5105 ;; This function uses a non-reentrant model
  5106 ;;
  5107                           
  5108                           
  5109                           ;psect for function ___fltol
  5110  1D77                     ___fltol:	
  5111                           
  5112                           ;incstack = 0
  5113                           ; Regs used in ___fltol: [wreg+status,2+status,0]
  5114  1D77  1003               	clrc
  5115  1D78  1683               	bsf	3,5	;RP0=1, select bank3
  5116  1D79  1703               	bsf	3,6	;RP1=1, select bank3
  5117  1D7A  0D2A               	rlf	(___fltol@f1+2)^(0+384),w
  5118  1D7B  0D2B               	rlf	(___fltol@f1+3)^(0+384),w
  5119  1D7C  00AC               	movwf	??___fltol^(0+384)
  5120  1D7D  082C               	movf	??___fltol^(0+384),w
  5121  1D7E  00B2               	movwf	___fltol@exp1^(0+384)
  5122  1D7F  0832               	movf	___fltol@exp1^(0+384),w
  5123  1D80  1D03               	btfss	3,2
  5124  1D81  2D8B               	goto	l2842
  5125  1D82                     l2838:	
  5126  1D82  3000               	movlw	0
  5127  1D83  00AB               	movwf	(?___fltol+3)^(0+384)
  5128  1D84  3000               	movlw	0
  5129  1D85  00AA               	movwf	(?___fltol+2)^(0+384)
  5130  1D86  3000               	movlw	0
  5131  1D87  00A9               	movwf	(?___fltol+1)^(0+384)
  5132  1D88  3000               	movlw	0
  5133  1D89  00A8               	movwf	?___fltol^(0+384)
  5134  1D8A  0008               	return
  5135  1D8B                     l2842:	
  5136  1D8B  0828               	movf	___fltol@f1^(0+384),w
  5137  1D8C  00AC               	movwf	??___fltol^(0+384)
  5138  1D8D  0829               	movf	(___fltol@f1+1)^(0+384),w
  5139  1D8E  00AD               	movwf	(??___fltol^(0+384)+1)
  5140  1D8F  082A               	movf	(___fltol@f1+2)^(0+384),w
  5141  1D90  00AE               	movwf	(??___fltol^(0+384)+2)
  5142  1D91  082B               	movf	(___fltol@f1+3)^(0+384),w
  5143  1D92  00AF               	movwf	(??___fltol^(0+384)+3)
  5144  1D93  301F               	movlw	31
  5145  1D94                     u4265:	
  5146  1D94  1003               	clrc
  5147  1D95  0CAF               	rrf	(??___fltol^(0+384)+3),f
  5148  1D96  0CAE               	rrf	(??___fltol^(0+384)+2),f
  5149  1D97  0CAD               	rrf	(??___fltol^(0+384)+1),f
  5150  1D98  0CAC               	rrf	??___fltol^(0+384),f
  5151  1D99  3EFF               	addlw	-1
  5152  1D9A  1D03               	skipz
  5153  1D9B  2D94               	goto	u4265
  5154  1D9C  082C               	movf	??___fltol^(0+384),w
  5155  1D9D  00B0               	movwf	(??___fltol+4)^(0+384)
  5156  1D9E  0830               	movf	(??___fltol+4)^(0+384),w
  5157  1D9F  00B1               	movwf	___fltol@sign1^(0+384)
  5158  1DA0  17AA               	bsf	(___fltol@f1^(0+384)+2),7
  5159  1DA1  30FF               	movlw	255
  5160  1DA2  05A8               	andwf	___fltol@f1^(0+384),f
  5161  1DA3  30FF               	movlw	255
  5162  1DA4  05A9               	andwf	(___fltol@f1+1)^(0+384),f
  5163  1DA5  30FF               	movlw	255
  5164  1DA6  05AA               	andwf	(___fltol@f1+2)^(0+384),f
  5165  1DA7  3000               	movlw	0
  5166  1DA8  05AB               	andwf	(___fltol@f1+3)^(0+384),f
  5167  1DA9  3096               	movlw	150
  5168  1DAA  02B2               	subwf	___fltol@exp1^(0+384),f
  5169  1DAB  1FB2               	btfss	___fltol@exp1^(0+384),7
  5170  1DAC  2DC2               	goto	l2860
  5171  1DAD  0832               	movf	___fltol@exp1^(0+384),w
  5172  1DAE  3A80               	xorlw	128
  5173  1DAF  3E97               	addlw	151
  5174  1DB0  1C03               	btfss	3,0
  5175  1DB1  2D82               	goto	l2838
  5176  1DB2                     l2858:	
  5177  1DB2  3001               	movlw	1
  5178  1DB3                     u4295:	
  5179  1DB3  1003               	clrc
  5180  1DB4  0CAB               	rrf	(___fltol@f1+3)^(0+384),f
  5181  1DB5  0CAA               	rrf	(___fltol@f1+2)^(0+384),f
  5182  1DB6  0CA9               	rrf	(___fltol@f1+1)^(0+384),f
  5183  1DB7  0CA8               	rrf	___fltol@f1^(0+384),f
  5184  1DB8  3EFF               	addlw	-1
  5185  1DB9  1D03               	skipz
  5186  1DBA  2DB3               	goto	u4295
  5187  1DBB  3001               	movlw	1
  5188  1DBC  00AC               	movwf	??___fltol^(0+384)
  5189  1DBD  082C               	movf	??___fltol^(0+384),w
  5190  1DBE  07B2               	addwf	___fltol@exp1^(0+384),f
  5191  1DBF  1903               	btfsc	3,2
  5192  1DC0  2DD5               	goto	l2868
  5193  1DC1  2DB2               	goto	l2858
  5194  1DC2                     l2860:	
  5195  1DC2  3020               	movlw	32
  5196  1DC3  0232               	subwf	___fltol@exp1^(0+384),w
  5197  1DC4  1803               	btfsc	3,0
  5198  1DC5  2D82               	goto	l2838
  5199  1DC6                     l583:	
  5200  1DC6  0832               	movf	___fltol@exp1^(0+384),w
  5201  1DC7  1903               	btfsc	3,2
  5202  1DC8  2DD5               	goto	l2868
  5203  1DC9  3001               	movlw	1
  5204  1DCA  00AC               	movwf	??___fltol^(0+384)
  5205  1DCB                     u4325:	
  5206  1DCB  1003               	clrc
  5207  1DCC  0DA8               	rlf	___fltol@f1^(0+384),f
  5208  1DCD  0DA9               	rlf	(___fltol@f1+1)^(0+384),f
  5209  1DCE  0DAA               	rlf	(___fltol@f1+2)^(0+384),f
  5210  1DCF  0DAB               	rlf	(___fltol@f1+3)^(0+384),f
  5211  1DD0  0BAC               	decfsz	??___fltol^(0+384),f
  5212  1DD1  2DCB               	goto	u4325
  5213  1DD2  3001               	movlw	1
  5214  1DD3  02B2               	subwf	___fltol@exp1^(0+384),f
  5215  1DD4  2DC6               	goto	l583
  5216  1DD5                     l2868:	
  5217  1DD5  0831               	movf	___fltol@sign1^(0+384),w
  5218  1DD6  1903               	btfsc	3,2
  5219  1DD7  0008               	return
  5220  1DD8  09A8               	comf	___fltol@f1^(0+384),f
  5221  1DD9  09A9               	comf	(___fltol@f1+1)^(0+384),f
  5222  1DDA  09AA               	comf	(___fltol@f1+2)^(0+384),f
  5223  1DDB  09AB               	comf	(___fltol@f1+3)^(0+384),f
  5224  1DDC  0AA8               	incf	___fltol@f1^(0+384),f
  5225  1DDD  1903               	skipnz
  5226  1DDE  0AA9               	incf	(___fltol@f1+1)^(0+384),f
  5227  1DDF  1903               	skipnz
  5228  1DE0  0AAA               	incf	(___fltol@f1+2)^(0+384),f
  5229  1DE1  1903               	skipnz
  5230  1DE2  0AAB               	incf	(___fltol@f1+3)^(0+384),f
  5231  1DE3  0008               	return
  5232  1DE4                     __end_of___fltol:	
  5233                           
  5234                           	psect	text10
  5235  1A03                     __ptext10:	
  5236 ;; *************** function ___flsub *****************
  5237 ;; Defined at:
  5238 ;;		line 242 in file "D:\PROGRAM\MPLABX v5.20\XC8 v2.05\pic\sources\c90\common\sprcadd.c"
  5239 ;; Parameters:    Size  Location     Type
  5240 ;;  a               4   16[BANK3 ] long 
  5241 ;;  b               4   20[BANK3 ] long 
  5242 ;; Auto vars:     Size  Location     Type
  5243 ;;		None
  5244 ;; Return value:  Size  Location     Type
  5245 ;;                  4   16[BANK3 ] long 
  5246 ;; Registers used:
  5247 ;;		wreg, status,2, status,0, btemp+1, pclath, cstack
  5248 ;; Tracked objects:
  5249 ;;		On entry : 0/0
  5250 ;;		On exit  : 0/0
  5251 ;;		Unchanged: 0/0
  5252 ;; Data sizes:     COMMON   BANK0   BANK1   BANK3   BANK2
  5253 ;;      Params:         0       0       0       8       0
  5254 ;;      Locals:         0       0       0       0       0
  5255 ;;      Temps:          0       0       0       0       0
  5256 ;;      Totals:         0       0       0       8       0
  5257 ;;Total ram usage:        8 bytes
  5258 ;; Hardware stack levels used:    1
  5259 ;; Hardware stack levels required when called:    4
  5260 ;; This function calls:
  5261 ;;		___fladd
  5262 ;; This function is called by:
  5263 ;;		_PID_Init
  5264 ;; This function uses a non-reentrant model
  5265 ;;
  5266                           
  5267                           
  5268                           ;psect for function ___flsub
  5269  1A03                     ___flsub:	
  5270                           
  5271                           ;incstack = 0
  5272                           ; Regs used in ___flsub: [wreg+status,2+status,0+btemp+1+pclath+cstack]
  5273  1A03  3080               	movlw	128
  5274  1A04  1683               	bsf	3,5	;RP0=1, select bank3
  5275  1A05  1703               	bsf	3,6	;RP1=1, select bank3
  5276  1A06  06A3               	xorwf	(___flsub@a+3)^(0+384),f
  5277  1A07  0827               	movf	(___flsub@b+3)^(0+384),w
  5278  1A08  0093               	movwf	(___fladd@b+3)^(0+384)
  5279  1A09  0826               	movf	(___flsub@b+2)^(0+384),w
  5280  1A0A  0092               	movwf	(___fladd@b+2)^(0+384)
  5281  1A0B  0825               	movf	(___flsub@b+1)^(0+384),w
  5282  1A0C  0091               	movwf	(___fladd@b+1)^(0+384)
  5283  1A0D  0824               	movf	___flsub@b^(0+384),w
  5284  1A0E  0090               	movwf	___fladd@b^(0+384)
  5285  1A0F  0823               	movf	(___flsub@a+3)^(0+384),w
  5286  1A10  0097               	movwf	(___fladd@a+3)^(0+384)
  5287  1A11  0822               	movf	(___flsub@a+2)^(0+384),w
  5288  1A12  0096               	movwf	(___fladd@a+2)^(0+384)
  5289  1A13  0821               	movf	(___flsub@a+1)^(0+384),w
  5290  1A14  0095               	movwf	(___fladd@a+1)^(0+384)
  5291  1A15  0820               	movf	___flsub@a^(0+384),w
  5292  1A16  0094               	movwf	___fladd@a^(0+384)
  5293  1A17  160A  118A  2516   	fcall	___fladd
  5294  1A1A  1683               	bsf	3,5	;RP0=1, select bank3
  5295  1A1B  1703               	bsf	3,6	;RP1=1, select bank3
  5296  1A1C  0813               	movf	(?___fladd+3)^(0+384),w
  5297  1A1D  00A3               	movwf	(?___flsub+3)^(0+384)
  5298  1A1E  0812               	movf	(?___fladd+2)^(0+384),w
  5299  1A1F  00A2               	movwf	(?___flsub+2)^(0+384)
  5300  1A20  0811               	movf	(?___fladd+1)^(0+384),w
  5301  1A21  00A1               	movwf	(?___flsub+1)^(0+384)
  5302  1A22  0810               	movf	?___fladd^(0+384),w
  5303  1A23  00A0               	movwf	?___flsub^(0+384)
  5304  1A24  0008               	return
  5305  1A25                     __end_of___flsub:	
  5306                           
  5307                           	psect	text11
  5308  1516                     __ptext11:	
  5309 ;; *************** function ___fladd *****************
  5310 ;; Defined at:
  5311 ;;		line 10 in file "D:\PROGRAM\MPLABX v5.20\XC8 v2.05\pic\sources\c90\common\sprcadd.c"
  5312 ;; Parameters:    Size  Location     Type
  5313 ;;  b               4    0[BANK3 ] long 
  5314 ;;  a               4    4[BANK3 ] long 
  5315 ;; Auto vars:     Size  Location     Type
  5316 ;;  grs             1   78[BANK1 ] unsigned char 
  5317 ;;  bexp            1   77[BANK1 ] unsigned char 
  5318 ;;  aexp            1   76[BANK1 ] unsigned char 
  5319 ;;  signs           1   75[BANK1 ] unsigned char 
  5320 ;; Return value:  Size  Location     Type
  5321 ;;                  4    0[BANK3 ] unsigned char 
  5322 ;; Registers used:
  5323 ;;		wreg, status,2, status,0, btemp+1
  5324 ;; Tracked objects:
  5325 ;;		On entry : 0/0
  5326 ;;		On exit  : 0/0
  5327 ;;		Unchanged: 0/0
  5328 ;; Data sizes:     COMMON   BANK0   BANK1   BANK3   BANK2
  5329 ;;      Params:         0       0       0       8       0
  5330 ;;      Locals:         0       0       4       0       0
  5331 ;;      Temps:          0       0       0       8       0
  5332 ;;      Totals:         0       0       4      16       0
  5333 ;;Total ram usage:       20 bytes
  5334 ;; Hardware stack levels used:    1
  5335 ;; Hardware stack levels required when called:    3
  5336 ;; This function calls:
  5337 ;;		Nothing
  5338 ;; This function is called by:
  5339 ;;		_main
  5340 ;;		_PID_Init
  5341 ;;		___flsub
  5342 ;; This function uses a non-reentrant model
  5343 ;;
  5344                           
  5345                           
  5346                           ;psect for function ___fladd
  5347  1516                     ___fladd:	
  5348                           
  5349                           ;incstack = 0
  5350                           ; Regs used in ___fladd: [wreg+status,2+status,0+btemp+1]
  5351  1516  1683               	bsf	3,5	;RP0=1, select bank3
  5352  1517  1703               	bsf	3,6	;RP1=1, select bank3
  5353  1518  0813               	movf	(___fladd@b^(0+384)+3),w
  5354  1519  3980               	andlw	128
  5355  151A  0098               	movwf	??___fladd^(0+384)
  5356  151B  0818               	movf	??___fladd^(0+384),w
  5357  151C  1683               	bsf	3,5	;RP0=1, select bank1
  5358  151D  1303               	bcf	3,6	;RP1=0, select bank1
  5359  151E  00EB               	movwf	___fladd@signs^(0+128)
  5360  151F  1683               	bsf	3,5	;RP0=1, select bank3
  5361  1520  1703               	bsf	3,6	;RP1=1, select bank3
  5362  1521  0813               	movf	(___fladd@b^(0+384)+3),w
  5363  1522  0098               	movwf	??___fladd^(0+384)
  5364  1523  0718               	addwf	??___fladd^(0+384),w
  5365  1524  0099               	movwf	(??___fladd+1)^(0+384)
  5366  1525  0819               	movf	(??___fladd+1)^(0+384),w
  5367  1526  1683               	bsf	3,5	;RP0=1, select bank1
  5368  1527  1303               	bcf	3,6	;RP1=0, select bank1
  5369  1528  00ED               	movwf	___fladd@bexp^(0+128)
  5370  1529  1683               	bsf	3,5	;RP0=1, select bank3
  5371  152A  1703               	bsf	3,6	;RP1=1, select bank3
  5372  152B  1F92               	btfss	(___fladd@b^(0+384)+2),7
  5373  152C  2D30               	goto	l2456
  5374  152D  1683               	bsf	3,5	;RP0=1, select bank1
  5375  152E  1303               	bcf	3,6	;RP1=0, select bank1
  5376  152F  146D               	bsf	___fladd@bexp^(0+128),0
  5377  1530                     l2456:	
  5378  1530  1303               	bcf	3,6	;RP1=0, select bank1
  5379  1531  086D               	movf	___fladd@bexp^(0+128),w
  5380  1532  1903               	btfsc	3,2
  5381  1533  2D46               	goto	l2466
  5382  1534  0A6D               	incf	___fladd@bexp^(0+128),w
  5383  1535  1D03               	btfss	3,2
  5384  1536  2D41               	goto	l2462
  5385  1537  3000               	movlw	0
  5386  1538  1683               	bsf	3,5	;RP0=1, select bank3
  5387  1539  1703               	bsf	3,6	;RP1=1, select bank3
  5388  153A  0093               	movwf	(___fladd@b+3)^(0+384)
  5389  153B  3000               	movlw	0
  5390  153C  0092               	movwf	(___fladd@b+2)^(0+384)
  5391  153D  3000               	movlw	0
  5392  153E  0091               	movwf	(___fladd@b+1)^(0+384)
  5393  153F  3000               	movlw	0
  5394  1540  0090               	movwf	___fladd@b^(0+384)
  5395  1541                     l2462:	
  5396  1541  1683               	bsf	3,5	;RP0=1, select bank3
  5397  1542  1703               	bsf	3,6	;RP1=1, select bank3
  5398  1543  1792               	bsf	(___fladd@b^(0+384)+2),7
  5399  1544  0193               	clrf	(___fladd@b^(0+384)+3)
  5400  1545  2D50               	goto	l2468
  5401  1546                     l2466:	
  5402  1546  3000               	movlw	0
  5403  1547  1683               	bsf	3,5	;RP0=1, select bank3
  5404  1548  1703               	bsf	3,6	;RP1=1, select bank3
  5405  1549  0093               	movwf	(___fladd@b+3)^(0+384)
  5406  154A  3000               	movlw	0
  5407  154B  0092               	movwf	(___fladd@b+2)^(0+384)
  5408  154C  3000               	movlw	0
  5409  154D  0091               	movwf	(___fladd@b+1)^(0+384)
  5410  154E  3000               	movlw	0
  5411  154F  0090               	movwf	___fladd@b^(0+384)
  5412  1550                     l2468:	
  5413  1550  0817               	movf	(___fladd@a^(0+384)+3),w
  5414  1551  3980               	andlw	128
  5415  1552  0098               	movwf	??___fladd^(0+384)
  5416  1553  0818               	movf	??___fladd^(0+384),w
  5417  1554  1683               	bsf	3,5	;RP0=1, select bank1
  5418  1555  1303               	bcf	3,6	;RP1=0, select bank1
  5419  1556  00EC               	movwf	___fladd@aexp^(0+128)
  5420  1557  086C               	movf	___fladd@aexp^(0+128),w
  5421  1558  066B               	xorwf	___fladd@signs^(0+128),w
  5422  1559  1D03               	btfss	3,2
  5423  155A  176B               	bsf	___fladd@signs^(0+128),6
  5424  155B  1683               	bsf	3,5	;RP0=1, select bank3
  5425  155C  1703               	bsf	3,6	;RP1=1, select bank3
  5426  155D  0817               	movf	(___fladd@a^(0+384)+3),w
  5427  155E  0098               	movwf	??___fladd^(0+384)
  5428  155F  0718               	addwf	??___fladd^(0+384),w
  5429  1560  0099               	movwf	(??___fladd+1)^(0+384)
  5430  1561  0819               	movf	(??___fladd+1)^(0+384),w
  5431  1562  1683               	bsf	3,5	;RP0=1, select bank1
  5432  1563  1303               	bcf	3,6	;RP1=0, select bank1
  5433  1564  00EC               	movwf	___fladd@aexp^(0+128)
  5434  1565  1683               	bsf	3,5	;RP0=1, select bank3
  5435  1566  1703               	bsf	3,6	;RP1=1, select bank3
  5436  1567  1F96               	btfss	(___fladd@a^(0+384)+2),7
  5437  1568  2D6C               	goto	l2480
  5438  1569  1683               	bsf	3,5	;RP0=1, select bank1
  5439  156A  1303               	bcf	3,6	;RP1=0, select bank1
  5440  156B  146C               	bsf	___fladd@aexp^(0+128),0
  5441  156C                     l2480:	
  5442  156C  1303               	bcf	3,6	;RP1=0, select bank1
  5443  156D  086C               	movf	___fladd@aexp^(0+128),w
  5444  156E  1903               	btfsc	3,2
  5445  156F  2D82               	goto	l2490
  5446  1570  0A6C               	incf	___fladd@aexp^(0+128),w
  5447  1571  1D03               	btfss	3,2
  5448  1572  2D7D               	goto	l2486
  5449  1573  3000               	movlw	0
  5450  1574  1683               	bsf	3,5	;RP0=1, select bank3
  5451  1575  1703               	bsf	3,6	;RP1=1, select bank3
  5452  1576  0097               	movwf	(___fladd@a+3)^(0+384)
  5453  1577  3000               	movlw	0
  5454  1578  0096               	movwf	(___fladd@a+2)^(0+384)
  5455  1579  3000               	movlw	0
  5456  157A  0095               	movwf	(___fladd@a+1)^(0+384)
  5457  157B  3000               	movlw	0
  5458  157C  0094               	movwf	___fladd@a^(0+384)
  5459  157D                     l2486:	
  5460  157D  1683               	bsf	3,5	;RP0=1, select bank3
  5461  157E  1703               	bsf	3,6	;RP1=1, select bank3
  5462  157F  1796               	bsf	(___fladd@a^(0+384)+2),7
  5463  1580  0197               	clrf	(___fladd@a^(0+384)+3)
  5464  1581  2D8C               	goto	l683
  5465  1582                     l2490:	
  5466  1582  3000               	movlw	0
  5467  1583  1683               	bsf	3,5	;RP0=1, select bank3
  5468  1584  1703               	bsf	3,6	;RP1=1, select bank3
  5469  1585  0097               	movwf	(___fladd@a+3)^(0+384)
  5470  1586  3000               	movlw	0
  5471  1587  0096               	movwf	(___fladd@a+2)^(0+384)
  5472  1588  3000               	movlw	0
  5473  1589  0095               	movwf	(___fladd@a+1)^(0+384)
  5474  158A  3000               	movlw	0
  5475  158B  0094               	movwf	___fladd@a^(0+384)
  5476  158C                     l683:	
  5477  158C  1683               	bsf	3,5	;RP0=1, select bank1
  5478  158D  1303               	bcf	3,6	;RP1=0, select bank1
  5479  158E  086D               	movf	___fladd@bexp^(0+128),w
  5480  158F  026C               	subwf	___fladd@aexp^(0+128),w
  5481  1590  1803               	skipnc
  5482  1591  2E06               	goto	l2526
  5483  1592  1F6B               	btfss	___fladd@signs^(0+128),6
  5484  1593  2D9C               	goto	l2496
  5485  1594  3080               	movlw	128
  5486  1595  1683               	bsf	3,5	;RP0=1, select bank3
  5487  1596  1703               	bsf	3,6	;RP1=1, select bank3
  5488  1597  0098               	movwf	??___fladd^(0+384)
  5489  1598  0818               	movf	??___fladd^(0+384),w
  5490  1599  1683               	bsf	3,5	;RP0=1, select bank1
  5491  159A  1303               	bcf	3,6	;RP1=0, select bank1
  5492  159B  06EB               	xorwf	___fladd@signs^(0+128),f
  5493  159C                     l2496:	
  5494  159C  086D               	movf	___fladd@bexp^(0+128),w
  5495  159D  1683               	bsf	3,5	;RP0=1, select bank3
  5496  159E  1703               	bsf	3,6	;RP1=1, select bank3
  5497  159F  0098               	movwf	??___fladd^(0+384)
  5498  15A0  0818               	movf	??___fladd^(0+384),w
  5499  15A1  1683               	bsf	3,5	;RP0=1, select bank1
  5500  15A2  1303               	bcf	3,6	;RP1=0, select bank1
  5501  15A3  00EE               	movwf	___fladd@grs^(0+128)
  5502  15A4  086C               	movf	___fladd@aexp^(0+128),w
  5503  15A5  1683               	bsf	3,5	;RP0=1, select bank3
  5504  15A6  1703               	bsf	3,6	;RP1=1, select bank3
  5505  15A7  0098               	movwf	??___fladd^(0+384)
  5506  15A8  0818               	movf	??___fladd^(0+384),w
  5507  15A9  1683               	bsf	3,5	;RP0=1, select bank1
  5508  15AA  1303               	bcf	3,6	;RP1=0, select bank1
  5509  15AB  00ED               	movwf	___fladd@bexp^(0+128)
  5510  15AC  086E               	movf	___fladd@grs^(0+128),w
  5511  15AD  1683               	bsf	3,5	;RP0=1, select bank3
  5512  15AE  1703               	bsf	3,6	;RP1=1, select bank3
  5513  15AF  0098               	movwf	??___fladd^(0+384)
  5514  15B0  0818               	movf	??___fladd^(0+384),w
  5515  15B1  1683               	bsf	3,5	;RP0=1, select bank1
  5516  15B2  1303               	bcf	3,6	;RP1=0, select bank1
  5517  15B3  00EC               	movwf	___fladd@aexp^(0+128)
  5518  15B4  1683               	bsf	3,5	;RP0=1, select bank3
  5519  15B5  1703               	bsf	3,6	;RP1=1, select bank3
  5520  15B6  0810               	movf	___fladd@b^(0+384),w
  5521  15B7  0098               	movwf	??___fladd^(0+384)
  5522  15B8  0818               	movf	??___fladd^(0+384),w
  5523  15B9  1683               	bsf	3,5	;RP0=1, select bank1
  5524  15BA  1303               	bcf	3,6	;RP1=0, select bank1
  5525  15BB  00EE               	movwf	___fladd@grs^(0+128)
  5526  15BC  1683               	bsf	3,5	;RP0=1, select bank3
  5527  15BD  1703               	bsf	3,6	;RP1=1, select bank3
  5528  15BE  0814               	movf	___fladd@a^(0+384),w
  5529  15BF  0098               	movwf	??___fladd^(0+384)
  5530  15C0  0818               	movf	??___fladd^(0+384),w
  5531  15C1  0090               	movwf	___fladd@b^(0+384)
  5532  15C2  1683               	bsf	3,5	;RP0=1, select bank1
  5533  15C3  1303               	bcf	3,6	;RP1=0, select bank1
  5534  15C4  086E               	movf	___fladd@grs^(0+128),w
  5535  15C5  1683               	bsf	3,5	;RP0=1, select bank3
  5536  15C6  1703               	bsf	3,6	;RP1=1, select bank3
  5537  15C7  0098               	movwf	??___fladd^(0+384)
  5538  15C8  0818               	movf	??___fladd^(0+384),w
  5539  15C9  0094               	movwf	___fladd@a^(0+384)
  5540  15CA  0811               	movf	(___fladd@b^(0+384)+1),w
  5541  15CB  0098               	movwf	??___fladd^(0+384)
  5542  15CC  0818               	movf	??___fladd^(0+384),w
  5543  15CD  1683               	bsf	3,5	;RP0=1, select bank1
  5544  15CE  1303               	bcf	3,6	;RP1=0, select bank1
  5545  15CF  00EE               	movwf	___fladd@grs^(0+128)
  5546  15D0  1683               	bsf	3,5	;RP0=1, select bank3
  5547  15D1  1703               	bsf	3,6	;RP1=1, select bank3
  5548  15D2  0815               	movf	(___fladd@a^(0+384)+1),w
  5549  15D3  0098               	movwf	??___fladd^(0+384)
  5550  15D4  0818               	movf	??___fladd^(0+384),w
  5551  15D5  0091               	movwf	(___fladd@b^(0+384)+1)
  5552  15D6  1683               	bsf	3,5	;RP0=1, select bank1
  5553  15D7  1303               	bcf	3,6	;RP1=0, select bank1
  5554  15D8  086E               	movf	___fladd@grs^(0+128),w
  5555  15D9  1683               	bsf	3,5	;RP0=1, select bank3
  5556  15DA  1703               	bsf	3,6	;RP1=1, select bank3
  5557  15DB  0098               	movwf	??___fladd^(0+384)
  5558  15DC  0818               	movf	??___fladd^(0+384),w
  5559  15DD  0095               	movwf	(___fladd@a^(0+384)+1)
  5560  15DE  0812               	movf	(___fladd@b^(0+384)+2),w
  5561  15DF  0098               	movwf	??___fladd^(0+384)
  5562  15E0  0818               	movf	??___fladd^(0+384),w
  5563  15E1  1683               	bsf	3,5	;RP0=1, select bank1
  5564  15E2  1303               	bcf	3,6	;RP1=0, select bank1
  5565  15E3  00EE               	movwf	___fladd@grs^(0+128)
  5566  15E4  1683               	bsf	3,5	;RP0=1, select bank3
  5567  15E5  1703               	bsf	3,6	;RP1=1, select bank3
  5568  15E6  0816               	movf	(___fladd@a^(0+384)+2),w
  5569  15E7  0098               	movwf	??___fladd^(0+384)
  5570  15E8  0818               	movf	??___fladd^(0+384),w
  5571  15E9  0092               	movwf	(___fladd@b^(0+384)+2)
  5572  15EA  1683               	bsf	3,5	;RP0=1, select bank1
  5573  15EB  1303               	bcf	3,6	;RP1=0, select bank1
  5574  15EC  086E               	movf	___fladd@grs^(0+128),w
  5575  15ED  1683               	bsf	3,5	;RP0=1, select bank3
  5576  15EE  1703               	bsf	3,6	;RP1=1, select bank3
  5577  15EF  0098               	movwf	??___fladd^(0+384)
  5578  15F0  0818               	movf	??___fladd^(0+384),w
  5579  15F1  0096               	movwf	(___fladd@a^(0+384)+2)
  5580  15F2  0813               	movf	(___fladd@b^(0+384)+3),w
  5581  15F3  0098               	movwf	??___fladd^(0+384)
  5582  15F4  0818               	movf	??___fladd^(0+384),w
  5583  15F5  1683               	bsf	3,5	;RP0=1, select bank1
  5584  15F6  1303               	bcf	3,6	;RP1=0, select bank1
  5585  15F7  00EE               	movwf	___fladd@grs^(0+128)
  5586  15F8  1683               	bsf	3,5	;RP0=1, select bank3
  5587  15F9  1703               	bsf	3,6	;RP1=1, select bank3
  5588  15FA  0817               	movf	(___fladd@a^(0+384)+3),w
  5589  15FB  0098               	movwf	??___fladd^(0+384)
  5590  15FC  0818               	movf	??___fladd^(0+384),w
  5591  15FD  0093               	movwf	(___fladd@b^(0+384)+3)
  5592  15FE  1683               	bsf	3,5	;RP0=1, select bank1
  5593  15FF  1303               	bcf	3,6	;RP1=0, select bank1
  5594  1600  086E               	movf	___fladd@grs^(0+128),w
  5595  1601  1683               	bsf	3,5	;RP0=1, select bank3
  5596  1602  1703               	bsf	3,6	;RP1=1, select bank3
  5597  1603  0098               	movwf	??___fladd^(0+384)
  5598  1604  0818               	movf	??___fladd^(0+384),w
  5599  1605  0097               	movwf	(___fladd@a^(0+384)+3)
  5600  1606                     l2526:	
  5601  1606  1303               	bcf	3,6	;RP1=0, select bank1
  5602  1607  01EE               	clrf	___fladd@grs^(0+128)
  5603  1608  086C               	movf	___fladd@aexp^(0+128),w
  5604  1609  1683               	bsf	3,5	;RP0=1, select bank3
  5605  160A  1703               	bsf	3,6	;RP1=1, select bank3
  5606  160B  0098               	movwf	??___fladd^(0+384)
  5607  160C  0199               	clrf	(??___fladd^(0+384)+1)
  5608  160D  0819               	movf	(??___fladd+1)^(0+384),w
  5609  160E  009B               	movwf	((??___fladd+2)^(0+384)+1)
  5610  160F  1683               	bsf	3,5	;RP0=1, select bank1
  5611  1610  1303               	bcf	3,6	;RP1=0, select bank1
  5612  1611  086D               	movf	___fladd@bexp^(0+128),w
  5613  1612  1683               	bsf	3,5	;RP0=1, select bank3
  5614  1613  1703               	bsf	3,6	;RP1=1, select bank3
  5615  1614  0218               	subwf	??___fladd^(0+384),w
  5616  1615  009A               	movwf	(??___fladd+2)^(0+384)
  5617  1616  1C03               	skipc
  5618  1617  039B               	decf	((??___fladd+2)^(0+384)+1),f
  5619  1618  081B               	movf	(??___fladd+3)^(0+384),w
  5620  1619  3A80               	xorlw	128
  5621  161A  00FF               	movwf	127
  5622  161B  3080               	movlw	128
  5623  161C  027F               	subwf	127,w
  5624  161D  1D03               	skipz
  5625  161E  2E21               	goto	u3465
  5626  161F  301A               	movlw	26
  5627  1620  021A               	subwf	(??___fladd+2)^(0+384),w
  5628  1621                     u3465:	
  5629  1621  1C03               	skipc
  5630  1622  2E71               	goto	l2544
  5631  1623  1683               	bsf	3,5	;RP0=1, select bank3
  5632  1624  1703               	bsf	3,6	;RP1=1, select bank3
  5633  1625  0813               	movf	(___fladd@b+3)^(0+384),w
  5634  1626  0412               	iorwf	(___fladd@b+2)^(0+384),w
  5635  1627  0411               	iorwf	(___fladd@b+1)^(0+384),w
  5636  1628  0410               	iorwf	___fladd@b^(0+384),w
  5637  1629  1903               	btfsc	3,2
  5638  162A  2E2D               	goto	u3470
  5639  162B  3001               	movlw	1
  5640  162C  2E2E               	goto	u3480
  5641  162D                     u3470:	
  5642  162D  3000               	movlw	0
  5643  162E                     u3480:	
  5644  162E  0098               	movwf	??___fladd^(0+384)
  5645  162F  0818               	movf	??___fladd^(0+384),w
  5646  1630  1683               	bsf	3,5	;RP0=1, select bank1
  5647  1631  1303               	bcf	3,6	;RP1=0, select bank1
  5648  1632  00EE               	movwf	___fladd@grs^(0+128)
  5649  1633  3000               	movlw	0
  5650  1634  1683               	bsf	3,5	;RP0=1, select bank3
  5651  1635  1703               	bsf	3,6	;RP1=1, select bank3
  5652  1636  0093               	movwf	(___fladd@b+3)^(0+384)
  5653  1637  3000               	movlw	0
  5654  1638  0092               	movwf	(___fladd@b+2)^(0+384)
  5655  1639  3000               	movlw	0
  5656  163A  0091               	movwf	(___fladd@b+1)^(0+384)
  5657  163B  3000               	movlw	0
  5658  163C  0090               	movwf	___fladd@b^(0+384)
  5659  163D  1683               	bsf	3,5	;RP0=1, select bank1
  5660  163E  1303               	bcf	3,6	;RP1=0, select bank1
  5661  163F  086C               	movf	___fladd@aexp^(0+128),w
  5662  1640  1683               	bsf	3,5	;RP0=1, select bank3
  5663  1641  1703               	bsf	3,6	;RP1=1, select bank3
  5664  1642  0098               	movwf	??___fladd^(0+384)
  5665  1643  0818               	movf	??___fladd^(0+384),w
  5666  1644  1683               	bsf	3,5	;RP0=1, select bank1
  5667  1645  1303               	bcf	3,6	;RP1=0, select bank1
  5668  1646  00ED               	movwf	___fladd@bexp^(0+128)
  5669  1647  2E77               	goto	l687
  5670  1648                     l689:	
  5671  1648  1C6E               	btfss	___fladd@grs^(0+128),0
  5672  1649  2E57               	goto	l2534
  5673  164A  086E               	movf	___fladd@grs^(0+128),w
  5674  164B  1683               	bsf	3,5	;RP0=1, select bank3
  5675  164C  1703               	bsf	3,6	;RP1=1, select bank3
  5676  164D  0098               	movwf	??___fladd^(0+384)
  5677  164E  1003               	clrc
  5678  164F  0C18               	rrf	??___fladd^(0+384),w
  5679  1650  3801               	iorlw	1
  5680  1651  0099               	movwf	(??___fladd+1)^(0+384)
  5681  1652  0819               	movf	(??___fladd+1)^(0+384),w
  5682  1653  1683               	bsf	3,5	;RP0=1, select bank1
  5683  1654  1303               	bcf	3,6	;RP1=0, select bank1
  5684  1655  00EE               	movwf	___fladd@grs^(0+128)
  5685  1656  2E59               	goto	l2536
  5686  1657                     l2534:	
  5687  1657  1003               	clrc
  5688  1658  0CEE               	rrf	___fladd@grs^(0+128),f
  5689  1659                     l2536:	
  5690  1659  1683               	bsf	3,5	;RP0=1, select bank3
  5691  165A  1703               	bsf	3,6	;RP1=1, select bank3
  5692  165B  1C10               	btfss	___fladd@b^(0+384),0
  5693  165C  2E60               	goto	l2540
  5694  165D  1683               	bsf	3,5	;RP0=1, select bank1
  5695  165E  1303               	bcf	3,6	;RP1=0, select bank1
  5696  165F  17EE               	bsf	___fladd@grs^(0+128),7
  5697  1660                     l2540:	
  5698  1660  3001               	movlw	1
  5699  1661  1683               	bsf	3,5	;RP0=1, select bank3
  5700  1662  1703               	bsf	3,6	;RP1=1, select bank3
  5701  1663  0098               	movwf	??___fladd^(0+384)
  5702  1664                     u3515:	
  5703  1664  0D13               	rlf	(___fladd@b+3)^(0+384),w
  5704  1665  0C93               	rrf	(___fladd@b+3)^(0+384),f
  5705  1666  0C92               	rrf	(___fladd@b+2)^(0+384),f
  5706  1667  0C91               	rrf	(___fladd@b+1)^(0+384),f
  5707  1668  0C90               	rrf	___fladd@b^(0+384),f
  5708  1669  0B98               	decfsz	(??___fladd^(0+384))& (0+127),f
  5709  166A  2E64               	goto	u3515
  5710  166B  3001               	movlw	1
  5711  166C  0098               	movwf	??___fladd^(0+384)
  5712  166D  0818               	movf	??___fladd^(0+384),w
  5713  166E  1683               	bsf	3,5	;RP0=1, select bank1
  5714  166F  1303               	bcf	3,6	;RP1=0, select bank1
  5715  1670  07ED               	addwf	___fladd@bexp^(0+128),f
  5716  1671                     l2544:	
  5717  1671  1683               	bsf	3,5	;RP0=1, select bank1
  5718  1672  1303               	bcf	3,6	;RP1=0, select bank1
  5719  1673  086C               	movf	___fladd@aexp^(0+128),w
  5720  1674  026D               	subwf	___fladd@bexp^(0+128),w
  5721  1675  1C03               	skipc
  5722  1676  2E48               	goto	l689
  5723  1677                     l687:	
  5724  1677  1B6B               	btfsc	___fladd@signs^(0+128),6
  5725  1678  2ECB               	goto	l2570
  5726  1679  086D               	movf	___fladd@bexp^(0+128),w
  5727  167A  1D03               	btfss	3,2
  5728  167B  2E87               	goto	l2552
  5729  167C  3000               	movlw	0
  5730  167D  1683               	bsf	3,5	;RP0=1, select bank3
  5731  167E  1703               	bsf	3,6	;RP1=1, select bank3
  5732  167F  0093               	movwf	(?___fladd+3)^(0+384)
  5733  1680  3000               	movlw	0
  5734  1681  0092               	movwf	(?___fladd+2)^(0+384)
  5735  1682  3000               	movlw	0
  5736  1683  0091               	movwf	(?___fladd+1)^(0+384)
  5737  1684  3000               	movlw	0
  5738  1685  0090               	movwf	?___fladd^(0+384)
  5739  1686  0008               	return
  5740  1687                     l2552:	
  5741  1687  1683               	bsf	3,5	;RP0=1, select bank3
  5742  1688  1703               	bsf	3,6	;RP1=1, select bank3
  5743  1689  0814               	movf	___fladd@a^(0+384),w
  5744  168A  0790               	addwf	___fladd@b^(0+384),f
  5745  168B  0815               	movf	(___fladd@a+1)^(0+384),w
  5746  168C  1103               	clrz
  5747  168D  1803               	skipnc
  5748  168E  3E01               	addlw	1
  5749  168F  1D03               	btfss	3,2
  5750  1690  0791               	addwf	(___fladd@b+1)^(0+384),f
  5751  1691  0816               	movf	(___fladd@a+2)^(0+384),w
  5752  1692  1103               	clrz
  5753  1693  1803               	skipnc
  5754  1694  3E01               	addlw	1
  5755  1695  1D03               	btfss	3,2
  5756  1696  0792               	addwf	(___fladd@b+2)^(0+384),f
  5757  1697  0817               	movf	(___fladd@a+3)^(0+384),w
  5758  1698  1103               	clrz
  5759  1699  1803               	skipnc
  5760  169A  3E01               	addlw	1
  5761  169B  1D03               	btfss	3,2
  5762  169C  0793               	addwf	(___fladd@b+3)^(0+384),f
  5763  169D  1C13               	btfss	(___fladd@b+3)^(0+384),0
  5764  169E  2F81               	goto	l2604
  5765  169F  1683               	bsf	3,5	;RP0=1, select bank1
  5766  16A0  1303               	bcf	3,6	;RP1=0, select bank1
  5767  16A1  1C6E               	btfss	___fladd@grs^(0+128),0
  5768  16A2  2EB0               	goto	l2560
  5769  16A3  086E               	movf	___fladd@grs^(0+128),w
  5770  16A4  1683               	bsf	3,5	;RP0=1, select bank3
  5771  16A5  1703               	bsf	3,6	;RP1=1, select bank3
  5772  16A6  0098               	movwf	??___fladd^(0+384)
  5773  16A7  1003               	clrc
  5774  16A8  0C18               	rrf	??___fladd^(0+384),w
  5775  16A9  3801               	iorlw	1
  5776  16AA  0099               	movwf	(??___fladd+1)^(0+384)
  5777  16AB  0819               	movf	(??___fladd+1)^(0+384),w
  5778  16AC  1683               	bsf	3,5	;RP0=1, select bank1
  5779  16AD  1303               	bcf	3,6	;RP1=0, select bank1
  5780  16AE  00EE               	movwf	___fladd@grs^(0+128)
  5781  16AF  2EB2               	goto	l2562
  5782  16B0                     l2560:	
  5783  16B0  1003               	clrc
  5784  16B1  0CEE               	rrf	___fladd@grs^(0+128),f
  5785  16B2                     l2562:	
  5786  16B2  1683               	bsf	3,5	;RP0=1, select bank3
  5787  16B3  1703               	bsf	3,6	;RP1=1, select bank3
  5788  16B4  1C10               	btfss	___fladd@b^(0+384),0
  5789  16B5  2EB9               	goto	l2566
  5790  16B6  1683               	bsf	3,5	;RP0=1, select bank1
  5791  16B7  1303               	bcf	3,6	;RP1=0, select bank1
  5792  16B8  17EE               	bsf	___fladd@grs^(0+128),7
  5793  16B9                     l2566:	
  5794  16B9  3001               	movlw	1
  5795  16BA  1683               	bsf	3,5	;RP0=1, select bank3
  5796  16BB  1703               	bsf	3,6	;RP1=1, select bank3
  5797  16BC  0098               	movwf	??___fladd^(0+384)
  5798  16BD                     u3595:	
  5799  16BD  0D13               	rlf	(___fladd@b+3)^(0+384),w
  5800  16BE  0C93               	rrf	(___fladd@b+3)^(0+384),f
  5801  16BF  0C92               	rrf	(___fladd@b+2)^(0+384),f
  5802  16C0  0C91               	rrf	(___fladd@b+1)^(0+384),f
  5803  16C1  0C90               	rrf	___fladd@b^(0+384),f
  5804  16C2  0B98               	decfsz	(??___fladd^(0+384))& (0+127),f
  5805  16C3  2EBD               	goto	u3595
  5806  16C4  3001               	movlw	1
  5807  16C5  0098               	movwf	??___fladd^(0+384)
  5808  16C6  0818               	movf	??___fladd^(0+384),w
  5809  16C7  1683               	bsf	3,5	;RP0=1, select bank1
  5810  16C8  1303               	bcf	3,6	;RP1=0, select bank1
  5811  16C9  07ED               	addwf	___fladd@bexp^(0+128),f
  5812  16CA  2F81               	goto	l2604
  5813  16CB                     l2570:	
  5814  16CB  1683               	bsf	3,5	;RP0=1, select bank3
  5815  16CC  1703               	bsf	3,6	;RP1=1, select bank3
  5816  16CD  0813               	movf	(___fladd@b+3)^(0+384),w
  5817  16CE  3A80               	xorlw	128
  5818  16CF  00FF               	movwf	127
  5819  16D0  0817               	movf	(___fladd@a+3)^(0+384),w
  5820  16D1  3A80               	xorlw	128
  5821  16D2  027F               	subwf	127,w
  5822  16D3  1D03               	skipz
  5823  16D4  2EDF               	goto	u3603
  5824  16D5  0816               	movf	(___fladd@a+2)^(0+384),w
  5825  16D6  0212               	subwf	(___fladd@b+2)^(0+384),w
  5826  16D7  1D03               	skipz
  5827  16D8  2EDF               	goto	u3603
  5828  16D9  0815               	movf	(___fladd@a+1)^(0+384),w
  5829  16DA  0211               	subwf	(___fladd@b+1)^(0+384),w
  5830  16DB  1D03               	skipz
  5831  16DC  2EDF               	goto	u3603
  5832  16DD  0814               	movf	___fladd@a^(0+384),w
  5833  16DE  0210               	subwf	___fladd@b^(0+384),w
  5834  16DF                     u3603:	
  5835  16DF  1803               	skipnc
  5836  16E0  2F3B               	goto	l2580
  5837  16E1  30FF               	movlw	255
  5838  16E2  0098               	movwf	??___fladd^(0+384)
  5839  16E3  30FF               	movlw	255
  5840  16E4  0099               	movwf	(??___fladd^(0+384)+1)
  5841  16E5  30FF               	movlw	255
  5842  16E6  009A               	movwf	(??___fladd^(0+384)+2)
  5843  16E7  30FF               	movlw	255
  5844  16E8  009B               	movwf	(??___fladd^(0+384)+3)
  5845  16E9  0814               	movf	___fladd@a^(0+384),w
  5846  16EA  009C               	movwf	(??___fladd+4)^(0+384)
  5847  16EB  0815               	movf	(___fladd@a+1)^(0+384),w
  5848  16EC  009D               	movwf	((??___fladd+4)^(0+384)+1)
  5849  16ED  0816               	movf	(___fladd@a+2)^(0+384),w
  5850  16EE  009E               	movwf	((??___fladd+4)^(0+384)+2)
  5851  16EF  0817               	movf	(___fladd@a+3)^(0+384),w
  5852  16F0  009F               	movwf	((??___fladd+4)^(0+384)+3)
  5853  16F1  0810               	movf	___fladd@b^(0+384),w
  5854  16F2  029C               	subwf	(??___fladd+4)^(0+384),f
  5855  16F3  0811               	movf	(___fladd@b+1)^(0+384),w
  5856  16F4  1C03               	skipc
  5857  16F5  0F11               	incfsz	(___fladd@b+1)^(0+384),w
  5858  16F6  2EF8               	goto	u3611
  5859  16F7  2EF9               	goto	u3612
  5860  16F8                     u3611:	
  5861  16F8  029D               	subwf	((??___fladd+4)^(0+384)+1),f
  5862  16F9                     u3612:	
  5863  16F9  0812               	movf	(___fladd@b+2)^(0+384),w
  5864  16FA  1C03               	skipc
  5865  16FB  0F12               	incfsz	(___fladd@b+2)^(0+384),w
  5866  16FC  2EFE               	goto	u3613
  5867  16FD  2EFF               	goto	u3614
  5868  16FE                     u3613:	
  5869  16FE  029E               	subwf	((??___fladd+4)^(0+384)+2),f
  5870  16FF                     u3614:	
  5871  16FF  0813               	movf	(___fladd@b+3)^(0+384),w
  5872  1700  1C03               	skipc
  5873  1701  0F13               	incfsz	(___fladd@b+3)^(0+384),w
  5874  1702  2F04               	goto	u3615
  5875  1703  2F05               	goto	u3616
  5876  1704                     u3615:	
  5877  1704  029F               	subwf	((??___fladd+4)^(0+384)+3),f
  5878  1705                     u3616:	
  5879  1705  081C               	movf	(??___fladd+4)^(0+384),w
  5880  1706  0798               	addwf	??___fladd^(0+384),f
  5881  1707  081D               	movf	(??___fladd+5)^(0+384),w
  5882  1708  1803               	skipnc
  5883  1709  0F1D               	incfsz	(??___fladd+5)^(0+384),w
  5884  170A  2F0C               	goto	u3620
  5885  170B  2F0D               	goto	u3621
  5886  170C                     u3620:	
  5887  170C  0799               	addwf	(??___fladd^(0+384)+1),f
  5888  170D                     u3621:	
  5889  170D  081E               	movf	(??___fladd+6)^(0+384),w
  5890  170E  1803               	skipnc
  5891  170F  0F1E               	incfsz	(??___fladd+6)^(0+384),w
  5892  1710  2F12               	goto	u3622
  5893  1711  2F13               	goto	u3623
  5894  1712                     u3622:	
  5895  1712  079A               	addwf	(??___fladd^(0+384)+2),f
  5896  1713                     u3623:	
  5897  1713  081F               	movf	(??___fladd+7)^(0+384),w
  5898  1714  1803               	skipnc
  5899  1715  0A1F               	incf	(??___fladd+7)^(0+384),w
  5900  1716  079B               	addwf	(??___fladd^(0+384)+3),f
  5901  1717  081B               	movf	(??___fladd+3)^(0+384),w
  5902  1718  0093               	movwf	(___fladd@b+3)^(0+384)
  5903  1719  081A               	movf	(??___fladd+2)^(0+384),w
  5904  171A  0092               	movwf	(___fladd@b+2)^(0+384)
  5905  171B  0819               	movf	(??___fladd+1)^(0+384),w
  5906  171C  0091               	movwf	(___fladd@b+1)^(0+384)
  5907  171D  0818               	movf	??___fladd^(0+384),w
  5908  171E  0090               	movwf	___fladd@b^(0+384)
  5909  171F  3080               	movlw	128
  5910  1720  0098               	movwf	??___fladd^(0+384)
  5911  1721  0818               	movf	??___fladd^(0+384),w
  5912  1722  1683               	bsf	3,5	;RP0=1, select bank1
  5913  1723  1303               	bcf	3,6	;RP1=0, select bank1
  5914  1724  06EB               	xorwf	___fladd@signs^(0+128),f
  5915  1725  09EE               	comf	___fladd@grs^(0+128),f
  5916  1726  0AEE               	incf	___fladd@grs^(0+128),f
  5917  1727  086E               	movf	___fladd@grs^(0+128),w
  5918  1728  1D03               	btfss	3,2
  5919  1729  2F49               	goto	l704
  5920  172A  3001               	movlw	1
  5921  172B  1683               	bsf	3,5	;RP0=1, select bank3
  5922  172C  1703               	bsf	3,6	;RP1=1, select bank3
  5923  172D  0790               	addwf	___fladd@b^(0+384),f
  5924  172E  3000               	movlw	0
  5925  172F  1803               	skipnc
  5926  1730  3001               	movlw	1
  5927  1731  0791               	addwf	(___fladd@b+1)^(0+384),f
  5928  1732  3000               	movlw	0
  5929  1733  1803               	skipnc
  5930  1734  3001               	movlw	1
  5931  1735  0792               	addwf	(___fladd@b+2)^(0+384),f
  5932  1736  3000               	movlw	0
  5933  1737  1803               	skipnc
  5934  1738  3001               	movlw	1
  5935  1739  0793               	addwf	(___fladd@b+3)^(0+384),f
  5936  173A  2F49               	goto	l704
  5937  173B                     l2580:	
  5938  173B  0814               	movf	___fladd@a^(0+384),w
  5939  173C  0290               	subwf	___fladd@b^(0+384),f
  5940  173D  0815               	movf	(___fladd@a+1)^(0+384),w
  5941  173E  1C03               	skipc
  5942  173F  0F15               	incfsz	(___fladd@a+1)^(0+384),w
  5943  1740  0291               	subwf	(___fladd@b+1)^(0+384),f
  5944  1741  0816               	movf	(___fladd@a+2)^(0+384),w
  5945  1742  1C03               	skipc
  5946  1743  0F16               	incfsz	(___fladd@a+2)^(0+384),w
  5947  1744  0292               	subwf	(___fladd@b+2)^(0+384),f
  5948  1745  0817               	movf	(___fladd@a+3)^(0+384),w
  5949  1746  1C03               	skipc
  5950  1747  0F17               	incfsz	(___fladd@a+3)^(0+384),w
  5951  1748  0293               	subwf	(___fladd@b+3)^(0+384),f
  5952  1749                     l704:	
  5953  1749  1683               	bsf	3,5	;RP0=1, select bank3
  5954  174A  1703               	bsf	3,6	;RP1=1, select bank3
  5955  174B  0813               	movf	(___fladd@b+3)^(0+384),w
  5956  174C  0412               	iorwf	(___fladd@b+2)^(0+384),w
  5957  174D  0411               	iorwf	(___fladd@b+1)^(0+384),w
  5958  174E  0410               	iorwf	___fladd@b^(0+384),w
  5959  174F  1D03               	skipz
  5960  1750  2F7D               	goto	l2602
  5961  1751  1683               	bsf	3,5	;RP0=1, select bank1
  5962  1752  1303               	bcf	3,6	;RP1=0, select bank1
  5963  1753  086E               	movf	___fladd@grs^(0+128),w
  5964  1754  1D03               	btfss	3,2
  5965  1755  2F7D               	goto	l2602
  5966  1756  3000               	movlw	0
  5967  1757  1683               	bsf	3,5	;RP0=1, select bank3
  5968  1758  1703               	bsf	3,6	;RP1=1, select bank3
  5969  1759  0093               	movwf	(?___fladd+3)^(0+384)
  5970  175A  3000               	movlw	0
  5971  175B  0092               	movwf	(?___fladd+2)^(0+384)
  5972  175C  3000               	movlw	0
  5973  175D  0091               	movwf	(?___fladd+1)^(0+384)
  5974  175E  3000               	movlw	0
  5975  175F  0090               	movwf	?___fladd^(0+384)
  5976  1760  0008               	return
  5977  1761                     l2588:	
  5978  1761  3001               	movlw	1
  5979  1762  0098               	movwf	??___fladd^(0+384)
  5980  1763                     u3665:	
  5981  1763  1003               	clrc
  5982  1764  0D90               	rlf	___fladd@b^(0+384),f
  5983  1765  0D91               	rlf	(___fladd@b+1)^(0+384),f
  5984  1766  0D92               	rlf	(___fladd@b+2)^(0+384),f
  5985  1767  0D93               	rlf	(___fladd@b+3)^(0+384),f
  5986  1768  0B98               	decfsz	??___fladd^(0+384),f
  5987  1769  2F63               	goto	u3665
  5988  176A  1683               	bsf	3,5	;RP0=1, select bank1
  5989  176B  1303               	bcf	3,6	;RP1=0, select bank1
  5990  176C  1FEE               	btfss	___fladd@grs^(0+128),7
  5991  176D  2F71               	goto	l708
  5992  176E  1683               	bsf	3,5	;RP0=1, select bank3
  5993  176F  1703               	bsf	3,6	;RP1=1, select bank3
  5994  1770  1410               	bsf	___fladd@b^(0+384),0
  5995  1771                     l708:	
  5996  1771  1303               	bcf	3,6	;RP1=0, select bank1
  5997  1772  1C6E               	btfss	___fladd@grs^(0+128),0
  5998  1773  2F76               	goto	l2596
  5999  1774  1403               	setc
  6000  1775  2F77               	goto	L1
  6001  1776                     l2596:	
  6002  1776  1003               	clrc
  6003  1777                     L1:	
  6004  1777  0DEE               	rlf	___fladd@grs^(0+128),f
  6005  1778  086D               	movf	___fladd@bexp^(0+128),w
  6006  1779  1903               	btfsc	3,2
  6007  177A  2F7D               	goto	l2602
  6008  177B  3001               	movlw	1
  6009  177C  02ED               	subwf	___fladd@bexp^(0+128),f
  6010  177D                     l2602:	
  6011  177D  1683               	bsf	3,5	;RP0=1, select bank3
  6012  177E  1703               	bsf	3,6	;RP1=1, select bank3
  6013  177F  1F92               	btfss	(___fladd@b+2)^(0+384),7
  6014  1780  2F61               	goto	l2588
  6015  1781                     l2604:	
  6016  1781  1303               	bcf	3,6	;RP1=0, select bank1
  6017  1782  01EC               	clrf	___fladd@aexp^(0+128)
  6018  1783  1FEE               	btfss	___fladd@grs^(0+128),7
  6019  1784  2F90               	goto	l2614
  6020  1785  086E               	movf	___fladd@grs^(0+128),w
  6021  1786  397F               	andlw	127
  6022  1787  1D03               	btfss	3,2
  6023  1788  2F8D               	goto	l2610
  6024  1789  1683               	bsf	3,5	;RP0=1, select bank3
  6025  178A  1703               	bsf	3,6	;RP1=1, select bank3
  6026  178B  1C10               	btfss	___fladd@b^(0+384),0
  6027  178C  2F90               	goto	l2614
  6028  178D                     l2610:	
  6029  178D  1303               	bcf	3,6	;RP1=0, select bank1
  6030  178E  01EC               	clrf	___fladd@aexp^(0+128)
  6031  178F  0AEC               	incf	___fladd@aexp^(0+128),f
  6032  1790                     l2614:	
  6033  1790  1303               	bcf	3,6	;RP1=0, select bank1
  6034  1791  086C               	movf	___fladd@aexp^(0+128),w
  6035  1792  1903               	btfsc	3,2
  6036  1793  2FCC               	goto	l717
  6037  1794  3001               	movlw	1
  6038  1795  1683               	bsf	3,5	;RP0=1, select bank3
  6039  1796  1703               	bsf	3,6	;RP1=1, select bank3
  6040  1797  0790               	addwf	___fladd@b^(0+384),f
  6041  1798  3000               	movlw	0
  6042  1799  1803               	skipnc
  6043  179A  3001               	movlw	1
  6044  179B  0791               	addwf	(___fladd@b+1)^(0+384),f
  6045  179C  3000               	movlw	0
  6046  179D  1803               	skipnc
  6047  179E  3001               	movlw	1
  6048  179F  0792               	addwf	(___fladd@b+2)^(0+384),f
  6049  17A0  3000               	movlw	0
  6050  17A1  1803               	skipnc
  6051  17A2  3001               	movlw	1
  6052  17A3  0793               	addwf	(___fladd@b+3)^(0+384),f
  6053  17A4  1C13               	btfss	(___fladd@b+3)^(0+384),0
  6054  17A5  2FCC               	goto	l717
  6055  17A6  0810               	movf	___fladd@b^(0+384),w
  6056  17A7  0098               	movwf	??___fladd^(0+384)
  6057  17A8  0811               	movf	(___fladd@b+1)^(0+384),w
  6058  17A9  0099               	movwf	(??___fladd^(0+384)+1)
  6059  17AA  0812               	movf	(___fladd@b+2)^(0+384),w
  6060  17AB  009A               	movwf	(??___fladd^(0+384)+2)
  6061  17AC  0813               	movf	(___fladd@b+3)^(0+384),w
  6062  17AD  009B               	movwf	(??___fladd^(0+384)+3)
  6063  17AE  3001               	movlw	1
  6064  17AF  009C               	movwf	(??___fladd+4)^(0+384)
  6065  17B0                     u3765:	
  6066  17B0  0D1B               	rlf	(??___fladd^(0+384)+3),w
  6067  17B1  0C9B               	rrf	(??___fladd^(0+384)+3),f
  6068  17B2  0C9A               	rrf	(??___fladd^(0+384)+2),f
  6069  17B3  0C99               	rrf	(??___fladd^(0+384)+1),f
  6070  17B4  0C98               	rrf	??___fladd^(0+384),f
  6071  17B5  0B9C               	decfsz	(??___fladd+4)^(0+384),f
  6072  17B6  2FB0               	goto	u3765
  6073  17B7  081B               	movf	(??___fladd+3)^(0+384),w
  6074  17B8  0093               	movwf	(___fladd@b+3)^(0+384)
  6075  17B9  081A               	movf	(??___fladd+2)^(0+384),w
  6076  17BA  0092               	movwf	(___fladd@b+2)^(0+384)
  6077  17BB  0819               	movf	(??___fladd+1)^(0+384),w
  6078  17BC  0091               	movwf	(___fladd@b+1)^(0+384)
  6079  17BD  0818               	movf	??___fladd^(0+384),w
  6080  17BE  0090               	movwf	___fladd@b^(0+384)
  6081  17BF  1683               	bsf	3,5	;RP0=1, select bank1
  6082  17C0  1303               	bcf	3,6	;RP1=0, select bank1
  6083  17C1  0A6D               	incf	___fladd@bexp^(0+128),w
  6084  17C2  1903               	btfsc	3,2
  6085  17C3  2FCC               	goto	l717
  6086  17C4  3001               	movlw	1
  6087  17C5  1683               	bsf	3,5	;RP0=1, select bank3
  6088  17C6  1703               	bsf	3,6	;RP1=1, select bank3
  6089  17C7  0098               	movwf	??___fladd^(0+384)
  6090  17C8  0818               	movf	??___fladd^(0+384),w
  6091  17C9  1683               	bsf	3,5	;RP0=1, select bank1
  6092  17CA  1303               	bcf	3,6	;RP1=0, select bank1
  6093  17CB  07ED               	addwf	___fladd@bexp^(0+128),f
  6094  17CC                     l717:	
  6095  17CC  1303               	bcf	3,6	;RP1=0, select bank1
  6096  17CD  0A6D               	incf	___fladd@bexp^(0+128),w
  6097  17CE  1D03               	btfss	3,2
  6098  17CF  086D               	movf	___fladd@bexp^(0+128),w
  6099  17D0  1D03               	btfss	3,2
  6100  17D1  2FE1               	goto	l2632
  6101  17D2  3000               	movlw	0
  6102  17D3  1683               	bsf	3,5	;RP0=1, select bank3
  6103  17D4  1703               	bsf	3,6	;RP1=1, select bank3
  6104  17D5  0093               	movwf	(___fladd@b+3)^(0+384)
  6105  17D6  3000               	movlw	0
  6106  17D7  0092               	movwf	(___fladd@b+2)^(0+384)
  6107  17D8  3000               	movlw	0
  6108  17D9  0091               	movwf	(___fladd@b+1)^(0+384)
  6109  17DA  3000               	movlw	0
  6110  17DB  0090               	movwf	___fladd@b^(0+384)
  6111  17DC  1683               	bsf	3,5	;RP0=1, select bank1
  6112  17DD  1303               	bcf	3,6	;RP1=0, select bank1
  6113  17DE  086D               	movf	___fladd@bexp^(0+128),w
  6114  17DF  1903               	btfsc	3,2
  6115  17E0  01EB               	clrf	___fladd@signs^(0+128)
  6116  17E1                     l2632:	
  6117  17E1  1C6D               	btfss	___fladd@bexp^(0+128),0
  6118  17E2  2FE7               	goto	l2636
  6119  17E3  1683               	bsf	3,5	;RP0=1, select bank3
  6120  17E4  1703               	bsf	3,6	;RP1=1, select bank3
  6121  17E5  1792               	bsf	(___fladd@b^(0+384)+2),7
  6122  17E6  2FED               	goto	l725
  6123  17E7                     l2636:	
  6124  17E7  307F               	movlw	127
  6125  17E8  1683               	bsf	3,5	;RP0=1, select bank3
  6126  17E9  1703               	bsf	3,6	;RP1=1, select bank3
  6127  17EA  0098               	movwf	??___fladd^(0+384)
  6128  17EB  0818               	movf	??___fladd^(0+384),w
  6129  17EC  0592               	andwf	(___fladd@b^(0+384)+2),f
  6130  17ED                     l725:	
  6131  17ED  1683               	bsf	3,5	;RP0=1, select bank1
  6132  17EE  1303               	bcf	3,6	;RP1=0, select bank1
  6133  17EF  086D               	movf	___fladd@bexp^(0+128),w
  6134  17F0  1683               	bsf	3,5	;RP0=1, select bank3
  6135  17F1  1703               	bsf	3,6	;RP1=1, select bank3
  6136  17F2  0098               	movwf	??___fladd^(0+384)
  6137  17F3  1003               	clrc
  6138  17F4  0C18               	rrf	??___fladd^(0+384),w
  6139  17F5  0099               	movwf	(??___fladd+1)^(0+384)
  6140  17F6  0819               	movf	(??___fladd+1)^(0+384),w
  6141  17F7  0093               	movwf	(___fladd@b^(0+384)+3)
  6142  17F8  1683               	bsf	3,5	;RP0=1, select bank1
  6143  17F9  1303               	bcf	3,6	;RP1=0, select bank1
  6144  17FA  1FEB               	btfss	___fladd@signs^(0+128),7
  6145  17FB  0008               	return
  6146  17FC  1683               	bsf	3,5	;RP0=1, select bank3
  6147  17FD  1703               	bsf	3,6	;RP1=1, select bank3
  6148  17FE  1793               	bsf	(___fladd@b^(0+384)+3),7
  6149  17FF  0008               	return
  6150  1800                     __end_of___fladd:	
  6151                           
  6152                           	psect	text12
  6153  08EC                     __ptext12:	
  6154 ;; *************** function ___flmul *****************
  6155 ;; Defined at:
  6156 ;;		line 8 in file "D:\PROGRAM\MPLABX v5.20\XC8 v2.05\pic\sources\c90\common\sprcmul.c"
  6157 ;; Parameters:    Size  Location     Type
  6158 ;;  b               4   23[BANK1 ] unsigned char 
  6159 ;;  a               4   27[BANK1 ] unsigned char 
  6160 ;; Auto vars:     Size  Location     Type
  6161 ;;  prod            4   43[BANK1 ] struct .
  6162 ;;  grs             4   37[BANK1 ] unsigned long 
  6163 ;;  temp            2   47[BANK1 ] struct .
  6164 ;;  bexp            1   42[BANK1 ] unsigned char 
  6165 ;;  aexp            1   41[BANK1 ] unsigned char 
  6166 ;;  sign            1   36[BANK1 ] unsigned char 
  6167 ;; Return value:  Size  Location     Type
  6168 ;;                  4   23[BANK1 ] unsigned char 
  6169 ;; Registers used:
  6170 ;;		wreg, status,2, status,0, btemp+1, pclath, cstack
  6171 ;; Tracked objects:
  6172 ;;		On entry : 0/0
  6173 ;;		On exit  : 0/0
  6174 ;;		Unchanged: 0/0
  6175 ;; Data sizes:     COMMON   BANK0   BANK1   BANK3   BANK2
  6176 ;;      Params:         0       0       8       0       0
  6177 ;;      Locals:         0       0      13       0       0
  6178 ;;      Temps:          0       0       5       0       0
  6179 ;;      Totals:         0       0      26       0       0
  6180 ;;Total ram usage:       26 bytes
  6181 ;; Hardware stack levels used:    1
  6182 ;; Hardware stack levels required when called:    4
  6183 ;; This function calls:
  6184 ;;		__Umul8_16
  6185 ;; This function is called by:
  6186 ;;		_main
  6187 ;;		_PID_Init
  6188 ;; This function uses a non-reentrant model
  6189 ;;
  6190                           
  6191                           
  6192                           ;psect for function ___flmul
  6193  08EC                     ___flmul:	
  6194                           
  6195                           ;incstack = 0
  6196                           ; Regs used in ___flmul: [wreg+status,2+status,0+btemp+1+pclath+cstack]
  6197  08EC  1683               	bsf	3,5	;RP0=1, select bank1
  6198  08ED  1303               	bcf	3,6	;RP1=0, select bank1
  6199  08EE  083A               	movf	(___flmul@b^(0+128)+3),w
  6200  08EF  3980               	andlw	128
  6201  08F0  00BF               	movwf	??___flmul^(0+128)
  6202  08F1  083F               	movf	??___flmul^(0+128),w
  6203  08F2  00C4               	movwf	___flmul@sign^(0+128)
  6204  08F3  083A               	movf	(___flmul@b^(0+128)+3),w
  6205  08F4  00BF               	movwf	??___flmul^(0+128)
  6206  08F5  073F               	addwf	??___flmul^(0+128),w
  6207  08F6  00C0               	movwf	(??___flmul+1)^(0+128)
  6208  08F7  0840               	movf	(??___flmul+1)^(0+128),w
  6209  08F8  00CA               	movwf	___flmul@bexp^(0+128)
  6210  08F9  1BB9               	btfsc	(___flmul@b^(0+128)+2),7
  6211  08FA  144A               	bsf	___flmul@bexp^(0+128),0
  6212  08FB  084A               	movf	___flmul@bexp^(0+128),w
  6213  08FC  1903               	btfsc	3,2
  6214  08FD  290B               	goto	l3036
  6215  08FE  0A4A               	incf	___flmul@bexp^(0+128),w
  6216  08FF  1D03               	btfss	3,2
  6217  0900  2909               	goto	l3034
  6218  0901  3000               	movlw	0
  6219  0902  00BA               	movwf	(___flmul@b+3)^(0+128)
  6220  0903  3000               	movlw	0
  6221  0904  00B9               	movwf	(___flmul@b+2)^(0+128)
  6222  0905  3000               	movlw	0
  6223  0906  00B8               	movwf	(___flmul@b+1)^(0+128)
  6224  0907  3000               	movlw	0
  6225  0908  00B7               	movwf	___flmul@b^(0+128)
  6226  0909                     l3034:	
  6227  0909  17B9               	bsf	(___flmul@b^(0+128)+2),7
  6228  090A  2913               	goto	l3038
  6229  090B                     l3036:	
  6230  090B  3000               	movlw	0
  6231  090C  00BA               	movwf	(___flmul@b+3)^(0+128)
  6232  090D  3000               	movlw	0
  6233  090E  00B9               	movwf	(___flmul@b+2)^(0+128)
  6234  090F  3000               	movlw	0
  6235  0910  00B8               	movwf	(___flmul@b+1)^(0+128)
  6236  0911  3000               	movlw	0
  6237  0912  00B7               	movwf	___flmul@b^(0+128)
  6238  0913                     l3038:	
  6239  0913  083E               	movf	(___flmul@a^(0+128)+3),w
  6240  0914  3980               	andlw	128
  6241  0915  00BF               	movwf	??___flmul^(0+128)
  6242  0916  083F               	movf	??___flmul^(0+128),w
  6243  0917  06C4               	xorwf	___flmul@sign^(0+128),f
  6244  0918  083E               	movf	(___flmul@a^(0+128)+3),w
  6245  0919  00BF               	movwf	??___flmul^(0+128)
  6246  091A  073F               	addwf	??___flmul^(0+128),w
  6247  091B  00C0               	movwf	(??___flmul+1)^(0+128)
  6248  091C  0840               	movf	(??___flmul+1)^(0+128),w
  6249  091D  00C9               	movwf	___flmul@aexp^(0+128)
  6250  091E  1BBD               	btfsc	(___flmul@a^(0+128)+2),7
  6251  091F  1449               	bsf	___flmul@aexp^(0+128),0
  6252  0920  0849               	movf	___flmul@aexp^(0+128),w
  6253  0921  1903               	btfsc	3,2
  6254  0922  2930               	goto	l3054
  6255  0923  0A49               	incf	___flmul@aexp^(0+128),w
  6256  0924  1D03               	btfss	3,2
  6257  0925  292E               	goto	l3052
  6258  0926  3000               	movlw	0
  6259  0927  00BE               	movwf	(___flmul@a+3)^(0+128)
  6260  0928  3000               	movlw	0
  6261  0929  00BD               	movwf	(___flmul@a+2)^(0+128)
  6262  092A  3000               	movlw	0
  6263  092B  00BC               	movwf	(___flmul@a+1)^(0+128)
  6264  092C  3000               	movlw	0
  6265  092D  00BB               	movwf	___flmul@a^(0+128)
  6266  092E                     l3052:	
  6267  092E  17BD               	bsf	(___flmul@a^(0+128)+2),7
  6268  092F  2938               	goto	l3056
  6269  0930                     l3054:	
  6270  0930  3000               	movlw	0
  6271  0931  00BE               	movwf	(___flmul@a+3)^(0+128)
  6272  0932  3000               	movlw	0
  6273  0933  00BD               	movwf	(___flmul@a+2)^(0+128)
  6274  0934  3000               	movlw	0
  6275  0935  00BC               	movwf	(___flmul@a+1)^(0+128)
  6276  0936  3000               	movlw	0
  6277  0937  00BB               	movwf	___flmul@a^(0+128)
  6278  0938                     l3056:	
  6279  0938  0849               	movf	___flmul@aexp^(0+128),w
  6280  0939  1D03               	btfss	3,2
  6281  093A  084A               	movf	___flmul@bexp^(0+128),w
  6282  093B  1D03               	btfss	3,2
  6283  093C  2946               	goto	l3064
  6284  093D  3000               	movlw	0
  6285  093E  00BA               	movwf	(?___flmul+3)^(0+128)
  6286  093F  3000               	movlw	0
  6287  0940  00B9               	movwf	(?___flmul+2)^(0+128)
  6288  0941  3000               	movlw	0
  6289  0942  00B8               	movwf	(?___flmul+1)^(0+128)
  6290  0943  3000               	movlw	0
  6291  0944  00B7               	movwf	?___flmul^(0+128)
  6292  0945  0008               	return
  6293  0946                     l3064:	
  6294  0946  0837               	movf	___flmul@b^(0+128),w
  6295  0947  00BF               	movwf	??___flmul^(0+128)
  6296  0948  083F               	movf	??___flmul^(0+128),w
  6297  0949  00A0               	movwf	__Umul8_16@multiplicand^(0+128)
  6298  094A  083D               	movf	(___flmul@a^(0+128)+2),w
  6299  094B  160A  158A  2225  120A  158A  	fcall	__Umul8_16
  6300  0950  1683               	bsf	3,5	;RP0=1, select bank1
  6301  0951  1303               	bcf	3,6	;RP1=0, select bank1
  6302  0952  0821               	movf	(?__Umul8_16+1)^(0+128),w
  6303  0953  00D0               	movwf	(___flmul@temp+1)^(0+128)
  6304  0954  0820               	movf	?__Umul8_16^(0+128),w
  6305  0955  00CF               	movwf	___flmul@temp^(0+128)
  6306  0956  084F               	movf	___flmul@temp^(0+128),w
  6307  0957  00BF               	movwf	??___flmul^(0+128)
  6308  0958  01C0               	clrf	(??___flmul^(0+128)+1)
  6309  0959  01C1               	clrf	(??___flmul^(0+128)+2)
  6310  095A  01C2               	clrf	(??___flmul^(0+128)+3)
  6311  095B  0842               	movf	(??___flmul+3)^(0+128),w
  6312  095C  00C8               	movwf	(___flmul@grs+3)^(0+128)
  6313  095D  0841               	movf	(??___flmul+2)^(0+128),w
  6314  095E  00C7               	movwf	(___flmul@grs+2)^(0+128)
  6315  095F  0840               	movf	(??___flmul+1)^(0+128),w
  6316  0960  00C6               	movwf	(___flmul@grs+1)^(0+128)
  6317  0961  083F               	movf	??___flmul^(0+128),w
  6318  0962  00C5               	movwf	___flmul@grs^(0+128)
  6319  0963  0850               	movf	(___flmul@temp^(0+128)+1),w
  6320  0964  00BF               	movwf	??___flmul^(0+128)
  6321  0965  01C0               	clrf	(??___flmul^(0+128)+1)
  6322  0966  01C1               	clrf	(??___flmul^(0+128)+2)
  6323  0967  01C2               	clrf	(??___flmul^(0+128)+3)
  6324  0968  0842               	movf	(??___flmul+3)^(0+128),w
  6325  0969  00CE               	movwf	(___flmul@prod+3)^(0+128)
  6326  096A  0841               	movf	(??___flmul+2)^(0+128),w
  6327  096B  00CD               	movwf	(___flmul@prod+2)^(0+128)
  6328  096C  0840               	movf	(??___flmul+1)^(0+128),w
  6329  096D  00CC               	movwf	(___flmul@prod+1)^(0+128)
  6330  096E  083F               	movf	??___flmul^(0+128),w
  6331  096F  00CB               	movwf	___flmul@prod^(0+128)
  6332  0970  0838               	movf	(___flmul@b^(0+128)+1),w
  6333  0971  00BF               	movwf	??___flmul^(0+128)
  6334  0972  083F               	movf	??___flmul^(0+128),w
  6335  0973  00A0               	movwf	__Umul8_16@multiplicand^(0+128)
  6336  0974  083C               	movf	(___flmul@a^(0+128)+1),w
  6337  0975  160A  158A  2225  120A  158A  	fcall	__Umul8_16
  6338  097A  1683               	bsf	3,5	;RP0=1, select bank1
  6339  097B  1303               	bcf	3,6	;RP1=0, select bank1
  6340  097C  0821               	movf	(?__Umul8_16+1)^(0+128),w
  6341  097D  00D0               	movwf	(___flmul@temp+1)^(0+128)
  6342  097E  0820               	movf	?__Umul8_16^(0+128),w
  6343  097F  00CF               	movwf	___flmul@temp^(0+128)
  6344  0980  084F               	movf	___flmul@temp^(0+128),w
  6345  0981  00BF               	movwf	??___flmul^(0+128)
  6346  0982  01C0               	clrf	(??___flmul^(0+128)+1)
  6347  0983  01C1               	clrf	(??___flmul^(0+128)+2)
  6348  0984  01C2               	clrf	(??___flmul^(0+128)+3)
  6349  0985  083F               	movf	??___flmul^(0+128),w
  6350  0986  07C5               	addwf	___flmul@grs^(0+128),f
  6351  0987  0840               	movf	(??___flmul+1)^(0+128),w
  6352  0988  1103               	clrz
  6353  0989  1803               	skipnc
  6354  098A  3E01               	addlw	1
  6355  098B  1D03               	btfss	3,2
  6356  098C  07C6               	addwf	(___flmul@grs+1)^(0+128),f
  6357  098D  0841               	movf	(??___flmul+2)^(0+128),w
  6358  098E  1103               	clrz
  6359  098F  1803               	skipnc
  6360  0990  3E01               	addlw	1
  6361  0991  1D03               	btfss	3,2
  6362  0992  07C7               	addwf	(___flmul@grs+2)^(0+128),f
  6363  0993  0842               	movf	(??___flmul+3)^(0+128),w
  6364  0994  1103               	clrz
  6365  0995  1803               	skipnc
  6366  0996  3E01               	addlw	1
  6367  0997  1D03               	btfss	3,2
  6368  0998  07C8               	addwf	(___flmul@grs+3)^(0+128),f
  6369  0999  0850               	movf	(___flmul@temp^(0+128)+1),w
  6370  099A  00BF               	movwf	??___flmul^(0+128)
  6371  099B  01C0               	clrf	(??___flmul^(0+128)+1)
  6372  099C  01C1               	clrf	(??___flmul^(0+128)+2)
  6373  099D  01C2               	clrf	(??___flmul^(0+128)+3)
  6374  099E  083F               	movf	??___flmul^(0+128),w
  6375  099F  07CB               	addwf	___flmul@prod^(0+128),f
  6376  09A0  0840               	movf	(??___flmul+1)^(0+128),w
  6377  09A1  1103               	clrz
  6378  09A2  1803               	skipnc
  6379  09A3  3E01               	addlw	1
  6380  09A4  1D03               	btfss	3,2
  6381  09A5  07CC               	addwf	(___flmul@prod+1)^(0+128),f
  6382  09A6  0841               	movf	(??___flmul+2)^(0+128),w
  6383  09A7  1103               	clrz
  6384  09A8  1803               	skipnc
  6385  09A9  3E01               	addlw	1
  6386  09AA  1D03               	btfss	3,2
  6387  09AB  07CD               	addwf	(___flmul@prod+2)^(0+128),f
  6388  09AC  0842               	movf	(??___flmul+3)^(0+128),w
  6389  09AD  1103               	clrz
  6390  09AE  1803               	skipnc
  6391  09AF  3E01               	addlw	1
  6392  09B0  1D03               	btfss	3,2
  6393  09B1  07CE               	addwf	(___flmul@prod+3)^(0+128),f
  6394  09B2  0839               	movf	(___flmul@b^(0+128)+2),w
  6395  09B3  00BF               	movwf	??___flmul^(0+128)
  6396  09B4  083F               	movf	??___flmul^(0+128),w
  6397  09B5  00A0               	movwf	__Umul8_16@multiplicand^(0+128)
  6398  09B6  083B               	movf	___flmul@a^(0+128),w
  6399  09B7  160A  158A  2225  120A  158A  	fcall	__Umul8_16
  6400  09BC  1683               	bsf	3,5	;RP0=1, select bank1
  6401  09BD  1303               	bcf	3,6	;RP1=0, select bank1
  6402  09BE  0821               	movf	(?__Umul8_16+1)^(0+128),w
  6403  09BF  00D0               	movwf	(___flmul@temp+1)^(0+128)
  6404  09C0  0820               	movf	?__Umul8_16^(0+128),w
  6405  09C1  00CF               	movwf	___flmul@temp^(0+128)
  6406  09C2  084F               	movf	___flmul@temp^(0+128),w
  6407  09C3  00BF               	movwf	??___flmul^(0+128)
  6408  09C4  01C0               	clrf	(??___flmul^(0+128)+1)
  6409  09C5  01C1               	clrf	(??___flmul^(0+128)+2)
  6410  09C6  01C2               	clrf	(??___flmul^(0+128)+3)
  6411  09C7  083F               	movf	??___flmul^(0+128),w
  6412  09C8  07C5               	addwf	___flmul@grs^(0+128),f
  6413  09C9  0840               	movf	(??___flmul+1)^(0+128),w
  6414  09CA  1103               	clrz
  6415  09CB  1803               	skipnc
  6416  09CC  3E01               	addlw	1
  6417  09CD  1D03               	btfss	3,2
  6418  09CE  07C6               	addwf	(___flmul@grs+1)^(0+128),f
  6419  09CF  0841               	movf	(??___flmul+2)^(0+128),w
  6420  09D0  1103               	clrz
  6421  09D1  1803               	skipnc
  6422  09D2  3E01               	addlw	1
  6423  09D3  1D03               	btfss	3,2
  6424  09D4  07C7               	addwf	(___flmul@grs+2)^(0+128),f
  6425  09D5  0842               	movf	(??___flmul+3)^(0+128),w
  6426  09D6  1103               	clrz
  6427  09D7  1803               	skipnc
  6428  09D8  3E01               	addlw	1
  6429  09D9  1D03               	btfss	3,2
  6430  09DA  07C8               	addwf	(___flmul@grs+3)^(0+128),f
  6431  09DB  0850               	movf	(___flmul@temp^(0+128)+1),w
  6432  09DC  00BF               	movwf	??___flmul^(0+128)
  6433  09DD  01C0               	clrf	(??___flmul^(0+128)+1)
  6434  09DE  01C1               	clrf	(??___flmul^(0+128)+2)
  6435  09DF  01C2               	clrf	(??___flmul^(0+128)+3)
  6436  09E0  083F               	movf	??___flmul^(0+128),w
  6437  09E1  07CB               	addwf	___flmul@prod^(0+128),f
  6438  09E2  0840               	movf	(??___flmul+1)^(0+128),w
  6439  09E3  1103               	clrz
  6440  09E4  1803               	skipnc
  6441  09E5  3E01               	addlw	1
  6442  09E6  1D03               	btfss	3,2
  6443  09E7  07CC               	addwf	(___flmul@prod+1)^(0+128),f
  6444  09E8  0841               	movf	(??___flmul+2)^(0+128),w
  6445  09E9  1103               	clrz
  6446  09EA  1803               	skipnc
  6447  09EB  3E01               	addlw	1
  6448  09EC  1D03               	btfss	3,2
  6449  09ED  07CD               	addwf	(___flmul@prod+2)^(0+128),f
  6450  09EE  0842               	movf	(??___flmul+3)^(0+128),w
  6451  09EF  1103               	clrz
  6452  09F0  1803               	skipnc
  6453  09F1  3E01               	addlw	1
  6454  09F2  1D03               	btfss	3,2
  6455  09F3  07CE               	addwf	(___flmul@prod+3)^(0+128),f
  6456  09F4  3008               	movlw	8
  6457  09F5  00BF               	movwf	??___flmul^(0+128)
  6458  09F6                     u4765:	
  6459  09F6  1003               	clrc
  6460  09F7  0DC5               	rlf	___flmul@grs^(0+128),f
  6461  09F8  0DC6               	rlf	(___flmul@grs+1)^(0+128),f
  6462  09F9  0DC7               	rlf	(___flmul@grs+2)^(0+128),f
  6463  09FA  0DC8               	rlf	(___flmul@grs+3)^(0+128),f
  6464  09FB  0BBF               	decfsz	??___flmul^(0+128),f
  6465  09FC  29F6               	goto	u4765
  6466  09FD  0838               	movf	(___flmul@b^(0+128)+1),w
  6467  09FE  00BF               	movwf	??___flmul^(0+128)
  6468  09FF  083F               	movf	??___flmul^(0+128),w
  6469  0A00  00A0               	movwf	__Umul8_16@multiplicand^(0+128)
  6470  0A01  083B               	movf	___flmul@a^(0+128),w
  6471  0A02  160A  158A  2225  120A  158A  	fcall	__Umul8_16
  6472  0A07  1683               	bsf	3,5	;RP0=1, select bank1
  6473  0A08  1303               	bcf	3,6	;RP1=0, select bank1
  6474  0A09  0821               	movf	(?__Umul8_16+1)^(0+128),w
  6475  0A0A  00D0               	movwf	(___flmul@temp+1)^(0+128)
  6476  0A0B  0820               	movf	?__Umul8_16^(0+128),w
  6477  0A0C  00CF               	movwf	___flmul@temp^(0+128)
  6478  0A0D  084F               	movf	___flmul@temp^(0+128),w
  6479  0A0E  00BF               	movwf	??___flmul^(0+128)
  6480  0A0F  0850               	movf	(___flmul@temp+1)^(0+128),w
  6481  0A10  00C0               	movwf	(??___flmul^(0+128)+1)
  6482  0A11  01C1               	clrf	(??___flmul^(0+128)+2)
  6483  0A12  01C2               	clrf	(??___flmul^(0+128)+3)
  6484  0A13  083F               	movf	??___flmul^(0+128),w
  6485  0A14  07C5               	addwf	___flmul@grs^(0+128),f
  6486  0A15  0840               	movf	(??___flmul+1)^(0+128),w
  6487  0A16  1103               	clrz
  6488  0A17  1803               	skipnc
  6489  0A18  3E01               	addlw	1
  6490  0A19  1D03               	btfss	3,2
  6491  0A1A  07C6               	addwf	(___flmul@grs+1)^(0+128),f
  6492  0A1B  0841               	movf	(??___flmul+2)^(0+128),w
  6493  0A1C  1103               	clrz
  6494  0A1D  1803               	skipnc
  6495  0A1E  3E01               	addlw	1
  6496  0A1F  1D03               	btfss	3,2
  6497  0A20  07C7               	addwf	(___flmul@grs+2)^(0+128),f
  6498  0A21  0842               	movf	(??___flmul+3)^(0+128),w
  6499  0A22  1103               	clrz
  6500  0A23  1803               	skipnc
  6501  0A24  3E01               	addlw	1
  6502  0A25  1D03               	btfss	3,2
  6503  0A26  07C8               	addwf	(___flmul@grs+3)^(0+128),f
  6504  0A27  0837               	movf	___flmul@b^(0+128),w
  6505  0A28  00BF               	movwf	??___flmul^(0+128)
  6506  0A29  083F               	movf	??___flmul^(0+128),w
  6507  0A2A  00A0               	movwf	__Umul8_16@multiplicand^(0+128)
  6508  0A2B  083C               	movf	(___flmul@a^(0+128)+1),w
  6509  0A2C  160A  158A  2225  120A  158A  	fcall	__Umul8_16
  6510  0A31  1683               	bsf	3,5	;RP0=1, select bank1
  6511  0A32  1303               	bcf	3,6	;RP1=0, select bank1
  6512  0A33  0821               	movf	(?__Umul8_16+1)^(0+128),w
  6513  0A34  00D0               	movwf	(___flmul@temp+1)^(0+128)
  6514  0A35  0820               	movf	?__Umul8_16^(0+128),w
  6515  0A36  00CF               	movwf	___flmul@temp^(0+128)
  6516  0A37  084F               	movf	___flmul@temp^(0+128),w
  6517  0A38  00BF               	movwf	??___flmul^(0+128)
  6518  0A39  0850               	movf	(___flmul@temp+1)^(0+128),w
  6519  0A3A  00C0               	movwf	(??___flmul^(0+128)+1)
  6520  0A3B  01C1               	clrf	(??___flmul^(0+128)+2)
  6521  0A3C  01C2               	clrf	(??___flmul^(0+128)+3)
  6522  0A3D  083F               	movf	??___flmul^(0+128),w
  6523  0A3E  07C5               	addwf	___flmul@grs^(0+128),f
  6524  0A3F  0840               	movf	(??___flmul+1)^(0+128),w
  6525  0A40  1103               	clrz
  6526  0A41  1803               	skipnc
  6527  0A42  3E01               	addlw	1
  6528  0A43  1D03               	btfss	3,2
  6529  0A44  07C6               	addwf	(___flmul@grs+1)^(0+128),f
  6530  0A45  0841               	movf	(??___flmul+2)^(0+128),w
  6531  0A46  1103               	clrz
  6532  0A47  1803               	skipnc
  6533  0A48  3E01               	addlw	1
  6534  0A49  1D03               	btfss	3,2
  6535  0A4A  07C7               	addwf	(___flmul@grs+2)^(0+128),f
  6536  0A4B  0842               	movf	(??___flmul+3)^(0+128),w
  6537  0A4C  1103               	clrz
  6538  0A4D  1803               	skipnc
  6539  0A4E  3E01               	addlw	1
  6540  0A4F  1D03               	btfss	3,2
  6541  0A50  07C8               	addwf	(___flmul@grs+3)^(0+128),f
  6542  0A51  3008               	movlw	8
  6543  0A52  00BF               	movwf	??___flmul^(0+128)
  6544  0A53                     u4795:	
  6545  0A53  1003               	clrc
  6546  0A54  0DC5               	rlf	___flmul@grs^(0+128),f
  6547  0A55  0DC6               	rlf	(___flmul@grs+1)^(0+128),f
  6548  0A56  0DC7               	rlf	(___flmul@grs+2)^(0+128),f
  6549  0A57  0DC8               	rlf	(___flmul@grs+3)^(0+128),f
  6550  0A58  0BBF               	decfsz	??___flmul^(0+128),f
  6551  0A59  2A53               	goto	u4795
  6552  0A5A  0837               	movf	___flmul@b^(0+128),w
  6553  0A5B  00BF               	movwf	??___flmul^(0+128)
  6554  0A5C  083F               	movf	??___flmul^(0+128),w
  6555  0A5D  00A0               	movwf	__Umul8_16@multiplicand^(0+128)
  6556  0A5E  083B               	movf	___flmul@a^(0+128),w
  6557  0A5F  160A  158A  2225  120A  158A  	fcall	__Umul8_16
  6558  0A64  1683               	bsf	3,5	;RP0=1, select bank1
  6559  0A65  1303               	bcf	3,6	;RP1=0, select bank1
  6560  0A66  0821               	movf	(?__Umul8_16+1)^(0+128),w
  6561  0A67  00D0               	movwf	(___flmul@temp+1)^(0+128)
  6562  0A68  0820               	movf	?__Umul8_16^(0+128),w
  6563  0A69  00CF               	movwf	___flmul@temp^(0+128)
  6564  0A6A  084F               	movf	___flmul@temp^(0+128),w
  6565  0A6B  00BF               	movwf	??___flmul^(0+128)
  6566  0A6C  0850               	movf	(___flmul@temp+1)^(0+128),w
  6567  0A6D  00C0               	movwf	(??___flmul^(0+128)+1)
  6568  0A6E  01C1               	clrf	(??___flmul^(0+128)+2)
  6569  0A6F  01C2               	clrf	(??___flmul^(0+128)+3)
  6570  0A70  083F               	movf	??___flmul^(0+128),w
  6571  0A71  07C5               	addwf	___flmul@grs^(0+128),f
  6572  0A72  0840               	movf	(??___flmul+1)^(0+128),w
  6573  0A73  1103               	clrz
  6574  0A74  1803               	skipnc
  6575  0A75  3E01               	addlw	1
  6576  0A76  1D03               	btfss	3,2
  6577  0A77  07C6               	addwf	(___flmul@grs+1)^(0+128),f
  6578  0A78  0841               	movf	(??___flmul+2)^(0+128),w
  6579  0A79  1103               	clrz
  6580  0A7A  1803               	skipnc
  6581  0A7B  3E01               	addlw	1
  6582  0A7C  1D03               	btfss	3,2
  6583  0A7D  07C7               	addwf	(___flmul@grs+2)^(0+128),f
  6584  0A7E  0842               	movf	(??___flmul+3)^(0+128),w
  6585  0A7F  1103               	clrz
  6586  0A80  1803               	skipnc
  6587  0A81  3E01               	addlw	1
  6588  0A82  1D03               	btfss	3,2
  6589  0A83  07C8               	addwf	(___flmul@grs+3)^(0+128),f
  6590  0A84  0838               	movf	(___flmul@b^(0+128)+1),w
  6591  0A85  00BF               	movwf	??___flmul^(0+128)
  6592  0A86  083F               	movf	??___flmul^(0+128),w
  6593  0A87  00A0               	movwf	__Umul8_16@multiplicand^(0+128)
  6594  0A88  083D               	movf	(___flmul@a^(0+128)+2),w
  6595  0A89  160A  158A  2225  120A  158A  	fcall	__Umul8_16
  6596  0A8E  1683               	bsf	3,5	;RP0=1, select bank1
  6597  0A8F  1303               	bcf	3,6	;RP1=0, select bank1
  6598  0A90  0821               	movf	(?__Umul8_16+1)^(0+128),w
  6599  0A91  00D0               	movwf	(___flmul@temp+1)^(0+128)
  6600  0A92  0820               	movf	?__Umul8_16^(0+128),w
  6601  0A93  00CF               	movwf	___flmul@temp^(0+128)
  6602  0A94  084F               	movf	___flmul@temp^(0+128),w
  6603  0A95  00BF               	movwf	??___flmul^(0+128)
  6604  0A96  0850               	movf	(___flmul@temp+1)^(0+128),w
  6605  0A97  00C0               	movwf	(??___flmul^(0+128)+1)
  6606  0A98  01C1               	clrf	(??___flmul^(0+128)+2)
  6607  0A99  01C2               	clrf	(??___flmul^(0+128)+3)
  6608  0A9A  083F               	movf	??___flmul^(0+128),w
  6609  0A9B  07CB               	addwf	___flmul@prod^(0+128),f
  6610  0A9C  0840               	movf	(??___flmul+1)^(0+128),w
  6611  0A9D  1103               	clrz
  6612  0A9E  1803               	skipnc
  6613  0A9F  3E01               	addlw	1
  6614  0AA0  1D03               	btfss	3,2
  6615  0AA1  07CC               	addwf	(___flmul@prod+1)^(0+128),f
  6616  0AA2  0841               	movf	(??___flmul+2)^(0+128),w
  6617  0AA3  1103               	clrz
  6618  0AA4  1803               	skipnc
  6619  0AA5  3E01               	addlw	1
  6620  0AA6  1D03               	btfss	3,2
  6621  0AA7  07CD               	addwf	(___flmul@prod+2)^(0+128),f
  6622  0AA8  0842               	movf	(??___flmul+3)^(0+128),w
  6623  0AA9  1103               	clrz
  6624  0AAA  1803               	skipnc
  6625  0AAB  3E01               	addlw	1
  6626  0AAC  1D03               	btfss	3,2
  6627  0AAD  07CE               	addwf	(___flmul@prod+3)^(0+128),f
  6628  0AAE  0839               	movf	(___flmul@b^(0+128)+2),w
  6629  0AAF  00BF               	movwf	??___flmul^(0+128)
  6630  0AB0  083F               	movf	??___flmul^(0+128),w
  6631  0AB1  00A0               	movwf	__Umul8_16@multiplicand^(0+128)
  6632  0AB2  083C               	movf	(___flmul@a^(0+128)+1),w
  6633  0AB3  160A  158A  2225  120A  158A  	fcall	__Umul8_16
  6634  0AB8  1683               	bsf	3,5	;RP0=1, select bank1
  6635  0AB9  1303               	bcf	3,6	;RP1=0, select bank1
  6636  0ABA  0821               	movf	(?__Umul8_16+1)^(0+128),w
  6637  0ABB  00D0               	movwf	(___flmul@temp+1)^(0+128)
  6638  0ABC  0820               	movf	?__Umul8_16^(0+128),w
  6639  0ABD  00CF               	movwf	___flmul@temp^(0+128)
  6640  0ABE  084F               	movf	___flmul@temp^(0+128),w
  6641  0ABF  00BF               	movwf	??___flmul^(0+128)
  6642  0AC0  0850               	movf	(___flmul@temp+1)^(0+128),w
  6643  0AC1  00C0               	movwf	(??___flmul^(0+128)+1)
  6644  0AC2  01C1               	clrf	(??___flmul^(0+128)+2)
  6645  0AC3  01C2               	clrf	(??___flmul^(0+128)+3)
  6646  0AC4  083F               	movf	??___flmul^(0+128),w
  6647  0AC5  07CB               	addwf	___flmul@prod^(0+128),f
  6648  0AC6  0840               	movf	(??___flmul+1)^(0+128),w
  6649  0AC7  1103               	clrz
  6650  0AC8  1803               	skipnc
  6651  0AC9  3E01               	addlw	1
  6652  0ACA  1D03               	btfss	3,2
  6653  0ACB  07CC               	addwf	(___flmul@prod+1)^(0+128),f
  6654  0ACC  0841               	movf	(??___flmul+2)^(0+128),w
  6655  0ACD  1103               	clrz
  6656  0ACE  1803               	skipnc
  6657  0ACF  3E01               	addlw	1
  6658  0AD0  1D03               	btfss	3,2
  6659  0AD1  07CD               	addwf	(___flmul@prod+2)^(0+128),f
  6660  0AD2  0842               	movf	(??___flmul+3)^(0+128),w
  6661  0AD3  1103               	clrz
  6662  0AD4  1803               	skipnc
  6663  0AD5  3E01               	addlw	1
  6664  0AD6  1D03               	btfss	3,2
  6665  0AD7  07CE               	addwf	(___flmul@prod+3)^(0+128),f
  6666  0AD8  0839               	movf	(___flmul@b^(0+128)+2),w
  6667  0AD9  00BF               	movwf	??___flmul^(0+128)
  6668  0ADA  083F               	movf	??___flmul^(0+128),w
  6669  0ADB  00A0               	movwf	__Umul8_16@multiplicand^(0+128)
  6670  0ADC  083D               	movf	(___flmul@a^(0+128)+2),w
  6671  0ADD  160A  158A  2225  120A  158A  	fcall	__Umul8_16
  6672  0AE2  1683               	bsf	3,5	;RP0=1, select bank1
  6673  0AE3  1303               	bcf	3,6	;RP1=0, select bank1
  6674  0AE4  0821               	movf	(?__Umul8_16+1)^(0+128),w
  6675  0AE5  00D0               	movwf	(___flmul@temp+1)^(0+128)
  6676  0AE6  0820               	movf	?__Umul8_16^(0+128),w
  6677  0AE7  00CF               	movwf	___flmul@temp^(0+128)
  6678  0AE8  084F               	movf	___flmul@temp^(0+128),w
  6679  0AE9  00BF               	movwf	??___flmul^(0+128)
  6680  0AEA  0850               	movf	(___flmul@temp+1)^(0+128),w
  6681  0AEB  00C0               	movwf	(??___flmul^(0+128)+1)
  6682  0AEC  01C1               	clrf	(??___flmul^(0+128)+2)
  6683  0AED  01C2               	clrf	(??___flmul^(0+128)+3)
  6684  0AEE  3008               	movlw	8
  6685  0AEF                     u4835:	
  6686  0AEF  1003               	clrc
  6687  0AF0  0DBF               	rlf	??___flmul^(0+128),f
  6688  0AF1  0DC0               	rlf	(??___flmul^(0+128)+1),f
  6689  0AF2  0DC1               	rlf	(??___flmul^(0+128)+2),f
  6690  0AF3  0DC2               	rlf	(??___flmul^(0+128)+3),f
  6691  0AF4  3EFF               	addlw	-1
  6692  0AF5  1D03               	skipz
  6693  0AF6  2AEF               	goto	u4835
  6694  0AF7  083F               	movf	??___flmul^(0+128),w
  6695  0AF8  07CB               	addwf	___flmul@prod^(0+128),f
  6696  0AF9  0840               	movf	(??___flmul+1)^(0+128),w
  6697  0AFA  1103               	clrz
  6698  0AFB  1803               	skipnc
  6699  0AFC  3E01               	addlw	1
  6700  0AFD  1D03               	btfss	3,2
  6701  0AFE  07CC               	addwf	(___flmul@prod+1)^(0+128),f
  6702  0AFF  0841               	movf	(??___flmul+2)^(0+128),w
  6703  0B00  1103               	clrz
  6704  0B01  1803               	skipnc
  6705  0B02  3E01               	addlw	1
  6706  0B03  1D03               	btfss	3,2
  6707  0B04  07CD               	addwf	(___flmul@prod+2)^(0+128),f
  6708  0B05  0842               	movf	(??___flmul+3)^(0+128),w
  6709  0B06  1103               	clrz
  6710  0B07  1803               	skipnc
  6711  0B08  3E01               	addlw	1
  6712  0B09  1D03               	btfss	3,2
  6713  0B0A  07CE               	addwf	(___flmul@prod+3)^(0+128),f
  6714  0B0B  0845               	movf	___flmul@grs^(0+128),w
  6715  0B0C  00BF               	movwf	??___flmul^(0+128)
  6716  0B0D  0846               	movf	(___flmul@grs+1)^(0+128),w
  6717  0B0E  00C0               	movwf	(??___flmul^(0+128)+1)
  6718  0B0F  0847               	movf	(___flmul@grs+2)^(0+128),w
  6719  0B10  00C1               	movwf	(??___flmul^(0+128)+2)
  6720  0B11  0848               	movf	(___flmul@grs+3)^(0+128),w
  6721  0B12  00C2               	movwf	(??___flmul^(0+128)+3)
  6722  0B13  3018               	movlw	24
  6723  0B14                     u4855:	
  6724  0B14  1003               	clrc
  6725  0B15  0CC2               	rrf	(??___flmul^(0+128)+3),f
  6726  0B16  0CC1               	rrf	(??___flmul^(0+128)+2),f
  6727  0B17  0CC0               	rrf	(??___flmul^(0+128)+1),f
  6728  0B18  0CBF               	rrf	??___flmul^(0+128),f
  6729  0B19  3EFF               	addlw	-1
  6730  0B1A  1D03               	skipz
  6731  0B1B  2B14               	goto	u4855
  6732  0B1C  083F               	movf	??___flmul^(0+128),w
  6733  0B1D  07CB               	addwf	___flmul@prod^(0+128),f
  6734  0B1E  0840               	movf	(??___flmul+1)^(0+128),w
  6735  0B1F  1103               	clrz
  6736  0B20  1803               	skipnc
  6737  0B21  3E01               	addlw	1
  6738  0B22  1D03               	btfss	3,2
  6739  0B23  07CC               	addwf	(___flmul@prod+1)^(0+128),f
  6740  0B24  0841               	movf	(??___flmul+2)^(0+128),w
  6741  0B25  1103               	clrz
  6742  0B26  1803               	skipnc
  6743  0B27  3E01               	addlw	1
  6744  0B28  1D03               	btfss	3,2
  6745  0B29  07CD               	addwf	(___flmul@prod+2)^(0+128),f
  6746  0B2A  0842               	movf	(??___flmul+3)^(0+128),w
  6747  0B2B  1103               	clrz
  6748  0B2C  1803               	skipnc
  6749  0B2D  3E01               	addlw	1
  6750  0B2E  1D03               	btfss	3,2
  6751  0B2F  07CE               	addwf	(___flmul@prod+3)^(0+128),f
  6752  0B30  3008               	movlw	8
  6753  0B31  00BF               	movwf	??___flmul^(0+128)
  6754  0B32                     u4875:	
  6755  0B32  1003               	clrc
  6756  0B33  0DC5               	rlf	___flmul@grs^(0+128),f
  6757  0B34  0DC6               	rlf	(___flmul@grs+1)^(0+128),f
  6758  0B35  0DC7               	rlf	(___flmul@grs+2)^(0+128),f
  6759  0B36  0DC8               	rlf	(___flmul@grs+3)^(0+128),f
  6760  0B37  0BBF               	decfsz	??___flmul^(0+128),f
  6761  0B38  2B32               	goto	u4875
  6762  0B39  084A               	movf	___flmul@bexp^(0+128),w
  6763  0B3A  0749               	addwf	___flmul@aexp^(0+128),w
  6764  0B3B  00BF               	movwf	??___flmul^(0+128)
  6765  0B3C  01C0               	clrf	(??___flmul^(0+128)+1)
  6766  0B3D  0DC0               	rlf	(??___flmul+1)^(0+128),f
  6767  0B3E  083F               	movf	??___flmul^(0+128),w
  6768  0B3F  3E82               	addlw	130
  6769  0B40  00CF               	movwf	___flmul@temp^(0+128)
  6770  0B41  0840               	movf	(??___flmul+1)^(0+128),w
  6771  0B42  1803               	skipnc
  6772  0B43  3E01               	addlw	1
  6773  0B44  3EFF               	addlw	255
  6774  0B45  00D0               	movwf	(___flmul@temp+1)^(0+128)
  6775  0B46                     l3116:	
  6776  0B46  1BCD               	btfsc	(___flmul@prod+2)^(0+128),7
  6777  0B47  2B63               	goto	l3118
  6778  0B48  3001               	movlw	1
  6779  0B49  00BF               	movwf	??___flmul^(0+128)
  6780  0B4A                     u4885:	
  6781  0B4A  1003               	clrc
  6782  0B4B  0DCB               	rlf	___flmul@prod^(0+128),f
  6783  0B4C  0DCC               	rlf	(___flmul@prod+1)^(0+128),f
  6784  0B4D  0DCD               	rlf	(___flmul@prod+2)^(0+128),f
  6785  0B4E  0DCE               	rlf	(___flmul@prod+3)^(0+128),f
  6786  0B4F  0BBF               	decfsz	??___flmul^(0+128),f
  6787  0B50  2B4A               	goto	u4885
  6788  0B51  1BC8               	btfsc	(___flmul@grs+3)^(0+128),7
  6789  0B52  144B               	bsf	___flmul@prod^(0+128),0
  6790  0B53  3001               	movlw	1
  6791  0B54  00BF               	movwf	??___flmul^(0+128)
  6792  0B55                     u4905:	
  6793  0B55  1003               	clrc
  6794  0B56  0DC5               	rlf	___flmul@grs^(0+128),f
  6795  0B57  0DC6               	rlf	(___flmul@grs+1)^(0+128),f
  6796  0B58  0DC7               	rlf	(___flmul@grs+2)^(0+128),f
  6797  0B59  0DC8               	rlf	(___flmul@grs+3)^(0+128),f
  6798  0B5A  0BBF               	decfsz	??___flmul^(0+128),f
  6799  0B5B  2B55               	goto	u4905
  6800  0B5C  30FF               	movlw	255
  6801  0B5D  07CF               	addwf	___flmul@temp^(0+128),f
  6802  0B5E  1803               	skipnc
  6803  0B5F  0AD0               	incf	(___flmul@temp+1)^(0+128),f
  6804  0B60  30FF               	movlw	255
  6805  0B61  07D0               	addwf	(___flmul@temp+1)^(0+128),f
  6806  0B62  2B46               	goto	l3116
  6807  0B63                     l3118:	
  6808  0B63  01C9               	clrf	___flmul@aexp^(0+128)
  6809  0B64  1FC8               	btfss	(___flmul@grs+3)^(0+128),7
  6810  0B65  2B7C               	goto	l3128
  6811  0B66  30FF               	movlw	255
  6812  0B67  0545               	andwf	___flmul@grs^(0+128),w
  6813  0B68  00BF               	movwf	??___flmul^(0+128)
  6814  0B69  30FF               	movlw	255
  6815  0B6A  0546               	andwf	(___flmul@grs+1)^(0+128),w
  6816  0B6B  00C0               	movwf	(??___flmul^(0+128)+1)
  6817  0B6C  30FF               	movlw	255
  6818  0B6D  0547               	andwf	(___flmul@grs+2)^(0+128),w
  6819  0B6E  00C1               	movwf	(??___flmul^(0+128)+2)
  6820  0B6F  307F               	movlw	127
  6821  0B70  0548               	andwf	(___flmul@grs+3)^(0+128),w
  6822  0B71  00C2               	movwf	(??___flmul^(0+128)+3)
  6823  0B72  0842               	movf	(??___flmul+3)^(0+128),w
  6824  0B73  0441               	iorwf	(??___flmul+2)^(0+128),w
  6825  0B74  0440               	iorwf	(??___flmul+1)^(0+128),w
  6826  0B75  043F               	iorwf	??___flmul^(0+128),w
  6827  0B76  1903               	skipnz
  6828  0B77  184B               	btfsc	___flmul@prod^(0+128),0
  6829  0B78  2B7A               	goto	l3124
  6830  0B79  2B7C               	goto	l3128
  6831  0B7A                     l3124:	
  6832  0B7A  01C9               	clrf	___flmul@aexp^(0+128)
  6833  0B7B  0AC9               	incf	___flmul@aexp^(0+128),f
  6834  0B7C                     l3128:	
  6835  0B7C  0849               	movf	___flmul@aexp^(0+128),w
  6836  0B7D  1903               	btfsc	3,2
  6837  0B7E  2BAE               	goto	l3138
  6838  0B7F  3001               	movlw	1
  6839  0B80  07CB               	addwf	___flmul@prod^(0+128),f
  6840  0B81  3000               	movlw	0
  6841  0B82  1803               	skipnc
  6842  0B83  3001               	movlw	1
  6843  0B84  07CC               	addwf	(___flmul@prod+1)^(0+128),f
  6844  0B85  3000               	movlw	0
  6845  0B86  1803               	skipnc
  6846  0B87  3001               	movlw	1
  6847  0B88  07CD               	addwf	(___flmul@prod+2)^(0+128),f
  6848  0B89  3000               	movlw	0
  6849  0B8A  1803               	skipnc
  6850  0B8B  3001               	movlw	1
  6851  0B8C  07CE               	addwf	(___flmul@prod+3)^(0+128),f
  6852  0B8D  1C4E               	btfss	(___flmul@prod+3)^(0+128),0
  6853  0B8E  2BAE               	goto	l3138
  6854  0B8F  084B               	movf	___flmul@prod^(0+128),w
  6855  0B90  00BF               	movwf	??___flmul^(0+128)
  6856  0B91  084C               	movf	(___flmul@prod+1)^(0+128),w
  6857  0B92  00C0               	movwf	(??___flmul^(0+128)+1)
  6858  0B93  084D               	movf	(___flmul@prod+2)^(0+128),w
  6859  0B94  00C1               	movwf	(??___flmul^(0+128)+2)
  6860  0B95  084E               	movf	(___flmul@prod+3)^(0+128),w
  6861  0B96  00C2               	movwf	(??___flmul^(0+128)+3)
  6862  0B97  3001               	movlw	1
  6863  0B98  00C3               	movwf	(??___flmul+4)^(0+128)
  6864  0B99                     u4975:	
  6865  0B99  0D42               	rlf	(??___flmul^(0+128)+3),w
  6866  0B9A  0CC2               	rrf	(??___flmul^(0+128)+3),f
  6867  0B9B  0CC1               	rrf	(??___flmul^(0+128)+2),f
  6868  0B9C  0CC0               	rrf	(??___flmul^(0+128)+1),f
  6869  0B9D  0CBF               	rrf	??___flmul^(0+128),f
  6870  0B9E  0BC3               	decfsz	(??___flmul+4)^(0+128),f
  6871  0B9F  2B99               	goto	u4975
  6872  0BA0  0842               	movf	(??___flmul+3)^(0+128),w
  6873  0BA1  00CE               	movwf	(___flmul@prod+3)^(0+128)
  6874  0BA2  0841               	movf	(??___flmul+2)^(0+128),w
  6875  0BA3  00CD               	movwf	(___flmul@prod+2)^(0+128)
  6876  0BA4  0840               	movf	(??___flmul+1)^(0+128),w
  6877  0BA5  00CC               	movwf	(___flmul@prod+1)^(0+128)
  6878  0BA6  083F               	movf	??___flmul^(0+128),w
  6879  0BA7  00CB               	movwf	___flmul@prod^(0+128)
  6880  0BA8  3001               	movlw	1
  6881  0BA9  07CF               	addwf	___flmul@temp^(0+128),f
  6882  0BAA  1803               	skipnc
  6883  0BAB  0AD0               	incf	(___flmul@temp+1)^(0+128),f
  6884  0BAC  3000               	movlw	0
  6885  0BAD  07D0               	addwf	(___flmul@temp+1)^(0+128),f
  6886  0BAE                     l3138:	
  6887  0BAE  0850               	movf	(___flmul@temp+1)^(0+128),w
  6888  0BAF  3A80               	xorlw	128
  6889  0BB0  00FF               	movwf	127
  6890  0BB1  3080               	movlw	128
  6891  0BB2  027F               	subwf	127,w
  6892  0BB3  1D03               	skipz
  6893  0BB4  2BB7               	goto	u4985
  6894  0BB5  30FF               	movlw	255
  6895  0BB6  024F               	subwf	___flmul@temp^(0+128),w
  6896  0BB7                     u4985:	
  6897  0BB7  1C03               	skipc
  6898  0BB8  2BC4               	goto	l3142
  6899  0BB9  307F               	movlw	127
  6900  0BBA  1683               	bsf	3,5	;RP0=1, select bank1
  6901  0BBB  1303               	bcf	3,6	;RP1=0, select bank1
  6902  0BBC  00CE               	movwf	(___flmul@prod+3)^(0+128)
  6903  0BBD  3080               	movlw	128
  6904  0BBE  00CD               	movwf	(___flmul@prod+2)^(0+128)
  6905  0BBF  3000               	movlw	0
  6906  0BC0  00CC               	movwf	(___flmul@prod+1)^(0+128)
  6907  0BC1  3000               	movlw	0
  6908  0BC2  00CB               	movwf	___flmul@prod^(0+128)
  6909  0BC3  2BF4               	goto	l791
  6910  0BC4                     l3142:	
  6911  0BC4  1683               	bsf	3,5	;RP0=1, select bank1
  6912  0BC5  1303               	bcf	3,6	;RP1=0, select bank1
  6913  0BC6  0850               	movf	(___flmul@temp+1)^(0+128),w
  6914  0BC7  3A80               	xorlw	128
  6915  0BC8  00FF               	movwf	127
  6916  0BC9  3080               	movlw	128
  6917  0BCA  027F               	subwf	127,w
  6918  0BCB  1D03               	skipz
  6919  0BCC  2BCF               	goto	u4995
  6920  0BCD  3001               	movlw	1
  6921  0BCE  024F               	subwf	___flmul@temp^(0+128),w
  6922  0BCF                     u4995:	
  6923  0BCF  1803               	skipnc
  6924  0BD0  2BDD               	goto	l3148
  6925  0BD1  3000               	movlw	0
  6926  0BD2  1683               	bsf	3,5	;RP0=1, select bank1
  6927  0BD3  1303               	bcf	3,6	;RP1=0, select bank1
  6928  0BD4  00CE               	movwf	(___flmul@prod+3)^(0+128)
  6929  0BD5  3000               	movlw	0
  6930  0BD6  00CD               	movwf	(___flmul@prod+2)^(0+128)
  6931  0BD7  3000               	movlw	0
  6932  0BD8  00CC               	movwf	(___flmul@prod+1)^(0+128)
  6933  0BD9  3000               	movlw	0
  6934  0BDA  00CB               	movwf	___flmul@prod^(0+128)
  6935  0BDB  01C4               	clrf	___flmul@sign^(0+128)
  6936  0BDC  2BF4               	goto	l791
  6937  0BDD                     l3148:	
  6938  0BDD  1683               	bsf	3,5	;RP0=1, select bank1
  6939  0BDE  1303               	bcf	3,6	;RP1=0, select bank1
  6940  0BDF  084F               	movf	___flmul@temp^(0+128),w
  6941  0BE0  00BF               	movwf	??___flmul^(0+128)
  6942  0BE1  083F               	movf	??___flmul^(0+128),w
  6943  0BE2  00CA               	movwf	___flmul@bexp^(0+128)
  6944  0BE3  30FF               	movlw	255
  6945  0BE4  05CB               	andwf	___flmul@prod^(0+128),f
  6946  0BE5  30FF               	movlw	255
  6947  0BE6  05CC               	andwf	(___flmul@prod+1)^(0+128),f
  6948  0BE7  307F               	movlw	127
  6949  0BE8  05CD               	andwf	(___flmul@prod+2)^(0+128),f
  6950  0BE9  3000               	movlw	0
  6951  0BEA  05CE               	andwf	(___flmul@prod+3)^(0+128),f
  6952  0BEB  184A               	btfsc	___flmul@bexp^(0+128),0
  6953  0BEC  17CD               	bsf	(___flmul@prod^(0+128)+2),7
  6954  0BED  084A               	movf	___flmul@bexp^(0+128),w
  6955  0BEE  00BF               	movwf	??___flmul^(0+128)
  6956  0BEF  1003               	clrc
  6957  0BF0  0C3F               	rrf	??___flmul^(0+128),w
  6958  0BF1  00C0               	movwf	(??___flmul+1)^(0+128)
  6959  0BF2  0840               	movf	(??___flmul+1)^(0+128),w
  6960  0BF3  00CE               	movwf	(___flmul@prod^(0+128)+3)
  6961  0BF4                     l791:	
  6962  0BF4  0844               	movf	___flmul@sign^(0+128),w
  6963  0BF5  00BF               	movwf	??___flmul^(0+128)
  6964  0BF6  083F               	movf	??___flmul^(0+128),w
  6965  0BF7  04CE               	iorwf	(___flmul@prod^(0+128)+3),f
  6966  0BF8  084E               	movf	(___flmul@prod+3)^(0+128),w
  6967  0BF9  00BA               	movwf	(?___flmul+3)^(0+128)
  6968  0BFA  084D               	movf	(___flmul@prod+2)^(0+128),w
  6969  0BFB  00B9               	movwf	(?___flmul+2)^(0+128)
  6970  0BFC  084C               	movf	(___flmul@prod+1)^(0+128),w
  6971  0BFD  00B8               	movwf	(?___flmul+1)^(0+128)
  6972  0BFE  084B               	movf	___flmul@prod^(0+128),w
  6973  0BFF  00B7               	movwf	?___flmul^(0+128)
  6974  0C00  0008               	return
  6975  0C01                     __end_of___flmul:	
  6976                           
  6977                           	psect	text13
  6978  1A25                     __ptext13:	
  6979 ;; *************** function __Umul8_16 *****************
  6980 ;; Defined at:
  6981 ;;		line 4 in file "D:\PROGRAM\MPLABX v5.20\XC8 v2.05\pic\sources\c90\common\Umul8_16.c"
  6982 ;; Parameters:    Size  Location     Type
  6983 ;;  multiplier      1    wreg     unsigned char 
  6984 ;;  multiplicand    1    0[BANK1 ] unsigned char 
  6985 ;; Auto vars:     Size  Location     Type
  6986 ;;  multiplier      1    8[BANK1 ] unsigned char 
  6987 ;;  word_mpld       2    6[BANK1 ] unsigned int 
  6988 ;;  product         2    4[BANK1 ] unsigned int 
  6989 ;; Return value:  Size  Location     Type
  6990 ;;                  2    0[BANK1 ] unsigned int 
  6991 ;; Registers used:
  6992 ;;		wreg, status,2, status,0
  6993 ;; Tracked objects:
  6994 ;;		On entry : 0/0
  6995 ;;		On exit  : 0/0
  6996 ;;		Unchanged: 0/0
  6997 ;; Data sizes:     COMMON   BANK0   BANK1   BANK3   BANK2
  6998 ;;      Params:         0       0       2       0       0
  6999 ;;      Locals:         0       0       5       0       0
  7000 ;;      Temps:          0       0       2       0       0
  7001 ;;      Totals:         0       0       9       0       0
  7002 ;;Total ram usage:        9 bytes
  7003 ;; Hardware stack levels used:    1
  7004 ;; Hardware stack levels required when called:    3
  7005 ;; This function calls:
  7006 ;;		Nothing
  7007 ;; This function is called by:
  7008 ;;		___flmul
  7009 ;; This function uses a non-reentrant model
  7010 ;;
  7011                           
  7012                           
  7013                           ;psect for function __Umul8_16
  7014  1A25                     __Umul8_16:	
  7015                           
  7016                           ;incstack = 0
  7017                           ; Regs used in __Umul8_16: [wreg+status,2+status,0]
  7018                           ;__Umul8_16@multiplier stored from wreg
  7019  1A25  1683               	bsf	3,5	;RP0=1, select bank1
  7020  1A26  1303               	bcf	3,6	;RP1=0, select bank1
  7021  1A27  00A8               	movwf	__Umul8_16@multiplier^(0+128)
  7022  1A28  01A4               	clrf	__Umul8_16@product^(0+128)
  7023  1A29  01A5               	clrf	(__Umul8_16@product+1)^(0+128)
  7024  1A2A  0820               	movf	__Umul8_16@multiplicand^(0+128),w
  7025  1A2B  00A2               	movwf	??__Umul8_16^(0+128)
  7026  1A2C  01A3               	clrf	(??__Umul8_16^(0+128)+1)
  7027  1A2D  0822               	movf	??__Umul8_16^(0+128),w
  7028  1A2E  00A6               	movwf	__Umul8_16@word_mpld^(0+128)
  7029  1A2F  0823               	movf	(??__Umul8_16+1)^(0+128),w
  7030  1A30  00A7               	movwf	(__Umul8_16@word_mpld+1)^(0+128)
  7031  1A31                     l2646:	
  7032  1A31  1C28               	btfss	__Umul8_16@multiplier^(0+128),0
  7033  1A32  2A39               	goto	l836
  7034  1A33  0826               	movf	__Umul8_16@word_mpld^(0+128),w
  7035  1A34  07A4               	addwf	__Umul8_16@product^(0+128),f
  7036  1A35  1803               	skipnc
  7037  1A36  0AA5               	incf	(__Umul8_16@product+1)^(0+128),f
  7038  1A37  0827               	movf	(__Umul8_16@word_mpld+1)^(0+128),w
  7039  1A38  07A5               	addwf	(__Umul8_16@product+1)^(0+128),f
  7040  1A39                     l836:	
  7041  1A39  3001               	movlw	1
  7042  1A3A                     u3845:	
  7043  1A3A  1003               	clrc
  7044  1A3B  0DA6               	rlf	__Umul8_16@word_mpld^(0+128),f
  7045  1A3C  0DA7               	rlf	(__Umul8_16@word_mpld+1)^(0+128),f
  7046  1A3D  3EFF               	addlw	-1
  7047  1A3E  1D03               	skipz
  7048  1A3F  2A3A               	goto	u3845
  7049  1A40  1003               	clrc
  7050  1A41  0CA8               	rrf	__Umul8_16@multiplier^(0+128),f
  7051  1A42  0828               	movf	__Umul8_16@multiplier^(0+128),w
  7052  1A43  1D03               	btfss	3,2
  7053  1A44  2A31               	goto	l2646
  7054  1A45  0825               	movf	(__Umul8_16@product+1)^(0+128),w
  7055  1A46  00A1               	movwf	(?__Umul8_16+1)^(0+128)
  7056  1A47  0824               	movf	__Umul8_16@product^(0+128),w
  7057  1A48  00A0               	movwf	?__Umul8_16^(0+128)
  7058  1A49  0008               	return
  7059  1A4A                     __end_of__Umul8_16:	
  7060                           
  7061                           	psect	text14
  7062  1134                     __ptext14:	
  7063 ;; *************** function ___fldiv *****************
  7064 ;; Defined at:
  7065 ;;		line 8 in file "D:\PROGRAM\MPLABX v5.20\XC8 v2.05\pic\sources\c90\common\sprcdiv.c"
  7066 ;; Parameters:    Size  Location     Type
  7067 ;;  a               4   49[BANK1 ] unsigned int 
  7068 ;;  b               4   53[BANK1 ] unsigned int 
  7069 ;; Auto vars:     Size  Location     Type
  7070 ;;  grs             4   69[BANK1 ] unsigned long 
  7071 ;;  rem             4   62[BANK1 ] unsigned long 
  7072 ;;  new_exp         2   67[BANK1 ] int 
  7073 ;;  aexp            1   74[BANK1 ] unsigned char 
  7074 ;;  bexp            1   73[BANK1 ] unsigned char 
  7075 ;;  sign            1   66[BANK1 ] unsigned char 
  7076 ;; Return value:  Size  Location     Type
  7077 ;;                  4   49[BANK1 ] unsigned char 
  7078 ;; Registers used:
  7079 ;;		wreg, status,2, status,0, btemp+1
  7080 ;; Tracked objects:
  7081 ;;		On entry : 0/0
  7082 ;;		On exit  : 0/0
  7083 ;;		Unchanged: 0/0
  7084 ;; Data sizes:     COMMON   BANK0   BANK1   BANK3   BANK2
  7085 ;;      Params:         0       0       8       0       0
  7086 ;;      Locals:         0       0      13       0       0
  7087 ;;      Temps:          0       0       5       0       0
  7088 ;;      Totals:         0       0      26       0       0
  7089 ;;Total ram usage:       26 bytes
  7090 ;; Hardware stack levels used:    1
  7091 ;; Hardware stack levels required when called:    3
  7092 ;; This function calls:
  7093 ;;		Nothing
  7094 ;; This function is called by:
  7095 ;;		_PID_Init
  7096 ;; This function uses a non-reentrant model
  7097 ;;
  7098                           
  7099                           
  7100                           ;psect for function ___fldiv
  7101  1134                     ___fldiv:	
  7102                           
  7103                           ;incstack = 0
  7104                           ; Regs used in ___fldiv: [wreg+status,2+status,0+btemp+1]
  7105  1134  1683               	bsf	3,5	;RP0=1, select bank1
  7106  1135  1303               	bcf	3,6	;RP1=0, select bank1
  7107  1136  0858               	movf	(___fldiv@b^(0+128)+3),w
  7108  1137  3980               	andlw	128
  7109  1138  00D9               	movwf	??___fldiv^(0+128)
  7110  1139  0859               	movf	??___fldiv^(0+128),w
  7111  113A  00E2               	movwf	___fldiv@sign^(0+128)
  7112  113B  0858               	movf	(___fldiv@b^(0+128)+3),w
  7113  113C  00D9               	movwf	??___fldiv^(0+128)
  7114  113D  0759               	addwf	??___fldiv^(0+128),w
  7115  113E  00DA               	movwf	(??___fldiv+1)^(0+128)
  7116  113F  085A               	movf	(??___fldiv+1)^(0+128),w
  7117  1140  00E9               	movwf	___fldiv@bexp^(0+128)
  7118  1141  1BD7               	btfsc	(___fldiv@b^(0+128)+2),7
  7119  1142  1469               	bsf	___fldiv@bexp^(0+128),0
  7120  1143  0869               	movf	___fldiv@bexp^(0+128),w
  7121  1144  1903               	btfsc	3,2
  7122  1145  2954               	goto	l2896
  7123  1146  0A69               	incf	___fldiv@bexp^(0+128),w
  7124  1147  1D03               	btfss	3,2
  7125  1148  2951               	goto	l2892
  7126  1149  3000               	movlw	0
  7127  114A  00D8               	movwf	(___fldiv@b+3)^(0+128)
  7128  114B  3000               	movlw	0
  7129  114C  00D7               	movwf	(___fldiv@b+2)^(0+128)
  7130  114D  3000               	movlw	0
  7131  114E  00D6               	movwf	(___fldiv@b+1)^(0+128)
  7132  114F  3000               	movlw	0
  7133  1150  00D5               	movwf	___fldiv@b^(0+128)
  7134  1151                     l2892:	
  7135  1151  17D7               	bsf	(___fldiv@b^(0+128)+2),7
  7136  1152  01D8               	clrf	(___fldiv@b^(0+128)+3)
  7137  1153  295C               	goto	l2898
  7138  1154                     l2896:	
  7139  1154  3000               	movlw	0
  7140  1155  00D8               	movwf	(___fldiv@b+3)^(0+128)
  7141  1156  3000               	movlw	0
  7142  1157  00D7               	movwf	(___fldiv@b+2)^(0+128)
  7143  1158  3000               	movlw	0
  7144  1159  00D6               	movwf	(___fldiv@b+1)^(0+128)
  7145  115A  3000               	movlw	0
  7146  115B  00D5               	movwf	___fldiv@b^(0+128)
  7147  115C                     l2898:	
  7148  115C  0854               	movf	(___fldiv@a^(0+128)+3),w
  7149  115D  3980               	andlw	128
  7150  115E  00D9               	movwf	??___fldiv^(0+128)
  7151  115F  0859               	movf	??___fldiv^(0+128),w
  7152  1160  06E2               	xorwf	___fldiv@sign^(0+128),f
  7153  1161  0854               	movf	(___fldiv@a^(0+128)+3),w
  7154  1162  00D9               	movwf	??___fldiv^(0+128)
  7155  1163  0759               	addwf	??___fldiv^(0+128),w
  7156  1164  00DA               	movwf	(??___fldiv+1)^(0+128)
  7157  1165  085A               	movf	(??___fldiv+1)^(0+128),w
  7158  1166  00EA               	movwf	___fldiv@aexp^(0+128)
  7159  1167  1BD3               	btfsc	(___fldiv@a^(0+128)+2),7
  7160  1168  146A               	bsf	___fldiv@aexp^(0+128),0
  7161  1169  086A               	movf	___fldiv@aexp^(0+128),w
  7162  116A  1903               	btfsc	3,2
  7163  116B  297A               	goto	l2916
  7164  116C  0A6A               	incf	___fldiv@aexp^(0+128),w
  7165  116D  1D03               	btfss	3,2
  7166  116E  2977               	goto	l2912
  7167  116F  3000               	movlw	0
  7168  1170  00D4               	movwf	(___fldiv@a+3)^(0+128)
  7169  1171  3000               	movlw	0
  7170  1172  00D3               	movwf	(___fldiv@a+2)^(0+128)
  7171  1173  3000               	movlw	0
  7172  1174  00D2               	movwf	(___fldiv@a+1)^(0+128)
  7173  1175  3000               	movlw	0
  7174  1176  00D1               	movwf	___fldiv@a^(0+128)
  7175  1177                     l2912:	
  7176  1177  17D3               	bsf	(___fldiv@a^(0+128)+2),7
  7177  1178  01D4               	clrf	(___fldiv@a^(0+128)+3)
  7178  1179  2982               	goto	l739
  7179  117A                     l2916:	
  7180  117A  3000               	movlw	0
  7181  117B  00D4               	movwf	(___fldiv@a+3)^(0+128)
  7182  117C  3000               	movlw	0
  7183  117D  00D3               	movwf	(___fldiv@a+2)^(0+128)
  7184  117E  3000               	movlw	0
  7185  117F  00D2               	movwf	(___fldiv@a+1)^(0+128)
  7186  1180  3000               	movlw	0
  7187  1181  00D1               	movwf	___fldiv@a^(0+128)
  7188  1182                     l739:	
  7189  1182  0854               	movf	(___fldiv@a+3)^(0+128),w
  7190  1183  0453               	iorwf	(___fldiv@a+2)^(0+128),w
  7191  1184  0452               	iorwf	(___fldiv@a+1)^(0+128),w
  7192  1185  0451               	iorwf	___fldiv@a^(0+128),w
  7193  1186  1D03               	skipz
  7194  1187  29A1               	goto	l2926
  7195  1188  3000               	movlw	0
  7196  1189  00D8               	movwf	(___fldiv@b+3)^(0+128)
  7197  118A  3000               	movlw	0
  7198  118B  00D7               	movwf	(___fldiv@b+2)^(0+128)
  7199  118C  3000               	movlw	0
  7200  118D  00D6               	movwf	(___fldiv@b+1)^(0+128)
  7201  118E  3000               	movlw	0
  7202  118F  00D5               	movwf	___fldiv@b^(0+128)
  7203  1190  3080               	movlw	128
  7204  1191  04D7               	iorwf	(___fldiv@b^(0+128)+2),f
  7205  1192  307F               	movlw	127
  7206  1193  04D8               	iorwf	((___fldiv@b+1)^(0+128)+2),f
  7207  1194                     L2:	
  7208  1194  0862               	movf	___fldiv@sign^(0+128),w
  7209  1195  00D9               	movwf	??___fldiv^(0+128)
  7210  1196  0859               	movf	??___fldiv^(0+128),w
  7211  1197  04D8               	iorwf	(___fldiv@b^(0+128)+3),f
  7212  1198  0858               	movf	(___fldiv@b+3)^(0+128),w
  7213  1199  00D4               	movwf	(?___fldiv+3)^(0+128)
  7214  119A  0857               	movf	(___fldiv@b+2)^(0+128),w
  7215  119B  00D3               	movwf	(?___fldiv+2)^(0+128)
  7216  119C  0856               	movf	(___fldiv@b+1)^(0+128),w
  7217  119D  00D2               	movwf	(?___fldiv+1)^(0+128)
  7218  119E  0855               	movf	___fldiv@b^(0+128),w
  7219  119F  00D1               	movwf	?___fldiv^(0+128)
  7220  11A0  0008               	return
  7221  11A1                     l2926:	
  7222  11A1  0869               	movf	___fldiv@bexp^(0+128),w
  7223  11A2  1D03               	btfss	3,2
  7224  11A3  29AD               	goto	l2932
  7225  11A4  3000               	movlw	0
  7226  11A5  00D4               	movwf	(?___fldiv+3)^(0+128)
  7227  11A6  3000               	movlw	0
  7228  11A7  00D3               	movwf	(?___fldiv+2)^(0+128)
  7229  11A8  3000               	movlw	0
  7230  11A9  00D2               	movwf	(?___fldiv+1)^(0+128)
  7231  11AA  3000               	movlw	0
  7232  11AB  00D1               	movwf	?___fldiv^(0+128)
  7233  11AC  0008               	return
  7234  11AD                     l2932:	
  7235  11AD  0869               	movf	___fldiv@bexp^(0+128),w
  7236  11AE  00D9               	movwf	??___fldiv^(0+128)
  7237  11AF  01DA               	clrf	(??___fldiv^(0+128)+1)
  7238  11B0  085A               	movf	(??___fldiv+1)^(0+128),w
  7239  11B1  00DC               	movwf	((??___fldiv+2)^(0+128)+1)
  7240  11B2  086A               	movf	___fldiv@aexp^(0+128),w
  7241  11B3  0259               	subwf	??___fldiv^(0+128),w
  7242  11B4  00DB               	movwf	(??___fldiv+2)^(0+128)
  7243  11B5  1C03               	skipc
  7244  11B6  03DC               	decf	((??___fldiv+2)^(0+128)+1),f
  7245  11B7  085B               	movf	(??___fldiv+2)^(0+128),w
  7246  11B8  3E7F               	addlw	127
  7247  11B9  00E3               	movwf	___fldiv@new_exp^(0+128)
  7248  11BA  085C               	movf	(??___fldiv+3)^(0+128),w
  7249  11BB  1803               	skipnc
  7250  11BC  3E01               	addlw	1
  7251  11BD  3E00               	addlw	0
  7252  11BE  00E4               	movwf	(___fldiv@new_exp+1)^(0+128)
  7253  11BF  0858               	movf	(___fldiv@b+3)^(0+128),w
  7254  11C0  00E1               	movwf	(___fldiv@rem+3)^(0+128)
  7255  11C1  0857               	movf	(___fldiv@b+2)^(0+128),w
  7256  11C2  00E0               	movwf	(___fldiv@rem+2)^(0+128)
  7257  11C3  0856               	movf	(___fldiv@b+1)^(0+128),w
  7258  11C4  00DF               	movwf	(___fldiv@rem+1)^(0+128)
  7259  11C5  0855               	movf	___fldiv@b^(0+128),w
  7260  11C6  00DE               	movwf	___fldiv@rem^(0+128)
  7261  11C7  3000               	movlw	0
  7262  11C8  00D8               	movwf	(___fldiv@b+3)^(0+128)
  7263  11C9  3000               	movlw	0
  7264  11CA  00D7               	movwf	(___fldiv@b+2)^(0+128)
  7265  11CB  3000               	movlw	0
  7266  11CC  00D6               	movwf	(___fldiv@b+1)^(0+128)
  7267  11CD  3000               	movlw	0
  7268  11CE  00D5               	movwf	___fldiv@b^(0+128)
  7269  11CF  3000               	movlw	0
  7270  11D0  00E8               	movwf	(___fldiv@grs+3)^(0+128)
  7271  11D1  3000               	movlw	0
  7272  11D2  00E7               	movwf	(___fldiv@grs+2)^(0+128)
  7273  11D3  3000               	movlw	0
  7274  11D4  00E6               	movwf	(___fldiv@grs+1)^(0+128)
  7275  11D5  3000               	movlw	0
  7276  11D6  00E5               	movwf	___fldiv@grs^(0+128)
  7277  11D7  01EA               	clrf	___fldiv@aexp^(0+128)
  7278  11D8                     l2960:	
  7279  11D8  301A               	movlw	26
  7280  11D9  026A               	subwf	___fldiv@aexp^(0+128),w
  7281  11DA  1803               	btfsc	3,0
  7282  11DB  2A20               	goto	l2962
  7283  11DC  086A               	movf	___fldiv@aexp^(0+128),w
  7284  11DD  1903               	btfsc	3,2
  7285  11DE  29FC               	goto	l2952
  7286  11DF  3001               	movlw	1
  7287  11E0  00D9               	movwf	??___fldiv^(0+128)
  7288  11E1                     u4445:	
  7289  11E1  1003               	clrc
  7290  11E2  0DDE               	rlf	___fldiv@rem^(0+128),f
  7291  11E3  0DDF               	rlf	(___fldiv@rem+1)^(0+128),f
  7292  11E4  0DE0               	rlf	(___fldiv@rem+2)^(0+128),f
  7293  11E5  0DE1               	rlf	(___fldiv@rem+3)^(0+128),f
  7294  11E6  0BD9               	decfsz	??___fldiv^(0+128),f
  7295  11E7  29E1               	goto	u4445
  7296  11E8  3001               	movlw	1
  7297  11E9  00D9               	movwf	??___fldiv^(0+128)
  7298  11EA                     u4455:	
  7299  11EA  1003               	clrc
  7300  11EB  0DD5               	rlf	___fldiv@b^(0+128),f
  7301  11EC  0DD6               	rlf	(___fldiv@b+1)^(0+128),f
  7302  11ED  0DD7               	rlf	(___fldiv@b+2)^(0+128),f
  7303  11EE  0DD8               	rlf	(___fldiv@b+3)^(0+128),f
  7304  11EF  0BD9               	decfsz	??___fldiv^(0+128),f
  7305  11F0  29EA               	goto	u4455
  7306  11F1  1BE8               	btfsc	(___fldiv@grs+3)^(0+128),7
  7307  11F2  1455               	bsf	___fldiv@b^(0+128),0
  7308  11F3  3001               	movlw	1
  7309  11F4  00D9               	movwf	??___fldiv^(0+128)
  7310  11F5                     u4475:	
  7311  11F5  1003               	clrc
  7312  11F6  0DE5               	rlf	___fldiv@grs^(0+128),f
  7313  11F7  0DE6               	rlf	(___fldiv@grs+1)^(0+128),f
  7314  11F8  0DE7               	rlf	(___fldiv@grs+2)^(0+128),f
  7315  11F9  0DE8               	rlf	(___fldiv@grs+3)^(0+128),f
  7316  11FA  0BD9               	decfsz	??___fldiv^(0+128),f
  7317  11FB  29F5               	goto	u4475
  7318  11FC                     l2952:	
  7319  11FC  0854               	movf	(___fldiv@a+3)^(0+128),w
  7320  11FD  0261               	subwf	(___fldiv@rem+3)^(0+128),w
  7321  11FE  1D03               	skipz
  7322  11FF  2A0A               	goto	u4485
  7323  1200  0853               	movf	(___fldiv@a+2)^(0+128),w
  7324  1201  0260               	subwf	(___fldiv@rem+2)^(0+128),w
  7325  1202  1D03               	skipz
  7326  1203  2A0A               	goto	u4485
  7327  1204  0852               	movf	(___fldiv@a+1)^(0+128),w
  7328  1205  025F               	subwf	(___fldiv@rem+1)^(0+128),w
  7329  1206  1D03               	skipz
  7330  1207  2A0A               	goto	u4485
  7331  1208  0851               	movf	___fldiv@a^(0+128),w
  7332  1209  025E               	subwf	___fldiv@rem^(0+128),w
  7333  120A                     u4485:	
  7334  120A  1C03               	skipc
  7335  120B  2A1B               	goto	l2958
  7336  120C  1768               	bsf	(___fldiv@grs^(0+128)+3),6
  7337  120D  0851               	movf	___fldiv@a^(0+128),w
  7338  120E  02DE               	subwf	___fldiv@rem^(0+128),f
  7339  120F  0852               	movf	(___fldiv@a+1)^(0+128),w
  7340  1210  1C03               	skipc
  7341  1211  0F52               	incfsz	(___fldiv@a+1)^(0+128),w
  7342  1212  02DF               	subwf	(___fldiv@rem+1)^(0+128),f
  7343  1213  0853               	movf	(___fldiv@a+2)^(0+128),w
  7344  1214  1C03               	skipc
  7345  1215  0F53               	incfsz	(___fldiv@a+2)^(0+128),w
  7346  1216  02E0               	subwf	(___fldiv@rem+2)^(0+128),f
  7347  1217  0854               	movf	(___fldiv@a+3)^(0+128),w
  7348  1218  1C03               	skipc
  7349  1219  0F54               	incfsz	(___fldiv@a+3)^(0+128),w
  7350  121A  02E1               	subwf	(___fldiv@rem+3)^(0+128),f
  7351  121B                     l2958:	
  7352  121B  3001               	movlw	1
  7353  121C  00D9               	movwf	??___fldiv^(0+128)
  7354  121D  0859               	movf	??___fldiv^(0+128),w
  7355  121E  07EA               	addwf	___fldiv@aexp^(0+128),f
  7356  121F  29D8               	goto	l2960
  7357  1220                     l2962:	
  7358  1220  0861               	movf	(___fldiv@rem+3)^(0+128),w
  7359  1221  0460               	iorwf	(___fldiv@rem+2)^(0+128),w
  7360  1222  045F               	iorwf	(___fldiv@rem+1)^(0+128),w
  7361  1223  045E               	iorwf	___fldiv@rem^(0+128),w
  7362  1224  1D03               	btfss	3,2
  7363  1225  1465               	bsf	___fldiv@grs^(0+128),0
  7364  1226                     l2976:	
  7365  1226  1BD7               	btfsc	(___fldiv@b+2)^(0+128),7
  7366  1227  2A43               	goto	l2978
  7367  1228  3001               	movlw	1
  7368  1229  00D9               	movwf	??___fldiv^(0+128)
  7369  122A                     u4515:	
  7370  122A  1003               	clrc
  7371  122B  0DD5               	rlf	___fldiv@b^(0+128),f
  7372  122C  0DD6               	rlf	(___fldiv@b+1)^(0+128),f
  7373  122D  0DD7               	rlf	(___fldiv@b+2)^(0+128),f
  7374  122E  0DD8               	rlf	(___fldiv@b+3)^(0+128),f
  7375  122F  0BD9               	decfsz	??___fldiv^(0+128),f
  7376  1230  2A2A               	goto	u4515
  7377  1231  1BE8               	btfsc	(___fldiv@grs+3)^(0+128),7
  7378  1232  1455               	bsf	___fldiv@b^(0+128),0
  7379  1233  3001               	movlw	1
  7380  1234  00D9               	movwf	??___fldiv^(0+128)
  7381  1235                     u4535:	
  7382  1235  1003               	clrc
  7383  1236  0DE5               	rlf	___fldiv@grs^(0+128),f
  7384  1237  0DE6               	rlf	(___fldiv@grs+1)^(0+128),f
  7385  1238  0DE7               	rlf	(___fldiv@grs+2)^(0+128),f
  7386  1239  0DE8               	rlf	(___fldiv@grs+3)^(0+128),f
  7387  123A  0BD9               	decfsz	??___fldiv^(0+128),f
  7388  123B  2A35               	goto	u4535
  7389  123C  30FF               	movlw	255
  7390  123D  07E3               	addwf	___fldiv@new_exp^(0+128),f
  7391  123E  1803               	skipnc
  7392  123F  0AE4               	incf	(___fldiv@new_exp+1)^(0+128),f
  7393  1240  30FF               	movlw	255
  7394  1241  07E4               	addwf	(___fldiv@new_exp+1)^(0+128),f
  7395  1242  2A26               	goto	l2976
  7396  1243                     l2978:	
  7397  1243  01EA               	clrf	___fldiv@aexp^(0+128)
  7398  1244  1FE8               	btfss	(___fldiv@grs+3)^(0+128),7
  7399  1245  2A5C               	goto	l2988
  7400  1246  30FF               	movlw	255
  7401  1247  0565               	andwf	___fldiv@grs^(0+128),w
  7402  1248  00D9               	movwf	??___fldiv^(0+128)
  7403  1249  30FF               	movlw	255
  7404  124A  0566               	andwf	(___fldiv@grs+1)^(0+128),w
  7405  124B  00DA               	movwf	(??___fldiv^(0+128)+1)
  7406  124C  30FF               	movlw	255
  7407  124D  0567               	andwf	(___fldiv@grs+2)^(0+128),w
  7408  124E  00DB               	movwf	(??___fldiv^(0+128)+2)
  7409  124F  307F               	movlw	127
  7410  1250  0568               	andwf	(___fldiv@grs+3)^(0+128),w
  7411  1251  00DC               	movwf	(??___fldiv^(0+128)+3)
  7412  1252  085C               	movf	(??___fldiv+3)^(0+128),w
  7413  1253  045B               	iorwf	(??___fldiv+2)^(0+128),w
  7414  1254  045A               	iorwf	(??___fldiv+1)^(0+128),w
  7415  1255  0459               	iorwf	??___fldiv^(0+128),w
  7416  1256  1903               	skipnz
  7417  1257  1855               	btfsc	___fldiv@b^(0+128),0
  7418  1258  2A5A               	goto	l2984
  7419  1259  2A5C               	goto	l2988
  7420  125A                     l2984:	
  7421  125A  01EA               	clrf	___fldiv@aexp^(0+128)
  7422  125B  0AEA               	incf	___fldiv@aexp^(0+128),f
  7423  125C                     l2988:	
  7424  125C  086A               	movf	___fldiv@aexp^(0+128),w
  7425  125D  1903               	btfsc	3,2
  7426  125E  2A8E               	goto	l2998
  7427  125F  3001               	movlw	1
  7428  1260  07D5               	addwf	___fldiv@b^(0+128),f
  7429  1261  3000               	movlw	0
  7430  1262  1803               	skipnc
  7431  1263  3001               	movlw	1
  7432  1264  07D6               	addwf	(___fldiv@b+1)^(0+128),f
  7433  1265  3000               	movlw	0
  7434  1266  1803               	skipnc
  7435  1267  3001               	movlw	1
  7436  1268  07D7               	addwf	(___fldiv@b+2)^(0+128),f
  7437  1269  3000               	movlw	0
  7438  126A  1803               	skipnc
  7439  126B  3001               	movlw	1
  7440  126C  07D8               	addwf	(___fldiv@b+3)^(0+128),f
  7441  126D  1C58               	btfss	(___fldiv@b+3)^(0+128),0
  7442  126E  2A8E               	goto	l2998
  7443  126F  0855               	movf	___fldiv@b^(0+128),w
  7444  1270  00D9               	movwf	??___fldiv^(0+128)
  7445  1271  0856               	movf	(___fldiv@b+1)^(0+128),w
  7446  1272  00DA               	movwf	(??___fldiv^(0+128)+1)
  7447  1273  0857               	movf	(___fldiv@b+2)^(0+128),w
  7448  1274  00DB               	movwf	(??___fldiv^(0+128)+2)
  7449  1275  0858               	movf	(___fldiv@b+3)^(0+128),w
  7450  1276  00DC               	movwf	(??___fldiv^(0+128)+3)
  7451  1277  3001               	movlw	1
  7452  1278  00DD               	movwf	(??___fldiv+4)^(0+128)
  7453  1279                     u4605:	
  7454  1279  0D5C               	rlf	(??___fldiv^(0+128)+3),w
  7455  127A  0CDC               	rrf	(??___fldiv^(0+128)+3),f
  7456  127B  0CDB               	rrf	(??___fldiv^(0+128)+2),f
  7457  127C  0CDA               	rrf	(??___fldiv^(0+128)+1),f
  7458  127D  0CD9               	rrf	??___fldiv^(0+128),f
  7459  127E  0BDD               	decfsz	(??___fldiv+4)^(0+128),f
  7460  127F  2A79               	goto	u4605
  7461  1280  085C               	movf	(??___fldiv+3)^(0+128),w
  7462  1281  00D8               	movwf	(___fldiv@b+3)^(0+128)
  7463  1282  085B               	movf	(??___fldiv+2)^(0+128),w
  7464  1283  00D7               	movwf	(___fldiv@b+2)^(0+128)
  7465  1284  085A               	movf	(??___fldiv+1)^(0+128),w
  7466  1285  00D6               	movwf	(___fldiv@b+1)^(0+128)
  7467  1286  0859               	movf	??___fldiv^(0+128),w
  7468  1287  00D5               	movwf	___fldiv@b^(0+128)
  7469  1288  3001               	movlw	1
  7470  1289  07E3               	addwf	___fldiv@new_exp^(0+128),f
  7471  128A  1803               	skipnc
  7472  128B  0AE4               	incf	(___fldiv@new_exp+1)^(0+128),f
  7473  128C  3000               	movlw	0
  7474  128D  07E4               	addwf	(___fldiv@new_exp+1)^(0+128),f
  7475  128E                     l2998:	
  7476  128E  0864               	movf	(___fldiv@new_exp+1)^(0+128),w
  7477  128F  3A80               	xorlw	128
  7478  1290  00FF               	movwf	127
  7479  1291  3080               	movlw	128
  7480  1292  027F               	subwf	127,w
  7481  1293  1D03               	skipz
  7482  1294  2A97               	goto	u4615
  7483  1295  30FF               	movlw	255
  7484  1296  0263               	subwf	___fldiv@new_exp^(0+128),w
  7485  1297                     u4615:	
  7486  1297  1C03               	skipc
  7487  1298  2AA7               	goto	l3002
  7488  1299  30FF               	movlw	255
  7489  129A  1683               	bsf	3,5	;RP0=1, select bank1
  7490  129B  1303               	bcf	3,6	;RP1=0, select bank1
  7491  129C  00E3               	movwf	___fldiv@new_exp^(0+128)
  7492  129D  3000               	movlw	0
  7493  129E  00E4               	movwf	(___fldiv@new_exp^(0+128)+1)
  7494  129F  3000               	movlw	0
  7495  12A0  00D8               	movwf	(___fldiv@b+3)^(0+128)
  7496  12A1  3000               	movlw	0
  7497  12A2  00D7               	movwf	(___fldiv@b+2)^(0+128)
  7498  12A3  3000               	movlw	0
  7499  12A4  00D6               	movwf	(___fldiv@b+1)^(0+128)
  7500  12A5  3000               	movlw	0
  7501  12A6  00D5               	movwf	___fldiv@b^(0+128)
  7502  12A7                     l3002:	
  7503  12A7  1683               	bsf	3,5	;RP0=1, select bank1
  7504  12A8  1303               	bcf	3,6	;RP1=0, select bank1
  7505  12A9  0864               	movf	(___fldiv@new_exp+1)^(0+128),w
  7506  12AA  3A80               	xorlw	128
  7507  12AB  00FF               	movwf	127
  7508  12AC  3080               	movlw	128
  7509  12AD  027F               	subwf	127,w
  7510  12AE  1D03               	skipz
  7511  12AF  2AB2               	goto	u4625
  7512  12B0  3001               	movlw	1
  7513  12B1  0263               	subwf	___fldiv@new_exp^(0+128),w
  7514  12B2                     u4625:	
  7515  12B2  1803               	skipnc
  7516  12B3  2AC1               	goto	l761
  7517  12B4  1683               	bsf	3,5	;RP0=1, select bank1
  7518  12B5  1303               	bcf	3,6	;RP1=0, select bank1
  7519  12B6  01E3               	clrf	___fldiv@new_exp^(0+128)
  7520  12B7  01E4               	clrf	(___fldiv@new_exp+1)^(0+128)
  7521  12B8  3000               	movlw	0
  7522  12B9  00D8               	movwf	(___fldiv@b+3)^(0+128)
  7523  12BA  3000               	movlw	0
  7524  12BB  00D7               	movwf	(___fldiv@b+2)^(0+128)
  7525  12BC  3000               	movlw	0
  7526  12BD  00D6               	movwf	(___fldiv@b+1)^(0+128)
  7527  12BE  3000               	movlw	0
  7528  12BF  00D5               	movwf	___fldiv@b^(0+128)
  7529  12C0  01E2               	clrf	___fldiv@sign^(0+128)
  7530  12C1                     l761:	
  7531  12C1  1683               	bsf	3,5	;RP0=1, select bank1
  7532  12C2  1303               	bcf	3,6	;RP1=0, select bank1
  7533  12C3  0863               	movf	___fldiv@new_exp^(0+128),w
  7534  12C4  00D9               	movwf	??___fldiv^(0+128)
  7535  12C5  0859               	movf	??___fldiv^(0+128),w
  7536  12C6  00E9               	movwf	___fldiv@bexp^(0+128)
  7537  12C7  1C69               	btfss	___fldiv@bexp^(0+128),0
  7538  12C8  2ACB               	goto	l3014
  7539  12C9  17D7               	bsf	(___fldiv@b^(0+128)+2),7
  7540  12CA  2ACF               	goto	l763
  7541  12CB                     l3014:	
  7542  12CB  307F               	movlw	127
  7543  12CC  00D9               	movwf	??___fldiv^(0+128)
  7544  12CD  0859               	movf	??___fldiv^(0+128),w
  7545  12CE  05D7               	andwf	(___fldiv@b^(0+128)+2),f
  7546  12CF                     l763:	
  7547  12CF  0869               	movf	___fldiv@bexp^(0+128),w
  7548  12D0  00D9               	movwf	??___fldiv^(0+128)
  7549  12D1  1003               	clrc
  7550  12D2  0C59               	rrf	??___fldiv^(0+128),w
  7551  12D3  00DA               	movwf	(??___fldiv+1)^(0+128)
  7552  12D4  085A               	movf	(??___fldiv+1)^(0+128),w
  7553  12D5  00D8               	movwf	(___fldiv@b^(0+128)+3)
  7554  12D6  2994               	goto	L2
  7555  12D7                     __end_of___fldiv:	
  7556                           
  7557                           	psect	text15
  7558  1A4A                     __ptext15:	
  7559 ;; *************** function _Lcd_Write_String *****************
  7560 ;; Defined at:
  7561 ;;		line 110 in file "lcd_v2.c"
  7562 ;; Parameters:    Size  Location     Type
  7563 ;;  a               1    wreg     PTR unsigned char 
  7564 ;;		 -> STR_6(16), STR_5(12), STR_4(12), STR_3(12), 
  7565 ;;		 -> STR_2(15), STR_1(13), 
  7566 ;; Auto vars:     Size  Location     Type
  7567 ;;  a               1    8[BANK1 ] PTR unsigned char 
  7568 ;;		 -> STR_6(16), STR_5(12), STR_4(12), STR_3(12), 
  7569 ;;		 -> STR_2(15), STR_1(13), 
  7570 ;;  i               2    6[BANK1 ] int 
  7571 ;; Return value:  Size  Location     Type
  7572 ;;                  1    wreg      void 
  7573 ;; Registers used:
  7574 ;;		wreg, fsr0l, fsr0h, status,2, status,0, pclath, cstack
  7575 ;; Tracked objects:
  7576 ;;		On entry : 0/0
  7577 ;;		On exit  : 0/0
  7578 ;;		Unchanged: 0/0
  7579 ;; Data sizes:     COMMON   BANK0   BANK1   BANK3   BANK2
  7580 ;;      Params:         0       0       0       0       0
  7581 ;;      Locals:         0       0       3       0       0
  7582 ;;      Temps:          0       0       0       0       0
  7583 ;;      Totals:         0       0       3       0       0
  7584 ;;Total ram usage:        3 bytes
  7585 ;; Hardware stack levels used:    1
  7586 ;; Hardware stack levels required when called:    5
  7587 ;; This function calls:
  7588 ;;		_Lcd_Write_Char
  7589 ;; This function is called by:
  7590 ;;		_main
  7591 ;; This function uses a non-reentrant model
  7592 ;;
  7593                           
  7594                           
  7595                           ;psect for function _Lcd_Write_String
  7596  1A4A                     _Lcd_Write_String:	
  7597                           
  7598                           ;incstack = 0
  7599                           ; Regs used in _Lcd_Write_String: [wreg-fsr0h+status,2+status,0+pclath+cstack]
  7600                           ;Lcd_Write_String@a stored from wreg
  7601  1A4A  1683               	bsf	3,5	;RP0=1, select bank1
  7602  1A4B  1303               	bcf	3,6	;RP1=0, select bank1
  7603  1A4C  00A8               	movwf	Lcd_Write_String@a^(0+128)
  7604                           
  7605                           ;lcd_v2.c: 110: void Lcd_Write_String(char *a);lcd_v2.c: 111: {;lcd_v2.c: 112:   int i;;
      +                          lcd_v2.c: 113:   for(i=0;a[i]!='\0';i++)
  7606  1A4D  01A6               	clrf	Lcd_Write_String@i^(0+128)
  7607  1A4E  01A7               	clrf	(Lcd_Write_String@i+1)^(0+128)
  7608  1A4F                     l3460:	
  7609  1A4F  0826               	movf	Lcd_Write_String@i^(0+128),w
  7610  1A50  0728               	addwf	Lcd_Write_String@a^(0+128),w
  7611  1A51  0084               	movwf	4
  7612  1A52  160A  158A  2000  160A  158A  	fcall	stringdir
  7613  1A57  3A00               	xorlw	0
  7614  1A58  1903               	btfsc	3,2
  7615  1A59  0008               	return
  7616                           
  7617                           ;lcd_v2.c: 114:   Lcd_Write_Char(a[i]);
  7618  1A5A  0826               	movf	Lcd_Write_String@i^(0+128),w
  7619  1A5B  0728               	addwf	Lcd_Write_String@a^(0+128),w
  7620  1A5C  0084               	movwf	4
  7621  1A5D  160A  158A  2000  160A  158A  	fcall	stringdir
  7622  1A62  160A  158A  23DA  160A  158A  	fcall	_Lcd_Write_Char
  7623  1A67  3001               	movlw	1
  7624  1A68  1683               	bsf	3,5	;RP0=1, select bank1
  7625  1A69  1303               	bcf	3,6	;RP1=0, select bank1
  7626  1A6A  07A6               	addwf	Lcd_Write_String@i^(0+128),f
  7627  1A6B  1803               	skipnc
  7628  1A6C  0AA7               	incf	(Lcd_Write_String@i+1)^(0+128),f
  7629  1A6D  3000               	movlw	0
  7630  1A6E  07A7               	addwf	(Lcd_Write_String@i+1)^(0+128),f
  7631  1A6F  2A4F               	goto	l3460
  7632  1A70                     __end_of_Lcd_Write_String:	
  7633                           
  7634                           	psect	text16
  7635  1C9E                     __ptext16:	
  7636 ;; *************** function _Lcd_Init *****************
  7637 ;; Defined at:
  7638 ;;		line 70 in file "lcd_v2.c"
  7639 ;; Parameters:    Size  Location     Type
  7640 ;;		None
  7641 ;; Auto vars:     Size  Location     Type
  7642 ;;		None
  7643 ;; Return value:  Size  Location     Type
  7644 ;;                  1    wreg      void 
  7645 ;; Registers used:
  7646 ;;		wreg, status,2, status,0, pclath, cstack
  7647 ;; Tracked objects:
  7648 ;;		On entry : 0/0
  7649 ;;		On exit  : 0/0
  7650 ;;		Unchanged: 0/0
  7651 ;; Data sizes:     COMMON   BANK0   BANK1   BANK3   BANK2
  7652 ;;      Params:         0       0       0       0       0
  7653 ;;      Locals:         0       0       0       0       0
  7654 ;;      Temps:          0       0       2       0       0
  7655 ;;      Totals:         0       0       2       0       0
  7656 ;;Total ram usage:        2 bytes
  7657 ;; Hardware stack levels used:    1
  7658 ;; Hardware stack levels required when called:    5
  7659 ;; This function calls:
  7660 ;;		_Lcd_Cmd
  7661 ;;		_Lcd_Port
  7662 ;; This function is called by:
  7663 ;;		_main
  7664 ;; This function uses a non-reentrant model
  7665 ;;
  7666                           
  7667                           
  7668                           ;psect for function _Lcd_Init
  7669  1C9E                     _Lcd_Init:	
  7670                           
  7671                           ;lcd_v2.c: 73:   TRISD = 0x00;
  7672                           
  7673                           ;incstack = 0
  7674                           ; Regs used in _Lcd_Init: [wreg+status,2+status,0+pclath+cstack]
  7675  1C9E  1683               	bsf	3,5	;RP0=1, select bank1
  7676  1C9F  1303               	bcf	3,6	;RP1=0, select bank1
  7677  1CA0  0188               	clrf	8	;volatile
  7678                           
  7679                           ;lcd_v2.c: 74:   TRISD0 = 0;
  7680  1CA1  1008               	bcf	8,0	;volatile
  7681                           
  7682                           ;lcd_v2.c: 75:   TRISD1 = 0;
  7683  1CA2  1088               	bcf	8,1	;volatile
  7684                           
  7685                           ;lcd_v2.c: 77:   Lcd_Port(0x00);
  7686  1CA3  3000               	movlw	0
  7687  1CA4  160A  158A  2270  160A  158A  	fcall	_Lcd_Port
  7688                           
  7689                           ;lcd_v2.c: 78:   _delay((unsigned long)((30)*(20000000/4000.0)));
  7690  1CA9  30C3               	movlw	195
  7691  1CAA  1683               	bsf	3,5	;RP0=1, select bank1
  7692  1CAB  1303               	bcf	3,6	;RP1=0, select bank1
  7693  1CAC  00A5               	movwf	(??_Lcd_Init^(0+128)+1)
  7694  1CAD  30CC               	movlw	204
  7695  1CAE  00A4               	movwf	??_Lcd_Init^(0+128)
  7696  1CAF                     u6847:	
  7697  1CAF  0BA4               	decfsz	??_Lcd_Init^(0+128),f
  7698  1CB0  2CAF               	goto	u6847
  7699  1CB1  0BA5               	decfsz	(??_Lcd_Init^(0+128)+1),f
  7700  1CB2  2CAF               	goto	u6847
  7701  1CB3  0000               	nop
  7702                           
  7703                           ;lcd_v2.c: 79:   _delay((unsigned long)((500)*(20000000/4000000.0)));
  7704  1CB4  3004               	movlw	4
  7705  1CB5  1683               	bsf	3,5	;RP0=1, select bank1
  7706  1CB6  1303               	bcf	3,6	;RP1=0, select bank1
  7707  1CB7  00A5               	movwf	(??_Lcd_Init^(0+128)+1)
  7708  1CB8  303D               	movlw	61
  7709  1CB9  00A4               	movwf	??_Lcd_Init^(0+128)
  7710  1CBA                     u6857:	
  7711  1CBA  0BA4               	decfsz	??_Lcd_Init^(0+128),f
  7712  1CBB  2CBA               	goto	u6857
  7713  1CBC  0BA5               	decfsz	(??_Lcd_Init^(0+128)+1),f
  7714  1CBD  2CBA               	goto	u6857
  7715                           
  7716                           ;lcd_v2.c: 80:   Lcd_Cmd(0x03);
  7717  1CBE  3003               	movlw	3
  7718  1CBF  160A  158A  21C2  160A  158A  	fcall	_Lcd_Cmd
  7719                           
  7720                           ;lcd_v2.c: 81:   _delay((unsigned long)((5)*(20000000/4000.0)));
  7721  1CC4  3021               	movlw	33
  7722  1CC5  1683               	bsf	3,5	;RP0=1, select bank1
  7723  1CC6  1303               	bcf	3,6	;RP1=0, select bank1
  7724  1CC7  00A5               	movwf	(??_Lcd_Init^(0+128)+1)
  7725  1CC8  3075               	movlw	117
  7726  1CC9  00A4               	movwf	??_Lcd_Init^(0+128)
  7727  1CCA                     u6867:	
  7728  1CCA  0BA4               	decfsz	??_Lcd_Init^(0+128),f
  7729  1CCB  2CCA               	goto	u6867
  7730  1CCC  0BA5               	decfsz	(??_Lcd_Init^(0+128)+1),f
  7731  1CCD  2CCA               	goto	u6867
  7732  1CCE  2CCF               	nop2
  7733                           
  7734                           ;lcd_v2.c: 82:   Lcd_Cmd(0x03);
  7735  1CCF  3003               	movlw	3
  7736  1CD0  160A  158A  21C2  160A  158A  	fcall	_Lcd_Cmd
  7737                           
  7738                           ;lcd_v2.c: 83:   _delay((unsigned long)((150)*(20000000/4000000.0)));
  7739  1CD5  30F9               	movlw	249
  7740  1CD6  1683               	bsf	3,5	;RP0=1, select bank1
  7741  1CD7  1303               	bcf	3,6	;RP1=0, select bank1
  7742  1CD8  00A4               	movwf	??_Lcd_Init^(0+128)
  7743  1CD9                     u6877:	
  7744  1CD9  0BA4               	decfsz	??_Lcd_Init^(0+128),f
  7745  1CDA  2CD9               	goto	u6877
  7746                           
  7747                           ;lcd_v2.c: 84:   Lcd_Cmd(0x03);
  7748  1CDB  3003               	movlw	3
  7749  1CDC  160A  158A  21C2  160A  158A  	fcall	_Lcd_Cmd
  7750                           
  7751                           ;lcd_v2.c: 85:   Lcd_Cmd(0x02);
  7752  1CE1  3002               	movlw	2
  7753  1CE2  160A  158A  21C2  160A  158A  	fcall	_Lcd_Cmd
  7754                           
  7755                           ;lcd_v2.c: 86:   Lcd_Cmd(0x02);
  7756  1CE7  3002               	movlw	2
  7757  1CE8  160A  158A  21C2  160A  158A  	fcall	_Lcd_Cmd
  7758                           
  7759                           ;lcd_v2.c: 87:   Lcd_Cmd(0x08);
  7760  1CED  3008               	movlw	8
  7761  1CEE  160A  158A  21C2  160A  158A  	fcall	_Lcd_Cmd
  7762                           
  7763                           ;lcd_v2.c: 88:   Lcd_Cmd(0x00);
  7764  1CF3  3000               	movlw	0
  7765  1CF4  160A  158A  21C2  160A  158A  	fcall	_Lcd_Cmd
  7766                           
  7767                           ;lcd_v2.c: 89:   Lcd_Cmd(0x0C);
  7768  1CF9  300C               	movlw	12
  7769  1CFA  160A  158A  21C2  160A  158A  	fcall	_Lcd_Cmd
  7770                           
  7771                           ;lcd_v2.c: 90:   Lcd_Cmd(0x00);
  7772  1CFF  3000               	movlw	0
  7773  1D00  160A  158A  21C2  160A  158A  	fcall	_Lcd_Cmd
  7774                           
  7775                           ;lcd_v2.c: 91:   Lcd_Cmd(0x06);
  7776  1D05  3006               	movlw	6
  7777  1D06  160A  158A  21C2   	fcall	_Lcd_Cmd
  7778  1D09  0008               	return
  7779  1D0A                     __end_of_Lcd_Init:	
  7780                           
  7781                           	psect	text17
  7782  198F                     __ptext17:	
  7783 ;; *************** function _Lcd_Clear *****************
  7784 ;; Defined at:
  7785 ;;		line 45 in file "lcd_v2.c"
  7786 ;; Parameters:    Size  Location     Type
  7787 ;;		None
  7788 ;; Auto vars:     Size  Location     Type
  7789 ;;		None
  7790 ;; Return value:  Size  Location     Type
  7791 ;;                  1    wreg      void 
  7792 ;; Registers used:
  7793 ;;		wreg, status,2, status,0, pclath, cstack
  7794 ;; Tracked objects:
  7795 ;;		On entry : 0/0
  7796 ;;		On exit  : 0/0
  7797 ;;		Unchanged: 0/0
  7798 ;; Data sizes:     COMMON   BANK0   BANK1   BANK3   BANK2
  7799 ;;      Params:         0       0       0       0       0
  7800 ;;      Locals:         0       0       0       0       0
  7801 ;;      Temps:          0       0       0       0       0
  7802 ;;      Totals:         0       0       0       0       0
  7803 ;;Total ram usage:        0 bytes
  7804 ;; Hardware stack levels used:    1
  7805 ;; Hardware stack levels required when called:    5
  7806 ;; This function calls:
  7807 ;;		_Lcd_Cmd
  7808 ;; This function is called by:
  7809 ;;		_main
  7810 ;; This function uses a non-reentrant model
  7811 ;;
  7812                           
  7813                           
  7814                           ;psect for function _Lcd_Clear
  7815  198F                     _Lcd_Clear:	
  7816                           
  7817                           ;lcd_v2.c: 47:   Lcd_Cmd(0);
  7818                           
  7819                           ;incstack = 0
  7820                           ; Regs used in _Lcd_Clear: [wreg+status,2+status,0+pclath+cstack]
  7821  198F  3000               	movlw	0
  7822  1990  160A  158A  21C2  160A  158A  	fcall	_Lcd_Cmd
  7823                           
  7824                           ;lcd_v2.c: 48:   Lcd_Cmd(1);
  7825  1995  3001               	movlw	1
  7826  1996  160A  158A  21C2   	fcall	_Lcd_Cmd
  7827  1999  0008               	return
  7828  199A                     __end_of_Lcd_Clear:	
  7829                           
  7830                           	psect	text18
  7831  1988                     __ptext18:	
  7832 ;; *************** function _Interrupt_Init *****************
  7833 ;; Defined at:
  7834 ;;		line 276 in file "deadline.c"
  7835 ;; Parameters:    Size  Location     Type
  7836 ;;		None
  7837 ;; Auto vars:     Size  Location     Type
  7838 ;;		None
  7839 ;; Return value:  Size  Location     Type
  7840 ;;                  1    wreg      void 
  7841 ;; Registers used:
  7842 ;;		None
  7843 ;; Tracked objects:
  7844 ;;		On entry : 0/0
  7845 ;;		On exit  : 0/0
  7846 ;;		Unchanged: 0/0
  7847 ;; Data sizes:     COMMON   BANK0   BANK1   BANK3   BANK2
  7848 ;;      Params:         0       0       0       0       0
  7849 ;;      Locals:         0       0       0       0       0
  7850 ;;      Temps:          0       0       0       0       0
  7851 ;;      Totals:         0       0       0       0       0
  7852 ;;Total ram usage:        0 bytes
  7853 ;; Hardware stack levels used:    1
  7854 ;; Hardware stack levels required when called:    3
  7855 ;; This function calls:
  7856 ;;		Nothing
  7857 ;; This function is called by:
  7858 ;;		_main
  7859 ;; This function uses a non-reentrant model
  7860 ;;
  7861                           
  7862                           
  7863                           ;psect for function _Interrupt_Init
  7864  1988                     _Interrupt_Init:	
  7865                           
  7866                           ;deadline.c: 278:     TRISB0 = 1;
  7867                           
  7868                           ;incstack = 0
  7869                           ; Regs used in _Interrupt_Init: []
  7870  1988  1683               	bsf	3,5	;RP0=1, select bank1
  7871  1989  1303               	bcf	3,6	;RP1=0, select bank1
  7872  198A  1406               	bsf	6,0	;volatile
  7873                           
  7874                           ;deadline.c: 280:     INTEDG = 1;
  7875  198B  1701               	bsf	1,6	;volatile
  7876                           
  7877                           ;deadline.c: 282:     GIE = 1;
  7878  198C  178B               	bsf	11,7	;volatile
  7879                           
  7880                           ;deadline.c: 283:     PEIE = 1;
  7881  198D  170B               	bsf	11,6	;volatile
  7882  198E  0008               	return
  7883  198F                     __end_of_Interrupt_Init:	
  7884                           
  7885                           	psect	text19
  7886  076A                     __ptext19:	
  7887 ;; *************** function _Display *****************
  7888 ;; Defined at:
  7889 ;;		line 216 in file "deadline.c"
  7890 ;; Parameters:    Size  Location     Type
  7891 ;;  a               1    wreg     unsigned char 
  7892 ;;  b               1   16[BANK1 ] unsigned char 
  7893 ;; Auto vars:     Size  Location     Type
  7894 ;;  a               1   19[BANK1 ] unsigned char 
  7895 ;; Return value:  Size  Location     Type
  7896 ;;                  1    wreg      void 
  7897 ;; Registers used:
  7898 ;;		wreg, status,2, status,0, pclath, cstack
  7899 ;; Tracked objects:
  7900 ;;		On entry : 0/0
  7901 ;;		On exit  : 0/0
  7902 ;;		Unchanged: 0/0
  7903 ;; Data sizes:     COMMON   BANK0   BANK1   BANK3   BANK2
  7904 ;;      Params:         0       0       1       0       0
  7905 ;;      Locals:         0       0       1       0       0
  7906 ;;      Temps:          0       0       2       0       0
  7907 ;;      Totals:         0       0       4       0       0
  7908 ;;Total ram usage:        4 bytes
  7909 ;; Hardware stack levels used:    1
  7910 ;; Hardware stack levels required when called:    6
  7911 ;; This function calls:
  7912 ;;		_Lcd_Set_Cursor
  7913 ;;		_Lcd_Write_Char
  7914 ;;		___awdiv
  7915 ;;		___awmod
  7916 ;; This function is called by:
  7917 ;;		_main
  7918 ;; This function uses a non-reentrant model
  7919 ;;
  7920                           
  7921                           
  7922                           ;psect for function _Display
  7923  076A                     _Display:	
  7924                           
  7925                           ;incstack = 0
  7926                           ; Regs used in _Display: [wreg+status,2+status,0+pclath+cstack]
  7927                           ;Display@a stored from wreg
  7928  076A  1683               	bsf	3,5	;RP0=1, select bank1
  7929  076B  1303               	bcf	3,6	;RP1=0, select bank1
  7930  076C  00B3               	movwf	Display@a^(0+128)
  7931                           
  7932                           ;deadline.c: 216: void Display(unsigned char a, unsigned char b);deadline.c: 217: {;dead
      +                          line.c: 218:     Lcd_Set_Cursor(1,7);
  7933  076D  3007               	movlw	7
  7934  076E  00B1               	movwf	??_Display^(0+128)
  7935  076F  0831               	movf	??_Display^(0+128),w
  7936  0770  00A4               	movwf	Lcd_Set_Cursor@c^(0+128)
  7937  0771  3001               	movlw	1
  7938  0772  160A  158A  232C  120A  118A  	fcall	_Lcd_Set_Cursor
  7939                           
  7940                           ;deadline.c: 219:     Lcd_Write_Char(a/10+48);
  7941  0777  300A               	movlw	10
  7942  0778  1683               	bsf	3,5	;RP0=1, select bank1
  7943  0779  1303               	bcf	3,6	;RP1=0, select bank1
  7944  077A  00A7               	movwf	___awdiv@divisor^(0+128)
  7945  077B  3000               	movlw	0
  7946  077C  00A8               	movwf	(___awdiv@divisor^(0+128)+1)
  7947  077D  0833               	movf	Display@a^(0+128),w
  7948  077E  00B1               	movwf	??_Display^(0+128)
  7949  077F  01B2               	clrf	(??_Display^(0+128)+1)
  7950  0780  0831               	movf	??_Display^(0+128),w
  7951  0781  00A9               	movwf	___awdiv@dividend^(0+128)
  7952  0782  0832               	movf	(??_Display+1)^(0+128),w
  7953  0783  00AA               	movwf	(___awdiv@dividend+1)^(0+128)
  7954  0784  160A  158A  237F  120A  118A  	fcall	___awdiv
  7955  0789  1683               	bsf	3,5	;RP0=1, select bank1
  7956  078A  1303               	bcf	3,6	;RP1=0, select bank1
  7957  078B  0827               	movf	?___awdiv^(0+128),w
  7958  078C  3E30               	addlw	48
  7959  078D  160A  158A  23DA  120A  118A  	fcall	_Lcd_Write_Char
  7960                           
  7961                           ;deadline.c: 220:     Lcd_Write_Char(a%10+48);
  7962  0792  300A               	movlw	10
  7963  0793  1683               	bsf	3,5	;RP0=1, select bank1
  7964  0794  1303               	bcf	3,6	;RP1=0, select bank1
  7965  0795  00A0               	movwf	___awmod@divisor^(0+128)
  7966  0796  3000               	movlw	0
  7967  0797  00A1               	movwf	(___awmod@divisor^(0+128)+1)
  7968  0798  0833               	movf	Display@a^(0+128),w
  7969  0799  00B1               	movwf	??_Display^(0+128)
  7970  079A  01B2               	clrf	(??_Display^(0+128)+1)
  7971  079B  0831               	movf	??_Display^(0+128),w
  7972  079C  00A2               	movwf	___awmod@dividend^(0+128)
  7973  079D  0832               	movf	(??_Display+1)^(0+128),w
  7974  079E  00A3               	movwf	(___awmod@dividend+1)^(0+128)
  7975  079F  160A  158A  22DF  120A  118A  	fcall	___awmod
  7976  07A4  1683               	bsf	3,5	;RP0=1, select bank1
  7977  07A5  1303               	bcf	3,6	;RP1=0, select bank1
  7978  07A6  0820               	movf	?___awmod^(0+128),w
  7979  07A7  3E30               	addlw	48
  7980  07A8  160A  158A  23DA  120A  118A  	fcall	_Lcd_Write_Char
  7981                           
  7982                           ;deadline.c: 222:     Lcd_Set_Cursor(2,11);
  7983  07AD  300B               	movlw	11
  7984  07AE  1683               	bsf	3,5	;RP0=1, select bank1
  7985  07AF  1303               	bcf	3,6	;RP1=0, select bank1
  7986  07B0  00B1               	movwf	??_Display^(0+128)
  7987  07B1  0831               	movf	??_Display^(0+128),w
  7988  07B2  00A4               	movwf	Lcd_Set_Cursor@c^(0+128)
  7989  07B3  3002               	movlw	2
  7990  07B4  160A  158A  232C  120A  118A  	fcall	_Lcd_Set_Cursor
  7991                           
  7992                           ;deadline.c: 223:     Lcd_Write_Char(b%100/10+48);
  7993  07B9  300A               	movlw	10
  7994  07BA  1683               	bsf	3,5	;RP0=1, select bank1
  7995  07BB  1303               	bcf	3,6	;RP1=0, select bank1
  7996  07BC  00A7               	movwf	___awdiv@divisor^(0+128)
  7997  07BD  3000               	movlw	0
  7998  07BE  00A8               	movwf	(___awdiv@divisor^(0+128)+1)
  7999  07BF  0830               	movf	Display@b^(0+128),w
  8000  07C0  00B1               	movwf	??_Display^(0+128)
  8001  07C1  01B2               	clrf	(??_Display^(0+128)+1)
  8002  07C2  0831               	movf	??_Display^(0+128),w
  8003  07C3  00A2               	movwf	___awmod@dividend^(0+128)
  8004  07C4  0832               	movf	(??_Display+1)^(0+128),w
  8005  07C5  00A3               	movwf	(___awmod@dividend+1)^(0+128)
  8006  07C6  3064               	movlw	100
  8007  07C7  00A0               	movwf	___awmod@divisor^(0+128)
  8008  07C8  3000               	movlw	0
  8009  07C9  00A1               	movwf	(___awmod@divisor^(0+128)+1)
  8010  07CA  160A  158A  22DF  120A  118A  	fcall	___awmod
  8011  07CF  1683               	bsf	3,5	;RP0=1, select bank1
  8012  07D0  1303               	bcf	3,6	;RP1=0, select bank1
  8013  07D1  0821               	movf	(?___awmod+1)^(0+128),w
  8014  07D2  00AA               	movwf	(___awdiv@dividend+1)^(0+128)
  8015  07D3  0820               	movf	?___awmod^(0+128),w
  8016  07D4  00A9               	movwf	___awdiv@dividend^(0+128)
  8017  07D5  160A  158A  237F  120A  118A  	fcall	___awdiv
  8018  07DA  1683               	bsf	3,5	;RP0=1, select bank1
  8019  07DB  1303               	bcf	3,6	;RP1=0, select bank1
  8020  07DC  0827               	movf	?___awdiv^(0+128),w
  8021  07DD  3E30               	addlw	48
  8022  07DE  160A  158A  23DA  120A  118A  	fcall	_Lcd_Write_Char
  8023                           
  8024                           ;deadline.c: 224:     Lcd_Write_Char(b%10+48);
  8025  07E3  300A               	movlw	10
  8026  07E4  1683               	bsf	3,5	;RP0=1, select bank1
  8027  07E5  1303               	bcf	3,6	;RP1=0, select bank1
  8028  07E6  00A0               	movwf	___awmod@divisor^(0+128)
  8029  07E7  3000               	movlw	0
  8030  07E8  00A1               	movwf	(___awmod@divisor^(0+128)+1)
  8031  07E9  0830               	movf	Display@b^(0+128),w
  8032  07EA  00B1               	movwf	??_Display^(0+128)
  8033  07EB  01B2               	clrf	(??_Display^(0+128)+1)
  8034  07EC  0831               	movf	??_Display^(0+128),w
  8035  07ED  00A2               	movwf	___awmod@dividend^(0+128)
  8036  07EE  0832               	movf	(??_Display+1)^(0+128),w
  8037  07EF  00A3               	movwf	(___awmod@dividend+1)^(0+128)
  8038  07F0  160A  158A  22DF  120A  118A  	fcall	___awmod
  8039  07F5  1683               	bsf	3,5	;RP0=1, select bank1
  8040  07F6  1303               	bcf	3,6	;RP1=0, select bank1
  8041  07F7  0820               	movf	?___awmod^(0+128),w
  8042  07F8  3E30               	addlw	48
  8043  07F9  160A  158A  23DA   	fcall	_Lcd_Write_Char
  8044  07FC  0008               	return
  8045  07FD                     __end_of_Display:	
  8046                           
  8047                           	psect	text20
  8048  1ADF                     __ptext20:	
  8049 ;; *************** function ___awmod *****************
  8050 ;; Defined at:
  8051 ;;		line 5 in file "D:\PROGRAM\MPLABX v5.20\XC8 v2.05\pic\sources\c90\common\awmod.c"
  8052 ;; Parameters:    Size  Location     Type
  8053 ;;  divisor         2    0[BANK1 ] int 
  8054 ;;  dividend        2    2[BANK1 ] int 
  8055 ;; Auto vars:     Size  Location     Type
  8056 ;;  sign            1    6[BANK1 ] unsigned char 
  8057 ;;  counter         1    5[BANK1 ] unsigned char 
  8058 ;; Return value:  Size  Location     Type
  8059 ;;                  2    0[BANK1 ] int 
  8060 ;; Registers used:
  8061 ;;		wreg, status,2, status,0
  8062 ;; Tracked objects:
  8063 ;;		On entry : 0/0
  8064 ;;		On exit  : 0/0
  8065 ;;		Unchanged: 0/0
  8066 ;; Data sizes:     COMMON   BANK0   BANK1   BANK3   BANK2
  8067 ;;      Params:         0       0       4       0       0
  8068 ;;      Locals:         0       0       2       0       0
  8069 ;;      Temps:          0       0       1       0       0
  8070 ;;      Totals:         0       0       7       0       0
  8071 ;;Total ram usage:        7 bytes
  8072 ;; Hardware stack levels used:    1
  8073 ;; Hardware stack levels required when called:    3
  8074 ;; This function calls:
  8075 ;;		Nothing
  8076 ;; This function is called by:
  8077 ;;		_main
  8078 ;;		_Display
  8079 ;; This function uses a non-reentrant model
  8080 ;;
  8081                           
  8082                           
  8083                           ;psect for function ___awmod
  8084  1ADF                     ___awmod:	
  8085                           
  8086                           ;incstack = 0
  8087                           ; Regs used in ___awmod: [wreg+status,2+status,0]
  8088  1ADF  1683               	bsf	3,5	;RP0=1, select bank1
  8089  1AE0  1303               	bcf	3,6	;RP1=0, select bank1
  8090  1AE1  01A6               	clrf	___awmod@sign^(0+128)
  8091  1AE2  1FA3               	btfss	(___awmod@dividend+1)^(0+128),7
  8092  1AE3  2AEB               	goto	l2806
  8093  1AE4  09A2               	comf	___awmod@dividend^(0+128),f
  8094  1AE5  09A3               	comf	(___awmod@dividend+1)^(0+128),f
  8095  1AE6  0AA2               	incf	___awmod@dividend^(0+128),f
  8096  1AE7  1903               	skipnz
  8097  1AE8  0AA3               	incf	(___awmod@dividend+1)^(0+128),f
  8098  1AE9  01A6               	clrf	___awmod@sign^(0+128)
  8099  1AEA  0AA6               	incf	___awmod@sign^(0+128),f
  8100  1AEB                     l2806:	
  8101  1AEB  1FA1               	btfss	(___awmod@divisor+1)^(0+128),7
  8102  1AEC  2AF2               	goto	l2810
  8103  1AED  09A0               	comf	___awmod@divisor^(0+128),f
  8104  1AEE  09A1               	comf	(___awmod@divisor+1)^(0+128),f
  8105  1AEF  0AA0               	incf	___awmod@divisor^(0+128),f
  8106  1AF0  1903               	skipnz
  8107  1AF1  0AA1               	incf	(___awmod@divisor+1)^(0+128),f
  8108  1AF2                     l2810:	
  8109  1AF2  0820               	movf	___awmod@divisor^(0+128),w
  8110  1AF3  0421               	iorwf	(___awmod@divisor+1)^(0+128),w
  8111  1AF4  1903               	btfsc	3,2
  8112  1AF5  2B1F               	goto	l2828
  8113  1AF6  01A5               	clrf	___awmod@counter^(0+128)
  8114  1AF7  0AA5               	incf	___awmod@counter^(0+128),f
  8115  1AF8                     l2818:	
  8116  1AF8  1BA1               	btfsc	(___awmod@divisor+1)^(0+128),7
  8117  1AF9  2B06               	goto	l2820
  8118  1AFA  3001               	movlw	1
  8119  1AFB                     u4195:	
  8120  1AFB  1003               	clrc
  8121  1AFC  0DA0               	rlf	___awmod@divisor^(0+128),f
  8122  1AFD  0DA1               	rlf	(___awmod@divisor+1)^(0+128),f
  8123  1AFE  3EFF               	addlw	-1
  8124  1AFF  1D03               	skipz
  8125  1B00  2AFB               	goto	u4195
  8126  1B01  3001               	movlw	1
  8127  1B02  00A4               	movwf	??___awmod^(0+128)
  8128  1B03  0824               	movf	??___awmod^(0+128),w
  8129  1B04  07A5               	addwf	___awmod@counter^(0+128),f
  8130  1B05  2AF8               	goto	l2818
  8131  1B06                     l2820:	
  8132  1B06  0821               	movf	(___awmod@divisor+1)^(0+128),w
  8133  1B07  0223               	subwf	(___awmod@dividend+1)^(0+128),w
  8134  1B08  1D03               	skipz
  8135  1B09  2B0C               	goto	u4215
  8136  1B0A  0820               	movf	___awmod@divisor^(0+128),w
  8137  1B0B  0222               	subwf	___awmod@dividend^(0+128),w
  8138  1B0C                     u4215:	
  8139  1B0C  1C03               	skipc
  8140  1B0D  2B14               	goto	l2824
  8141  1B0E  0820               	movf	___awmod@divisor^(0+128),w
  8142  1B0F  02A2               	subwf	___awmod@dividend^(0+128),f
  8143  1B10  0821               	movf	(___awmod@divisor+1)^(0+128),w
  8144  1B11  1C03               	skipc
  8145  1B12  03A3               	decf	(___awmod@dividend+1)^(0+128),f
  8146  1B13  02A3               	subwf	(___awmod@dividend+1)^(0+128),f
  8147  1B14                     l2824:	
  8148  1B14  3001               	movlw	1
  8149  1B15                     u4225:	
  8150  1B15  1003               	clrc
  8151  1B16  0CA1               	rrf	(___awmod@divisor+1)^(0+128),f
  8152  1B17  0CA0               	rrf	___awmod@divisor^(0+128),f
  8153  1B18  3EFF               	addlw	-1
  8154  1B19  1D03               	skipz
  8155  1B1A  2B15               	goto	u4225
  8156  1B1B  3001               	movlw	1
  8157  1B1C  02A5               	subwf	___awmod@counter^(0+128),f
  8158  1B1D  1D03               	btfss	3,2
  8159  1B1E  2B06               	goto	l2820
  8160  1B1F                     l2828:	
  8161  1B1F  0826               	movf	___awmod@sign^(0+128),w
  8162  1B20  1903               	btfsc	3,2
  8163  1B21  2B27               	goto	l2832
  8164  1B22  09A2               	comf	___awmod@dividend^(0+128),f
  8165  1B23  09A3               	comf	(___awmod@dividend+1)^(0+128),f
  8166  1B24  0AA2               	incf	___awmod@dividend^(0+128),f
  8167  1B25  1903               	skipnz
  8168  1B26  0AA3               	incf	(___awmod@dividend+1)^(0+128),f
  8169  1B27                     l2832:	
  8170  1B27  0823               	movf	(___awmod@dividend+1)^(0+128),w
  8171  1B28  00A1               	movwf	(?___awmod+1)^(0+128)
  8172  1B29  0822               	movf	___awmod@dividend^(0+128),w
  8173  1B2A  00A0               	movwf	?___awmod^(0+128)
  8174  1B2B  0008               	return
  8175  1B2C                     __end_of___awmod:	
  8176                           
  8177                           	psect	text21
  8178  1B7F                     __ptext21:	
  8179 ;; *************** function ___awdiv *****************
  8180 ;; Defined at:
  8181 ;;		line 5 in file "D:\PROGRAM\MPLABX v5.20\XC8 v2.05\pic\sources\c90\common\awdiv.c"
  8182 ;; Parameters:    Size  Location     Type
  8183 ;;  divisor         2    7[BANK1 ] int 
  8184 ;;  dividend        2    9[BANK1 ] int 
  8185 ;; Auto vars:     Size  Location     Type
  8186 ;;  quotient        2   14[BANK1 ] int 
  8187 ;;  sign            1   13[BANK1 ] unsigned char 
  8188 ;;  counter         1   12[BANK1 ] unsigned char 
  8189 ;; Return value:  Size  Location     Type
  8190 ;;                  2    7[BANK1 ] int 
  8191 ;; Registers used:
  8192 ;;		wreg, status,2, status,0
  8193 ;; Tracked objects:
  8194 ;;		On entry : 0/0
  8195 ;;		On exit  : 0/0
  8196 ;;		Unchanged: 0/0
  8197 ;; Data sizes:     COMMON   BANK0   BANK1   BANK3   BANK2
  8198 ;;      Params:         0       0       4       0       0
  8199 ;;      Locals:         0       0       4       0       0
  8200 ;;      Temps:          0       0       1       0       0
  8201 ;;      Totals:         0       0       9       0       0
  8202 ;;Total ram usage:        9 bytes
  8203 ;; Hardware stack levels used:    1
  8204 ;; Hardware stack levels required when called:    3
  8205 ;; This function calls:
  8206 ;;		Nothing
  8207 ;; This function is called by:
  8208 ;;		_main
  8209 ;;		_Display
  8210 ;; This function uses a non-reentrant model
  8211 ;;
  8212                           
  8213                           
  8214                           ;psect for function ___awdiv
  8215  1B7F                     ___awdiv:	
  8216                           
  8217                           ;incstack = 0
  8218                           ; Regs used in ___awdiv: [wreg+status,2+status,0]
  8219  1B7F  1683               	bsf	3,5	;RP0=1, select bank1
  8220  1B80  1303               	bcf	3,6	;RP1=0, select bank1
  8221  1B81  01AD               	clrf	___awdiv@sign^(0+128)
  8222  1B82  1FA8               	btfss	(___awdiv@divisor+1)^(0+128),7
  8223  1B83  2B8B               	goto	l2762
  8224  1B84  09A7               	comf	___awdiv@divisor^(0+128),f
  8225  1B85  09A8               	comf	(___awdiv@divisor+1)^(0+128),f
  8226  1B86  0AA7               	incf	___awdiv@divisor^(0+128),f
  8227  1B87  1903               	skipnz
  8228  1B88  0AA8               	incf	(___awdiv@divisor+1)^(0+128),f
  8229  1B89  01AD               	clrf	___awdiv@sign^(0+128)
  8230  1B8A  0AAD               	incf	___awdiv@sign^(0+128),f
  8231  1B8B                     l2762:	
  8232  1B8B  1FAA               	btfss	(___awdiv@dividend+1)^(0+128),7
  8233  1B8C  2B96               	goto	l2768
  8234  1B8D  09A9               	comf	___awdiv@dividend^(0+128),f
  8235  1B8E  09AA               	comf	(___awdiv@dividend+1)^(0+128),f
  8236  1B8F  0AA9               	incf	___awdiv@dividend^(0+128),f
  8237  1B90  1903               	skipnz
  8238  1B91  0AAA               	incf	(___awdiv@dividend+1)^(0+128),f
  8239  1B92  3001               	movlw	1
  8240  1B93  00AB               	movwf	??___awdiv^(0+128)
  8241  1B94  082B               	movf	??___awdiv^(0+128),w
  8242  1B95  06AD               	xorwf	___awdiv@sign^(0+128),f
  8243  1B96                     l2768:	
  8244  1B96  01AE               	clrf	___awdiv@quotient^(0+128)
  8245  1B97  01AF               	clrf	(___awdiv@quotient+1)^(0+128)
  8246  1B98  0827               	movf	___awdiv@divisor^(0+128),w
  8247  1B99  0428               	iorwf	(___awdiv@divisor+1)^(0+128),w
  8248  1B9A  1903               	btfsc	3,2
  8249  1B9B  2BCD               	goto	l2790
  8250  1B9C  01AC               	clrf	___awdiv@counter^(0+128)
  8251  1B9D  0AAC               	incf	___awdiv@counter^(0+128),f
  8252  1B9E                     l2778:	
  8253  1B9E  1BA8               	btfsc	(___awdiv@divisor+1)^(0+128),7
  8254  1B9F  2BAC               	goto	l2780
  8255  1BA0  3001               	movlw	1
  8256  1BA1                     u4095:	
  8257  1BA1  1003               	clrc
  8258  1BA2  0DA7               	rlf	___awdiv@divisor^(0+128),f
  8259  1BA3  0DA8               	rlf	(___awdiv@divisor+1)^(0+128),f
  8260  1BA4  3EFF               	addlw	-1
  8261  1BA5  1D03               	skipz
  8262  1BA6  2BA1               	goto	u4095
  8263  1BA7  3001               	movlw	1
  8264  1BA8  00AB               	movwf	??___awdiv^(0+128)
  8265  1BA9  082B               	movf	??___awdiv^(0+128),w
  8266  1BAA  07AC               	addwf	___awdiv@counter^(0+128),f
  8267  1BAB  2B9E               	goto	l2778
  8268  1BAC                     l2780:	
  8269  1BAC  3001               	movlw	1
  8270  1BAD                     u4115:	
  8271  1BAD  1003               	clrc
  8272  1BAE  0DAE               	rlf	___awdiv@quotient^(0+128),f
  8273  1BAF  0DAF               	rlf	(___awdiv@quotient+1)^(0+128),f
  8274  1BB0  3EFF               	addlw	-1
  8275  1BB1  1D03               	skipz
  8276  1BB2  2BAD               	goto	u4115
  8277  1BB3  0828               	movf	(___awdiv@divisor+1)^(0+128),w
  8278  1BB4  022A               	subwf	(___awdiv@dividend+1)^(0+128),w
  8279  1BB5  1D03               	skipz
  8280  1BB6  2BB9               	goto	u4125
  8281  1BB7  0827               	movf	___awdiv@divisor^(0+128),w
  8282  1BB8  0229               	subwf	___awdiv@dividend^(0+128),w
  8283  1BB9                     u4125:	
  8284  1BB9  1C03               	skipc
  8285  1BBA  2BC2               	goto	l2786
  8286  1BBB  0827               	movf	___awdiv@divisor^(0+128),w
  8287  1BBC  02A9               	subwf	___awdiv@dividend^(0+128),f
  8288  1BBD  0828               	movf	(___awdiv@divisor+1)^(0+128),w
  8289  1BBE  1C03               	skipc
  8290  1BBF  03AA               	decf	(___awdiv@dividend+1)^(0+128),f
  8291  1BC0  02AA               	subwf	(___awdiv@dividend+1)^(0+128),f
  8292  1BC1  142E               	bsf	___awdiv@quotient^(0+128),0
  8293  1BC2                     l2786:	
  8294  1BC2  3001               	movlw	1
  8295  1BC3                     u4135:	
  8296  1BC3  1003               	clrc
  8297  1BC4  0CA8               	rrf	(___awdiv@divisor+1)^(0+128),f
  8298  1BC5  0CA7               	rrf	___awdiv@divisor^(0+128),f
  8299  1BC6  3EFF               	addlw	-1
  8300  1BC7  1D03               	skipz
  8301  1BC8  2BC3               	goto	u4135
  8302  1BC9  3001               	movlw	1
  8303  1BCA  02AC               	subwf	___awdiv@counter^(0+128),f
  8304  1BCB  1D03               	btfss	3,2
  8305  1BCC  2BAC               	goto	l2780
  8306  1BCD                     l2790:	
  8307  1BCD  082D               	movf	___awdiv@sign^(0+128),w
  8308  1BCE  1903               	btfsc	3,2
  8309  1BCF  2BD5               	goto	l2794
  8310  1BD0  09AE               	comf	___awdiv@quotient^(0+128),f
  8311  1BD1  09AF               	comf	(___awdiv@quotient+1)^(0+128),f
  8312  1BD2  0AAE               	incf	___awdiv@quotient^(0+128),f
  8313  1BD3  1903               	skipnz
  8314  1BD4  0AAF               	incf	(___awdiv@quotient+1)^(0+128),f
  8315  1BD5                     l2794:	
  8316  1BD5  082F               	movf	(___awdiv@quotient+1)^(0+128),w
  8317  1BD6  00A8               	movwf	(?___awdiv+1)^(0+128)
  8318  1BD7  082E               	movf	___awdiv@quotient^(0+128),w
  8319  1BD8  00A7               	movwf	?___awdiv^(0+128)
  8320  1BD9  0008               	return
  8321  1BDA                     __end_of___awdiv:	
  8322                           
  8323                           	psect	text22
  8324  1BDA                     __ptext22:	
  8325 ;; *************** function _Lcd_Write_Char *****************
  8326 ;; Defined at:
  8327 ;;		line 93 in file "lcd_v2.c"
  8328 ;; Parameters:    Size  Location     Type
  8329 ;;  a               1    wreg     unsigned char 
  8330 ;; Auto vars:     Size  Location     Type
  8331 ;;  a               1    5[BANK1 ] unsigned char 
  8332 ;;  High4           1    4[BANK1 ] unsigned char 
  8333 ;;  Low4            1    3[BANK1 ] unsigned char 
  8334 ;; Return value:  Size  Location     Type
  8335 ;;                  1    wreg      void 
  8336 ;; Registers used:
  8337 ;;		wreg, status,2, status,0, pclath, cstack
  8338 ;; Tracked objects:
  8339 ;;		On entry : 0/0
  8340 ;;		On exit  : 0/0
  8341 ;;		Unchanged: 0/0
  8342 ;; Data sizes:     COMMON   BANK0   BANK1   BANK3   BANK2
  8343 ;;      Params:         0       0       0       0       0
  8344 ;;      Locals:         0       0       3       0       0
  8345 ;;      Temps:          0       0       2       0       0
  8346 ;;      Totals:         0       0       5       0       0
  8347 ;;Total ram usage:        5 bytes
  8348 ;; Hardware stack levels used:    1
  8349 ;; Hardware stack levels required when called:    4
  8350 ;; This function calls:
  8351 ;;		_Lcd_Port
  8352 ;; This function is called by:
  8353 ;;		_main
  8354 ;;		_Display
  8355 ;;		_Lcd_Write_String
  8356 ;; This function uses a non-reentrant model
  8357 ;;
  8358                           
  8359                           
  8360                           ;psect for function _Lcd_Write_Char
  8361  1BDA                     _Lcd_Write_Char:	
  8362                           
  8363                           ;incstack = 0
  8364                           ; Regs used in _Lcd_Write_Char: [wreg+status,2+status,0+pclath+cstack]
  8365                           ;Lcd_Write_Char@a stored from wreg
  8366  1BDA  1683               	bsf	3,5	;RP0=1, select bank1
  8367  1BDB  1303               	bcf	3,6	;RP1=0, select bank1
  8368  1BDC  00A5               	movwf	Lcd_Write_Char@a^(0+128)
  8369                           
  8370                           ;lcd_v2.c: 93: void Lcd_Write_Char(char a);lcd_v2.c: 94: {;lcd_v2.c: 95:   char Low4,Hig
      +                          h4;;lcd_v2.c: 96:   Low4 = a & 0x0F;
  8371  1BDD  0825               	movf	Lcd_Write_Char@a^(0+128),w
  8372  1BDE  390F               	andlw	15
  8373  1BDF  00A1               	movwf	??_Lcd_Write_Char^(0+128)
  8374  1BE0  0821               	movf	??_Lcd_Write_Char^(0+128),w
  8375  1BE1  00A3               	movwf	Lcd_Write_Char@Low4^(0+128)
  8376                           
  8377                           ;lcd_v2.c: 97:   High4 = a & 0xF0;
  8378  1BE2  0825               	movf	Lcd_Write_Char@a^(0+128),w
  8379  1BE3  39F0               	andlw	240
  8380  1BE4  00A1               	movwf	??_Lcd_Write_Char^(0+128)
  8381  1BE5  0821               	movf	??_Lcd_Write_Char^(0+128),w
  8382  1BE6  00A4               	movwf	Lcd_Write_Char@High4^(0+128)
  8383                           
  8384                           ;lcd_v2.c: 98:   RD0 = 1;
  8385  1BE7  1283               	bcf	3,5	;RP0=0, select bank0
  8386  1BE8  1303               	bcf	3,6	;RP1=0, select bank0
  8387  1BE9  1408               	bsf	8,0	;volatile
  8388                           
  8389                           ;lcd_v2.c: 99:   Lcd_Port(High4>>4);
  8390  1BEA  1683               	bsf	3,5	;RP0=1, select bank1
  8391  1BEB  1303               	bcf	3,6	;RP1=0, select bank1
  8392  1BEC  0824               	movf	Lcd_Write_Char@High4^(0+128),w
  8393  1BED  00A1               	movwf	??_Lcd_Write_Char^(0+128)
  8394  1BEE  3004               	movlw	4
  8395  1BEF                     u3905:	
  8396  1BEF  1003               	clrc
  8397  1BF0  0CA1               	rrf	??_Lcd_Write_Char^(0+128),f
  8398  1BF1  3EFF               	addlw	-1
  8399  1BF2  1D03               	skipz
  8400  1BF3  2BEF               	goto	u3905
  8401  1BF4  0821               	movf	??_Lcd_Write_Char^(0+128),w
  8402  1BF5  160A  158A  2270  160A  158A  	fcall	_Lcd_Port
  8403                           
  8404                           ;lcd_v2.c: 100:   RD1 = 1;
  8405  1BFA  1283               	bcf	3,5	;RP0=0, select bank0
  8406  1BFB  1303               	bcf	3,6	;RP1=0, select bank0
  8407  1BFC  1488               	bsf	8,1	;volatile
  8408                           
  8409                           ;lcd_v2.c: 101:   _delay((unsigned long)((500)*(20000000/4000000.0)));
  8410  1BFD  3004               	movlw	4
  8411  1BFE  1683               	bsf	3,5	;RP0=1, select bank1
  8412  1BFF  1303               	bcf	3,6	;RP1=0, select bank1
  8413  1C00  00A2               	movwf	(??_Lcd_Write_Char^(0+128)+1)
  8414  1C01  303D               	movlw	61
  8415  1C02  00A1               	movwf	??_Lcd_Write_Char^(0+128)
  8416  1C03                     u6887:	
  8417  1C03  0BA1               	decfsz	??_Lcd_Write_Char^(0+128),f
  8418  1C04  2C03               	goto	u6887
  8419  1C05  0BA2               	decfsz	(??_Lcd_Write_Char^(0+128)+1),f
  8420  1C06  2C03               	goto	u6887
  8421                           
  8422                           ;lcd_v2.c: 102:   RD1 = 0;
  8423  1C07  1283               	bcf	3,5	;RP0=0, select bank0
  8424  1C08  1303               	bcf	3,6	;RP1=0, select bank0
  8425  1C09  1088               	bcf	8,1	;volatile
  8426                           
  8427                           ;lcd_v2.c: 103:   _delay((unsigned long)((500)*(20000000/4000000.0)));
  8428  1C0A  3004               	movlw	4
  8429  1C0B  1683               	bsf	3,5	;RP0=1, select bank1
  8430  1C0C  1303               	bcf	3,6	;RP1=0, select bank1
  8431  1C0D  00A2               	movwf	(??_Lcd_Write_Char^(0+128)+1)
  8432  1C0E  303D               	movlw	61
  8433  1C0F  00A1               	movwf	??_Lcd_Write_Char^(0+128)
  8434  1C10                     u6897:	
  8435  1C10  0BA1               	decfsz	??_Lcd_Write_Char^(0+128),f
  8436  1C11  2C10               	goto	u6897
  8437  1C12  0BA2               	decfsz	(??_Lcd_Write_Char^(0+128)+1),f
  8438  1C13  2C10               	goto	u6897
  8439                           
  8440                           ;lcd_v2.c: 104:   Lcd_Port(Low4);
  8441  1C14  1683               	bsf	3,5	;RP0=1, select bank1
  8442  1C15  1303               	bcf	3,6	;RP1=0, select bank1
  8443  1C16  0823               	movf	Lcd_Write_Char@Low4^(0+128),w
  8444  1C17  160A  158A  2270  160A  158A  	fcall	_Lcd_Port
  8445                           
  8446                           ;lcd_v2.c: 105:   RD1 = 1;
  8447  1C1C  1283               	bcf	3,5	;RP0=0, select bank0
  8448  1C1D  1303               	bcf	3,6	;RP1=0, select bank0
  8449  1C1E  1488               	bsf	8,1	;volatile
  8450                           
  8451                           ;lcd_v2.c: 106:   _delay((unsigned long)((500)*(20000000/4000000.0)));
  8452  1C1F  3004               	movlw	4
  8453  1C20  1683               	bsf	3,5	;RP0=1, select bank1
  8454  1C21  1303               	bcf	3,6	;RP1=0, select bank1
  8455  1C22  00A2               	movwf	(??_Lcd_Write_Char^(0+128)+1)
  8456  1C23  303D               	movlw	61
  8457  1C24  00A1               	movwf	??_Lcd_Write_Char^(0+128)
  8458  1C25                     u6907:	
  8459  1C25  0BA1               	decfsz	??_Lcd_Write_Char^(0+128),f
  8460  1C26  2C25               	goto	u6907
  8461  1C27  0BA2               	decfsz	(??_Lcd_Write_Char^(0+128)+1),f
  8462  1C28  2C25               	goto	u6907
  8463                           
  8464                           ;lcd_v2.c: 107:   RD1 = 0;
  8465  1C29  1283               	bcf	3,5	;RP0=0, select bank0
  8466  1C2A  1303               	bcf	3,6	;RP1=0, select bank0
  8467  1C2B  1088               	bcf	8,1	;volatile
  8468                           
  8469                           ;lcd_v2.c: 108:   _delay((unsigned long)((500)*(20000000/4000000.0)));
  8470  1C2C  3004               	movlw	4
  8471  1C2D  1683               	bsf	3,5	;RP0=1, select bank1
  8472  1C2E  1303               	bcf	3,6	;RP1=0, select bank1
  8473  1C2F  00A2               	movwf	(??_Lcd_Write_Char^(0+128)+1)
  8474  1C30  303D               	movlw	61
  8475  1C31  00A1               	movwf	??_Lcd_Write_Char^(0+128)
  8476  1C32                     u6917:	
  8477  1C32  0BA1               	decfsz	??_Lcd_Write_Char^(0+128),f
  8478  1C33  2C32               	goto	u6917
  8479  1C34  0BA2               	decfsz	(??_Lcd_Write_Char^(0+128)+1),f
  8480  1C35  2C32               	goto	u6917
  8481  1C36  0008               	return
  8482  1C37                     __end_of_Lcd_Write_Char:	
  8483                           
  8484                           	psect	text23
  8485  1B2C                     __ptext23:	
  8486 ;; *************** function _Lcd_Set_Cursor *****************
  8487 ;; Defined at:
  8488 ;;		line 50 in file "lcd_v2.c"
  8489 ;; Parameters:    Size  Location     Type
  8490 ;;  r               1    wreg     unsigned char 
  8491 ;;  c               1    4[BANK1 ] unsigned char 
  8492 ;; Auto vars:     Size  Location     Type
  8493 ;;  r               1    7[BANK1 ] unsigned char 
  8494 ;;  Temp            1   10[BANK1 ] unsigned char 
  8495 ;;  High4           1    9[BANK1 ] unsigned char 
  8496 ;;  Low4            1    8[BANK1 ] unsigned char 
  8497 ;; Return value:  Size  Location     Type
  8498 ;;                  1    wreg      void 
  8499 ;; Registers used:
  8500 ;;		wreg, status,2, status,0, pclath, cstack
  8501 ;; Tracked objects:
  8502 ;;		On entry : 0/0
  8503 ;;		On exit  : 0/0
  8504 ;;		Unchanged: 0/0
  8505 ;; Data sizes:     COMMON   BANK0   BANK1   BANK3   BANK2
  8506 ;;      Params:         0       0       1       0       0
  8507 ;;      Locals:         0       0       4       0       0
  8508 ;;      Temps:          0       0       2       0       0
  8509 ;;      Totals:         0       0       7       0       0
  8510 ;;Total ram usage:        7 bytes
  8511 ;; Hardware stack levels used:    1
  8512 ;; Hardware stack levels required when called:    5
  8513 ;; This function calls:
  8514 ;;		_Lcd_Cmd
  8515 ;; This function is called by:
  8516 ;;		_main
  8517 ;;		_Display
  8518 ;; This function uses a non-reentrant model
  8519 ;;
  8520                           
  8521                           
  8522                           ;psect for function _Lcd_Set_Cursor
  8523  1B2C                     _Lcd_Set_Cursor:	
  8524                           
  8525                           ;incstack = 0
  8526                           ; Regs used in _Lcd_Set_Cursor: [wreg+status,2+status,0+pclath+cstack]
  8527                           ;Lcd_Set_Cursor@r stored from wreg
  8528  1B2C  1683               	bsf	3,5	;RP0=1, select bank1
  8529  1B2D  1303               	bcf	3,6	;RP1=0, select bank1
  8530  1B2E  00A7               	movwf	Lcd_Set_Cursor@r^(0+128)
  8531                           
  8532                           ;lcd_v2.c: 50: void Lcd_Set_Cursor(unsigned char r, unsigned char c);lcd_v2.c: 51: {;lcd
      +                          _v2.c: 52:   unsigned char Temp,Low4,High4;;lcd_v2.c: 53:   if(r == 1)
  8533  1B2F  0327               	decf	Lcd_Set_Cursor@r^(0+128),w
  8534  1B30  1D03               	btfss	3,2
  8535  1B31  2B56               	goto	l2666
  8536                           
  8537                           ;lcd_v2.c: 54:   {;lcd_v2.c: 55:     Temp = 0x80 + c - 1;
  8538  1B32  0824               	movf	Lcd_Set_Cursor@c^(0+128),w
  8539  1B33  3E7F               	addlw	127
  8540  1B34  00A5               	movwf	??_Lcd_Set_Cursor^(0+128)
  8541  1B35  0825               	movf	??_Lcd_Set_Cursor^(0+128),w
  8542  1B36  00AA               	movwf	Lcd_Set_Cursor@Temp^(0+128)
  8543                           
  8544                           ;lcd_v2.c: 56:     High4 = Temp >> 4;
  8545  1B37  082A               	movf	Lcd_Set_Cursor@Temp^(0+128),w
  8546  1B38  00A5               	movwf	??_Lcd_Set_Cursor^(0+128)
  8547  1B39  3004               	movlw	4
  8548  1B3A                     u3875:	
  8549  1B3A  1003               	clrc
  8550  1B3B  0CA5               	rrf	??_Lcd_Set_Cursor^(0+128),f
  8551  1B3C  3EFF               	addlw	-1
  8552  1B3D  1D03               	skipz
  8553  1B3E  2B3A               	goto	u3875
  8554  1B3F  0825               	movf	??_Lcd_Set_Cursor^(0+128),w
  8555  1B40  00A6               	movwf	(??_Lcd_Set_Cursor+1)^(0+128)
  8556  1B41  0826               	movf	(??_Lcd_Set_Cursor+1)^(0+128),w
  8557  1B42  00A9               	movwf	Lcd_Set_Cursor@High4^(0+128)
  8558                           
  8559                           ;lcd_v2.c: 57:     Low4 = Temp & 0x0F;
  8560  1B43  082A               	movf	Lcd_Set_Cursor@Temp^(0+128),w
  8561  1B44  390F               	andlw	15
  8562  1B45  00A5               	movwf	??_Lcd_Set_Cursor^(0+128)
  8563  1B46  0825               	movf	??_Lcd_Set_Cursor^(0+128),w
  8564  1B47  00A8               	movwf	Lcd_Set_Cursor@Low4^(0+128)
  8565                           
  8566                           ;lcd_v2.c: 58:     Lcd_Cmd(High4);
  8567  1B48  0829               	movf	Lcd_Set_Cursor@High4^(0+128),w
  8568  1B49  160A  158A  21C2  160A  158A  	fcall	_Lcd_Cmd
  8569                           
  8570                           ;lcd_v2.c: 59:     Lcd_Cmd(Low4);
  8571  1B4E  1683               	bsf	3,5	;RP0=1, select bank1
  8572  1B4F  1303               	bcf	3,6	;RP1=0, select bank1
  8573  1B50  0828               	movf	Lcd_Set_Cursor@Low4^(0+128),w
  8574  1B51  160A  158A  21C2  160A  158A  	fcall	_Lcd_Cmd
  8575  1B56                     l2666:	
  8576                           
  8577                           ;lcd_v2.c: 61:   if(r == 2)
  8578  1B56  3002               	movlw	2
  8579  1B57  1683               	bsf	3,5	;RP0=1, select bank1
  8580  1B58  1303               	bcf	3,6	;RP1=0, select bank1
  8581  1B59  0627               	xorwf	Lcd_Set_Cursor@r^(0+128),w
  8582  1B5A  1D03               	btfss	3,2
  8583  1B5B  0008               	return
  8584                           
  8585                           ;lcd_v2.c: 62:   {;lcd_v2.c: 63:     Temp = 0xC0 + c - 1;
  8586  1B5C  0824               	movf	Lcd_Set_Cursor@c^(0+128),w
  8587  1B5D  3EBF               	addlw	191
  8588  1B5E  00A5               	movwf	??_Lcd_Set_Cursor^(0+128)
  8589  1B5F  0825               	movf	??_Lcd_Set_Cursor^(0+128),w
  8590  1B60  00AA               	movwf	Lcd_Set_Cursor@Temp^(0+128)
  8591                           
  8592                           ;lcd_v2.c: 64:     High4 = Temp >> 4;
  8593  1B61  082A               	movf	Lcd_Set_Cursor@Temp^(0+128),w
  8594  1B62  00A5               	movwf	??_Lcd_Set_Cursor^(0+128)
  8595  1B63  3004               	movlw	4
  8596  1B64                     u3895:	
  8597  1B64  1003               	clrc
  8598  1B65  0CA5               	rrf	??_Lcd_Set_Cursor^(0+128),f
  8599  1B66  3EFF               	addlw	-1
  8600  1B67  1D03               	skipz
  8601  1B68  2B64               	goto	u3895
  8602  1B69  0825               	movf	??_Lcd_Set_Cursor^(0+128),w
  8603  1B6A  00A6               	movwf	(??_Lcd_Set_Cursor+1)^(0+128)
  8604  1B6B  0826               	movf	(??_Lcd_Set_Cursor+1)^(0+128),w
  8605  1B6C  00A9               	movwf	Lcd_Set_Cursor@High4^(0+128)
  8606                           
  8607                           ;lcd_v2.c: 65:     Low4 = Temp & 0x0F;
  8608  1B6D  082A               	movf	Lcd_Set_Cursor@Temp^(0+128),w
  8609  1B6E  390F               	andlw	15
  8610  1B6F  00A5               	movwf	??_Lcd_Set_Cursor^(0+128)
  8611  1B70  0825               	movf	??_Lcd_Set_Cursor^(0+128),w
  8612  1B71  00A8               	movwf	Lcd_Set_Cursor@Low4^(0+128)
  8613                           
  8614                           ;lcd_v2.c: 66:     Lcd_Cmd(High4);
  8615  1B72  0829               	movf	Lcd_Set_Cursor@High4^(0+128),w
  8616  1B73  160A  158A  21C2  160A  158A  	fcall	_Lcd_Cmd
  8617                           
  8618                           ;lcd_v2.c: 67:     Lcd_Cmd(Low4);
  8619  1B78  1683               	bsf	3,5	;RP0=1, select bank1
  8620  1B79  1303               	bcf	3,6	;RP1=0, select bank1
  8621  1B7A  0828               	movf	Lcd_Set_Cursor@Low4^(0+128),w
  8622  1B7B  160A  158A  21C2   	fcall	_Lcd_Cmd
  8623  1B7E  0008               	return
  8624  1B7F                     __end_of_Lcd_Set_Cursor:	
  8625                           
  8626                           	psect	text24
  8627  19C2                     __ptext24:	
  8628 ;; *************** function _Lcd_Cmd *****************
  8629 ;; Defined at:
  8630 ;;		line 34 in file "lcd_v2.c"
  8631 ;; Parameters:    Size  Location     Type
  8632 ;;  CMD             1    wreg     unsigned char 
  8633 ;; Auto vars:     Size  Location     Type
  8634 ;;  CMD             1    3[BANK1 ] unsigned char 
  8635 ;; Return value:  Size  Location     Type
  8636 ;;                  1    wreg      void 
  8637 ;; Registers used:
  8638 ;;		wreg, status,2, status,0, pclath, cstack
  8639 ;; Tracked objects:
  8640 ;;		On entry : 0/0
  8641 ;;		On exit  : 0/0
  8642 ;;		Unchanged: 0/0
  8643 ;; Data sizes:     COMMON   BANK0   BANK1   BANK3   BANK2
  8644 ;;      Params:         0       0       0       0       0
  8645 ;;      Locals:         0       0       1       0       0
  8646 ;;      Temps:          0       0       2       0       0
  8647 ;;      Totals:         0       0       3       0       0
  8648 ;;Total ram usage:        3 bytes
  8649 ;; Hardware stack levels used:    1
  8650 ;; Hardware stack levels required when called:    4
  8651 ;; This function calls:
  8652 ;;		_Lcd_Port
  8653 ;; This function is called by:
  8654 ;;		_Lcd_Clear
  8655 ;;		_Lcd_Set_Cursor
  8656 ;;		_Lcd_Init
  8657 ;;		_Lcd_Shift_Left
  8658 ;;		_Lcd_Shift_Right
  8659 ;; This function uses a non-reentrant model
  8660 ;;
  8661                           
  8662                           
  8663                           ;psect for function _Lcd_Cmd
  8664  19C2                     _Lcd_Cmd:	
  8665                           
  8666                           ;incstack = 0
  8667                           ; Regs used in _Lcd_Cmd: [wreg+status,2+status,0+pclath+cstack]
  8668                           ;Lcd_Cmd@CMD stored from wreg
  8669  19C2  1683               	bsf	3,5	;RP0=1, select bank1
  8670  19C3  1303               	bcf	3,6	;RP1=0, select bank1
  8671  19C4  00A3               	movwf	Lcd_Cmd@CMD^(0+128)
  8672                           
  8673                           ;lcd_v2.c: 34: void Lcd_Cmd(char CMD);lcd_v2.c: 35: {;lcd_v2.c: 37:   RD0 = 0;
  8674  19C5  1283               	bcf	3,5	;RP0=0, select bank0
  8675  19C6  1303               	bcf	3,6	;RP1=0, select bank0
  8676  19C7  1008               	bcf	8,0	;volatile
  8677                           
  8678                           ;lcd_v2.c: 39:   Lcd_Port(CMD);
  8679  19C8  1683               	bsf	3,5	;RP0=1, select bank1
  8680  19C9  1303               	bcf	3,6	;RP1=0, select bank1
  8681  19CA  0823               	movf	Lcd_Cmd@CMD^(0+128),w
  8682  19CB  160A  158A  2270  160A  158A  	fcall	_Lcd_Port
  8683                           
  8684                           ;lcd_v2.c: 41:   RD1 = 1;
  8685  19D0  1283               	bcf	3,5	;RP0=0, select bank0
  8686  19D1  1303               	bcf	3,6	;RP1=0, select bank0
  8687  19D2  1488               	bsf	8,1	;volatile
  8688                           
  8689                           ;lcd_v2.c: 42:   _delay((unsigned long)((500)*(20000000/4000000.0)));
  8690  19D3  3004               	movlw	4
  8691  19D4  1683               	bsf	3,5	;RP0=1, select bank1
  8692  19D5  1303               	bcf	3,6	;RP1=0, select bank1
  8693  19D6  00A2               	movwf	(??_Lcd_Cmd^(0+128)+1)
  8694  19D7  303D               	movlw	61
  8695  19D8  00A1               	movwf	??_Lcd_Cmd^(0+128)
  8696  19D9                     u6927:	
  8697  19D9  0BA1               	decfsz	??_Lcd_Cmd^(0+128),f
  8698  19DA  29D9               	goto	u6927
  8699  19DB  0BA2               	decfsz	(??_Lcd_Cmd^(0+128)+1),f
  8700  19DC  29D9               	goto	u6927
  8701                           
  8702                           ;lcd_v2.c: 43:   RD1 = 0;
  8703  19DD  1283               	bcf	3,5	;RP0=0, select bank0
  8704  19DE  1303               	bcf	3,6	;RP1=0, select bank0
  8705  19DF  1088               	bcf	8,1	;volatile
  8706  19E0  0008               	return
  8707  19E1                     __end_of_Lcd_Cmd:	
  8708                           
  8709                           	psect	text25
  8710  1A70                     __ptext25:	
  8711 ;; *************** function _Lcd_Port *****************
  8712 ;; Defined at:
  8713 ;;		line 15 in file "lcd_v2.c"
  8714 ;; Parameters:    Size  Location     Type
  8715 ;;  Data            1    wreg     unsigned char 
  8716 ;; Auto vars:     Size  Location     Type
  8717 ;;  Data            1    0[BANK1 ] unsigned char 
  8718 ;; Return value:  Size  Location     Type
  8719 ;;                  1    wreg      void 
  8720 ;; Registers used:
  8721 ;;		wreg
  8722 ;; Tracked objects:
  8723 ;;		On entry : 0/0
  8724 ;;		On exit  : 0/0
  8725 ;;		Unchanged: 0/0
  8726 ;; Data sizes:     COMMON   BANK0   BANK1   BANK3   BANK2
  8727 ;;      Params:         0       0       0       0       0
  8728 ;;      Locals:         0       0       1       0       0
  8729 ;;      Temps:          0       0       0       0       0
  8730 ;;      Totals:         0       0       1       0       0
  8731 ;;Total ram usage:        1 bytes
  8732 ;; Hardware stack levels used:    1
  8733 ;; Hardware stack levels required when called:    3
  8734 ;; This function calls:
  8735 ;;		Nothing
  8736 ;; This function is called by:
  8737 ;;		_Lcd_Cmd
  8738 ;;		_Lcd_Init
  8739 ;;		_Lcd_Write_Char
  8740 ;; This function uses a non-reentrant model
  8741 ;;
  8742                           
  8743                           
  8744                           ;psect for function _Lcd_Port
  8745  1A70                     _Lcd_Port:	
  8746                           
  8747                           ;incstack = 0
  8748                           ; Regs used in _Lcd_Port: [wreg]
  8749                           ;Lcd_Port@Data stored from wreg
  8750  1A70  1683               	bsf	3,5	;RP0=1, select bank1
  8751  1A71  1303               	bcf	3,6	;RP1=0, select bank1
  8752  1A72  00A0               	movwf	Lcd_Port@Data^(0+128)
  8753                           
  8754                           ;lcd_v2.c: 15: void Lcd_Port(unsigned char Data);lcd_v2.c: 16: {;lcd_v2.c: 17:   if(Data
      +                           & 1)
  8755  1A73  1C20               	btfss	Lcd_Port@Data^(0+128),0
  8756  1A74  2A79               	goto	l267
  8757                           
  8758                           ;lcd_v2.c: 18:     RD2 = 1;
  8759  1A75  1283               	bcf	3,5	;RP0=0, select bank0
  8760  1A76  1303               	bcf	3,6	;RP1=0, select bank0
  8761  1A77  1508               	bsf	8,2	;volatile
  8762  1A78  2A7C               	goto	l268
  8763  1A79                     l267:	
  8764                           ;lcd_v2.c: 19:   else
  8765                           
  8766                           
  8767                           ;lcd_v2.c: 20:     RD2 = 0;
  8768  1A79  1283               	bcf	3,5	;RP0=0, select bank0
  8769  1A7A  1303               	bcf	3,6	;RP1=0, select bank0
  8770  1A7B  1108               	bcf	8,2	;volatile
  8771  1A7C                     l268:	
  8772                           
  8773                           ;lcd_v2.c: 21:   if(Data & 2)
  8774  1A7C  1683               	bsf	3,5	;RP0=1, select bank1
  8775  1A7D  1303               	bcf	3,6	;RP1=0, select bank1
  8776  1A7E  1CA0               	btfss	Lcd_Port@Data^(0+128),1
  8777  1A7F  2A84               	goto	l269
  8778                           
  8779                           ;lcd_v2.c: 22:     RD3 = 1;
  8780  1A80  1283               	bcf	3,5	;RP0=0, select bank0
  8781  1A81  1303               	bcf	3,6	;RP1=0, select bank0
  8782  1A82  1588               	bsf	8,3	;volatile
  8783  1A83  2A87               	goto	l270
  8784  1A84                     l269:	
  8785                           ;lcd_v2.c: 23:   else
  8786                           
  8787                           
  8788                           ;lcd_v2.c: 24:     RD3 = 0;
  8789  1A84  1283               	bcf	3,5	;RP0=0, select bank0
  8790  1A85  1303               	bcf	3,6	;RP1=0, select bank0
  8791  1A86  1188               	bcf	8,3	;volatile
  8792  1A87                     l270:	
  8793                           
  8794                           ;lcd_v2.c: 25:   if(Data & 4)
  8795  1A87  1683               	bsf	3,5	;RP0=1, select bank1
  8796  1A88  1303               	bcf	3,6	;RP1=0, select bank1
  8797  1A89  1D20               	btfss	Lcd_Port@Data^(0+128),2
  8798  1A8A  2A8F               	goto	l271
  8799                           
  8800                           ;lcd_v2.c: 26:     RD4 = 1;
  8801  1A8B  1283               	bcf	3,5	;RP0=0, select bank0
  8802  1A8C  1303               	bcf	3,6	;RP1=0, select bank0
  8803  1A8D  1608               	bsf	8,4	;volatile
  8804  1A8E  2A92               	goto	l272
  8805  1A8F                     l271:	
  8806                           ;lcd_v2.c: 27:   else
  8807                           
  8808                           
  8809                           ;lcd_v2.c: 28:     RD4 = 0;
  8810  1A8F  1283               	bcf	3,5	;RP0=0, select bank0
  8811  1A90  1303               	bcf	3,6	;RP1=0, select bank0
  8812  1A91  1208               	bcf	8,4	;volatile
  8813  1A92                     l272:	
  8814                           
  8815                           ;lcd_v2.c: 29:   if(Data & 8)
  8816  1A92  1683               	bsf	3,5	;RP0=1, select bank1
  8817  1A93  1303               	bcf	3,6	;RP1=0, select bank1
  8818  1A94  1DA0               	btfss	Lcd_Port@Data^(0+128),3
  8819  1A95  2A9A               	goto	l273
  8820                           
  8821                           ;lcd_v2.c: 30:     RD5 = 1;
  8822  1A96  1283               	bcf	3,5	;RP0=0, select bank0
  8823  1A97  1303               	bcf	3,6	;RP1=0, select bank0
  8824  1A98  1688               	bsf	8,5	;volatile
  8825  1A99  0008               	return
  8826  1A9A                     l273:	
  8827                           ;lcd_v2.c: 31:   else
  8828                           
  8829                           
  8830                           ;lcd_v2.c: 32:     RD5 = 0;
  8831  1A9A  1283               	bcf	3,5	;RP0=0, select bank0
  8832  1A9B  1303               	bcf	3,6	;RP1=0, select bank0
  8833  1A9C  1288               	bcf	8,5	;volatile
  8834  1A9D  0008               	return
  8835  1A9E                     __end_of_Lcd_Port:	
  8836                           
  8837                           	psect	text26
  8838  19AA                     __ptext26:	
  8839 ;; *************** function _ADC_Init *****************
  8840 ;; Defined at:
  8841 ;;		line 230 in file "deadline.c"
  8842 ;; Parameters:    Size  Location     Type
  8843 ;;		None
  8844 ;; Auto vars:     Size  Location     Type
  8845 ;;		None
  8846 ;; Return value:  Size  Location     Type
  8847 ;;                  1    wreg      void 
  8848 ;; Registers used:
  8849 ;;		None
  8850 ;; Tracked objects:
  8851 ;;		On entry : 0/0
  8852 ;;		On exit  : 0/0
  8853 ;;		Unchanged: 0/0
  8854 ;; Data sizes:     COMMON   BANK0   BANK1   BANK3   BANK2
  8855 ;;      Params:         0       0       0       0       0
  8856 ;;      Locals:         0       0       0       0       0
  8857 ;;      Temps:          0       0       0       0       0
  8858 ;;      Totals:         0       0       0       0       0
  8859 ;;Total ram usage:        0 bytes
  8860 ;; Hardware stack levels used:    1
  8861 ;; Hardware stack levels required when called:    3
  8862 ;; This function calls:
  8863 ;;		Nothing
  8864 ;; This function is called by:
  8865 ;;		_main
  8866 ;; This function uses a non-reentrant model
  8867 ;;
  8868                           
  8869                           
  8870                           ;psect for function _ADC_Init
  8871  19AA                     _ADC_Init:	
  8872                           
  8873                           ;deadline.c: 233:     PCFG0 = 0;
  8874                           
  8875                           ;incstack = 0
  8876                           ; Regs used in _ADC_Init: []
  8877  19AA  1683               	bsf	3,5	;RP0=1, select bank1
  8878  19AB  1303               	bcf	3,6	;RP1=0, select bank1
  8879  19AC  101F               	bcf	31,0	;volatile
  8880                           
  8881                           ;deadline.c: 234:     PCFG1 = 0;
  8882  19AD  109F               	bcf	31,1	;volatile
  8883                           
  8884                           ;deadline.c: 235:     PCFG2 = 1;
  8885  19AE  151F               	bsf	31,2	;volatile
  8886                           
  8887                           ;deadline.c: 236:     PCFG3 = 0;
  8888  19AF  119F               	bcf	31,3	;volatile
  8889                           
  8890                           ;deadline.c: 238:     ADCS0 = 0;
  8891  19B0  1283               	bcf	3,5	;RP0=0, select bank0
  8892  19B1  1303               	bcf	3,6	;RP1=0, select bank0
  8893  19B2  131F               	bcf	31,6	;volatile
  8894                           
  8895                           ;deadline.c: 239:     ADCS1 = 1;
  8896  19B3  179F               	bsf	31,7	;volatile
  8897                           
  8898                           ;deadline.c: 240:     ADCS2 = 1;
  8899  19B4  1683               	bsf	3,5	;RP0=1, select bank1
  8900  19B5  1303               	bcf	3,6	;RP1=0, select bank1
  8901  19B6  171F               	bsf	31,6	;volatile
  8902                           
  8903                           ;deadline.c: 242:     ADFM = 1;
  8904  19B7  179F               	bsf	31,7	;volatile
  8905                           
  8906                           ;deadline.c: 244:     ADON = 1;
  8907  19B8  1283               	bcf	3,5	;RP0=0, select bank0
  8908  19B9  1303               	bcf	3,6	;RP1=0, select bank0
  8909  19BA  141F               	bsf	31,0	;volatile
  8910                           
  8911                           ;deadline.c: 246:     ADIE = 0;
  8912  19BB  1683               	bsf	3,5	;RP0=1, select bank1
  8913  19BC  1303               	bcf	3,6	;RP1=0, select bank1
  8914  19BD  130C               	bcf	12,6	;volatile
  8915                           
  8916                           ;deadline.c: 247:     ADIF = 0;
  8917  19BE  1283               	bcf	3,5	;RP0=0, select bank0
  8918  19BF  1303               	bcf	3,6	;RP1=0, select bank0
  8919  19C0  130C               	bcf	12,6	;volatile
  8920  19C1  0008               	return
  8921  19C2                     __end_of_ADC_Init:	
  8922                           
  8923                           	psect	text27
  8924  1C37                     __ptext27:	
  8925 ;; *************** function _My_interrupt *****************
  8926 ;; Defined at:
  8927 ;;		line 297 in file "deadline.c"
  8928 ;; Parameters:    Size  Location     Type
  8929 ;;		None
  8930 ;; Auto vars:     Size  Location     Type
  8931 ;;		None
  8932 ;; Return value:  Size  Location     Type
  8933 ;;                  1    wreg      void 
  8934 ;; Registers used:
  8935 ;;		wreg, status,2, status,0, btemp+1, pclath, cstack
  8936 ;; Tracked objects:
  8937 ;;		On entry : 0/0
  8938 ;;		On exit  : 0/0
  8939 ;;		Unchanged: 0/0
  8940 ;; Data sizes:     COMMON   BANK0   BANK1   BANK3   BANK2
  8941 ;;      Params:         0       0       0       0       0
  8942 ;;      Locals:         0       0       0       0       0
  8943 ;;      Temps:          0       3       0       0       0
  8944 ;;      Totals:         0       3       0       0       0
  8945 ;;Total ram usage:        3 bytes
  8946 ;; Hardware stack levels used:    1
  8947 ;; Hardware stack levels required when called:    2
  8948 ;; This function calls:
  8949 ;;		i1___fldiv
  8950 ;;		i1___flsub
  8951 ;;		i1___fltol
  8952 ;;		i1___xxtofl
  8953 ;; This function is called by:
  8954 ;;		Interrupt level 1
  8955 ;; This function uses a non-reentrant model
  8956 ;;
  8957                           
  8958                           
  8959                           ;psect for function _My_interrupt
  8960  1C37                     _My_interrupt:	
  8961                           
  8962                           ;deadline.c: 299:     if(INTE == 1 && INTF == 1)
  8963  1C37  1A0B               	btfsc	11,4	;volatile
  8964  1C38  1C8B               	btfss	11,1	;volatile
  8965  1C39  2C95               	goto	i1l244
  8966                           
  8967                           ;deadline.c: 300:     {;deadline.c: 301:         RB1 = 0;
  8968  1C3A  1086               	bcf	6,1	;volatile
  8969                           
  8970                           ;deadline.c: 303:         TMR1ON = 1;
  8971  1C3B  1410               	bsf	16,0	;volatile
  8972  1C3C                     i1l241:	
  8973                           ;deadline.c: 304:         while(TMR1IF==0);
  8974                           
  8975  1C3C  1C0C               	btfss	12,0	;volatile
  8976  1C3D  2C3C               	goto	i1l241
  8977                           
  8978                           ;deadline.c: 305:         TMR1ON = 0;
  8979  1C3E  1010               	bcf	16,0	;volatile
  8980                           
  8981                           ;deadline.c: 306:         TMR1= 65535-(500+duty)/0.2f;
  8982  1C3F  3047               	movlw	71
  8983  1C40  00C1               	movwf	i1___flsub@b+3
  8984  1C41  307F               	movlw	127
  8985  1C42  00C0               	movwf	i1___flsub@b+2
  8986  1C43  30FF               	movlw	255
  8987  1C44  00BF               	movwf	i1___flsub@b+1
  8988  1C45  3000               	movlw	0
  8989  1C46  00BE               	movwf	i1___flsub@b
  8990  1C47  0864               	movf	_duty,w
  8991  1C48  3EF4               	addlw	244
  8992  1C49  00F0               	movwf	i1___xxtofl@val
  8993  1C4A  0865               	movf	_duty+1,w
  8994  1C4B  1803               	skipnc
  8995  1C4C  3E01               	addlw	1
  8996  1C4D  3E01               	addlw	1
  8997  1C4E  00F1               	movwf	i1___xxtofl@val+1
  8998  1C4F  01F2               	clrf	i1___xxtofl@val+2
  8999  1C50  01F3               	clrf	i1___xxtofl@val+3
  9000  1C51  3000               	movlw	0
  9001  1C52  160A  118A  2091  160A  158A  	fcall	i1___xxtofl
  9002  1C57  0873               	movf	?i1___xxtofl+3,w
  9003  1C58  1283               	bcf	3,5	;RP0=0, select bank0
  9004  1C59  1303               	bcf	3,6	;RP1=0, select bank0
  9005  1C5A  00A7               	movwf	i1___fldiv@b+3
  9006  1C5B  0872               	movf	?i1___xxtofl+2,w
  9007  1C5C  00A6               	movwf	i1___fldiv@b+2
  9008  1C5D  0871               	movf	?i1___xxtofl+1,w
  9009  1C5E  00A5               	movwf	i1___fldiv@b+1
  9010  1C5F  0870               	movf	?i1___xxtofl,w
  9011  1C60  00A4               	movwf	i1___fldiv@b
  9012  1C61  303E               	movlw	62
  9013  1C62  00A3               	movwf	i1___fldiv@a+3
  9014  1C63  304C               	movlw	76
  9015  1C64  00A2               	movwf	i1___fldiv@a+2
  9016  1C65  30CC               	movlw	204
  9017  1C66  00A1               	movwf	i1___fldiv@a+1
  9018  1C67  30CD               	movlw	205
  9019  1C68  00A0               	movwf	i1___fldiv@a
  9020  1C69  160A  158A  265D  160A  158A  	fcall	i1___fldiv
  9021  1C6E  1283               	bcf	3,5	;RP0=0, select bank0
  9022  1C6F  1303               	bcf	3,6	;RP1=0, select bank0
  9023  1C70  0823               	movf	?i1___fldiv+3,w
  9024  1C71  00BD               	movwf	i1___flsub@a+3
  9025  1C72  0822               	movf	?i1___fldiv+2,w
  9026  1C73  00BC               	movwf	i1___flsub@a+2
  9027  1C74  0821               	movf	?i1___fldiv+1,w
  9028  1C75  00BB               	movwf	i1___flsub@a+1
  9029  1C76  0820               	movf	?i1___fldiv,w
  9030  1C77  00BA               	movwf	i1___flsub@a
  9031  1C78  160A  158A  21E1  160A  158A  	fcall	i1___flsub
  9032  1C7D  1283               	bcf	3,5	;RP0=0, select bank0
  9033  1C7E  1303               	bcf	3,6	;RP1=0, select bank0
  9034  1C7F  083D               	movf	?i1___flsub+3,w
  9035  1C80  00C5               	movwf	i1___fltol@f1+3
  9036  1C81  083C               	movf	?i1___flsub+2,w
  9037  1C82  00C4               	movwf	i1___fltol@f1+2
  9038  1C83  083B               	movf	?i1___flsub+1,w
  9039  1C84  00C3               	movwf	i1___fltol@f1+1
  9040  1C85  083A               	movf	?i1___flsub,w
  9041  1C86  00C2               	movwf	i1___fltol@f1
  9042  1C87  160A  158A  250A  160A  158A  	fcall	i1___fltol
  9043  1C8C  1283               	bcf	3,5	;RP0=0, select bank0
  9044  1C8D  1303               	bcf	3,6	;RP1=0, select bank0
  9045  1C8E  0843               	movf	?i1___fltol+1,w
  9046  1C8F  008F               	movwf	15	;volatile
  9047  1C90  0842               	movf	?i1___fltol,w
  9048  1C91  008E               	movwf	14	;volatile
  9049                           
  9050                           ;deadline.c: 307:         TMR1IF = 0;
  9051  1C92  100C               	bcf	12,0	;volatile
  9052                           
  9053                           ;deadline.c: 309:         RB1 = 1;
  9054  1C93  1486               	bsf	6,1	;volatile
  9055                           
  9056                           ;deadline.c: 310:         INTF = 0;
  9057  1C94  108B               	bcf	11,1	;volatile
  9058  1C95                     i1l244:	
  9059  1C95  084F               	movf	??_My_interrupt+2,w
  9060  1C96  00FF               	movwf	127
  9061  1C97  084E               	movf	??_My_interrupt+1,w
  9062  1C98  008A               	movwf	10
  9063  1C99  0E4D               	swapf	??_My_interrupt^0,w
  9064  1C9A  0083               	movwf	3
  9065  1C9B  0EFE               	swapf	126,f
  9066  1C9C  0E7E               	swapf	126,w
  9067  1C9D  0009               	retfie
  9068  1C9E                     __end_of_My_interrupt:	
  9069                           
  9070                           	psect	intentry
  9071  0004                     __pintentry:	
  9072                           ;incstack = 0
  9073                           ; Regs used in _My_interrupt: [wreg+status,2+status,0+btemp+1+pclath+cstack]
  9074                           
  9075  0004                     interrupt_function:	
  9076  007E                     saved_w	set	btemp
  9077  0004  00FE               	movwf	btemp
  9078  0005  0E03               	swapf	3,w
  9079  0006  1283               	bcf	3,5	;RP0=0, select bank0
  9080  0007  1303               	bcf	3,6	;RP1=0, select bank0
  9081  0008  00CD               	movwf	??_My_interrupt
  9082  0009  080A               	movf	10,w
  9083  000A  00CE               	movwf	??_My_interrupt+1
  9084  000B  087F               	movf	btemp+1,w
  9085  000C  00CF               	movwf	??_My_interrupt+2
  9086  000D  160A  158A  2C37   	ljmp	_My_interrupt
  9087                           
  9088                           	psect	text28
  9089  1091                     __ptext28:	
  9090 ;; *************** function i1___xxtofl *****************
  9091 ;; Defined at:
  9092 ;;		line 10 in file "D:\PROGRAM\MPLABX v5.20\XC8 v2.05\pic\sources\c90\common\xxtofl.c"
  9093 ;; Parameters:    Size  Location     Type
  9094 ;;  sign            1    wreg     unsigned char 
  9095 ;;  val             4    0[COMMON] long 
  9096 ;; Auto vars:     Size  Location     Type
  9097 ;;  sign            1    8[COMMON] unsigned char 
  9098 ;;  __xxtofl        4   10[COMMON] unsigned long 
  9099 ;;  __xxtofl        1    9[COMMON] unsigned char 
  9100 ;; Return value:  Size  Location     Type
  9101 ;;                  4    0[COMMON] unsigned char 
  9102 ;; Registers used:
  9103 ;;		wreg, status,2, status,0
  9104 ;; Tracked objects:
  9105 ;;		On entry : 0/0
  9106 ;;		On exit  : 0/0
  9107 ;;		Unchanged: 0/0
  9108 ;; Data sizes:     COMMON   BANK0   BANK1   BANK3   BANK2
  9109 ;;      Params:         4       0       0       0       0
  9110 ;;      Locals:         6       0       0       0       0
  9111 ;;      Temps:          4       0       0       0       0
  9112 ;;      Totals:        14       0       0       0       0
  9113 ;;Total ram usage:       14 bytes
  9114 ;; Hardware stack levels used:    1
  9115 ;; This function calls:
  9116 ;;		Nothing
  9117 ;; This function is called by:
  9118 ;;		_My_interrupt
  9119 ;; This function uses a non-reentrant model
  9120 ;;
  9121                           
  9122                           
  9123                           ;psect for function i1___xxtofl
  9124  1091                     i1___xxtofl:	
  9125                           
  9126                           ;incstack = 0
  9127                           ; Regs used in i1___xxtofl: [wreg+status,2+status,0]
  9128                           ;i1___xxtofl@sign stored from wreg
  9129  1091  00F8               	movwf	i1___xxtofl@sign
  9130  1092  0878               	movf	i1___xxtofl@sign,w
  9131  1093  1D03               	btfss	3,2
  9132  1094  1FF3               	btfss	i1___xxtofl@val+3,7
  9133  1095  28A6               	goto	i1l3734
  9134  1096  0970               	comf	i1___xxtofl@val,w
  9135  1097  00FA               	movwf	i1___xxtofl@arg
  9136  1098  0971               	comf	i1___xxtofl@val+1,w
  9137  1099  00FB               	movwf	i1___xxtofl@arg+1
  9138  109A  0972               	comf	i1___xxtofl@val+2,w
  9139  109B  00FC               	movwf	i1___xxtofl@arg+2
  9140  109C  0973               	comf	i1___xxtofl@val+3,w
  9141  109D  00FD               	movwf	i1___xxtofl@arg+3
  9142  109E  0AFA               	incf	i1___xxtofl@arg,f
  9143  109F  1903               	skipnz
  9144  10A0  0AFB               	incf	i1___xxtofl@arg+1,f
  9145  10A1  1903               	skipnz
  9146  10A2  0AFC               	incf	i1___xxtofl@arg+2,f
  9147  10A3  1903               	skipnz
  9148  10A4  0AFD               	incf	i1___xxtofl@arg+3,f
  9149  10A5  28AE               	goto	i1l817
  9150  10A6                     i1l3734:	
  9151  10A6  0873               	movf	i1___xxtofl@val+3,w
  9152  10A7  00FD               	movwf	i1___xxtofl@arg+3
  9153  10A8  0872               	movf	i1___xxtofl@val+2,w
  9154  10A9  00FC               	movwf	i1___xxtofl@arg+2
  9155  10AA  0871               	movf	i1___xxtofl@val+1,w
  9156  10AB  00FB               	movwf	i1___xxtofl@arg+1
  9157  10AC  0870               	movf	i1___xxtofl@val,w
  9158  10AD  00FA               	movwf	i1___xxtofl@arg
  9159  10AE                     i1l817:	
  9160  10AE  0873               	movf	i1___xxtofl@val+3,w
  9161  10AF  0472               	iorwf	i1___xxtofl@val+2,w
  9162  10B0  0471               	iorwf	i1___xxtofl@val+1,w
  9163  10B1  0470               	iorwf	i1___xxtofl@val,w
  9164  10B2  1D03               	skipz
  9165  10B3  28BD               	goto	i1l3740
  9166  10B4  3000               	movlw	0
  9167  10B5  00F3               	movwf	?i1___xxtofl+3
  9168  10B6  3000               	movlw	0
  9169  10B7  00F2               	movwf	?i1___xxtofl+2
  9170  10B8  3000               	movlw	0
  9171  10B9  00F1               	movwf	?i1___xxtofl+1
  9172  10BA  3000               	movlw	0
  9173  10BB  00F0               	movwf	?i1___xxtofl
  9174  10BC  0008               	return
  9175  10BD                     i1l3740:	
  9176  10BD  3096               	movlw	150
  9177  10BE  00F4               	movwf	??i1___xxtofl
  9178  10BF  0874               	movf	??i1___xxtofl,w
  9179  10C0  00F9               	movwf	i1___xxtofl@exp
  9180  10C1                     i1l3744:	
  9181  10C1  30FE               	movlw	254
  9182  10C2  057D               	andwf	i1___xxtofl@arg+3,w
  9183  10C3  1903               	btfsc	3,2
  9184  10C4  28EE               	goto	i1l823
  9185  10C5  3001               	movlw	1
  9186  10C6  00F4               	movwf	??i1___xxtofl
  9187  10C7  0874               	movf	??i1___xxtofl,w
  9188  10C8  07F9               	addwf	i1___xxtofl@exp,f
  9189  10C9  3001               	movlw	1
  9190  10CA                     u618_25:	
  9191  10CA  1003               	clrc
  9192  10CB  0CFD               	rrf	i1___xxtofl@arg+3,f
  9193  10CC  0CFC               	rrf	i1___xxtofl@arg+2,f
  9194  10CD  0CFB               	rrf	i1___xxtofl@arg+1,f
  9195  10CE  0CFA               	rrf	i1___xxtofl@arg,f
  9196  10CF  3EFF               	addlw	-1
  9197  10D0  1D03               	skipz
  9198  10D1  28CA               	goto	u618_25
  9199  10D2  28C1               	goto	i1l3744
  9200  10D3                     i1l3746:	
  9201  10D3  3001               	movlw	1
  9202  10D4  00F4               	movwf	??i1___xxtofl
  9203  10D5  0874               	movf	??i1___xxtofl,w
  9204  10D6  07F9               	addwf	i1___xxtofl@exp,f
  9205  10D7  3001               	movlw	1
  9206  10D8  07FA               	addwf	i1___xxtofl@arg,f
  9207  10D9  3000               	movlw	0
  9208  10DA  1803               	skipnc
  9209  10DB  3001               	movlw	1
  9210  10DC  07FB               	addwf	i1___xxtofl@arg+1,f
  9211  10DD  3000               	movlw	0
  9212  10DE  1803               	skipnc
  9213  10DF  3001               	movlw	1
  9214  10E0  07FC               	addwf	i1___xxtofl@arg+2,f
  9215  10E1  3000               	movlw	0
  9216  10E2  1803               	skipnc
  9217  10E3  3001               	movlw	1
  9218  10E4  07FD               	addwf	i1___xxtofl@arg+3,f
  9219  10E5  3001               	movlw	1
  9220  10E6                     u620_25:	
  9221  10E6  1003               	clrc
  9222  10E7  0CFD               	rrf	i1___xxtofl@arg+3,f
  9223  10E8  0CFC               	rrf	i1___xxtofl@arg+2,f
  9224  10E9  0CFB               	rrf	i1___xxtofl@arg+1,f
  9225  10EA  0CFA               	rrf	i1___xxtofl@arg,f
  9226  10EB  3EFF               	addlw	-1
  9227  10EC  1D03               	skipz
  9228  10ED  28E6               	goto	u620_25
  9229  10EE                     i1l823:	
  9230  10EE  30FF               	movlw	255
  9231  10EF  057D               	andwf	i1___xxtofl@arg+3,w
  9232  10F0  1903               	btfsc	3,2
  9233  10F1  2902               	goto	i1l3754
  9234  10F2  28D3               	goto	i1l3746
  9235  10F3                     i1l3756:	
  9236  10F3  3002               	movlw	2
  9237  10F4  0279               	subwf	i1___xxtofl@exp,w
  9238  10F5  1C03               	btfss	3,0
  9239  10F6  2904               	goto	i1l830
  9240  10F7  3001               	movlw	1
  9241  10F8  02F9               	subwf	i1___xxtofl@exp,f
  9242  10F9  3001               	movlw	1
  9243  10FA  00F4               	movwf	??i1___xxtofl
  9244  10FB                     u622_25:	
  9245  10FB  1003               	clrc
  9246  10FC  0DFA               	rlf	i1___xxtofl@arg,f
  9247  10FD  0DFB               	rlf	i1___xxtofl@arg+1,f
  9248  10FE  0DFC               	rlf	i1___xxtofl@arg+2,f
  9249  10FF  0DFD               	rlf	i1___xxtofl@arg+3,f
  9250  1100  0BF4               	decfsz	??i1___xxtofl,f
  9251  1101  28FB               	goto	u622_25
  9252  1102                     i1l3754:	
  9253  1102  1FFC               	btfss	i1___xxtofl@arg+2,7
  9254  1103  28F3               	goto	i1l3756
  9255  1104                     i1l830:	
  9256  1104  1879               	btfsc	i1___xxtofl@exp,0
  9257  1105  290E               	goto	i1l831
  9258  1106  30FF               	movlw	255
  9259  1107  05FA               	andwf	i1___xxtofl@arg,f
  9260  1108  30FF               	movlw	255
  9261  1109  05FB               	andwf	i1___xxtofl@arg+1,f
  9262  110A  307F               	movlw	127
  9263  110B  05FC               	andwf	i1___xxtofl@arg+2,f
  9264  110C  30FF               	movlw	255
  9265  110D  05FD               	andwf	i1___xxtofl@arg+3,f
  9266  110E                     i1l831:	
  9267  110E  1003               	clrc
  9268  110F  0CF9               	rrf	i1___xxtofl@exp,f
  9269  1110  0879               	movf	i1___xxtofl@exp,w
  9270  1111  00F4               	movwf	??i1___xxtofl
  9271  1112  01F5               	clrf	??i1___xxtofl+1
  9272  1113  01F6               	clrf	??i1___xxtofl+2
  9273  1114  01F7               	clrf	??i1___xxtofl+3
  9274  1115  3018               	movlw	24
  9275  1116                     u626_25:	
  9276  1116  1003               	clrc
  9277  1117  0DF4               	rlf	??i1___xxtofl,f
  9278  1118  0DF5               	rlf	??i1___xxtofl+1,f
  9279  1119  0DF6               	rlf	??i1___xxtofl+2,f
  9280  111A  0DF7               	rlf	??i1___xxtofl+3,f
  9281  111B  3EFF               	addlw	-1
  9282  111C  1D03               	skipz
  9283  111D  2916               	goto	u626_25
  9284  111E  0874               	movf	??i1___xxtofl,w
  9285  111F  04FA               	iorwf	i1___xxtofl@arg,f
  9286  1120  0875               	movf	??i1___xxtofl+1,w
  9287  1121  04FB               	iorwf	i1___xxtofl@arg+1,f
  9288  1122  0876               	movf	??i1___xxtofl+2,w
  9289  1123  04FC               	iorwf	i1___xxtofl@arg+2,f
  9290  1124  0877               	movf	??i1___xxtofl+3,w
  9291  1125  04FD               	iorwf	i1___xxtofl@arg+3,f
  9292  1126  0878               	movf	i1___xxtofl@sign,w
  9293  1127  1D03               	btfss	3,2
  9294  1128  1FF3               	btfss	i1___xxtofl@val+3,7
  9295  1129  292B               	goto	i1l3768
  9296  112A  17FD               	bsf	i1___xxtofl@arg+3,7
  9297  112B                     i1l3768:	
  9298  112B  087D               	movf	i1___xxtofl@arg+3,w
  9299  112C  00F3               	movwf	?i1___xxtofl+3
  9300  112D  087C               	movf	i1___xxtofl@arg+2,w
  9301  112E  00F2               	movwf	?i1___xxtofl+2
  9302  112F  087B               	movf	i1___xxtofl@arg+1,w
  9303  1130  00F1               	movwf	?i1___xxtofl+1
  9304  1131  087A               	movf	i1___xxtofl@arg,w
  9305  1132  00F0               	movwf	?i1___xxtofl
  9306  1133  0008               	return
  9307  1134                     __end_ofi1___xxtofl:	
  9308                           
  9309                           	psect	text29
  9310  1D0A                     __ptext29:	
  9311 ;; *************** function i1___fltol *****************
  9312 ;; Defined at:
  9313 ;;		line 43 in file "D:\PROGRAM\MPLABX v5.20\XC8 v2.05\pic\sources\c90\common\fltol.c"
  9314 ;; Parameters:    Size  Location     Type
  9315 ;;  f1              4   34[BANK0 ] unsigned char 
  9316 ;; Auto vars:     Size  Location     Type
  9317 ;;  __fltol         1   44[BANK0 ] unsigned char 
  9318 ;;  __fltol         1   43[BANK0 ] unsigned char 
  9319 ;; Return value:  Size  Location     Type
  9320 ;;                  4   34[BANK0 ] long 
  9321 ;; Registers used:
  9322 ;;		wreg, status,2, status,0
  9323 ;; Tracked objects:
  9324 ;;		On entry : 0/0
  9325 ;;		On exit  : 0/0
  9326 ;;		Unchanged: 0/0
  9327 ;; Data sizes:     COMMON   BANK0   BANK1   BANK3   BANK2
  9328 ;;      Params:         0       4       0       0       0
  9329 ;;      Locals:         0       2       0       0       0
  9330 ;;      Temps:          0       5       0       0       0
  9331 ;;      Totals:         0      11       0       0       0
  9332 ;;Total ram usage:       11 bytes
  9333 ;; Hardware stack levels used:    1
  9334 ;; This function calls:
  9335 ;;		Nothing
  9336 ;; This function is called by:
  9337 ;;		_My_interrupt
  9338 ;; This function uses a non-reentrant model
  9339 ;;
  9340                           
  9341                           
  9342                           ;psect for function i1___fltol
  9343  1D0A                     i1___fltol:	
  9344                           
  9345                           ;incstack = 0
  9346                           ; Regs used in i1___fltol: [wreg+status,2+status,0]
  9347  1D0A  1003               	clrc
  9348  1D0B  1283               	bcf	3,5	;RP0=0, select bank0
  9349  1D0C  1303               	bcf	3,6	;RP1=0, select bank0
  9350  1D0D  0D44               	rlf	i1___fltol@f1+2,w
  9351  1D0E  0D45               	rlf	i1___fltol@f1+3,w
  9352  1D0F  00C6               	movwf	??i1___fltol
  9353  1D10  0846               	movf	??i1___fltol,w
  9354  1D11  00CC               	movwf	i1___fltol@exp1
  9355  1D12  084C               	movf	i1___fltol@exp1,w
  9356  1D13  1D03               	btfss	3,2
  9357  1D14  2D1E               	goto	i1l3550
  9358  1D15                     i1l3546:	
  9359  1D15  3000               	movlw	0
  9360  1D16  00C5               	movwf	?i1___fltol+3
  9361  1D17  3000               	movlw	0
  9362  1D18  00C4               	movwf	?i1___fltol+2
  9363  1D19  3000               	movlw	0
  9364  1D1A  00C3               	movwf	?i1___fltol+1
  9365  1D1B  3000               	movlw	0
  9366  1D1C  00C2               	movwf	?i1___fltol
  9367  1D1D  0008               	return
  9368  1D1E                     i1l3550:	
  9369  1D1E  0842               	movf	i1___fltol@f1,w
  9370  1D1F  00C6               	movwf	??i1___fltol
  9371  1D20  0843               	movf	i1___fltol@f1+1,w
  9372  1D21  00C7               	movwf	??i1___fltol+1
  9373  1D22  0844               	movf	i1___fltol@f1+2,w
  9374  1D23  00C8               	movwf	??i1___fltol+2
  9375  1D24  0845               	movf	i1___fltol@f1+3,w
  9376  1D25  00C9               	movwf	??i1___fltol+3
  9377  1D26  301F               	movlw	31
  9378  1D27                     u577_25:	
  9379  1D27  1003               	clrc
  9380  1D28  0CC9               	rrf	??i1___fltol+3,f
  9381  1D29  0CC8               	rrf	??i1___fltol+2,f
  9382  1D2A  0CC7               	rrf	??i1___fltol+1,f
  9383  1D2B  0CC6               	rrf	??i1___fltol,f
  9384  1D2C  3EFF               	addlw	-1
  9385  1D2D  1D03               	skipz
  9386  1D2E  2D27               	goto	u577_25
  9387  1D2F  0846               	movf	??i1___fltol,w
  9388  1D30  00CA               	movwf	??i1___fltol+4
  9389  1D31  084A               	movf	??i1___fltol+4,w
  9390  1D32  00CB               	movwf	i1___fltol@sign1
  9391  1D33  17C4               	bsf	i1___fltol@f1+2,7
  9392  1D34  30FF               	movlw	255
  9393  1D35  05C2               	andwf	i1___fltol@f1,f
  9394  1D36  30FF               	movlw	255
  9395  1D37  05C3               	andwf	i1___fltol@f1+1,f
  9396  1D38  30FF               	movlw	255
  9397  1D39  05C4               	andwf	i1___fltol@f1+2,f
  9398  1D3A  3000               	movlw	0
  9399  1D3B  05C5               	andwf	i1___fltol@f1+3,f
  9400  1D3C  3096               	movlw	150
  9401  1D3D  02CC               	subwf	i1___fltol@exp1,f
  9402  1D3E  1FCC               	btfss	i1___fltol@exp1,7
  9403  1D3F  2D55               	goto	i1l3568
  9404  1D40  084C               	movf	i1___fltol@exp1,w
  9405  1D41  3A80               	xorlw	128
  9406  1D42  3E97               	addlw	151
  9407  1D43  1C03               	btfss	3,0
  9408  1D44  2D15               	goto	i1l3546
  9409  1D45                     i1l3566:	
  9410  1D45  3001               	movlw	1
  9411  1D46                     u580_25:	
  9412  1D46  1003               	clrc
  9413  1D47  0CC5               	rrf	i1___fltol@f1+3,f
  9414  1D48  0CC4               	rrf	i1___fltol@f1+2,f
  9415  1D49  0CC3               	rrf	i1___fltol@f1+1,f
  9416  1D4A  0CC2               	rrf	i1___fltol@f1,f
  9417  1D4B  3EFF               	addlw	-1
  9418  1D4C  1D03               	skipz
  9419  1D4D  2D46               	goto	u580_25
  9420  1D4E  3001               	movlw	1
  9421  1D4F  00C6               	movwf	??i1___fltol
  9422  1D50  0846               	movf	??i1___fltol,w
  9423  1D51  07CC               	addwf	i1___fltol@exp1,f
  9424  1D52  1903               	btfsc	3,2
  9425  1D53  2D68               	goto	i1l3576
  9426  1D54  2D45               	goto	i1l3566
  9427  1D55                     i1l3568:	
  9428  1D55  3020               	movlw	32
  9429  1D56  024C               	subwf	i1___fltol@exp1,w
  9430  1D57  1803               	btfsc	3,0
  9431  1D58  2D15               	goto	i1l3546
  9432  1D59                     i1l583:	
  9433  1D59  084C               	movf	i1___fltol@exp1,w
  9434  1D5A  1903               	btfsc	3,2
  9435  1D5B  2D68               	goto	i1l3576
  9436  1D5C  3001               	movlw	1
  9437  1D5D  00C6               	movwf	??i1___fltol
  9438  1D5E                     u583_25:	
  9439  1D5E  1003               	clrc
  9440  1D5F  0DC2               	rlf	i1___fltol@f1,f
  9441  1D60  0DC3               	rlf	i1___fltol@f1+1,f
  9442  1D61  0DC4               	rlf	i1___fltol@f1+2,f
  9443  1D62  0DC5               	rlf	i1___fltol@f1+3,f
  9444  1D63  0BC6               	decfsz	??i1___fltol,f
  9445  1D64  2D5E               	goto	u583_25
  9446  1D65  3001               	movlw	1
  9447  1D66  02CC               	subwf	i1___fltol@exp1,f
  9448  1D67  2D59               	goto	i1l583
  9449  1D68                     i1l3576:	
  9450  1D68  084B               	movf	i1___fltol@sign1,w
  9451  1D69  1903               	btfsc	3,2
  9452  1D6A  0008               	return
  9453  1D6B  09C2               	comf	i1___fltol@f1,f
  9454  1D6C  09C3               	comf	i1___fltol@f1+1,f
  9455  1D6D  09C4               	comf	i1___fltol@f1+2,f
  9456  1D6E  09C5               	comf	i1___fltol@f1+3,f
  9457  1D6F  0AC2               	incf	i1___fltol@f1,f
  9458  1D70  1903               	skipnz
  9459  1D71  0AC3               	incf	i1___fltol@f1+1,f
  9460  1D72  1903               	skipnz
  9461  1D73  0AC4               	incf	i1___fltol@f1+2,f
  9462  1D74  1903               	skipnz
  9463  1D75  0AC5               	incf	i1___fltol@f1+3,f
  9464  1D76  0008               	return
  9465  1D77                     __end_ofi1___fltol:	
  9466                           
  9467                           	psect	text30
  9468  19E1                     __ptext30:	
  9469 ;; *************** function i1___flsub *****************
  9470 ;; Defined at:
  9471 ;;		line 242 in file "D:\PROGRAM\MPLABX v5.20\XC8 v2.05\pic\sources\c90\common\sprcadd.c"
  9472 ;; Parameters:    Size  Location     Type
  9473 ;;  a               4   26[BANK0 ] long 
  9474 ;;  b               4   30[BANK0 ] long 
  9475 ;; Auto vars:     Size  Location     Type
  9476 ;;		None
  9477 ;; Return value:  Size  Location     Type
  9478 ;;                  4   26[BANK0 ] long 
  9479 ;; Registers used:
  9480 ;;		wreg, status,2, status,0, btemp+1, pclath, cstack
  9481 ;; Tracked objects:
  9482 ;;		On entry : 0/0
  9483 ;;		On exit  : 0/0
  9484 ;;		Unchanged: 0/0
  9485 ;; Data sizes:     COMMON   BANK0   BANK1   BANK3   BANK2
  9486 ;;      Params:         0       8       0       0       0
  9487 ;;      Locals:         0       0       0       0       0
  9488 ;;      Temps:          0       0       0       0       0
  9489 ;;      Totals:         0       8       0       0       0
  9490 ;;Total ram usage:        8 bytes
  9491 ;; Hardware stack levels used:    1
  9492 ;; Hardware stack levels required when called:    1
  9493 ;; This function calls:
  9494 ;;		i1___fladd
  9495 ;; This function is called by:
  9496 ;;		_My_interrupt
  9497 ;; This function uses a non-reentrant model
  9498 ;;
  9499                           
  9500                           
  9501                           ;psect for function i1___flsub
  9502  19E1                     i1___flsub:	
  9503                           
  9504                           ;incstack = 0
  9505                           ; Regs used in i1___flsub: [wreg+status,2+status,0+btemp+1+pclath+cstack]
  9506  19E1  3080               	movlw	128
  9507  19E2  1283               	bcf	3,5	;RP0=0, select bank0
  9508  19E3  1303               	bcf	3,6	;RP1=0, select bank0
  9509  19E4  06BD               	xorwf	i1___flsub@a+3,f
  9510  19E5  0841               	movf	i1___flsub@b+3,w
  9511  19E6  00F3               	movwf	i1___fladd@b+3
  9512  19E7  0840               	movf	i1___flsub@b+2,w
  9513  19E8  00F2               	movwf	i1___fladd@b+2
  9514  19E9  083F               	movf	i1___flsub@b+1,w
  9515  19EA  00F1               	movwf	i1___fladd@b+1
  9516  19EB  083E               	movf	i1___flsub@b,w
  9517  19EC  00F0               	movwf	i1___fladd@b
  9518  19ED  083D               	movf	i1___flsub@a+3,w
  9519  19EE  00F7               	movwf	i1___fladd@a+3
  9520  19EF  083C               	movf	i1___flsub@a+2,w
  9521  19F0  00F6               	movwf	i1___fladd@a+2
  9522  19F1  083B               	movf	i1___flsub@a+1,w
  9523  19F2  00F5               	movwf	i1___fladd@a+1
  9524  19F3  083A               	movf	i1___flsub@a,w
  9525  19F4  00F4               	movwf	i1___fladd@a
  9526  19F5  160A  118A  22D7   	fcall	i1___fladd
  9527  19F8  0873               	movf	?i1___fladd+3,w
  9528  19F9  1283               	bcf	3,5	;RP0=0, select bank0
  9529  19FA  1303               	bcf	3,6	;RP1=0, select bank0
  9530  19FB  00BD               	movwf	?i1___flsub+3
  9531  19FC  0872               	movf	?i1___fladd+2,w
  9532  19FD  00BC               	movwf	?i1___flsub+2
  9533  19FE  0871               	movf	?i1___fladd+1,w
  9534  19FF  00BB               	movwf	?i1___flsub+1
  9535  1A00  0870               	movf	?i1___fladd,w
  9536  1A01  00BA               	movwf	?i1___flsub
  9537  1A02  0008               	return
  9538  1A03                     __end_ofi1___flsub:	
  9539                           
  9540                           	psect	text31
  9541  12D7                     __ptext31:	
  9542 ;; *************** function i1___fladd *****************
  9543 ;; Defined at:
  9544 ;;		line 10 in file "D:\PROGRAM\MPLABX v5.20\XC8 v2.05\pic\sources\c90\common\sprcadd.c"
  9545 ;; Parameters:    Size  Location     Type
  9546 ;;  b               4    0[COMMON] long 
  9547 ;;  a               4    4[COMMON] long 
  9548 ;; Auto vars:     Size  Location     Type
  9549 ;;  __fladd         1   11[COMMON] unsigned char 
  9550 ;;  __fladd         1   10[COMMON] unsigned char 
  9551 ;;  __fladd         1    9[COMMON] unsigned char 
  9552 ;;  __fladd         1    8[COMMON] unsigned char 
  9553 ;; Return value:  Size  Location     Type
  9554 ;;                  4    0[COMMON] unsigned char 
  9555 ;; Registers used:
  9556 ;;		wreg, status,2, status,0, btemp+1
  9557 ;; Tracked objects:
  9558 ;;		On entry : 0/0
  9559 ;;		On exit  : 0/0
  9560 ;;		Unchanged: 0/0
  9561 ;; Data sizes:     COMMON   BANK0   BANK1   BANK3   BANK2
  9562 ;;      Params:         8       0       0       0       0
  9563 ;;      Locals:         4       0       0       0       0
  9564 ;;      Temps:          0       8       0       0       0
  9565 ;;      Totals:        12       8       0       0       0
  9566 ;;Total ram usage:       20 bytes
  9567 ;; Hardware stack levels used:    1
  9568 ;; This function calls:
  9569 ;;		Nothing
  9570 ;; This function is called by:
  9571 ;;		i1___flsub
  9572 ;; This function uses a non-reentrant model
  9573 ;;
  9574                           
  9575                           
  9576                           ;psect for function i1___fladd
  9577  12D7                     i1___fladd:	
  9578                           
  9579                           ;incstack = 0
  9580                           ; Regs used in i1___fladd: [wreg+status,2+status,0+btemp+1]
  9581  12D7  0873               	movf	i1___fladd@b+3,w
  9582  12D8  3980               	andlw	128
  9583  12D9  1283               	bcf	3,5	;RP0=0, select bank0
  9584  12DA  1303               	bcf	3,6	;RP1=0, select bank0
  9585  12DB  00A0               	movwf	??i1___fladd
  9586  12DC  0820               	movf	??i1___fladd,w
  9587  12DD  00F8               	movwf	i1___fladd@signs
  9588  12DE  0873               	movf	i1___fladd@b+3,w
  9589  12DF  00A0               	movwf	??i1___fladd
  9590  12E0  0720               	addwf	??i1___fladd,w
  9591  12E1  00A1               	movwf	??i1___fladd+1
  9592  12E2  0821               	movf	??i1___fladd+1,w
  9593  12E3  00FA               	movwf	i1___fladd@bexp
  9594  12E4  1BF2               	btfsc	i1___fladd@b+2,7
  9595  12E5  147A               	bsf	i1___fladd@bexp,0
  9596  12E6  087A               	movf	i1___fladd@bexp,w
  9597  12E7  1903               	btfsc	3,2
  9598  12E8  2AF7               	goto	i1l3222
  9599  12E9  0A7A               	incf	i1___fladd@bexp,w
  9600  12EA  1D03               	btfss	3,2
  9601  12EB  2AF4               	goto	i1l3218
  9602  12EC  3000               	movlw	0
  9603  12ED  00F3               	movwf	i1___fladd@b+3
  9604  12EE  3000               	movlw	0
  9605  12EF  00F2               	movwf	i1___fladd@b+2
  9606  12F0  3000               	movlw	0
  9607  12F1  00F1               	movwf	i1___fladd@b+1
  9608  12F2  3000               	movlw	0
  9609  12F3  00F0               	movwf	i1___fladd@b
  9610  12F4                     i1l3218:	
  9611  12F4  17F2               	bsf	i1___fladd@b+2,7
  9612  12F5  01F3               	clrf	i1___fladd@b+3
  9613  12F6  2AFF               	goto	i1l3224
  9614  12F7                     i1l3222:	
  9615  12F7  3000               	movlw	0
  9616  12F8  00F3               	movwf	i1___fladd@b+3
  9617  12F9  3000               	movlw	0
  9618  12FA  00F2               	movwf	i1___fladd@b+2
  9619  12FB  3000               	movlw	0
  9620  12FC  00F1               	movwf	i1___fladd@b+1
  9621  12FD  3000               	movlw	0
  9622  12FE  00F0               	movwf	i1___fladd@b
  9623  12FF                     i1l3224:	
  9624  12FF  0877               	movf	i1___fladd@a+3,w
  9625  1300  3980               	andlw	128
  9626  1301  00A0               	movwf	??i1___fladd
  9627  1302  0820               	movf	??i1___fladd,w
  9628  1303  00F9               	movwf	i1___fladd@aexp
  9629  1304  0879               	movf	i1___fladd@aexp,w
  9630  1305  0678               	xorwf	i1___fladd@signs,w
  9631  1306  1D03               	btfss	3,2
  9632  1307  1778               	bsf	i1___fladd@signs,6
  9633  1308  0877               	movf	i1___fladd@a+3,w
  9634  1309  00A0               	movwf	??i1___fladd
  9635  130A  0720               	addwf	??i1___fladd,w
  9636  130B  00A1               	movwf	??i1___fladd+1
  9637  130C  0821               	movf	??i1___fladd+1,w
  9638  130D  00F9               	movwf	i1___fladd@aexp
  9639  130E  1BF6               	btfsc	i1___fladd@a+2,7
  9640  130F  1479               	bsf	i1___fladd@aexp,0
  9641  1310  0879               	movf	i1___fladd@aexp,w
  9642  1311  1903               	btfsc	3,2
  9643  1312  2B21               	goto	i1l3246
  9644  1313  0A79               	incf	i1___fladd@aexp,w
  9645  1314  1D03               	btfss	3,2
  9646  1315  2B1E               	goto	i1l3242
  9647  1316  3000               	movlw	0
  9648  1317  00F7               	movwf	i1___fladd@a+3
  9649  1318  3000               	movlw	0
  9650  1319  00F6               	movwf	i1___fladd@a+2
  9651  131A  3000               	movlw	0
  9652  131B  00F5               	movwf	i1___fladd@a+1
  9653  131C  3000               	movlw	0
  9654  131D  00F4               	movwf	i1___fladd@a
  9655  131E                     i1l3242:	
  9656  131E  17F6               	bsf	i1___fladd@a+2,7
  9657  131F  01F7               	clrf	i1___fladd@a+3
  9658  1320  2B29               	goto	i1l683
  9659  1321                     i1l3246:	
  9660  1321  3000               	movlw	0
  9661  1322  00F7               	movwf	i1___fladd@a+3
  9662  1323  3000               	movlw	0
  9663  1324  00F6               	movwf	i1___fladd@a+2
  9664  1325  3000               	movlw	0
  9665  1326  00F5               	movwf	i1___fladd@a+1
  9666  1327  3000               	movlw	0
  9667  1328  00F4               	movwf	i1___fladd@a
  9668  1329                     i1l683:	
  9669  1329  087A               	movf	i1___fladd@bexp,w
  9670  132A  0279               	subwf	i1___fladd@aexp,w
  9671  132B  1803               	skipnc
  9672  132C  2B6F               	goto	i1l3282
  9673  132D  1F78               	btfss	i1___fladd@signs,6
  9674  132E  2B33               	goto	i1l3252
  9675  132F  3080               	movlw	128
  9676  1330  00A0               	movwf	??i1___fladd
  9677  1331  0820               	movf	??i1___fladd,w
  9678  1332  06F8               	xorwf	i1___fladd@signs,f
  9679  1333                     i1l3252:	
  9680  1333  087A               	movf	i1___fladd@bexp,w
  9681  1334  00A0               	movwf	??i1___fladd
  9682  1335  0820               	movf	??i1___fladd,w
  9683  1336  00FB               	movwf	i1___fladd@grs
  9684  1337  0879               	movf	i1___fladd@aexp,w
  9685  1338  00A0               	movwf	??i1___fladd
  9686  1339  0820               	movf	??i1___fladd,w
  9687  133A  00FA               	movwf	i1___fladd@bexp
  9688  133B  087B               	movf	i1___fladd@grs,w
  9689  133C  00A0               	movwf	??i1___fladd
  9690  133D  0820               	movf	??i1___fladd,w
  9691  133E  00F9               	movwf	i1___fladd@aexp
  9692  133F  0870               	movf	i1___fladd@b,w
  9693  1340  00A0               	movwf	??i1___fladd
  9694  1341  0820               	movf	??i1___fladd,w
  9695  1342  00FB               	movwf	i1___fladd@grs
  9696  1343  0874               	movf	i1___fladd@a,w
  9697  1344  00A0               	movwf	??i1___fladd
  9698  1345  0820               	movf	??i1___fladd,w
  9699  1346  00F0               	movwf	i1___fladd@b
  9700  1347  087B               	movf	i1___fladd@grs,w
  9701  1348  00A0               	movwf	??i1___fladd
  9702  1349  0820               	movf	??i1___fladd,w
  9703  134A  00F4               	movwf	i1___fladd@a
  9704  134B  0871               	movf	i1___fladd@b+1,w
  9705  134C  00A0               	movwf	??i1___fladd
  9706  134D  0820               	movf	??i1___fladd,w
  9707  134E  00FB               	movwf	i1___fladd@grs
  9708  134F  0875               	movf	i1___fladd@a+1,w
  9709  1350  00A0               	movwf	??i1___fladd
  9710  1351  0820               	movf	??i1___fladd,w
  9711  1352  00F1               	movwf	i1___fladd@b+1
  9712  1353  087B               	movf	i1___fladd@grs,w
  9713  1354  00A0               	movwf	??i1___fladd
  9714  1355  0820               	movf	??i1___fladd,w
  9715  1356  00F5               	movwf	i1___fladd@a+1
  9716  1357  0872               	movf	i1___fladd@b+2,w
  9717  1358  00A0               	movwf	??i1___fladd
  9718  1359  0820               	movf	??i1___fladd,w
  9719  135A  00FB               	movwf	i1___fladd@grs
  9720  135B  0876               	movf	i1___fladd@a+2,w
  9721  135C  00A0               	movwf	??i1___fladd
  9722  135D  0820               	movf	??i1___fladd,w
  9723  135E  00F2               	movwf	i1___fladd@b+2
  9724  135F  087B               	movf	i1___fladd@grs,w
  9725  1360  00A0               	movwf	??i1___fladd
  9726  1361  0820               	movf	??i1___fladd,w
  9727  1362  00F6               	movwf	i1___fladd@a+2
  9728  1363  0873               	movf	i1___fladd@b+3,w
  9729  1364  00A0               	movwf	??i1___fladd
  9730  1365  0820               	movf	??i1___fladd,w
  9731  1366  00FB               	movwf	i1___fladd@grs
  9732  1367  0877               	movf	i1___fladd@a+3,w
  9733  1368  00A0               	movwf	??i1___fladd
  9734  1369  0820               	movf	??i1___fladd,w
  9735  136A  00F3               	movwf	i1___fladd@b+3
  9736  136B  087B               	movf	i1___fladd@grs,w
  9737  136C  00A0               	movwf	??i1___fladd
  9738  136D  0820               	movf	??i1___fladd,w
  9739  136E  00F7               	movwf	i1___fladd@a+3
  9740  136F                     i1l3282:	
  9741  136F  01FB               	clrf	i1___fladd@grs
  9742  1370  0879               	movf	i1___fladd@aexp,w
  9743  1371  00A0               	movwf	??i1___fladd
  9744  1372  01A1               	clrf	??i1___fladd+1
  9745  1373  0821               	movf	??i1___fladd+1,w
  9746  1374  00A3               	movwf	??i1___fladd+3
  9747  1375  087A               	movf	i1___fladd@bexp,w
  9748  1376  0220               	subwf	??i1___fladd,w
  9749  1377  00A2               	movwf	??i1___fladd+2
  9750  1378  1C03               	skipc
  9751  1379  03A3               	decf	??i1___fladd+3,f
  9752  137A  0823               	movf	??i1___fladd+3,w
  9753  137B  3A80               	xorlw	128
  9754  137C  00FF               	movwf	127
  9755  137D  3080               	movlw	128
  9756  137E  027F               	subwf	127,w
  9757  137F  1D03               	skipz
  9758  1380  2B83               	goto	u524_25
  9759  1381  301A               	movlw	26
  9760  1382  0222               	subwf	??i1___fladd+2,w
  9761  1383                     u524_25:	
  9762  1383  1C03               	skipc
  9763  1384  2BC0               	goto	i1l3300
  9764  1385  0873               	movf	i1___fladd@b+3,w
  9765  1386  0472               	iorwf	i1___fladd@b+2,w
  9766  1387  0471               	iorwf	i1___fladd@b+1,w
  9767  1388  0470               	iorwf	i1___fladd@b,w
  9768  1389  1903               	btfsc	3,2
  9769  138A  2B8D               	goto	u525_20
  9770  138B  3001               	movlw	1
  9771  138C  2B8E               	goto	u526_20
  9772  138D                     u525_20:	
  9773  138D  3000               	movlw	0
  9774  138E                     u526_20:	
  9775  138E  1283               	bcf	3,5	;RP0=0, select bank0
  9776  138F  1303               	bcf	3,6	;RP1=0, select bank0
  9777  1390  00A0               	movwf	??i1___fladd
  9778  1391  0820               	movf	??i1___fladd,w
  9779  1392  00FB               	movwf	i1___fladd@grs
  9780  1393  3000               	movlw	0
  9781  1394  00F3               	movwf	i1___fladd@b+3
  9782  1395  3000               	movlw	0
  9783  1396  00F2               	movwf	i1___fladd@b+2
  9784  1397  3000               	movlw	0
  9785  1398  00F1               	movwf	i1___fladd@b+1
  9786  1399  3000               	movlw	0
  9787  139A  00F0               	movwf	i1___fladd@b
  9788  139B  0879               	movf	i1___fladd@aexp,w
  9789  139C  00A0               	movwf	??i1___fladd
  9790  139D  0820               	movf	??i1___fladd,w
  9791  139E  00FA               	movwf	i1___fladd@bexp
  9792  139F  2BC4               	goto	i1l687
  9793  13A0                     i1l689:	
  9794  13A0  1C7B               	btfss	i1___fladd@grs,0
  9795  13A1  2BAD               	goto	i1l3290
  9796  13A2  087B               	movf	i1___fladd@grs,w
  9797  13A3  1283               	bcf	3,5	;RP0=0, select bank0
  9798  13A4  1303               	bcf	3,6	;RP1=0, select bank0
  9799  13A5  00A0               	movwf	??i1___fladd
  9800  13A6  1003               	clrc
  9801  13A7  0C20               	rrf	??i1___fladd,w
  9802  13A8  3801               	iorlw	1
  9803  13A9  00A1               	movwf	??i1___fladd+1
  9804  13AA  0821               	movf	??i1___fladd+1,w
  9805  13AB  00FB               	movwf	i1___fladd@grs
  9806  13AC  2BAF               	goto	i1l3292
  9807  13AD                     i1l3290:	
  9808  13AD  1003               	clrc
  9809  13AE  0CFB               	rrf	i1___fladd@grs,f
  9810  13AF                     i1l3292:	
  9811  13AF  1870               	btfsc	i1___fladd@b,0
  9812  13B0  17FB               	bsf	i1___fladd@grs,7
  9813  13B1  3001               	movlw	1
  9814  13B2  1283               	bcf	3,5	;RP0=0, select bank0
  9815  13B3  1303               	bcf	3,6	;RP1=0, select bank0
  9816  13B4  00A0               	movwf	??i1___fladd
  9817  13B5                     u529_25:	
  9818  13B5  0D73               	rlf	i1___fladd@b+3,w
  9819  13B6  0CF3               	rrf	i1___fladd@b+3,f
  9820  13B7  0CF2               	rrf	i1___fladd@b+2,f
  9821  13B8  0CF1               	rrf	i1___fladd@b+1,f
  9822  13B9  0CF0               	rrf	i1___fladd@b,f
  9823  13BA  0BA0               	decfsz	??i1___fladd& (0+127),f
  9824  13BB  2BB5               	goto	u529_25
  9825  13BC  3001               	movlw	1
  9826  13BD  00A0               	movwf	??i1___fladd
  9827  13BE  0820               	movf	??i1___fladd,w
  9828  13BF  07FA               	addwf	i1___fladd@bexp,f
  9829  13C0                     i1l3300:	
  9830  13C0  0879               	movf	i1___fladd@aexp,w
  9831  13C1  027A               	subwf	i1___fladd@bexp,w
  9832  13C2  1C03               	skipc
  9833  13C3  2BA0               	goto	i1l689
  9834  13C4                     i1l687:	
  9835  13C4  1B78               	btfsc	i1___fladd@signs,6
  9836  13C5  2C09               	goto	i1l3326
  9837  13C6  087A               	movf	i1___fladd@bexp,w
  9838  13C7  1D03               	btfss	3,2
  9839  13C8  2BD2               	goto	i1l3308
  9840  13C9  3000               	movlw	0
  9841  13CA  00F3               	movwf	?i1___fladd+3
  9842  13CB  3000               	movlw	0
  9843  13CC  00F2               	movwf	?i1___fladd+2
  9844  13CD  3000               	movlw	0
  9845  13CE  00F1               	movwf	?i1___fladd+1
  9846  13CF  3000               	movlw	0
  9847  13D0  00F0               	movwf	?i1___fladd
  9848  13D1  0008               	return
  9849  13D2                     i1l3308:	
  9850  13D2  0874               	movf	i1___fladd@a,w
  9851  13D3  07F0               	addwf	i1___fladd@b,f
  9852  13D4  0875               	movf	i1___fladd@a+1,w
  9853  13D5  1103               	clrz
  9854  13D6  1803               	skipnc
  9855  13D7  3E01               	addlw	1
  9856  13D8  1D03               	btfss	3,2
  9857  13D9  07F1               	addwf	i1___fladd@b+1,f
  9858  13DA  0876               	movf	i1___fladd@a+2,w
  9859  13DB  1103               	clrz
  9860  13DC  1803               	skipnc
  9861  13DD  3E01               	addlw	1
  9862  13DE  1D03               	btfss	3,2
  9863  13DF  07F2               	addwf	i1___fladd@b+2,f
  9864  13E0  0877               	movf	i1___fladd@a+3,w
  9865  13E1  1103               	clrz
  9866  13E2  1803               	skipnc
  9867  13E3  3E01               	addlw	1
  9868  13E4  1D03               	btfss	3,2
  9869  13E5  07F3               	addwf	i1___fladd@b+3,f
  9870  13E6  1C73               	btfss	i1___fladd@b+3,0
  9871  13E7  2CAF               	goto	i1l3360
  9872  13E8  1C7B               	btfss	i1___fladd@grs,0
  9873  13E9  2BF5               	goto	i1l3316
  9874  13EA  087B               	movf	i1___fladd@grs,w
  9875  13EB  1283               	bcf	3,5	;RP0=0, select bank0
  9876  13EC  1303               	bcf	3,6	;RP1=0, select bank0
  9877  13ED  00A0               	movwf	??i1___fladd
  9878  13EE  1003               	clrc
  9879  13EF  0C20               	rrf	??i1___fladd,w
  9880  13F0  3801               	iorlw	1
  9881  13F1  00A1               	movwf	??i1___fladd+1
  9882  13F2  0821               	movf	??i1___fladd+1,w
  9883  13F3  00FB               	movwf	i1___fladd@grs
  9884  13F4  2BF7               	goto	i1l3318
  9885  13F5                     i1l3316:	
  9886  13F5  1003               	clrc
  9887  13F6  0CFB               	rrf	i1___fladd@grs,f
  9888  13F7                     i1l3318:	
  9889  13F7  1870               	btfsc	i1___fladd@b,0
  9890  13F8  17FB               	bsf	i1___fladd@grs,7
  9891  13F9  3001               	movlw	1
  9892  13FA  1283               	bcf	3,5	;RP0=0, select bank0
  9893  13FB  1303               	bcf	3,6	;RP1=0, select bank0
  9894  13FC  00A0               	movwf	??i1___fladd
  9895  13FD                     u537_25:	
  9896  13FD  0D73               	rlf	i1___fladd@b+3,w
  9897  13FE  0CF3               	rrf	i1___fladd@b+3,f
  9898  13FF  0CF2               	rrf	i1___fladd@b+2,f
  9899  1400  0CF1               	rrf	i1___fladd@b+1,f
  9900  1401  0CF0               	rrf	i1___fladd@b,f
  9901  1402  0BA0               	decfsz	??i1___fladd& (0+127),f
  9902  1403  2BFD               	goto	u537_25
  9903  1404  3001               	movlw	1
  9904  1405  00A0               	movwf	??i1___fladd
  9905  1406  0820               	movf	??i1___fladd,w
  9906  1407  07FA               	addwf	i1___fladd@bexp,f
  9907  1408  2CAF               	goto	i1l3360
  9908  1409                     i1l3326:	
  9909  1409  0873               	movf	i1___fladd@b+3,w
  9910  140A  3A80               	xorlw	128
  9911  140B  00FF               	movwf	127
  9912  140C  0877               	movf	i1___fladd@a+3,w
  9913  140D  3A80               	xorlw	128
  9914  140E  027F               	subwf	127,w
  9915  140F  1D03               	skipz
  9916  1410  2C1B               	goto	u538_23
  9917  1411  0876               	movf	i1___fladd@a+2,w
  9918  1412  0272               	subwf	i1___fladd@b+2,w
  9919  1413  1D03               	skipz
  9920  1414  2C1B               	goto	u538_23
  9921  1415  0875               	movf	i1___fladd@a+1,w
  9922  1416  0271               	subwf	i1___fladd@b+1,w
  9923  1417  1D03               	skipz
  9924  1418  2C1B               	goto	u538_23
  9925  1419  0874               	movf	i1___fladd@a,w
  9926  141A  0270               	subwf	i1___fladd@b,w
  9927  141B                     u538_23:	
  9928  141B  1803               	skipnc
  9929  141C  2C75               	goto	i1l3336
  9930  141D  30FF               	movlw	255
  9931  141E  1283               	bcf	3,5	;RP0=0, select bank0
  9932  141F  1303               	bcf	3,6	;RP1=0, select bank0
  9933  1420  00A0               	movwf	??i1___fladd
  9934  1421  30FF               	movlw	255
  9935  1422  00A1               	movwf	??i1___fladd+1
  9936  1423  30FF               	movlw	255
  9937  1424  00A2               	movwf	??i1___fladd+2
  9938  1425  30FF               	movlw	255
  9939  1426  00A3               	movwf	??i1___fladd+3
  9940  1427  0874               	movf	i1___fladd@a,w
  9941  1428  00A4               	movwf	??i1___fladd+4
  9942  1429  0875               	movf	i1___fladd@a+1,w
  9943  142A  00A5               	movwf	??i1___fladd+5
  9944  142B  0876               	movf	i1___fladd@a+2,w
  9945  142C  00A6               	movwf	??i1___fladd+6
  9946  142D  0877               	movf	i1___fladd@a+3,w
  9947  142E  00A7               	movwf	??i1___fladd+7
  9948  142F  0870               	movf	i1___fladd@b,w
  9949  1430  02A4               	subwf	??i1___fladd+4,f
  9950  1431  0871               	movf	i1___fladd@b+1,w
  9951  1432  1C03               	skipc
  9952  1433  0F71               	incfsz	i1___fladd@b+1,w
  9953  1434  2C36               	goto	u539_21
  9954  1435  2C37               	goto	u539_22
  9955  1436                     u539_21:	
  9956  1436  02A5               	subwf	??i1___fladd+5,f
  9957  1437                     u539_22:	
  9958  1437  0872               	movf	i1___fladd@b+2,w
  9959  1438  1C03               	skipc
  9960  1439  0F72               	incfsz	i1___fladd@b+2,w
  9961  143A  2C3C               	goto	u539_23
  9962  143B  2C3D               	goto	u539_24
  9963  143C                     u539_23:	
  9964  143C  02A6               	subwf	??i1___fladd+6,f
  9965  143D                     u539_24:	
  9966  143D  0873               	movf	i1___fladd@b+3,w
  9967  143E  1C03               	skipc
  9968  143F  0F73               	incfsz	i1___fladd@b+3,w
  9969  1440  2C42               	goto	u539_25
  9970  1441  2C43               	goto	u539_26
  9971  1442                     u539_25:	
  9972  1442  02A7               	subwf	??i1___fladd+7,f
  9973  1443                     u539_26:	
  9974  1443  0824               	movf	??i1___fladd+4,w
  9975  1444  07A0               	addwf	??i1___fladd,f
  9976  1445  0825               	movf	??i1___fladd+5,w
  9977  1446  1803               	skipnc
  9978  1447  0F25               	incfsz	??i1___fladd+5,w
  9979  1448  2C4A               	goto	u540_20
  9980  1449  2C4B               	goto	u540_21
  9981  144A                     u540_20:	
  9982  144A  07A1               	addwf	??i1___fladd+1,f
  9983  144B                     u540_21:	
  9984  144B  0826               	movf	??i1___fladd+6,w
  9985  144C  1803               	skipnc
  9986  144D  0F26               	incfsz	??i1___fladd+6,w
  9987  144E  2C50               	goto	u540_22
  9988  144F  2C51               	goto	u540_23
  9989  1450                     u540_22:	
  9990  1450  07A2               	addwf	??i1___fladd+2,f
  9991  1451                     u540_23:	
  9992  1451  0827               	movf	??i1___fladd+7,w
  9993  1452  1803               	skipnc
  9994  1453  0A27               	incf	??i1___fladd+7,w
  9995  1454  07A3               	addwf	??i1___fladd+3,f
  9996  1455  0823               	movf	??i1___fladd+3,w
  9997  1456  00F3               	movwf	i1___fladd@b+3
  9998  1457  0822               	movf	??i1___fladd+2,w
  9999  1458  00F2               	movwf	i1___fladd@b+2
 10000  1459  0821               	movf	??i1___fladd+1,w
 10001  145A  00F1               	movwf	i1___fladd@b+1
 10002  145B  0820               	movf	??i1___fladd,w
 10003  145C  00F0               	movwf	i1___fladd@b
 10004  145D  3080               	movlw	128
 10005  145E  00A0               	movwf	??i1___fladd
 10006  145F  0820               	movf	??i1___fladd,w
 10007  1460  06F8               	xorwf	i1___fladd@signs,f
 10008  1461  09FB               	comf	i1___fladd@grs,f
 10009  1462  0AFB               	incf	i1___fladd@grs,f
 10010  1463  087B               	movf	i1___fladd@grs,w
 10011  1464  1D03               	btfss	3,2
 10012  1465  2C83               	goto	i1l704
 10013  1466  3001               	movlw	1
 10014  1467  07F0               	addwf	i1___fladd@b,f
 10015  1468  3000               	movlw	0
 10016  1469  1803               	skipnc
 10017  146A  3001               	movlw	1
 10018  146B  07F1               	addwf	i1___fladd@b+1,f
 10019  146C  3000               	movlw	0
 10020  146D  1803               	skipnc
 10021  146E  3001               	movlw	1
 10022  146F  07F2               	addwf	i1___fladd@b+2,f
 10023  1470  3000               	movlw	0
 10024  1471  1803               	skipnc
 10025  1472  3001               	movlw	1
 10026  1473  07F3               	addwf	i1___fladd@b+3,f
 10027  1474  2C83               	goto	i1l704
 10028  1475                     i1l3336:	
 10029  1475  0874               	movf	i1___fladd@a,w
 10030  1476  02F0               	subwf	i1___fladd@b,f
 10031  1477  0875               	movf	i1___fladd@a+1,w
 10032  1478  1C03               	skipc
 10033  1479  0F75               	incfsz	i1___fladd@a+1,w
 10034  147A  02F1               	subwf	i1___fladd@b+1,f
 10035  147B  0876               	movf	i1___fladd@a+2,w
 10036  147C  1C03               	skipc
 10037  147D  0F76               	incfsz	i1___fladd@a+2,w
 10038  147E  02F2               	subwf	i1___fladd@b+2,f
 10039  147F  0877               	movf	i1___fladd@a+3,w
 10040  1480  1C03               	skipc
 10041  1481  0F77               	incfsz	i1___fladd@a+3,w
 10042  1482  02F3               	subwf	i1___fladd@b+3,f
 10043  1483                     i1l704:	
 10044  1483  0873               	movf	i1___fladd@b+3,w
 10045  1484  0472               	iorwf	i1___fladd@b+2,w
 10046  1485  0471               	iorwf	i1___fladd@b+1,w
 10047  1486  0470               	iorwf	i1___fladd@b,w
 10048  1487  1D03               	skipz
 10049  1488  2CAD               	goto	i1l3358
 10050  1489  087B               	movf	i1___fladd@grs,w
 10051  148A  1D03               	btfss	3,2
 10052  148B  2CAD               	goto	i1l3358
 10053  148C  3000               	movlw	0
 10054  148D  00F3               	movwf	?i1___fladd+3
 10055  148E  3000               	movlw	0
 10056  148F  00F2               	movwf	?i1___fladd+2
 10057  1490  3000               	movlw	0
 10058  1491  00F1               	movwf	?i1___fladd+1
 10059  1492  3000               	movlw	0
 10060  1493  00F0               	movwf	?i1___fladd
 10061  1494  0008               	return
 10062  1495                     i1l3344:	
 10063  1495  3001               	movlw	1
 10064  1496  1283               	bcf	3,5	;RP0=0, select bank0
 10065  1497  1303               	bcf	3,6	;RP1=0, select bank0
 10066  1498  00A0               	movwf	??i1___fladd
 10067  1499                     u544_25:	
 10068  1499  1003               	clrc
 10069  149A  0DF0               	rlf	i1___fladd@b,f
 10070  149B  0DF1               	rlf	i1___fladd@b+1,f
 10071  149C  0DF2               	rlf	i1___fladd@b+2,f
 10072  149D  0DF3               	rlf	i1___fladd@b+3,f
 10073  149E  0BA0               	decfsz	??i1___fladd,f
 10074  149F  2C99               	goto	u544_25
 10075  14A0  1BFB               	btfsc	i1___fladd@grs,7
 10076  14A1  1470               	bsf	i1___fladd@b,0
 10077  14A2  1C7B               	btfss	i1___fladd@grs,0
 10078  14A3  2CA6               	goto	i1l3352
 10079  14A4  1403               	setc
 10080  14A5  2CA7               	goto	L3
 10081  14A6                     i1l3352:	
 10082  14A6  1003               	clrc
 10083  14A7                     L3:	
 10084  14A7  0DFB               	rlf	i1___fladd@grs,f
 10085  14A8  087A               	movf	i1___fladd@bexp,w
 10086  14A9  1903               	btfsc	3,2
 10087  14AA  2CAD               	goto	i1l3358
 10088  14AB  3001               	movlw	1
 10089  14AC  02FA               	subwf	i1___fladd@bexp,f
 10090  14AD                     i1l3358:	
 10091  14AD  1FF2               	btfss	i1___fladd@b+2,7
 10092  14AE  2C95               	goto	i1l3344
 10093  14AF                     i1l3360:	
 10094  14AF  01F9               	clrf	i1___fladd@aexp
 10095  14B0  1FFB               	btfss	i1___fladd@grs,7
 10096  14B1  2CBA               	goto	i1l3370
 10097  14B2  087B               	movf	i1___fladd@grs,w
 10098  14B3  397F               	andlw	127
 10099  14B4  1903               	btfsc	3,2
 10100  14B5  1870               	btfsc	i1___fladd@b,0
 10101  14B6  2CB8               	goto	i1l3366
 10102  14B7  2CBA               	goto	i1l3370
 10103  14B8                     i1l3366:	
 10104  14B8  01F9               	clrf	i1___fladd@aexp
 10105  14B9  0AF9               	incf	i1___fladd@aexp,f
 10106  14BA                     i1l3370:	
 10107  14BA  0879               	movf	i1___fladd@aexp,w
 10108  14BB  1903               	btfsc	3,2
 10109  14BC  2CEF               	goto	i1l717
 10110  14BD  3001               	movlw	1
 10111  14BE  07F0               	addwf	i1___fladd@b,f
 10112  14BF  3000               	movlw	0
 10113  14C0  1803               	skipnc
 10114  14C1  3001               	movlw	1
 10115  14C2  07F1               	addwf	i1___fladd@b+1,f
 10116  14C3  3000               	movlw	0
 10117  14C4  1803               	skipnc
 10118  14C5  3001               	movlw	1
 10119  14C6  07F2               	addwf	i1___fladd@b+2,f
 10120  14C7  3000               	movlw	0
 10121  14C8  1803               	skipnc
 10122  14C9  3001               	movlw	1
 10123  14CA  07F3               	addwf	i1___fladd@b+3,f
 10124  14CB  1C73               	btfss	i1___fladd@b+3,0
 10125  14CC  2CEF               	goto	i1l717
 10126  14CD  0870               	movf	i1___fladd@b,w
 10127  14CE  1283               	bcf	3,5	;RP0=0, select bank0
 10128  14CF  1303               	bcf	3,6	;RP1=0, select bank0
 10129  14D0  00A0               	movwf	??i1___fladd
 10130  14D1  0871               	movf	i1___fladd@b+1,w
 10131  14D2  00A1               	movwf	??i1___fladd+1
 10132  14D3  0872               	movf	i1___fladd@b+2,w
 10133  14D4  00A2               	movwf	??i1___fladd+2
 10134  14D5  0873               	movf	i1___fladd@b+3,w
 10135  14D6  00A3               	movwf	??i1___fladd+3
 10136  14D7  3001               	movlw	1
 10137  14D8  00A4               	movwf	??i1___fladd+4
 10138  14D9                     u554_25:	
 10139  14D9  0D23               	rlf	??i1___fladd+3,w
 10140  14DA  0CA3               	rrf	??i1___fladd+3,f
 10141  14DB  0CA2               	rrf	??i1___fladd+2,f
 10142  14DC  0CA1               	rrf	??i1___fladd+1,f
 10143  14DD  0CA0               	rrf	??i1___fladd,f
 10144  14DE  0BA4               	decfsz	??i1___fladd+4,f
 10145  14DF  2CD9               	goto	u554_25
 10146  14E0  0823               	movf	??i1___fladd+3,w
 10147  14E1  00F3               	movwf	i1___fladd@b+3
 10148  14E2  0822               	movf	??i1___fladd+2,w
 10149  14E3  00F2               	movwf	i1___fladd@b+2
 10150  14E4  0821               	movf	??i1___fladd+1,w
 10151  14E5  00F1               	movwf	i1___fladd@b+1
 10152  14E6  0820               	movf	??i1___fladd,w
 10153  14E7  00F0               	movwf	i1___fladd@b
 10154  14E8  0A7A               	incf	i1___fladd@bexp,w
 10155  14E9  1903               	btfsc	3,2
 10156  14EA  2CEF               	goto	i1l717
 10157  14EB  3001               	movlw	1
 10158  14EC  00A0               	movwf	??i1___fladd
 10159  14ED  0820               	movf	??i1___fladd,w
 10160  14EE  07FA               	addwf	i1___fladd@bexp,f
 10161  14EF                     i1l717:	
 10162  14EF  0A7A               	incf	i1___fladd@bexp,w
 10163  14F0  1D03               	btfss	3,2
 10164  14F1  087A               	movf	i1___fladd@bexp,w
 10165  14F2  1D03               	btfss	3,2
 10166  14F3  2CFF               	goto	i1l3388
 10167  14F4  3000               	movlw	0
 10168  14F5  00F3               	movwf	i1___fladd@b+3
 10169  14F6  3000               	movlw	0
 10170  14F7  00F2               	movwf	i1___fladd@b+2
 10171  14F8  3000               	movlw	0
 10172  14F9  00F1               	movwf	i1___fladd@b+1
 10173  14FA  3000               	movlw	0
 10174  14FB  00F0               	movwf	i1___fladd@b
 10175  14FC  087A               	movf	i1___fladd@bexp,w
 10176  14FD  1903               	btfsc	3,2
 10177  14FE  01F8               	clrf	i1___fladd@signs
 10178  14FF                     i1l3388:	
 10179  14FF  1C7A               	btfss	i1___fladd@bexp,0
 10180  1500  2D03               	goto	i1l3392
 10181  1501  17F2               	bsf	i1___fladd@b+2,7
 10182  1502  2D09               	goto	i1l725
 10183  1503                     i1l3392:	
 10184  1503  307F               	movlw	127
 10185  1504  1283               	bcf	3,5	;RP0=0, select bank0
 10186  1505  1303               	bcf	3,6	;RP1=0, select bank0
 10187  1506  00A0               	movwf	??i1___fladd
 10188  1507  0820               	movf	??i1___fladd,w
 10189  1508  05F2               	andwf	i1___fladd@b+2,f
 10190  1509                     i1l725:	
 10191  1509  087A               	movf	i1___fladd@bexp,w
 10192  150A  1283               	bcf	3,5	;RP0=0, select bank0
 10193  150B  1303               	bcf	3,6	;RP1=0, select bank0
 10194  150C  00A0               	movwf	??i1___fladd
 10195  150D  1003               	clrc
 10196  150E  0C20               	rrf	??i1___fladd,w
 10197  150F  00A1               	movwf	??i1___fladd+1
 10198  1510  0821               	movf	??i1___fladd+1,w
 10199  1511  00F3               	movwf	i1___fladd@b+3
 10200  1512  1FF8               	btfss	i1___fladd@signs,7
 10201  1513  0008               	return
 10202  1514  17F3               	bsf	i1___fladd@b+3,7
 10203  1515  0008               	return
 10204  1516                     __end_ofi1___fladd:	
 10205                           
 10206                           	psect	text32
 10207  1E5D                     __ptext32:	
 10208 ;; *************** function i1___fldiv *****************
 10209 ;; Defined at:
 10210 ;;		line 8 in file "D:\PROGRAM\MPLABX v5.20\XC8 v2.05\pic\sources\c90\common\sprcdiv.c"
 10211 ;; Parameters:    Size  Location     Type
 10212 ;;  a               4    0[BANK0 ] unsigned char 
 10213 ;;  b               4    4[BANK0 ] unsigned char 
 10214 ;; Auto vars:     Size  Location     Type
 10215 ;;  __fldiv         4   20[BANK0 ] unsigned long 
 10216 ;;  __fldiv         4   13[BANK0 ] unsigned long 
 10217 ;;  __fldiv         2   18[BANK0 ] int 
 10218 ;;  __fldiv         1   25[BANK0 ] unsigned char 
 10219 ;;  __fldiv         1   24[BANK0 ] unsigned char 
 10220 ;;  __fldiv         1   17[BANK0 ] unsigned char 
 10221 ;; Return value:  Size  Location     Type
 10222 ;;                  4    0[BANK0 ] unsigned char 
 10223 ;; Registers used:
 10224 ;;		wreg, status,2, status,0, btemp+1
 10225 ;; Tracked objects:
 10226 ;;		On entry : 0/0
 10227 ;;		On exit  : 0/0
 10228 ;;		Unchanged: 0/0
 10229 ;; Data sizes:     COMMON   BANK0   BANK1   BANK3   BANK2
 10230 ;;      Params:         0       8       0       0       0
 10231 ;;      Locals:         0      13       0       0       0
 10232 ;;      Temps:          0       5       0       0       0
 10233 ;;      Totals:         0      26       0       0       0
 10234 ;;Total ram usage:       26 bytes
 10235 ;; Hardware stack levels used:    1
 10236 ;; This function calls:
 10237 ;;		Nothing
 10238 ;; This function is called by:
 10239 ;;		_My_interrupt
 10240 ;; This function uses a non-reentrant model
 10241 ;;
 10242                           
 10243                           
 10244                           ;psect for function i1___fldiv
 10245  1E5D                     i1___fldiv:	
 10246                           
 10247                           ;incstack = 0
 10248                           ; Regs used in i1___fldiv: [wreg+status,2+status,0+btemp+1]
 10249  1E5D  1283               	bcf	3,5	;RP0=0, select bank0
 10250  1E5E  1303               	bcf	3,6	;RP1=0, select bank0
 10251  1E5F  0827               	movf	i1___fldiv@b+3,w
 10252  1E60  3980               	andlw	128
 10253  1E61  00A8               	movwf	??i1___fldiv
 10254  1E62  0828               	movf	??i1___fldiv,w
 10255  1E63  00B1               	movwf	i1___fldiv@sign
 10256  1E64  0827               	movf	i1___fldiv@b+3,w
 10257  1E65  00A8               	movwf	??i1___fldiv
 10258  1E66  0728               	addwf	??i1___fldiv,w
 10259  1E67  00A9               	movwf	??i1___fldiv+1
 10260  1E68  0829               	movf	??i1___fldiv+1,w
 10261  1E69  00B8               	movwf	i1___fldiv@bexp
 10262  1E6A  1BA6               	btfsc	i1___fldiv@b+2,7
 10263  1E6B  1438               	bsf	i1___fldiv@bexp,0
 10264  1E6C  0838               	movf	i1___fldiv@bexp,w
 10265  1E6D  1903               	btfsc	3,2
 10266  1E6E  2E7D               	goto	i1l3604
 10267  1E6F  0A38               	incf	i1___fldiv@bexp,w
 10268  1E70  1D03               	btfss	3,2
 10269  1E71  2E7A               	goto	i1l3600
 10270  1E72  3000               	movlw	0
 10271  1E73  00A7               	movwf	i1___fldiv@b+3
 10272  1E74  3000               	movlw	0
 10273  1E75  00A6               	movwf	i1___fldiv@b+2
 10274  1E76  3000               	movlw	0
 10275  1E77  00A5               	movwf	i1___fldiv@b+1
 10276  1E78  3000               	movlw	0
 10277  1E79  00A4               	movwf	i1___fldiv@b
 10278  1E7A                     i1l3600:	
 10279  1E7A  17A6               	bsf	i1___fldiv@b+2,7
 10280  1E7B  01A7               	clrf	i1___fldiv@b+3
 10281  1E7C  2E85               	goto	i1l3606
 10282  1E7D                     i1l3604:	
 10283  1E7D  3000               	movlw	0
 10284  1E7E  00A7               	movwf	i1___fldiv@b+3
 10285  1E7F  3000               	movlw	0
 10286  1E80  00A6               	movwf	i1___fldiv@b+2
 10287  1E81  3000               	movlw	0
 10288  1E82  00A5               	movwf	i1___fldiv@b+1
 10289  1E83  3000               	movlw	0
 10290  1E84  00A4               	movwf	i1___fldiv@b
 10291  1E85                     i1l3606:	
 10292  1E85  0823               	movf	i1___fldiv@a+3,w
 10293  1E86  3980               	andlw	128
 10294  1E87  00A8               	movwf	??i1___fldiv
 10295  1E88  0828               	movf	??i1___fldiv,w
 10296  1E89  06B1               	xorwf	i1___fldiv@sign,f
 10297  1E8A  0823               	movf	i1___fldiv@a+3,w
 10298  1E8B  00A8               	movwf	??i1___fldiv
 10299  1E8C  0728               	addwf	??i1___fldiv,w
 10300  1E8D  00A9               	movwf	??i1___fldiv+1
 10301  1E8E  0829               	movf	??i1___fldiv+1,w
 10302  1E8F  00B9               	movwf	i1___fldiv@aexp
 10303  1E90  1BA2               	btfsc	i1___fldiv@a+2,7
 10304  1E91  1439               	bsf	i1___fldiv@aexp,0
 10305  1E92  0839               	movf	i1___fldiv@aexp,w
 10306  1E93  1903               	btfsc	3,2
 10307  1E94  2EA3               	goto	i1l3624
 10308  1E95  0A39               	incf	i1___fldiv@aexp,w
 10309  1E96  1D03               	btfss	3,2
 10310  1E97  2EA0               	goto	i1l3620
 10311  1E98  3000               	movlw	0
 10312  1E99  00A3               	movwf	i1___fldiv@a+3
 10313  1E9A  3000               	movlw	0
 10314  1E9B  00A2               	movwf	i1___fldiv@a+2
 10315  1E9C  3000               	movlw	0
 10316  1E9D  00A1               	movwf	i1___fldiv@a+1
 10317  1E9E  3000               	movlw	0
 10318  1E9F  00A0               	movwf	i1___fldiv@a
 10319  1EA0                     i1l3620:	
 10320  1EA0  17A2               	bsf	i1___fldiv@a+2,7
 10321  1EA1  01A3               	clrf	i1___fldiv@a+3
 10322  1EA2  2EAB               	goto	i1l739
 10323  1EA3                     i1l3624:	
 10324  1EA3  3000               	movlw	0
 10325  1EA4  00A3               	movwf	i1___fldiv@a+3
 10326  1EA5  3000               	movlw	0
 10327  1EA6  00A2               	movwf	i1___fldiv@a+2
 10328  1EA7  3000               	movlw	0
 10329  1EA8  00A1               	movwf	i1___fldiv@a+1
 10330  1EA9  3000               	movlw	0
 10331  1EAA  00A0               	movwf	i1___fldiv@a
 10332  1EAB                     i1l739:	
 10333  1EAB  0823               	movf	i1___fldiv@a+3,w
 10334  1EAC  0422               	iorwf	i1___fldiv@a+2,w
 10335  1EAD  0421               	iorwf	i1___fldiv@a+1,w
 10336  1EAE  0420               	iorwf	i1___fldiv@a,w
 10337  1EAF  1D03               	skipz
 10338  1EB0  2ECA               	goto	i1l3634
 10339  1EB1  3000               	movlw	0
 10340  1EB2  00A7               	movwf	i1___fldiv@b+3
 10341  1EB3  3000               	movlw	0
 10342  1EB4  00A6               	movwf	i1___fldiv@b+2
 10343  1EB5  3000               	movlw	0
 10344  1EB6  00A5               	movwf	i1___fldiv@b+1
 10345  1EB7  3000               	movlw	0
 10346  1EB8  00A4               	movwf	i1___fldiv@b
 10347  1EB9  3080               	movlw	128
 10348  1EBA  04A6               	iorwf	i1___fldiv@b+2,f
 10349  1EBB  307F               	movlw	127
 10350  1EBC  04A7               	iorwf	i1___fldiv@b+3,f
 10351  1EBD                     L4:	
 10352  1EBD  0831               	movf	i1___fldiv@sign,w
 10353  1EBE  00A8               	movwf	??i1___fldiv
 10354  1EBF  0828               	movf	??i1___fldiv,w
 10355  1EC0  04A7               	iorwf	i1___fldiv@b+3,f
 10356  1EC1  0827               	movf	i1___fldiv@b+3,w
 10357  1EC2  00A3               	movwf	?i1___fldiv+3
 10358  1EC3  0826               	movf	i1___fldiv@b+2,w
 10359  1EC4  00A2               	movwf	?i1___fldiv+2
 10360  1EC5  0825               	movf	i1___fldiv@b+1,w
 10361  1EC6  00A1               	movwf	?i1___fldiv+1
 10362  1EC7  0824               	movf	i1___fldiv@b,w
 10363  1EC8  00A0               	movwf	?i1___fldiv
 10364  1EC9  0008               	return
 10365  1ECA                     i1l3634:	
 10366  1ECA  0838               	movf	i1___fldiv@bexp,w
 10367  1ECB  1D03               	btfss	3,2
 10368  1ECC  2ED6               	goto	i1l3640
 10369  1ECD  3000               	movlw	0
 10370  1ECE  00A3               	movwf	?i1___fldiv+3
 10371  1ECF  3000               	movlw	0
 10372  1ED0  00A2               	movwf	?i1___fldiv+2
 10373  1ED1  3000               	movlw	0
 10374  1ED2  00A1               	movwf	?i1___fldiv+1
 10375  1ED3  3000               	movlw	0
 10376  1ED4  00A0               	movwf	?i1___fldiv
 10377  1ED5  0008               	return
 10378  1ED6                     i1l3640:	
 10379  1ED6  0838               	movf	i1___fldiv@bexp,w
 10380  1ED7  00A8               	movwf	??i1___fldiv
 10381  1ED8  01A9               	clrf	??i1___fldiv+1
 10382  1ED9  0829               	movf	??i1___fldiv+1,w
 10383  1EDA  00AB               	movwf	??i1___fldiv+3
 10384  1EDB  0839               	movf	i1___fldiv@aexp,w
 10385  1EDC  0228               	subwf	??i1___fldiv,w
 10386  1EDD  00AA               	movwf	??i1___fldiv+2
 10387  1EDE  1C03               	skipc
 10388  1EDF  03AB               	decf	??i1___fldiv+3,f
 10389  1EE0  082A               	movf	??i1___fldiv+2,w
 10390  1EE1  3E7F               	addlw	127
 10391  1EE2  00B2               	movwf	i1___fldiv@new_exp
 10392  1EE3  082B               	movf	??i1___fldiv+3,w
 10393  1EE4  1803               	skipnc
 10394  1EE5  3E01               	addlw	1
 10395  1EE6  3E00               	addlw	0
 10396  1EE7  00B3               	movwf	i1___fldiv@new_exp+1
 10397  1EE8  0827               	movf	i1___fldiv@b+3,w
 10398  1EE9  00B0               	movwf	i1___fldiv@rem+3
 10399  1EEA  0826               	movf	i1___fldiv@b+2,w
 10400  1EEB  00AF               	movwf	i1___fldiv@rem+2
 10401  1EEC  0825               	movf	i1___fldiv@b+1,w
 10402  1EED  00AE               	movwf	i1___fldiv@rem+1
 10403  1EEE  0824               	movf	i1___fldiv@b,w
 10404  1EEF  00AD               	movwf	i1___fldiv@rem
 10405  1EF0  3000               	movlw	0
 10406  1EF1  00A7               	movwf	i1___fldiv@b+3
 10407  1EF2  3000               	movlw	0
 10408  1EF3  00A6               	movwf	i1___fldiv@b+2
 10409  1EF4  3000               	movlw	0
 10410  1EF5  00A5               	movwf	i1___fldiv@b+1
 10411  1EF6  3000               	movlw	0
 10412  1EF7  00A4               	movwf	i1___fldiv@b
 10413  1EF8  3000               	movlw	0
 10414  1EF9  00B7               	movwf	i1___fldiv@grs+3
 10415  1EFA  3000               	movlw	0
 10416  1EFB  00B6               	movwf	i1___fldiv@grs+2
 10417  1EFC  3000               	movlw	0
 10418  1EFD  00B5               	movwf	i1___fldiv@grs+1
 10419  1EFE  3000               	movlw	0
 10420  1EFF  00B4               	movwf	i1___fldiv@grs
 10421  1F00  01B9               	clrf	i1___fldiv@aexp
 10422  1F01                     i1l3668:	
 10423  1F01  301A               	movlw	26
 10424  1F02  0239               	subwf	i1___fldiv@aexp,w
 10425  1F03  1803               	btfsc	3,0
 10426  1F04  2F49               	goto	i1l3670
 10427  1F05  0839               	movf	i1___fldiv@aexp,w
 10428  1F06  1903               	btfsc	3,2
 10429  1F07  2F25               	goto	i1l3660
 10430  1F08  3001               	movlw	1
 10431  1F09  00A8               	movwf	??i1___fldiv
 10432  1F0A                     u595_25:	
 10433  1F0A  1003               	clrc
 10434  1F0B  0DAD               	rlf	i1___fldiv@rem,f
 10435  1F0C  0DAE               	rlf	i1___fldiv@rem+1,f
 10436  1F0D  0DAF               	rlf	i1___fldiv@rem+2,f
 10437  1F0E  0DB0               	rlf	i1___fldiv@rem+3,f
 10438  1F0F  0BA8               	decfsz	??i1___fldiv,f
 10439  1F10  2F0A               	goto	u595_25
 10440  1F11  3001               	movlw	1
 10441  1F12  00A8               	movwf	??i1___fldiv
 10442  1F13                     u596_25:	
 10443  1F13  1003               	clrc
 10444  1F14  0DA4               	rlf	i1___fldiv@b,f
 10445  1F15  0DA5               	rlf	i1___fldiv@b+1,f
 10446  1F16  0DA6               	rlf	i1___fldiv@b+2,f
 10447  1F17  0DA7               	rlf	i1___fldiv@b+3,f
 10448  1F18  0BA8               	decfsz	??i1___fldiv,f
 10449  1F19  2F13               	goto	u596_25
 10450  1F1A  1BB7               	btfsc	i1___fldiv@grs+3,7
 10451  1F1B  1424               	bsf	i1___fldiv@b,0
 10452  1F1C  3001               	movlw	1
 10453  1F1D  00A8               	movwf	??i1___fldiv
 10454  1F1E                     u598_25:	
 10455  1F1E  1003               	clrc
 10456  1F1F  0DB4               	rlf	i1___fldiv@grs,f
 10457  1F20  0DB5               	rlf	i1___fldiv@grs+1,f
 10458  1F21  0DB6               	rlf	i1___fldiv@grs+2,f
 10459  1F22  0DB7               	rlf	i1___fldiv@grs+3,f
 10460  1F23  0BA8               	decfsz	??i1___fldiv,f
 10461  1F24  2F1E               	goto	u598_25
 10462  1F25                     i1l3660:	
 10463  1F25  0823               	movf	i1___fldiv@a+3,w
 10464  1F26  0230               	subwf	i1___fldiv@rem+3,w
 10465  1F27  1D03               	skipz
 10466  1F28  2F33               	goto	u599_25
 10467  1F29  0822               	movf	i1___fldiv@a+2,w
 10468  1F2A  022F               	subwf	i1___fldiv@rem+2,w
 10469  1F2B  1D03               	skipz
 10470  1F2C  2F33               	goto	u599_25
 10471  1F2D  0821               	movf	i1___fldiv@a+1,w
 10472  1F2E  022E               	subwf	i1___fldiv@rem+1,w
 10473  1F2F  1D03               	skipz
 10474  1F30  2F33               	goto	u599_25
 10475  1F31  0820               	movf	i1___fldiv@a,w
 10476  1F32  022D               	subwf	i1___fldiv@rem,w
 10477  1F33                     u599_25:	
 10478  1F33  1C03               	skipc
 10479  1F34  2F44               	goto	i1l3666
 10480  1F35  1737               	bsf	i1___fldiv@grs+3,6
 10481  1F36  0820               	movf	i1___fldiv@a,w
 10482  1F37  02AD               	subwf	i1___fldiv@rem,f
 10483  1F38  0821               	movf	i1___fldiv@a+1,w
 10484  1F39  1C03               	skipc
 10485  1F3A  0F21               	incfsz	i1___fldiv@a+1,w
 10486  1F3B  02AE               	subwf	i1___fldiv@rem+1,f
 10487  1F3C  0822               	movf	i1___fldiv@a+2,w
 10488  1F3D  1C03               	skipc
 10489  1F3E  0F22               	incfsz	i1___fldiv@a+2,w
 10490  1F3F  02AF               	subwf	i1___fldiv@rem+2,f
 10491  1F40  0823               	movf	i1___fldiv@a+3,w
 10492  1F41  1C03               	skipc
 10493  1F42  0F23               	incfsz	i1___fldiv@a+3,w
 10494  1F43  02B0               	subwf	i1___fldiv@rem+3,f
 10495  1F44                     i1l3666:	
 10496  1F44  3001               	movlw	1
 10497  1F45  00A8               	movwf	??i1___fldiv
 10498  1F46  0828               	movf	??i1___fldiv,w
 10499  1F47  07B9               	addwf	i1___fldiv@aexp,f
 10500  1F48  2F01               	goto	i1l3668
 10501  1F49                     i1l3670:	
 10502  1F49  0830               	movf	i1___fldiv@rem+3,w
 10503  1F4A  042F               	iorwf	i1___fldiv@rem+2,w
 10504  1F4B  042E               	iorwf	i1___fldiv@rem+1,w
 10505  1F4C  042D               	iorwf	i1___fldiv@rem,w
 10506  1F4D  1D03               	btfss	3,2
 10507  1F4E  1434               	bsf	i1___fldiv@grs,0
 10508  1F4F                     i1l3684:	
 10509  1F4F  1BA6               	btfsc	i1___fldiv@b+2,7
 10510  1F50  2F6C               	goto	i1l3686
 10511  1F51  3001               	movlw	1
 10512  1F52  00A8               	movwf	??i1___fldiv
 10513  1F53                     u602_25:	
 10514  1F53  1003               	clrc
 10515  1F54  0DA4               	rlf	i1___fldiv@b,f
 10516  1F55  0DA5               	rlf	i1___fldiv@b+1,f
 10517  1F56  0DA6               	rlf	i1___fldiv@b+2,f
 10518  1F57  0DA7               	rlf	i1___fldiv@b+3,f
 10519  1F58  0BA8               	decfsz	??i1___fldiv,f
 10520  1F59  2F53               	goto	u602_25
 10521  1F5A  1BB7               	btfsc	i1___fldiv@grs+3,7
 10522  1F5B  1424               	bsf	i1___fldiv@b,0
 10523  1F5C  3001               	movlw	1
 10524  1F5D  00A8               	movwf	??i1___fldiv
 10525  1F5E                     u604_25:	
 10526  1F5E  1003               	clrc
 10527  1F5F  0DB4               	rlf	i1___fldiv@grs,f
 10528  1F60  0DB5               	rlf	i1___fldiv@grs+1,f
 10529  1F61  0DB6               	rlf	i1___fldiv@grs+2,f
 10530  1F62  0DB7               	rlf	i1___fldiv@grs+3,f
 10531  1F63  0BA8               	decfsz	??i1___fldiv,f
 10532  1F64  2F5E               	goto	u604_25
 10533  1F65  30FF               	movlw	255
 10534  1F66  07B2               	addwf	i1___fldiv@new_exp,f
 10535  1F67  1803               	skipnc
 10536  1F68  0AB3               	incf	i1___fldiv@new_exp+1,f
 10537  1F69  30FF               	movlw	255
 10538  1F6A  07B3               	addwf	i1___fldiv@new_exp+1,f
 10539  1F6B  2F4F               	goto	i1l3684
 10540  1F6C                     i1l3686:	
 10541  1F6C  01B9               	clrf	i1___fldiv@aexp
 10542  1F6D  1FB7               	btfss	i1___fldiv@grs+3,7
 10543  1F6E  2F85               	goto	i1l3696
 10544  1F6F  30FF               	movlw	255
 10545  1F70  0534               	andwf	i1___fldiv@grs,w
 10546  1F71  00A8               	movwf	??i1___fldiv
 10547  1F72  30FF               	movlw	255
 10548  1F73  0535               	andwf	i1___fldiv@grs+1,w
 10549  1F74  00A9               	movwf	??i1___fldiv+1
 10550  1F75  30FF               	movlw	255
 10551  1F76  0536               	andwf	i1___fldiv@grs+2,w
 10552  1F77  00AA               	movwf	??i1___fldiv+2
 10553  1F78  307F               	movlw	127
 10554  1F79  0537               	andwf	i1___fldiv@grs+3,w
 10555  1F7A  00AB               	movwf	??i1___fldiv+3
 10556  1F7B  082B               	movf	??i1___fldiv+3,w
 10557  1F7C  042A               	iorwf	??i1___fldiv+2,w
 10558  1F7D  0429               	iorwf	??i1___fldiv+1,w
 10559  1F7E  0428               	iorwf	??i1___fldiv,w
 10560  1F7F  1903               	skipnz
 10561  1F80  1824               	btfsc	i1___fldiv@b,0
 10562  1F81  2F83               	goto	i1l3692
 10563  1F82  2F85               	goto	i1l3696
 10564  1F83                     i1l3692:	
 10565  1F83  01B9               	clrf	i1___fldiv@aexp
 10566  1F84  0AB9               	incf	i1___fldiv@aexp,f
 10567  1F85                     i1l3696:	
 10568  1F85  0839               	movf	i1___fldiv@aexp,w
 10569  1F86  1903               	btfsc	3,2
 10570  1F87  2FB7               	goto	i1l3706
 10571  1F88  3001               	movlw	1
 10572  1F89  07A4               	addwf	i1___fldiv@b,f
 10573  1F8A  3000               	movlw	0
 10574  1F8B  1803               	skipnc
 10575  1F8C  3001               	movlw	1
 10576  1F8D  07A5               	addwf	i1___fldiv@b+1,f
 10577  1F8E  3000               	movlw	0
 10578  1F8F  1803               	skipnc
 10579  1F90  3001               	movlw	1
 10580  1F91  07A6               	addwf	i1___fldiv@b+2,f
 10581  1F92  3000               	movlw	0
 10582  1F93  1803               	skipnc
 10583  1F94  3001               	movlw	1
 10584  1F95  07A7               	addwf	i1___fldiv@b+3,f
 10585  1F96  1C27               	btfss	i1___fldiv@b+3,0
 10586  1F97  2FB7               	goto	i1l3706
 10587  1F98  0824               	movf	i1___fldiv@b,w
 10588  1F99  00A8               	movwf	??i1___fldiv
 10589  1F9A  0825               	movf	i1___fldiv@b+1,w
 10590  1F9B  00A9               	movwf	??i1___fldiv+1
 10591  1F9C  0826               	movf	i1___fldiv@b+2,w
 10592  1F9D  00AA               	movwf	??i1___fldiv+2
 10593  1F9E  0827               	movf	i1___fldiv@b+3,w
 10594  1F9F  00AB               	movwf	??i1___fldiv+3
 10595  1FA0  3001               	movlw	1
 10596  1FA1  00AC               	movwf	??i1___fldiv+4
 10597  1FA2                     u611_25:	
 10598  1FA2  0D2B               	rlf	??i1___fldiv+3,w
 10599  1FA3  0CAB               	rrf	??i1___fldiv+3,f
 10600  1FA4  0CAA               	rrf	??i1___fldiv+2,f
 10601  1FA5  0CA9               	rrf	??i1___fldiv+1,f
 10602  1FA6  0CA8               	rrf	??i1___fldiv,f
 10603  1FA7  0BAC               	decfsz	??i1___fldiv+4,f
 10604  1FA8  2FA2               	goto	u611_25
 10605  1FA9  082B               	movf	??i1___fldiv+3,w
 10606  1FAA  00A7               	movwf	i1___fldiv@b+3
 10607  1FAB  082A               	movf	??i1___fldiv+2,w
 10608  1FAC  00A6               	movwf	i1___fldiv@b+2
 10609  1FAD  0829               	movf	??i1___fldiv+1,w
 10610  1FAE  00A5               	movwf	i1___fldiv@b+1
 10611  1FAF  0828               	movf	??i1___fldiv,w
 10612  1FB0  00A4               	movwf	i1___fldiv@b
 10613  1FB1  3001               	movlw	1
 10614  1FB2  07B2               	addwf	i1___fldiv@new_exp,f
 10615  1FB3  1803               	skipnc
 10616  1FB4  0AB3               	incf	i1___fldiv@new_exp+1,f
 10617  1FB5  3000               	movlw	0
 10618  1FB6  07B3               	addwf	i1___fldiv@new_exp+1,f
 10619  1FB7                     i1l3706:	
 10620  1FB7  0833               	movf	i1___fldiv@new_exp+1,w
 10621  1FB8  3A80               	xorlw	128
 10622  1FB9  00FF               	movwf	127
 10623  1FBA  3080               	movlw	128
 10624  1FBB  027F               	subwf	127,w
 10625  1FBC  1D03               	skipz
 10626  1FBD  2FC0               	goto	u612_25
 10627  1FBE  30FF               	movlw	255
 10628  1FBF  0232               	subwf	i1___fldiv@new_exp,w
 10629  1FC0                     u612_25:	
 10630  1FC0  1C03               	skipc
 10631  1FC1  2FD0               	goto	i1l3710
 10632  1FC2  30FF               	movlw	255
 10633  1FC3  1283               	bcf	3,5	;RP0=0, select bank0
 10634  1FC4  1303               	bcf	3,6	;RP1=0, select bank0
 10635  1FC5  00B2               	movwf	i1___fldiv@new_exp
 10636  1FC6  3000               	movlw	0
 10637  1FC7  00B3               	movwf	i1___fldiv@new_exp+1
 10638  1FC8  3000               	movlw	0
 10639  1FC9  00A7               	movwf	i1___fldiv@b+3
 10640  1FCA  3000               	movlw	0
 10641  1FCB  00A6               	movwf	i1___fldiv@b+2
 10642  1FCC  3000               	movlw	0
 10643  1FCD  00A5               	movwf	i1___fldiv@b+1
 10644  1FCE  3000               	movlw	0
 10645  1FCF  00A4               	movwf	i1___fldiv@b
 10646  1FD0                     i1l3710:	
 10647  1FD0  1283               	bcf	3,5	;RP0=0, select bank0
 10648  1FD1  1303               	bcf	3,6	;RP1=0, select bank0
 10649  1FD2  0833               	movf	i1___fldiv@new_exp+1,w
 10650  1FD3  3A80               	xorlw	128
 10651  1FD4  00FF               	movwf	127
 10652  1FD5  3080               	movlw	128
 10653  1FD6  027F               	subwf	127,w
 10654  1FD7  1D03               	skipz
 10655  1FD8  2FDB               	goto	u613_25
 10656  1FD9  3001               	movlw	1
 10657  1FDA  0232               	subwf	i1___fldiv@new_exp,w
 10658  1FDB                     u613_25:	
 10659  1FDB  1803               	skipnc
 10660  1FDC  2FEA               	goto	i1l761
 10661  1FDD  1283               	bcf	3,5	;RP0=0, select bank0
 10662  1FDE  1303               	bcf	3,6	;RP1=0, select bank0
 10663  1FDF  01B2               	clrf	i1___fldiv@new_exp
 10664  1FE0  01B3               	clrf	i1___fldiv@new_exp+1
 10665  1FE1  3000               	movlw	0
 10666  1FE2  00A7               	movwf	i1___fldiv@b+3
 10667  1FE3  3000               	movlw	0
 10668  1FE4  00A6               	movwf	i1___fldiv@b+2
 10669  1FE5  3000               	movlw	0
 10670  1FE6  00A5               	movwf	i1___fldiv@b+1
 10671  1FE7  3000               	movlw	0
 10672  1FE8  00A4               	movwf	i1___fldiv@b
 10673  1FE9  01B1               	clrf	i1___fldiv@sign
 10674  1FEA                     i1l761:	
 10675  1FEA  1283               	bcf	3,5	;RP0=0, select bank0
 10676  1FEB  1303               	bcf	3,6	;RP1=0, select bank0
 10677  1FEC  0832               	movf	i1___fldiv@new_exp,w
 10678  1FED  00A8               	movwf	??i1___fldiv
 10679  1FEE  0828               	movf	??i1___fldiv,w
 10680  1FEF  00B8               	movwf	i1___fldiv@bexp
 10681  1FF0  1C38               	btfss	i1___fldiv@bexp,0
 10682  1FF1  2FF4               	goto	i1l3722
 10683  1FF2  17A6               	bsf	i1___fldiv@b+2,7
 10684  1FF3  2FF8               	goto	i1l763
 10685  1FF4                     i1l3722:	
 10686  1FF4  307F               	movlw	127
 10687  1FF5  00A8               	movwf	??i1___fldiv
 10688  1FF6  0828               	movf	??i1___fldiv,w
 10689  1FF7  05A6               	andwf	i1___fldiv@b+2,f
 10690  1FF8                     i1l763:	
 10691  1FF8  0838               	movf	i1___fldiv@bexp,w
 10692  1FF9  00A8               	movwf	??i1___fldiv
 10693  1FFA  1003               	clrc
 10694  1FFB  0C28               	rrf	??i1___fldiv,w
 10695  1FFC  00A9               	movwf	??i1___fldiv+1
 10696  1FFD  0829               	movf	??i1___fldiv+1,w
 10697  1FFE  00A7               	movwf	i1___fldiv@b+3
 10698  1FFF  2EBD               	goto	L4
 10699  2000                     __end_ofi1___fldiv:	
 10700  007E                     btemp	set	126	;btemp
 10701  007E                     wtemp0	set	126


Data Sizes:
    Strings     68
    Constant    0
    Data        1
    BSS         9
    Persistent  48
    Stack       0

Auto Spaces:
    Space          Size  Autos    Used
    COMMON           14     14      14
    BANK0            80     48      70
    BANK1            80     79      79
    BANK3            96     59      95
    BANK2            96      0       0

Pointer List with Targets:

    Lcd_Write_String@a	PTR unsigned char  size(1) Largest target is 16
		 -> STR_6(CODE[16]), STR_5(CODE[12]), STR_4(CODE[12]), STR_3(CODE[12]), 
		 -> STR_2(CODE[15]), STR_1(CODE[13]), 


Critical Paths under _main in COMMON

    None.

Critical Paths under _My_interrupt in COMMON

    _My_interrupt->i1___xxtofl
    i1___fltol->i1___xxtofl
    i1___flsub->i1___xxtofl
    i1___fldiv->i1___xxtofl

Critical Paths under _main in BANK0

    None.

Critical Paths under _My_interrupt in BANK0

    _My_interrupt->i1___fltol
    i1___fltol->i1___flsub
    i1___flsub->i1___fldiv

Critical Paths under _main in BANK1

    _main->___fladd
    _map->___aldiv
    ___aldiv->___lmul
    ___almod->_map
    _PID_Init->___fladd
    ___xxtofl->_Read_ADC
    ___fltol->___fladd
    ___flsub->___fladd
    ___fladd->___fldiv
    ___flmul->___xxtofl
    ___fldiv->___flmul
    _Lcd_Write_String->_Lcd_Write_Char
    _Lcd_Init->_Lcd_Cmd
    _Lcd_Clear->_Lcd_Cmd
    _Display->___awdiv
    ___awdiv->___awmod
    _Lcd_Write_Char->_Lcd_Port
    _Lcd_Set_Cursor->_Lcd_Cmd
    _Lcd_Cmd->_Lcd_Port

Critical Paths under _My_interrupt in BANK1

    None.

Critical Paths under _main in BANK3

    _main->_PID_Init
    _PID_Init->___fltol
    ___fltol->___flsub
    ___flsub->___fladd

Critical Paths under _My_interrupt in BANK3

    None.

Critical Paths under _main in BANK2

    None.

Critical Paths under _My_interrupt in BANK2

    None.

Call Graph Tables:

 ---------------------------------------------------------------------------------
 (Depth) Function   	        Calls       Base Space   Used Autos Params    Refs
 ---------------------------------------------------------------------------------
 (0) _main                                                 8     8      0   33421
                                             51 BANK3      8     8      0
                           _ADC_Init
                            _Display
                     _Interrupt_Init
                          _Lcd_Clear
                           _Lcd_Init
                     _Lcd_Set_Cursor
                     _Lcd_Write_Char
                   _Lcd_Write_String
                           _PID_Init
                           _Read_ADC
                        _Timer1_Init
                            ___aldiv
                            ___almod
                            ___awdiv
                            ___awmod
                            ___fladd
                            ___flmul
                            ___fltol
                           ___xxtofl
                                _map
 ---------------------------------------------------------------------------------
 (1) _map                                                 36    16     20    2674
                                             28 BANK1     36    16     20
                           _Read_ADC (ARG)
                            ___aldiv
                             ___lmul
 ---------------------------------------------------------------------------------
 (2) ___lmul                                              13     5      8     244
                                              0 BANK1     13     5      8
 ---------------------------------------------------------------------------------
 (2) ___aldiv                                             15     7      8     756
                                             13 BANK1     15     7      8
                           _Read_ADC (ARG)
                             ___lmul (ARG)
 ---------------------------------------------------------------------------------
 (1) ___almod                                             11     3      8     600
                                             64 BANK1     11     3      8
                           _Read_ADC (ARG)
                            ___aldiv (ARG)
                                _map (ARG)
 ---------------------------------------------------------------------------------
 (1) _Timer1_Init                                          0     0      0       0
 ---------------------------------------------------------------------------------
 (1) _Read_ADC                                             9     7      2      45
                                              0 BANK1      9     7      2
 ---------------------------------------------------------------------------------
 (1) _PID_Init                                            16    12      4   13858
                                             35 BANK3     16    12      4
                            ___fladd
                            ___fldiv
                            ___flmul
                            ___flsub
                            ___fltol
                           ___xxtofl
 ---------------------------------------------------------------------------------
 (1) ___xxtofl                                            14    10      4     600
                                              9 BANK1     14    10      4
                           _Read_ADC (ARG)
 ---------------------------------------------------------------------------------
 (1) ___fltol                                             11     7      4     507
                                             24 BANK3     11     7      4
                           _Read_ADC (ARG)
                            ___fladd (ARG)
                            ___flmul (ARG)
                            ___flsub (ARG)
                           ___xxtofl (ARG)
 ---------------------------------------------------------------------------------
 (2) ___flsub                                              8     0      8    3801
                                             16 BANK3      8     0      8
                            ___fladd
                            ___fldiv (ARG)
                            ___flmul (ARG)
 ---------------------------------------------------------------------------------
 (1) ___fladd                                             20    12      8    3200
                                             75 BANK1      4     4      0
                                              0 BANK3     16     8      8
                           _Read_ADC (ARG)
                            ___fldiv (ARG)
                            ___flmul (ARG)
                           ___xxtofl (ARG)
 ---------------------------------------------------------------------------------
 (1) ___flmul                                             26    18      8    3481
                                             23 BANK1     26    18      8
                           _Read_ADC (ARG)
                          __Umul8_16
                           ___xxtofl (ARG)
 ---------------------------------------------------------------------------------
 (2) __Umul8_16                                            9     7      2     799
                                              0 BANK1      9     7      2
 ---------------------------------------------------------------------------------
 (2) ___fldiv                                             26    18      8    1981
                                             49 BANK1     26    18      8
                            ___flmul (ARG)
 ---------------------------------------------------------------------------------
 (1) _Lcd_Write_String                                     3     3      0     466
                                              6 BANK1      3     3      0
                     _Lcd_Write_Char
 ---------------------------------------------------------------------------------
 (1) _Lcd_Init                                             2     2      0     198
                                              4 BANK1      2     2      0
                            _Lcd_Cmd
                           _Lcd_Port
 ---------------------------------------------------------------------------------
 (1) _Lcd_Clear                                            0     0      0     110
                            _Lcd_Cmd
 ---------------------------------------------------------------------------------
 (1) _Interrupt_Init                                       0     0      0       0
 ---------------------------------------------------------------------------------
 (1) _Display                                              4     3      1    3598
                                             16 BANK1      4     3      1
                     _Lcd_Set_Cursor
                     _Lcd_Write_Char
                            ___awdiv
                            ___awmod
 ---------------------------------------------------------------------------------
 (1) ___awmod                                              7     3      4     904
                                              0 BANK1      7     3      4
 ---------------------------------------------------------------------------------
 (1) ___awdiv                                              9     5      4    1060
                                              7 BANK1      9     5      4
                            ___awmod (ARG)
 ---------------------------------------------------------------------------------
 (2) _Lcd_Write_Char                                       5     5      0     178
                                              1 BANK1      5     5      0
                           _Lcd_Port
 ---------------------------------------------------------------------------------
 (1) _Lcd_Set_Cursor                                       7     6      1    1140
                                              4 BANK1      7     6      1
                            _Lcd_Cmd
 ---------------------------------------------------------------------------------
 (2) _Lcd_Cmd                                              3     3      0     110
                                              1 BANK1      3     3      0
                           _Lcd_Port
 ---------------------------------------------------------------------------------
 (3) _Lcd_Port                                             1     1      0      88
                                              0 BANK1      1     1      0
 ---------------------------------------------------------------------------------
 (1) _ADC_Init                                             0     0      0       0
 ---------------------------------------------------------------------------------
 Estimated maximum stack depth 3
 ---------------------------------------------------------------------------------
 (Depth) Function   	        Calls       Base Space   Used Autos Params    Refs
 ---------------------------------------------------------------------------------
 (5) _My_interrupt                                         3     3      0    3909
                                             45 BANK0      3     3      0
                          i1___fldiv
                          i1___flsub
                          i1___fltol
                         i1___xxtofl
 ---------------------------------------------------------------------------------
 (6) i1___xxtofl                                          14    10      4     348
                                              0 COMMON    14    10      4
 ---------------------------------------------------------------------------------
 (6) i1___fltol                                           11     7      4     255
                                             34 BANK0     11     7      4
                          i1___fldiv (ARG)
                          i1___flsub (ARG)
                         i1___xxtofl (ARG)
 ---------------------------------------------------------------------------------
 (6) i1___flsub                                            8     0      8    2133
                                             26 BANK0      8     0      8
                          i1___fladd
                          i1___fldiv (ARG)
                         i1___xxtofl (ARG)
 ---------------------------------------------------------------------------------
 (7) i1___fladd                                           20    12      8    2036
                                              0 COMMON    12     4      8
                                              0 BANK0      8     8      0
 ---------------------------------------------------------------------------------
 (6) i1___fldiv                                           26    18      8    1173
                                              0 BANK0     26    18      8
                         i1___xxtofl (ARG)
 ---------------------------------------------------------------------------------
 Estimated maximum stack depth 7
 ---------------------------------------------------------------------------------

 Call Graph Graphs:

 _main (ROOT)
   _ADC_Init
   _Display
     _Lcd_Set_Cursor
       _Lcd_Cmd
         _Lcd_Port
     _Lcd_Write_Char
       _Lcd_Port
     ___awdiv
       ___awmod (ARG)
     ___awmod
   _Interrupt_Init
   _Lcd_Clear
     _Lcd_Cmd
       _Lcd_Port
   _Lcd_Init
     _Lcd_Cmd
       _Lcd_Port
     _Lcd_Port
   _Lcd_Set_Cursor
     _Lcd_Cmd
       _Lcd_Port
   _Lcd_Write_Char
     _Lcd_Port
   _Lcd_Write_String
     _Lcd_Write_Char
       _Lcd_Port
   _PID_Init
     ___fladd
       _Read_ADC (ARG)
       ___fldiv (ARG)
         ___flmul (ARG)
           _Read_ADC (ARG)
           __Umul8_16 (ARG)
           ___xxtofl (ARG)
             _Read_ADC (ARG)
       ___flmul (ARG)
         _Read_ADC (ARG)
         __Umul8_16 (ARG)
         ___xxtofl (ARG)
           _Read_ADC (ARG)
       ___xxtofl (ARG)
         _Read_ADC (ARG)
     ___fldiv
       ___flmul (ARG)
         _Read_ADC (ARG)
         __Umul8_16 (ARG)
         ___xxtofl (ARG)
           _Read_ADC (ARG)
     ___flmul
       _Read_ADC (ARG)
       __Umul8_16 (ARG)
       ___xxtofl (ARG)
         _Read_ADC (ARG)
     ___flsub
       ___fladd
         _Read_ADC (ARG)
         ___fldiv (ARG)
           ___flmul (ARG)
             _Read_ADC (ARG)
             __Umul8_16 (ARG)
             ___xxtofl (ARG)
               _Read_ADC (ARG)
         ___flmul (ARG)
           _Read_ADC (ARG)
           __Umul8_16 (ARG)
           ___xxtofl (ARG)
             _Read_ADC (ARG)
         ___xxtofl (ARG)
           _Read_ADC (ARG)
       ___fldiv (ARG)
         ___flmul (ARG)
           _Read_ADC (ARG)
           __Umul8_16 (ARG)
           ___xxtofl (ARG)
             _Read_ADC (ARG)
       ___flmul (ARG)
         _Read_ADC (ARG)
         __Umul8_16 (ARG)
         ___xxtofl (ARG)
           _Read_ADC (ARG)
     ___fltol
       _Read_ADC (ARG)
       ___fladd (ARG)
         _Read_ADC (ARG)
         ___fldiv (ARG)
           ___flmul (ARG)
             _Read_ADC (ARG)
             __Umul8_16 (ARG)
             ___xxtofl (ARG)
               _Read_ADC (ARG)
         ___flmul (ARG)
           _Read_ADC (ARG)
           __Umul8_16 (ARG)
           ___xxtofl (ARG)
             _Read_ADC (ARG)
         ___xxtofl (ARG)
           _Read_ADC (ARG)
       ___flmul (ARG)
         _Read_ADC (ARG)
         __Umul8_16 (ARG)
         ___xxtofl (ARG)
           _Read_ADC (ARG)
       ___flsub (ARG)
         ___fladd
           _Read_ADC (ARG)
           ___fldiv (ARG)
             ___flmul (ARG)
               _Read_ADC (ARG)
               __Umul8_16 (ARG)
               ___xxtofl (ARG)
                 _Read_ADC (ARG)
           ___flmul (ARG)
             _Read_ADC (ARG)
             __Umul8_16 (ARG)
             ___xxtofl (ARG)
               _Read_ADC (ARG)
           ___xxtofl (ARG)
             _Read_ADC (ARG)
         ___fldiv (ARG)
           ___flmul (ARG)
             _Read_ADC (ARG)
             __Umul8_16 (ARG)
             ___xxtofl (ARG)
               _Read_ADC (ARG)
         ___flmul (ARG)
           _Read_ADC (ARG)
           __Umul8_16 (ARG)
           ___xxtofl (ARG)
             _Read_ADC (ARG)
       ___xxtofl (ARG)
         _Read_ADC (ARG)
     ___xxtofl
       _Read_ADC (ARG)
   _Read_ADC
   _Timer1_Init
   ___aldiv
     _Read_ADC (ARG)
     ___lmul (ARG)
   ___almod
     _Read_ADC (ARG)
     ___aldiv (ARG)
       _Read_ADC (ARG)
       ___lmul (ARG)
     _map (ARG)
       _Read_ADC (ARG)
       ___aldiv (ARG)
         _Read_ADC (ARG)
         ___lmul (ARG)
       ___lmul (ARG)
   ___awdiv
     ___awmod (ARG)
   ___awmod
   ___fladd
     _Read_ADC (ARG)
     ___fldiv (ARG)
       ___flmul (ARG)
         _Read_ADC (ARG)
         __Umul8_16 (ARG)
         ___xxtofl (ARG)
           _Read_ADC (ARG)
     ___flmul (ARG)
       _Read_ADC (ARG)
       __Umul8_16 (ARG)
       ___xxtofl (ARG)
         _Read_ADC (ARG)
     ___xxtofl (ARG)
       _Read_ADC (ARG)
   ___flmul
     _Read_ADC (ARG)
     __Umul8_16 (ARG)
     ___xxtofl (ARG)
       _Read_ADC (ARG)
   ___fltol
     _Read_ADC (ARG)
     ___fladd (ARG)
       _Read_ADC (ARG)
       ___fldiv (ARG)
         ___flmul (ARG)
           _Read_ADC (ARG)
           __Umul8_16 (ARG)
           ___xxtofl (ARG)
             _Read_ADC (ARG)
       ___flmul (ARG)
         _Read_ADC (ARG)
         __Umul8_16 (ARG)
         ___xxtofl (ARG)
           _Read_ADC (ARG)
       ___xxtofl (ARG)
         _Read_ADC (ARG)
     ___flmul (ARG)
       _Read_ADC (ARG)
       __Umul8_16 (ARG)
       ___xxtofl (ARG)
         _Read_ADC (ARG)
     ___flsub (ARG)
       ___fladd
         _Read_ADC (ARG)
         ___fldiv (ARG)
           ___flmul (ARG)
             _Read_ADC (ARG)
             __Umul8_16 (ARG)
             ___xxtofl (ARG)
               _Read_ADC (ARG)
         ___flmul (ARG)
           _Read_ADC (ARG)
           __Umul8_16 (ARG)
           ___xxtofl (ARG)
             _Read_ADC (ARG)
         ___xxtofl (ARG)
           _Read_ADC (ARG)
       ___fldiv (ARG)
         ___flmul (ARG)
           _Read_ADC (ARG)
           __Umul8_16 (ARG)
           ___xxtofl (ARG)
             _Read_ADC (ARG)
       ___flmul (ARG)
         _Read_ADC (ARG)
         __Umul8_16 (ARG)
         ___xxtofl (ARG)
           _Read_ADC (ARG)
     ___xxtofl (ARG)
       _Read_ADC (ARG)
   ___xxtofl
     _Read_ADC (ARG)
   _map
     _Read_ADC (ARG)
     ___aldiv (ARG)
       _Read_ADC (ARG)
       ___lmul (ARG)
     ___lmul (ARG)

 _My_interrupt (ROOT)
   i1___fldiv
     i1___xxtofl (ARG)
   i1___flsub
     i1___fladd
     i1___fldiv (ARG)
       i1___xxtofl (ARG)
     i1___xxtofl (ARG)
   i1___fltol
     i1___fldiv (ARG)
       i1___xxtofl (ARG)
     i1___flsub (ARG)
       i1___fladd
       i1___fldiv (ARG)
         i1___xxtofl (ARG)
       i1___xxtofl (ARG)
     i1___xxtofl (ARG)
   i1___xxtofl

 Address spaces:
Name               Size   Autos  Total    Cost      Usage
BANK3               60     3B      5F       9       99.0%
BITBANK3            60      0       0       8        0.0%
SFR3                 0      0       0       4        0.0%
BITSFR3              0      0       0       4        0.0%
BANK2               60      0       0      11        0.0%
BITBANK2            60      0       0      10        0.0%
SFR2                 0      0       0       5        0.0%
BITSFR2              0      0       0       5        0.0%
BANK1               50     4F      4F       7       98.8%
BITBANK1            50      0       0       6        0.0%
SFR1                 0      0       0       2        0.0%
BITSFR1              0      0       0       2        0.0%
BANK0               50     30      46       5       87.5%
BITBANK0            50      0       0       4        0.0%
SFR0                 0      0       0       1        0.0%
BITSFR0              0      0       0       1        0.0%
COMMON               E      E       E       1      100.0%
BITCOMMON            E      0       0       0        0.0%
CODE                 0      0       0       0        0.0%
DATA                 0      0     102      12        0.0%
ABS                  0      0     102       3        0.0%
NULL                 0      0       0       0        0.0%
STACK                0      0       0       2        0.0%
EEDATA             100      0       0       0        0.0%


Microchip Technology PIC Macro Assembler V2.05 build -831301201 
Symbol Table                                                                                   Fri Oct 04 10:48:05 2019

         ??_Interrupt_Init 00A0                          _E 01E3                          _T 01DB  
             ___fldiv@aexp 00EA               ___fldiv@bexp 00E9                          _m 01ED  
                        pc 0002                i1___fladd@a 0074                i1___fladd@b 0070  
             ___fldiv@sign 00E2                i1___fldiv@a 0020                i1___fldiv@b 0024  
              __CFG_CP$OFF 0000                         _E1 01DF                         _E2 0060  
                       _a1 005C                         _a2 0058                         _a3 0054  
                       _Kd 01CF                         _Ki 01D3                         _Kp 01D7  
             ___awdiv@sign 00AD                         fsr 0004                i1___flsub@a 003A  
              i1___flsub@b 003E        __Umul8_16@word_mpld 00A6                 i1___xxtofl 1091  
                      l204 06A3                        l223 082C                        l161 010E  
                      l170 04AC                        l164 0249                        l156 048C  
                      l181 0607                        l270 1A87                        l158 010A  
                      l271 1A8F                        l175 04A8                        l167 047B  
                      l272 1A92                        l273 1A9A                        l267 1A79  
                      l268 1A7C                        l269 1A84                        l197 0687  
                      l189 0664                        l455 1014                        l199 0682  
                      l704 1749                        l708 1771                        l468 1DF6  
                      l725 17ED                        l717 17CC                        l830 08BC  
                      l583 1DC6                        l831 08C6                        l823 08A6  
                      l761 12C1                        l817 0866                        l763 12CF  
                      l739 1182                        l683 158C                        l836 1A39  
                      l791 0BF4                        l687 1677                        l689 1648  
                      _GIE 005F                        _RB1 0031                        _RC0 0038  
                      _RC1 0039                        _RC2 003A                        _RD0 0040  
                      _RD1 0041                        _RD2 0042                        _RD3 0043  
                      _RD4 0044                        _RD5 0045                        _RD6 0046  
                      _RD7 0047               __CFG_CPD$OFF 0000                        _map 06C4  
                      fsr0 0004                        _out 01CB                        _sum 01E9  
             i1___fltol@f1 0042               ___awmod@sign 00A6              i1___fladd@grs 007B  
             __CFG_FOSC$HS 0000               ___flmul@aexp 00C9               ___flmul@bexp 00CA  
             ___flmul@sign 00C4               ___flmul@temp 00CF               ___flmul@prod 00CB  
             __CFG_LVP$OFF 0000              i1___fldiv@grs 0034              i1___fldiv@rem 002D  
             ___fltol@exp1 01B2                       l3002 12A7                       l3014 12CB  
                     l3200 08E3                       l3034 0909                       l3124 0B7A  
                     l3116 0B46                       l3052 092E                       l3036 090B  
                     l3142 0BC4                       l3118 0B63                       l3054 0930  
                     l3038 0913                       l3128 0B7C                       l3064 0946  
                     l3056 0938                       l3138 0BAE                       l2610 178D  
                     l2602 177D                       l3148 0BDD                       l2604 1781  
                     l2540 1660                       l3172 0875                       l2614 1790  
                     l2534 1657                       l2526 1606                       l2462 1541  
                     l3166 085E                       l2702 1AA8                       l2632 17E1  
                     l2560 16B0                       l2552 1687                       l2536 1659  
                     l2544 1671                       l2480 156C                       l2456 1530  
                     l3176 0879                       l3520 1E03                       l2810 1AF2  
                     l2562 16B2                       l2570 16CB                       l2490 1582  
                     l2466 1546                       l3186 08BA                       l3178 088B  
                     l2706 1ABE                       l2820 1B06                       l3460 1A4F  
                     l2636 17E7                       l2580 173B                       l2468 1550  
                     l3188 08AB                       l3540 1E54                       l3532 1E39  
                     l2732 1035                       l2724 1025                       l2806 1AEB  
                     l2646 1A31                       l2566 16B9                       l2486 157D  
                     l3526 1E0B                       l2750 1088                       l2742 106D  
                     l2734 1045                       l2832 1B27                       l2824 1B14  
                     l2912 1177                       l2496 159C                       l3528 1E1B  
                     l3536 1E46                       l2666 1B56                       l2762 1B8B  
                     l2818 1AF8                       l2842 1D8B                       l2746 107A  
                     l2780 1BAC                       l2828 1B1F                       l2932 11AD  
                     l2916 117A                       l2596 1776                       l2588 1761  
                     l2860 1DC2                       l3804 00EC                       l2790 1BCD  
                     l2926 11A1                       l2838 1D82                       ?_map 00BC  
                     l2768 1B96                       l2952 11FC                       l2960 11D8  
                     l2794 1BD5                       l2786 1BC2                       l2778 1B9E  
                     l2962 1220                       l2858 1DB2                       l3922 065A  
                     l3842 0480                       l3818 0136                       l2892 1151  
                     l2868 1DD5                       l3916 063C                       l3828 0223  
                     l2958 121B                       l2984 125A                       l2976 1226  
                     l2896 1154                       l3872 05A8                       l3856 04D4  
                     l2978 1243                       l2898 115C                       l3938 06A8  
                     l3890 05DD                       l3866 0582                       l2988 125C  
                     l2998 128E                       _ADIE 0466                       l3896 05FD  
                     _ADIF 0066                       _ADFM 04FF                       _ADON 00F8  
                     STR_1 1825                       STR_2 1816                       STR_3 183E  
                     STR_4 1832                       STR_5 183E                       STR_6 1806  
                     u4015 1047                       u4025 105C                       u4115 1BAD  
                     u4035 106E                       u4125 1BB9                       u4135 1BC3  
                     u4215 1B0C                       u4225 1B15                       u3611 16F8  
                     u3603 16DF                       u3515 1664                       u3620 170C  
                     u3612 16F9                       u3621 170D                       u3613 16FE  
                     u4325 1DCB                       u5125 08CE                       u5045 0882  
                     u3622 1712                       u3614 16FF                       u3470 162D  
                     u4095 1BA1                       u3623 1713                       u3615 1704  
                     u3616 1705                       u3480 162E                       u3465 1621  
                     u4265 1D94                       u5065 089E                       u4195 1AFB  
                     u4515 122A                       _PEIE 005E                       u4605 1279  
                     u4445 11E1                       u5085 08B3                       _INTE 005C  
                     _INTF 0059                       u4615 1297                       u4535 1235  
                     u4455 11EA                       u4295 1DB3                       u3905 1BEF  
                     u4625 12B2                       u3665 1763                       u4475 11F5  
                     u3595 16BD                       u4485 120A                       u3845 1A3A  
                     u3765 17B0                       u3935 1AC0                       u4905 0B55  
                     u5625 0813                       u5705 1E0F                       u3945 1AC8  
                     u5641 06D5                       u5642 06D6                       u3875 1B3A  
                     u4835 0AEF                       u5651 06F9                       u5643 06DB  
                     u5652 06FA                       u5644 06DC                       u4765 09F6  
                     u5725 1E29                       u5661 071D                       u5653 06FF  
                     u5645 06E1                       u5662 071E                       u5654 0700  
                     u5646 06E2                       u3895 1B64                       u4855 0B14  
                     u5735 1E3A                       u5663 0723                       u5655 0705  
                     u5664 0724                       u5656 0706                       u5665 0729  
                     u5666 072A                       u4875 0B32                       u4795 0A53  
                     u3995 1039                       u6707 0494                       u4885 0B4A  
                     u6717 04A3                       u4975 0B99                       u6807 068F  
                     u6727 05B8                       u4985 0BB7                       u6817 069E  
                     u6737 05CD                       u6657 00F6                       u6907 1C25  
                     u4995 0BCF                       u6827 06BE                       u6747 05F7  
                     u6667 0105                       u6917 1C32                       u6837 0825  
                     u6757 0617                       u6677 0467                       u6927 19D9  
                     u6847 1CAF                       u6767 062C                       u6687 0476  
                     u6857 1CBA                       u6777 0654                       u6697 0486  
                     u6867 1CCA                       u6787 066E                       u6877 1CD9  
                     u6797 067D                       u6887 1C03                       u6897 1C10  
                     _TMR1 000E               __CFG_WRT$OFF 0000          ?_Lcd_Write_String 0070  
                     _main 0028                       _duty 0064                       _temp 01EB  
                     map@x 00BC                       btemp 007E           __end_of_ADC_Init 19C2  
           i1___fladd@aexp 0079             i1___fladd@bexp 007A                       start 0010  
       ??_Lcd_Write_String 00A6            ___fldiv@new_exp 00E3            __end_of_Lcd_Cmd 19E1  
          __end_of_Display 07FD                      ??_map 00D0             i1___fldiv@aexp 0039  
           i1___fldiv@bexp 0038             i1___fldiv@sign 0031              ___fltol@sign1 01B1  
          __end_of___aldiv 1091            __end_of___almod 1E5D                      _ADCS0 00FE  
                    _ADCS1 00FF                      _ADCS2 04FE            __end_of___fladd 1800  
                    ?_main 0070            __end_of___fldiv 12D7            __end_of___awdiv 1BDA  
            __CFG_WDTE$OFF 0000            __end_of___awmod 1B2C            __end_of___flmul 0C01  
          __end_of___flsub 1A25            __end_of___fltol 1DE4            ___awdiv@divisor 00A7  
                    _PCFG0 04F8                      _PCFG1 04F9                      _PCFG2 04FA  
                    _PCFG3 04FB                      i1l241 1C3C                      i1l244 1C95  
                    i1l704 1483                      i1l725 1509                      i1l717 14EF  
                    i1l830 1104                      i1l583 1D59                      i1l831 110E  
                    i1l823 10EE                      i1l761 1FEA                      i1l817 10AE  
                    i1l763 1FF8                      i1l739 1EAB                      i1l683 1329  
                    i1l687 13C4                      i1l689 13A0            ___awdiv@counter 00AC  
                    _TMR1H 000F                      _TMR1L 000E    __size_of_Lcd_Set_Cursor 0053  
                    _TRISD 0088           __end_of_PID_Init 1000        ___lmul@multiplicand 00A4  
           __CFG_BOREN$OFF 0000                      pclath 000A             i1___fltol@exp1 004C  
                    status 0003                      wtemp0 007E         __size_ofi1___fladd 023F  
       __size_ofi1___fldiv 01A3            i1___fladd@signs 0078         __size_ofi1___flsub 0022  
       __size_ofi1___fltol 006D           __end_of_Lcd_Init 1D0A           __end_of_Lcd_Port 1A9E  
          __initialization 0013               __end_of_main 06C4           __end_of_Read_ADC 0847  
                   ??_main 01C3                ?i1___xxtofl 0070         __size_of_Lcd_Clear 000B  
                   _ADCON0 001F                     _ADRESH 001E                     _ADRESL 009E  
         ___awdiv@dividend 00A9                     i1l3300 13C0                     i1l3222 12F7  
                   i1l3224 12FF                     i1l3242 131E                     i1l3218 12F4  
                   i1l3316 13F5                     i1l3308 13D2                     i1l3252 1333  
                   i1l3318 13F7                     i1l3326 1409                     i1l3246 1321  
                   i1l3600 1E7A                     i1l3352 14A6                     i1l3344 1495  
                   i1l3336 1475                     i1l3360 14AF                     i1l3370 14BA  
                   i1l3290 13AD                     i1l3282 136F                     i1l3620 1EA0  
                   i1l3604 1E7D                     i1l3292 13AF                     i1l3710 1FD0  
                   i1l3606 1E85                     i1l3366 14B8                     i1l3358 14AD  
                   i1l3550 1D1E                     i1l3640 1ED6                     i1l3624 1EA3  
                   i1l3392 1503                     i1l3722 1FF4                     i1l3706 1FB7  
                   i1l3634 1ECA                     i1l3546 1D15                     _T1SYNC 0082  
                   i1l3660 1F25                     i1l3388 14FF                     i1l3740 10BD  
                   i1l3670 1F49                     i1l3566 1D45                     i1l3734 10A6  
                   i1l3576 1D68                     i1l3568 1D55                     i1l3744 10C1  
                   i1l3666 1F44                     i1l3754 1102                     i1l3746 10D3  
                   i1l3692 1F83                     i1l3684 1F4F                     i1l3668 1F01  
                   i1l3756 10F3                     i1l3686 1F6C                     i1l3696 1F85  
                   i1l3768 112B                     _INTEDG 040E                     u602_25 1F53  
                   u611_25 1FA2                     u540_20 144A                     u540_21 144B  
                   u540_22 1450                     u540_23 1451                     u612_25 1FC0  
                   u604_25 1F5E                     u524_25 1383                     u620_25 10E6  
                   u525_20 138D                     u613_25 1FDB                     u526_20 138E  
                   u622_25 10FB                     u544_25 1499                     u537_25 13FD  
                   u529_25 13B5                     u538_23 141B                     u554_25 14D9  
                   u626_25 1116                     u618_25 10CA                     u539_21 1436  
                   u539_22 1437                     u539_23 143C                     u539_24 143D  
                   u539_25 1442                     u539_26 1443                     u580_25 1D46  
                   u583_25 1D5E                  ??_Lcd_Cmd 00A1                     u577_25 1D27  
                   u595_25 1F0A                     u596_25 1F13                     _TMR1IE 0460  
                   _TMR1IF 0060                     _TMR1CS 0081                     u598_25 1F1E  
                   u599_25 1F33                     _TMR1ON 0080    __size_of_Lcd_Write_Char 005D  
                   _TRISA0 0428                     _TRISA1 0429                     _TRISB0 0430  
                   _TRISB1 0431                     _TRISC0 0438                     _TRISC1 0439  
                   _TRISC2 043A                     _TRISD0 0440                     _TRISD1 0441  
                ??_Display 00B1           __end_of___xxtofl 08EC             __CFG_PWRTE$OFF 0000  
            ??_Timer1_Init 00A0                     ___lmul 1A9E            Read_ADC@channel 00A8  
                ??___aldiv 00B5                  ??___almod 00E8                  ??___fladd 0198  
                ??___fldiv 00D9                  ??___awdiv 00AB                  ??___awmod 00A4  
                ??___flmul 00BF                  ??___flsub 00EF                  ??___fltol 01AC  
         ___awdiv@quotient 00AE            ___awmod@divisor 00A0            ___awmod@counter 00A5  
        __end_ofi1___fladd 1516          __end_ofi1___fldiv 2000          __end_ofi1___flsub 1A03  
        __end_ofi1___fltol 1D77         __size_of__Umul8_16 0025                  ?_ADC_Init 0070  
                   saved_w 007E            i1___fltol@sign1 004B            Lcd_Set_Cursor@c 00A4  
          Lcd_Set_Cursor@r 00A7               ___xxtofl@arg 00B3               ___xxtofl@exp 00B2  
             ___xxtofl@val 00A9    __end_of__initialization 0024          __end_of_Lcd_Clear 199A  
      __size_ofi1___xxtofl 00A3                 ___fltol@f1 01A8                  ?_PID_Init 01B3  
           __pcstackCOMMON 0070               __pidataBANK3 07FD        __end_of_Timer1_Init 19AA  
           _Lcd_Set_Cursor 1B2C                 ??_ADC_Init 00A0                  ?_Lcd_Init 0070  
                ?_Lcd_Port 0070                 __pbssBANK0 0064                 __pbssBANK3 01E7  
                ?_Read_ADC 00A0             i1___xxtofl@arg 007A             i1___xxtofl@exp 0079  
           i1___xxtofl@val 0070          __end_of__Umul8_16 1A4A                 ??_PID_Init 00EF  
               __pmaintext 0028              ?_My_interrupt 0070                    ?___lmul 00A0  
               __pintentry 0004             ___lmul@product 00A9  __size_of_Lcd_Write_String 0026  
   __end_of_Lcd_Set_Cursor 1B7F                    _T1CKPS0 0084                    _T1CKPS1 0085  
                  _T1OSCEN 0083                  ?___xxtofl 00A9                 ??_Lcd_Init 00A4  
               ??_Lcd_Port 00A0                 __stringtab 1800                 ??_Read_ADC 00A2  
           _Lcd_Write_Char 1BDA                    _Lcd_Cmd 19C2                    _Display 076A  
              _Timer1_Init 199A             ??_My_interrupt 004D                    ___aldiv 1002  
                  ___almod 1DE4                    ___fladd 1516                    ___fldiv 1134  
                  ___awdiv 1B7F            __size_of___lmul 0041                    ___awmod 1ADF  
                  ___flmul 08EC                    ___flsub 1A03                    ___fltol 1D77  
          ?_Lcd_Set_Cursor 00A4               ??i1___xxtofl 0074                    __ptext1 06C4  
                  __ptext2 1A9E                    __ptext3 1002                    __ptext4 1DE4  
                  __ptext5 199A                    __ptext6 0805                    __ptext7 0C01  
                  __ptext8 0847                    __ptext9 1D77               __size_of_map 00A6  
  __size_of_Interrupt_Init 0007                 ??___xxtofl 00AD           ___awmod@dividend 00A2  
         ___aldiv@dividend 00B1                    _pre_out 0050                    _sum_avg 01E7  
   __end_of_Lcd_Write_Char 1C37       end_of_initialization 0024         __end_ofi1___xxtofl 1134  
         ___aldiv@quotient 00B8                ___fladd@grs 00EE              ___xxtofl@sign 00B1  
                i1___fladd 12D7                  i1___fldiv 1E5D                ___fldiv@grs 00E5  
                i1___flsub 19E1                  i1___fltol 1D0A                ___fldiv@rem 00DE  
        __size_of_ADC_Init 0018            ?_Lcd_Write_Char 0070          Lcd_Write_String@a 00A8  
        Lcd_Write_String@i 00A6                 map@out_max 00CC                 map@out_min 00C8  
              ___flmul@grs 00C5                  Read_ADC@N 00A6                  _Lcd_Clear 198F  
        __size_of_PID_Init 03FF             __end_of___lmul 1ADF           _Lcd_Write_String 1A4A  
      start_initialization 0013                 ?i1___fladd 0070                __end_of_map 076A  
               ?i1___fldiv 0020       __end_of_My_interrupt 1C9E                 ?i1___flsub 003A  
               ?i1___fltol 0042          __size_of_Lcd_Init 006C          __size_of_Lcd_Port 002E  
       PID_Init@nhietdodat 01B5          __size_of_Read_ADC 0042                 ?_Lcd_Clear 0070  
                 ??___lmul 00A8                  __Umul8_16 1A25                __pdataBANK3 01EE  
          Lcd_Write_Char@a 00A5                  ___fladd@a 0194                  ___fladd@b 0190  
           _Interrupt_Init 1988                  ___fldiv@a 00D1                  ___fldiv@b 00D5  
                ___flmul@a 00BB                  ___flmul@b 00B7                  ___flsub@a 01A0  
                ___flsub@b 01A4                  ___latbits 0002              __pcstackBANK0 0020  
            __pcstackBANK1 00A0              __pcstackBANK3 0190          __size_of___xxtofl 00A5  
          i1___xxtofl@sign 0078                   ?_Lcd_Cmd 0070          i1___fldiv@new_exp 0032  
                 ?_Display 00B0                  __pnvBANK0 0050                  __pnvBANK3 01CB  
             ?_Timer1_Init 0070           ??_Lcd_Set_Cursor 00A5                   ?___aldiv 00AD  
                 ?___almod 00E0                   ?___fladd 0190                   ?___fldiv 00D1  
                 ?___awdiv 00A7                   ?___awmod 00A0                   ?___flmul 00B7  
                 ?___flsub 01A0                   ?___fltol 01A8                 ?__Umul8_16 00A0  
   __end_of_Interrupt_Init 198F           ___almod@dividend 00E4                  __pstrings 1800  
                 _ADC_Init 19AA                ??i1___fladd 0020                ??i1___fldiv 0028  
              ??i1___flsub 007E                ??i1___fltol 0046            ___aldiv@divisor 00AD  
        interrupt_function 0004            ___aldiv@counter 00B6               _PID_Init$834 01BF  
             _PID_Init$835 01B7               _PID_Init$836 01BB                   _PID_Init 0C01  
                 _GO_nDONE 00FA                ??_Lcd_Clear 00A4                   Display@a 00B3  
                 Display@b 00B0                  map@in_max 00C4                  map@in_min 00C0  
          ?_Interrupt_Init 0070                __stringbase 1805      __size_of_My_interrupt 0067  
         ??_Lcd_Write_Char 00A1                   _Lcd_Init 1C9E                   _Lcd_Port 1A70  
        ___lmul@multiplier 00A0                   _Read_ADC 0805   __end_of_Lcd_Write_String 1A70  
         __size_of_Lcd_Cmd 001F               Lcd_Port@Data 00A0           __size_of_Display 0093  
             _My_interrupt 1C37        Lcd_Write_Char@High4 00A4                ??__Umul8_16 00A2  
         __size_of___aldiv 008F           __size_of___almod 0079           __size_of___fladd 02EA  
         __size_of___fldiv 01A3           __size_of___awdiv 005B           __size_of___awmod 004D  
         __size_of___flmul 0315           __size_of___flsub 0022           __size_of___fltol 006D  
       __end_of__stringtab 1806            PID_Init@nhietdo 01B3                   ___xxtofl 0847  
                 _main$833 01C7                   __ptext10 1A03                   __ptext11 1516  
                 __ptext20 1ADF                   __ptext12 08EC                   __ptext21 1B7F  
                 __ptext13 1A25                   __ptext30 19E1                   __ptext22 1BDA  
                 __ptext14 1134                   __ptext31 12D7                   __ptext23 1B2C  
                 __ptext15 1A4A                   __ptext32 1E5D                   __ptext24 19C2  
                 __ptext16 1C9E                   __ptext25 1A70                   __ptext17 198F  
                 __ptext26 19AA                   __ptext18 1988                   __ptext27 1C37  
                 __ptext19 076A                   __ptext28 1091                   __ptext29 1D0A  
          ___almod@divisor 00E0            ___almod@counter 00E9              __size_of_main 069C  
                 _set_temp 01EE       __size_of_Timer1_Init 0010        Lcd_Set_Cursor@High4 00A9  
       Lcd_Write_Char@Low4 00A3                   intlevel1 0000                 Lcd_Cmd@CMD 00A3  
                stringcode 1800         Lcd_Set_Cursor@Low4 00A8         Lcd_Set_Cursor@Temp 00AA  
   __Umul8_16@multiplicand 00A0                   stringdir 1800                   stringtab 1800  
             ___aldiv@sign 00B7              ___fladd@signs 00EB               ___almod@sign 00EA  
             ___fladd@aexp 00EC               ___fladd@bexp 00ED       __Umul8_16@multiplier 00A8  
        __Umul8_16@product 00A4  
