

Microchip MPLAB XC8 Assembler V2.05 build -831301201 
                                                                                               Wed Apr 03 21:33:24 2019

Microchip MPLAB XC8 C Compiler v2.05 (Free license) build 20181220022703 Og1 
     1                           	processor	16F877A
     2                           	opt	pw 120
     3                           	opt	flic
     4                           	psect	nvBANK1,global,class=BANK1,space=1,delta=1
     5                           	psect	nvBANK3,global,class=BANK3,space=1,delta=1
     6                           	psect	strings,global,class=STRING,delta=2
     7                           	psect	cinit,global,class=CODE,merge=1,delta=2
     8                           	psect	bssBANK1,global,class=BANK1,space=1,delta=1
     9                           	psect	cstackBANK1,global,class=BANK1,space=1,delta=1
    10                           	psect	cstackCOMMON,global,class=COMMON,space=1,delta=1
    11                           	psect	cstackBANK0,global,class=BANK0,space=1,delta=1
    12                           	psect	maintext,global,class=CODE,split=1,delta=2
    13                           	psect	text1,local,class=CODE,merge=1,delta=2,group=1
    14                           	psect	text2,local,class=CODE,merge=1,delta=2,group=1
    15                           	psect	text3,local,class=CODE,merge=1,delta=2
    16                           	psect	text4,local,class=CODE,merge=1,delta=2
    17                           	psect	text5,local,class=CODE,merge=1,delta=2
    18                           	psect	text6,local,class=CODE,merge=1,delta=2,group=1
    19                           	psect	text7,local,class=CODE,merge=1,delta=2,group=1
    20                           	psect	text8,local,class=CODE,merge=1,delta=2,group=1
    21                           	psect	text9,local,class=CODE,merge=1,delta=2,group=1
    22                           	psect	text10,local,class=CODE,merge=1,delta=2,group=1
    23                           	psect	text11,local,class=CODE,merge=1,delta=2,group=1
    24                           	psect	text12,local,class=CODE,merge=1,delta=2,group=1
    25                           	psect	text13,local,class=CODE,merge=1,delta=2,group=1
    26                           	psect	text14,local,class=CODE,merge=1,delta=2
    27                           	psect	text15,local,class=CODE,merge=1,delta=2
    28                           	psect	text16,local,class=CODE,merge=1,delta=2
    29                           	psect	text17,local,class=CODE,merge=1,delta=2
    30                           	psect	text18,local,class=CODE,merge=1,delta=2
    31                           	psect	text19,local,class=CODE,merge=1,delta=2
    32                           	psect	text20,local,class=CODE,merge=1,delta=2
    33                           	psect	text21,local,class=CODE,merge=1,delta=2
    34                           	psect	text22,local,class=CODE,merge=1,delta=2
    35                           	psect	intentry,global,class=CODE,delta=2
    36                           	dabs	1,0x7E,2
    37  0000                     
    38                           ; Version 2.05
    39                           ; Generated 20/12/2018 GMT
    40                           ; 
    41                           ; Copyright © 2018, Microchip Technology Inc. and its subsidiaries ("Microchip")
    42                           ; All rights reserved.
    43                           ; 
    44                           ; This software is developed by Microchip Technology Inc. and its subsidiaries ("Microch
      +                          ip").
    45                           ; 
    46                           ; Redistribution and use in source and binary forms, with or without modification, are
    47                           ; permitted provided that the following conditions are met:
    48                           ; 
    49                           ;     1. Redistributions of source code must retain the above copyright notice, this lis
      +                          t of
    50                           ;        conditions and the following disclaimer.
    51                           ; 
    52                           ;     2. Redistributions in binary form must reproduce the above copyright notice, this 
      +                          list
    53                           ;        of conditions and the following disclaimer in the documentation and/or other
    54                           ;        materials provided with the distribution.
    55                           ; 
    56                           ;     3. Microchip's name may not be used to endorse or promote products derived from th
      +                          is
    57                           ;        software without specific prior written permission.
    58                           ; 
    59                           ; THIS SOFTWARE IS PROVIDED BY MICROCHIP "AS IS" AND ANY EXPRESS OR IMPLIED WARRANTIES,
    60                           ; INCLUDING, BUT NOT LIMITED TO, THE IMPLIED WARRANTIES OF MERCHANTABILITY AND FITNESS F
      +                          OR
    61                           ; PURPOSE ARE DISCLAIMED.  IN NO EVENT SHALL MICROCHIP BE LIABLE FOR ANY DIRECT, INDIREC
      +                          T,
    62                           ; INCIDENTAL, SPECIAL, EXEMPLARY, OR CONSEQUENTIAL DAMAGES (INCLUDING BUT NOT LIMITED TO
    63                           ; PROCUREMENT OF SUBSTITUTE GOODS OR SERVICES; LOSS OF USE, DATA OR PROFITS; OR BUSINESS
    64                           ; INTERRUPTION) HOWSOEVER CAUSED AND ON ANY THEORY OF LIABILITY, WHETHER IN CONTRACT, ST
      +                          RICT
    65                           ; LIABILITY, OR TORT (INCLUDING NEGLIGENCE OR OTHERWISE) ARISING IN ANY WAY OUT OF THE U
      +                          SE OF
    66                           ; THIS SOFTWARE, EVEN IF ADVISED OF THE POSSIBILITY OF SUCH DAMAGE.
    67                           ; 
    68                           ; 
    69                           ; Code-generator required, PIC16F877A Definitions
    70                           ; 
    71                           ; SFR Addresses
    72  0000                     	;# 
    73  0001                     	;# 
    74  0002                     	;# 
    75  0003                     	;# 
    76  0004                     	;# 
    77  0005                     	;# 
    78  0006                     	;# 
    79  0007                     	;# 
    80  0008                     	;# 
    81  0009                     	;# 
    82  000A                     	;# 
    83  000B                     	;# 
    84  000C                     	;# 
    85  000D                     	;# 
    86  000E                     	;# 
    87  000E                     	;# 
    88  000F                     	;# 
    89  0010                     	;# 
    90  0011                     	;# 
    91  0012                     	;# 
    92  0013                     	;# 
    93  0014                     	;# 
    94  0015                     	;# 
    95  0015                     	;# 
    96  0016                     	;# 
    97  0017                     	;# 
    98  0018                     	;# 
    99  0019                     	;# 
   100  001A                     	;# 
   101  001B                     	;# 
   102  001B                     	;# 
   103  001C                     	;# 
   104  001D                     	;# 
   105  001E                     	;# 
   106  001F                     	;# 
   107  0081                     	;# 
   108  0085                     	;# 
   109  0086                     	;# 
   110  0087                     	;# 
   111  0088                     	;# 
   112  0089                     	;# 
   113  008C                     	;# 
   114  008D                     	;# 
   115  008E                     	;# 
   116  0091                     	;# 
   117  0092                     	;# 
   118  0093                     	;# 
   119  0094                     	;# 
   120  0098                     	;# 
   121  0099                     	;# 
   122  009C                     	;# 
   123  009D                     	;# 
   124  009E                     	;# 
   125  009F                     	;# 
   126  010C                     	;# 
   127  010D                     	;# 
   128  010E                     	;# 
   129  010F                     	;# 
   130  018C                     	;# 
   131  018D                     	;# 
   132  0000                     	;# 
   133  0001                     	;# 
   134  0002                     	;# 
   135  0003                     	;# 
   136  0004                     	;# 
   137  0005                     	;# 
   138  0006                     	;# 
   139  0007                     	;# 
   140  0008                     	;# 
   141  0009                     	;# 
   142  000A                     	;# 
   143  000B                     	;# 
   144  000C                     	;# 
   145  000D                     	;# 
   146  000E                     	;# 
   147  000E                     	;# 
   148  000F                     	;# 
   149  0010                     	;# 
   150  0011                     	;# 
   151  0012                     	;# 
   152  0013                     	;# 
   153  0014                     	;# 
   154  0015                     	;# 
   155  0015                     	;# 
   156  0016                     	;# 
   157  0017                     	;# 
   158  0018                     	;# 
   159  0019                     	;# 
   160  001A                     	;# 
   161  001B                     	;# 
   162  001B                     	;# 
   163  001C                     	;# 
   164  001D                     	;# 
   165  001E                     	;# 
   166  001F                     	;# 
   167  0081                     	;# 
   168  0085                     	;# 
   169  0086                     	;# 
   170  0087                     	;# 
   171  0088                     	;# 
   172  0089                     	;# 
   173  008C                     	;# 
   174  008D                     	;# 
   175  008E                     	;# 
   176  0091                     	;# 
   177  0092                     	;# 
   178  0093                     	;# 
   179  0094                     	;# 
   180  0098                     	;# 
   181  0099                     	;# 
   182  009C                     	;# 
   183  009D                     	;# 
   184  009E                     	;# 
   185  009F                     	;# 
   186  010C                     	;# 
   187  010D                     	;# 
   188  010E                     	;# 
   189  010F                     	;# 
   190  018C                     	;# 
   191  018D                     	;# 
   192  0000                     	;# 
   193  0001                     	;# 
   194  0002                     	;# 
   195  0003                     	;# 
   196  0004                     	;# 
   197  0005                     	;# 
   198  0006                     	;# 
   199  0007                     	;# 
   200  0008                     	;# 
   201  0009                     	;# 
   202  000A                     	;# 
   203  000B                     	;# 
   204  000C                     	;# 
   205  000D                     	;# 
   206  000E                     	;# 
   207  000E                     	;# 
   208  000F                     	;# 
   209  0010                     	;# 
   210  0011                     	;# 
   211  0012                     	;# 
   212  0013                     	;# 
   213  0014                     	;# 
   214  0015                     	;# 
   215  0015                     	;# 
   216  0016                     	;# 
   217  0017                     	;# 
   218  0018                     	;# 
   219  0019                     	;# 
   220  001A                     	;# 
   221  001B                     	;# 
   222  001B                     	;# 
   223  001C                     	;# 
   224  001D                     	;# 
   225  001E                     	;# 
   226  001F                     	;# 
   227  0081                     	;# 
   228  0085                     	;# 
   229  0086                     	;# 
   230  0087                     	;# 
   231  0088                     	;# 
   232  0089                     	;# 
   233  008C                     	;# 
   234  008D                     	;# 
   235  008E                     	;# 
   236  0091                     	;# 
   237  0092                     	;# 
   238  0093                     	;# 
   239  0094                     	;# 
   240  0098                     	;# 
   241  0099                     	;# 
   242  009C                     	;# 
   243  009D                     	;# 
   244  009E                     	;# 
   245  009F                     	;# 
   246  010C                     	;# 
   247  010D                     	;# 
   248  010E                     	;# 
   249  010F                     	;# 
   250  018C                     	;# 
   251  018D                     	;# 
   252                           
   253                           	psect	nvBANK1
   254  00C6                     __pnvBANK1:	
   255  00C6                     _out:	
   256  00C6                     	ds	4
   257  00CA                     _Kd:	
   258  00CA                     	ds	4
   259  00CE                     _Ki:	
   260  00CE                     	ds	4
   261  00D2                     _Kp:	
   262  00D2                     	ds	4
   263  00D6                     _T:	
   264  00D6                     	ds	4
   265  00DA                     _E1:	
   266  00DA                     	ds	4
   267  00DE                     _E:	
   268  00DE                     	ds	4
   269                           
   270                           	psect	nvBANK3
   271  0190                     __pnvBANK3:	
   272  0190                     _pre_out:	
   273  0190                     	ds	4
   274  0194                     _a3:	
   275  0194                     	ds	4
   276  0198                     _a2:	
   277  0198                     	ds	4
   278  019C                     _a1:	
   279  019C                     	ds	4
   280  01A0                     _E2:	
   281  01A0                     	ds	4
   282  000E                     _TMR1	set	14
   283  001B                     _CCPR2	set	27
   284  0015                     _CCPR1L	set	21
   285  0011                     _TMR2	set	17
   286  0041                     _RD1	set	65
   287  0040                     _RD0	set	64
   288  0045                     _RD5	set	69
   289  0044                     _RD4	set	68
   290  0043                     _RD3	set	67
   291  0042                     _RD2	set	66
   292  0068                     _CCP2IF	set	104
   293  00E8                     _CCP2M0	set	232
   294  00E9                     _CCP2M1	set	233
   295  00EA                     _CCP2M2	set	234
   296  00EB                     _CCP2M3	set	235
   297  0080                     _TMR1ON	set	128
   298  005E                     _PEIE	set	94
   299  005F                     _GIE	set	95
   300  0084                     _T1CKPS0	set	132
   301  0085                     _T1CKPS1	set	133
   302  00BC                     _CCP1Y	set	188
   303  00BD                     _CCP1X	set	189
   304  0092                     _TMR2ON	set	146
   305  0090                     _T2CKPS0	set	144
   306  0091                     _T2CKPS1	set	145
   307  0093                     _TOUTPS0	set	147
   308  0094                     _TOUTPS1	set	148
   309  0095                     _TOUTPS2	set	149
   310  0096                     _TOUTPS3	set	150
   311  00BA                     _CCP1M2	set	186
   312  00BB                     _CCP1M3	set	187
   313  0047                     _RD7	set	71
   314  0092                     _PR2	set	146
   315  0088                     _TRISD	set	136
   316  0468                     _CCP2IE	set	1128
   317  0439                     _TRISC1	set	1081
   318  0460                     _TMR1IE	set	1120
   319  043A                     _TRISC2	set	1082
   320                           
   321                           	psect	strings
   322  1000                     __pstrings:	
   323  1000                     stringtab:	
   324  1000                     __stringtab:	
   325  1000                     stringcode:	
   326                           ;	String table - string pointers are 1 byte each
   327                           
   328  1000                     stringdir:	
   329  1000  3010               	movlw	high stringdir
   330  1001  008A               	movwf	10
   331  1002  0804               	movf	4,w
   332  1003  0A84               	incf	4,f
   333  1004  0782               	addwf	2,f
   334  1005                     __stringbase:	
   335  1005  3400               	retlw	0
   336  1006                     __end_of__stringtab:	
   337  1006                     STR_1:	
   338  1006  3447               	retlw	71	;'G'
   339  1007  3469               	retlw	105	;'i'
   340  1008  3461               	retlw	97	;'a'
   341  1009  3420               	retlw	32	;' '
   342  100A  3474               	retlw	116	;'t'
   343  100B  3472               	retlw	114	;'r'
   344  100C  3469               	retlw	105	;'i'
   345  100D  343A               	retlw	58	;':'
   346  100E  3420               	retlw	32	;' '
   347  100F  3400               	retlw	0
   348  1010                     STR_2:	
   349  1010  3454               	retlw	84	;'T'
   350  1011  346F               	retlw	111	;'o'
   351  1012  3463               	retlw	99	;'c'
   352  1013  3420               	retlw	32	;' '
   353  1014  3464               	retlw	100	;'d'
   354  1015  346F               	retlw	111	;'o'
   355  1016  343A               	retlw	58	;':'
   356  1017  3420               	retlw	32	;' '
   357  1018  3400               	retlw	0
   358                           
   359                           ; #config settings
   360  0000                     
   361                           	psect	cinit
   362  000F                     start_initialization:	
   363  000F                     __initialization:	
   364                           
   365                           ; Clear objects allocated to BANK1
   366  000F  1683               	bsf	3,5	;RP0=1, select bank1
   367  0010  1303               	bcf	3,6	;RP1=0, select bank1
   368  0011  01E2               	clrf	__pbssBANK1& (0+127)
   369  0012  01E3               	clrf	(__pbssBANK1+1)& (0+127)
   370  0013  01E4               	clrf	(__pbssBANK1+2)& (0+127)
   371  0014  01E5               	clrf	(__pbssBANK1+3)& (0+127)
   372  0015  01E6               	clrf	(__pbssBANK1+4)& (0+127)
   373  0016  01E7               	clrf	(__pbssBANK1+5)& (0+127)
   374  0017  01E8               	clrf	(__pbssBANK1+6)& (0+127)
   375  0018  01E9               	clrf	(__pbssBANK1+7)& (0+127)
   376  0019  01EA               	clrf	(__pbssBANK1+8)& (0+127)
   377  001A  01EB               	clrf	(__pbssBANK1+9)& (0+127)
   378  001B  01EC               	clrf	(__pbssBANK1+10)& (0+127)
   379  001C  01ED               	clrf	(__pbssBANK1+11)& (0+127)
   380  001D                     end_of_initialization:	
   381                           ;End of C runtime variable initialization code
   382                           
   383  001D                     __end_of__initialization:	
   384  001D  0183               	clrf	3
   385  001E  120A  158A  2D0C   	ljmp	_main	;jump to C main() function
   386                           
   387                           	psect	bssBANK1
   388  00E2                     __pbssBANK1:	
   389  00E2                     _chot:	
   390  00E2                     	ds	4
   391  00E6                     _gamma:	
   392  00E6                     	ds	4
   393  00EA                     _beta:	
   394  00EA                     	ds	4
   395                           
   396                           	psect	cstackBANK1
   397  00A0                     __pcstackBANK1:	
   398  00A0                     ?___flsub:	
   399  00A0                     ___flsub@a:	
   400                           ; 4 bytes @ 0x0
   401                           
   402                           
   403                           ; 4 bytes @ 0x0
   404  00A0                     	ds	4
   405  00A4                     ___flsub@b:	
   406                           
   407                           ; 4 bytes @ 0x4
   408  00A4                     	ds	4
   409  00A8                     ?_PID_Init:	
   410  00A8                     PID_Init@tocdo:	
   411                           ; 1 bytes @ 0x8
   412                           
   413                           
   414                           ; 2 bytes @ 0x8
   415  00A8                     	ds	2
   416  00AA                     PID_Init@tocdodat:	
   417                           
   418                           ; 2 bytes @ 0xA
   419  00AA                     	ds	2
   420  00AC                     _PID_Init$793:	
   421                           
   422                           ; 4 bytes @ 0xC
   423  00AC                     	ds	4
   424  00B0                     _PID_Init$794:	
   425                           
   426                           ; 4 bytes @ 0x10
   427  00B0                     	ds	4
   428  00B4                     _PID_Init$792:	
   429                           
   430                           ; 4 bytes @ 0x14
   431  00B4                     	ds	4
   432  00B8                     _main$790:	
   433                           
   434                           ; 4 bytes @ 0x18
   435  00B8                     	ds	4
   436  00BC                     _main$791:	
   437                           
   438                           ; 4 bytes @ 0x1C
   439  00BC                     	ds	6
   440  00C2                     main@buffer:	
   441                           
   442                           ; 2 bytes @ 0x22
   443  00C2                     	ds	2
   444  00C4                     main@t:	
   445                           
   446                           ; 2 bytes @ 0x24
   447  00C4                     	ds	2
   448                           
   449                           	psect	cstackCOMMON
   450  0070                     __pcstackCOMMON:	
   451  0070                     ?_Timer1_Init:	
   452  0070                     ?_Capture_Init:	
   453                           ; 1 bytes @ 0x0
   454                           
   455  0070                     ?_Lcd_Init:	
   456                           ; 1 bytes @ 0x0
   457                           
   458  0070                     ?_Lcd_Write_String:	
   459                           ; 1 bytes @ 0x0
   460                           
   461  0070                     ?_Lcd_Write_Char:	
   462                           ; 1 bytes @ 0x0
   463                           
   464  0070                     ?_main:	
   465                           ; 1 bytes @ 0x0
   466                           
   467  0070                     ?_My_interrupt:	
   468                           ; 1 bytes @ 0x0
   469                           
   470  0070                     ??_My_interrupt:	
   471                           ; 1 bytes @ 0x0
   472                           
   473  0070                     ?_Lcd_Port:	
   474                           ; 1 bytes @ 0x0
   475                           
   476  0070                     ?_Lcd_Cmd:	
   477                           ; 1 bytes @ 0x0
   478                           
   479                           
   480                           ; 1 bytes @ 0x0
   481  0070                     	ds	2
   482  0072                     ?___flge:	
   483  0072                     ?_PWM_Init:	
   484                           ; 1 bit 
   485                           
   486  0072                     ??_Timer1_Init:	
   487                           ; 1 bytes @ 0x2
   488                           
   489  0072                     ??_Capture_Init:	
   490                           ; 1 bytes @ 0x2
   491                           
   492  0072                     ??_Lcd_Port:	
   493                           ; 1 bytes @ 0x2
   494                           
   495  0072                     ?__Umul8_16:	
   496                           ; 1 bytes @ 0x2
   497                           
   498  0072                     ?___lwmod:	
   499                           ; 2 bytes @ 0x2
   500                           
   501  0072                     ?___xxtofl:	
   502                           ; 2 bytes @ 0x2
   503                           
   504  0072                     Lcd_Port@a:	
   505                           ; 4 bytes @ 0x2
   506                           
   507  0072                     __Umul8_16@multiplicand:	
   508                           ; 1 bytes @ 0x2
   509                           
   510  0072                     PWM_Init@period:	
   511                           ; 1 bytes @ 0x2
   512                           
   513  0072                     ___lwmod@divisor:	
   514                           ; 2 bytes @ 0x2
   515                           
   516  0072                     ___flge@ff1:	
   517                           ; 2 bytes @ 0x2
   518                           
   519  0072                     ___xxtofl@val:	
   520                           ; 4 bytes @ 0x2
   521                           
   522                           
   523                           ; 4 bytes @ 0x2
   524  0072                     	ds	1
   525  0073                     ??_Lcd_Write_Char:	
   526  0073                     ??_Lcd_Cmd:	
   527                           ; 1 bytes @ 0x3
   528                           
   529                           
   530                           ; 1 bytes @ 0x3
   531  0073                     	ds	1
   532  0074                     ??_PWM_Init:	
   533  0074                     ??__Umul8_16:	
   534                           ; 1 bytes @ 0x4
   535                           
   536  0074                     Lcd_Write_Char@temp:	
   537                           ; 1 bytes @ 0x4
   538                           
   539  0074                     ___lwmod@dividend:	
   540                           ; 1 bytes @ 0x4
   541                           
   542                           
   543                           ; 2 bytes @ 0x4
   544  0074                     	ds	1
   545  0075                     Lcd_Cmd@a:	
   546  0075                     Lcd_Write_Char@y:	
   547                           ; 1 bytes @ 0x5
   548                           
   549                           
   550                           ; 1 bytes @ 0x5
   551  0075                     	ds	1
   552  0076                     ??_Lcd_Init:	
   553  0076                     ?_Lcd_Set_Cursor:	
   554                           ; 1 bytes @ 0x6
   555                           
   556  0076                     ??___lwmod:	
   557                           ; 1 bytes @ 0x6
   558                           
   559  0076                     ??___xxtofl:	
   560                           ; 1 bytes @ 0x6
   561                           
   562  0076                     Lcd_Set_Cursor@b:	
   563                           ; 1 bytes @ 0x6
   564                           
   565  0076                     Lcd_Write_Char@a:	
   566                           ; 1 bytes @ 0x6
   567                           
   568  0076                     __Umul8_16@product:	
   569                           ; 1 bytes @ 0x6
   570                           
   571  0076                     ___flge@ff2:	
   572                           ; 2 bytes @ 0x6
   573                           
   574                           
   575                           ; 4 bytes @ 0x6
   576  0076                     	ds	1
   577  0077                     ??_Lcd_Write_String:	
   578  0077                     ??_Lcd_Set_Cursor:	
   579                           ; 1 bytes @ 0x7
   580                           
   581  0077                     ___lwmod@counter:	
   582                           ; 1 bytes @ 0x7
   583                           
   584  0077                     Lcd_Write_String@i:	
   585                           ; 1 bytes @ 0x7
   586                           
   587                           
   588                           ; 2 bytes @ 0x7
   589  0077                     	ds	1
   590  0078                     ?___lwdiv:	
   591  0078                     ___lwdiv@divisor:	
   592                           ; 2 bytes @ 0x8
   593                           
   594  0078                     __Umul8_16@word_mpld:	
   595                           ; 2 bytes @ 0x8
   596                           
   597                           
   598                           ; 2 bytes @ 0x8
   599  0078                     	ds	1
   600  0079                     Lcd_Write_String@a:	
   601                           
   602                           ; 1 bytes @ 0x9
   603  0079                     	ds	1
   604  007A                     __Umul8_16@multiplier:	
   605  007A                     ___lwdiv@dividend:	
   606                           ; 1 bytes @ 0xA
   607                           
   608                           
   609                           ; 2 bytes @ 0xA
   610  007A                     	ds	1
   611  007B                     ??_Duty_Init:	
   612  007B                     ??_PID_Init:	
   613                           ; 1 bytes @ 0xB
   614                           
   615  007B                     ??___flsub:	
   616                           ; 1 bytes @ 0xB
   617                           
   618                           
   619                           ; 1 bytes @ 0xB
   620  007B                     	ds	1
   621                           
   622                           	psect	cstackBANK0
   623  0020                     __pcstackBANK0:	
   624  0020                     ??___flge:	
   625  0020                     ??___lwdiv:	
   626                           ; 1 bytes @ 0x0
   627                           
   628  0020                     Lcd_Set_Cursor@a:	
   629                           ; 1 bytes @ 0x0
   630                           
   631  0020                     ___xxtofl@sign:	
   632                           ; 1 bytes @ 0x0
   633                           
   634                           
   635                           ; 1 bytes @ 0x0
   636  0020                     	ds	1
   637  0021                     Lcd_Set_Cursor@z:	
   638  0021                     ___xxtofl@exp:	
   639                           ; 1 bytes @ 0x1
   640                           
   641  0021                     ___lwdiv@quotient:	
   642                           ; 1 bytes @ 0x1
   643                           
   644                           
   645                           ; 2 bytes @ 0x1
   646  0021                     	ds	1
   647  0022                     Lcd_Set_Cursor@y:	
   648  0022                     ___xxtofl@arg:	
   649                           ; 1 bytes @ 0x2
   650                           
   651                           
   652                           ; 4 bytes @ 0x2
   653  0022                     	ds	1
   654  0023                     Lcd_Set_Cursor@temp:	
   655  0023                     ___lwdiv@counter:	
   656                           ; 1 bytes @ 0x3
   657                           
   658                           
   659                           ; 1 bytes @ 0x3
   660  0023                     	ds	3
   661  0026                     ?___flmul:	
   662  0026                     ___flmul@b:	
   663                           ; 4 bytes @ 0x6
   664                           
   665                           
   666                           ; 4 bytes @ 0x6
   667  0026                     	ds	4
   668  002A                     ___flmul@a:	
   669                           
   670                           ; 4 bytes @ 0xA
   671  002A                     	ds	4
   672  002E                     ??___flmul:	
   673                           
   674                           ; 1 bytes @ 0xE
   675  002E                     	ds	5
   676  0033                     ___flmul@sign:	
   677                           
   678                           ; 1 bytes @ 0x13
   679  0033                     	ds	1
   680  0034                     ___flmul@grs:	
   681                           
   682                           ; 4 bytes @ 0x14
   683  0034                     	ds	4
   684  0038                     ___flmul@aexp:	
   685                           
   686                           ; 1 bytes @ 0x18
   687  0038                     	ds	1
   688  0039                     ___flmul@bexp:	
   689                           
   690                           ; 1 bytes @ 0x19
   691  0039                     	ds	1
   692  003A                     ___flmul@prod:	
   693                           
   694                           ; 4 bytes @ 0x1A
   695  003A                     	ds	4
   696  003E                     ___flmul@temp:	
   697                           
   698                           ; 2 bytes @ 0x1E
   699  003E                     	ds	2
   700  0040                     ?___fldiv:	
   701  0040                     ___fldiv@a:	
   702                           ; 4 bytes @ 0x20
   703                           
   704                           
   705                           ; 4 bytes @ 0x20
   706  0040                     	ds	4
   707  0044                     ___fldiv@b:	
   708                           
   709                           ; 4 bytes @ 0x24
   710  0044                     	ds	4
   711  0048                     ??___fldiv:	
   712                           
   713                           ; 1 bytes @ 0x28
   714  0048                     	ds	5
   715  004D                     ___fldiv@rem:	
   716                           
   717                           ; 4 bytes @ 0x2D
   718  004D                     	ds	4
   719  0051                     ___fldiv@sign:	
   720                           
   721                           ; 1 bytes @ 0x31
   722  0051                     	ds	1
   723  0052                     ___fldiv@new_exp:	
   724                           
   725                           ; 2 bytes @ 0x32
   726  0052                     	ds	2
   727  0054                     ___fldiv@grs:	
   728                           
   729                           ; 4 bytes @ 0x34
   730  0054                     	ds	4
   731  0058                     ___fldiv@bexp:	
   732                           
   733                           ; 1 bytes @ 0x38
   734  0058                     	ds	1
   735  0059                     ___fldiv@aexp:	
   736                           
   737                           ; 1 bytes @ 0x39
   738  0059                     	ds	1
   739  005A                     ?___fltol:	
   740  005A                     ?___fladd:	
   741                           ; 4 bytes @ 0x3A
   742                           
   743  005A                     ___fltol@f1:	
   744                           ; 4 bytes @ 0x3A
   745                           
   746  005A                     ___fladd@b:	
   747                           ; 4 bytes @ 0x3A
   748                           
   749                           
   750                           ; 4 bytes @ 0x3A
   751  005A                     	ds	4
   752  005E                     ??___fltol:	
   753  005E                     ___fladd@a:	
   754                           ; 1 bytes @ 0x3E
   755                           
   756                           
   757                           ; 4 bytes @ 0x3E
   758  005E                     	ds	4
   759  0062                     ??___fladd:	
   760                           
   761                           ; 1 bytes @ 0x42
   762  0062                     	ds	1
   763  0063                     ___fltol@sign1:	
   764                           
   765                           ; 1 bytes @ 0x43
   766  0063                     	ds	1
   767  0064                     ___fltol@exp1:	
   768                           
   769                           ; 1 bytes @ 0x44
   770  0064                     	ds	1
   771  0065                     ?_Duty_Init:	
   772  0065                     Duty_Init@duty:	
   773                           ; 1 bytes @ 0x45
   774                           
   775                           
   776                           ; 2 bytes @ 0x45
   777  0065                     	ds	5
   778  006A                     ___fladd@signs:	
   779                           
   780                           ; 1 bytes @ 0x4A
   781  006A                     	ds	1
   782  006B                     ___fladd@aexp:	
   783                           
   784                           ; 1 bytes @ 0x4B
   785  006B                     	ds	1
   786  006C                     ___fladd@bexp:	
   787                           
   788                           ; 1 bytes @ 0x4C
   789  006C                     	ds	1
   790  006D                     ___fladd@grs:	
   791                           
   792                           ; 1 bytes @ 0x4D
   793  006D                     	ds	1
   794  006E                     ??_main:	
   795                           
   796                           ; 1 bytes @ 0x4E
   797  006E                     	ds	2
   798                           
   799                           	psect	maintext
   800  0D0C                     __pmaintext:	
   801 ;;
   802 ;;Main: autosize = 0, tempsize = 2, incstack = 0, save=0
   803 ;;
   804 ;; *************** function _main *****************
   805 ;; Defined at:
   806 ;;		line 25 in file "PWM.c"
   807 ;; Parameters:    Size  Location     Type
   808 ;;		None
   809 ;; Auto vars:     Size  Location     Type
   810 ;;  t               2   36[BANK1 ] unsigned int 
   811 ;;  buffer          2   34[BANK1 ] unsigned int 
   812 ;;  period          2    0        unsigned int 
   813 ;; Return value:  Size  Location     Type
   814 ;;                  1    wreg      void 
   815 ;; Registers used:
   816 ;;		wreg, fsr0l, fsr0h, status,2, status,0, btemp+1, pclath, cstack
   817 ;; Tracked objects:
   818 ;;		On entry : B00/0
   819 ;;		On exit  : 0/0
   820 ;;		Unchanged: 0/0
   821 ;; Data sizes:     COMMON   BANK0   BANK1   BANK3   BANK2
   822 ;;      Params:         0       0       0       0       0
   823 ;;      Locals:         0       0      14       0       0
   824 ;;      Temps:          0       2       0       0       0
   825 ;;      Totals:         0       2      14       0       0
   826 ;;Total ram usage:       16 bytes
   827 ;; Hardware stack levels required when called:    4
   828 ;; This function calls:
   829 ;;		_Capture_Init
   830 ;;		_Duty_Init
   831 ;;		_Lcd_Init
   832 ;;		_Lcd_Set_Cursor
   833 ;;		_Lcd_Write_Char
   834 ;;		_Lcd_Write_String
   835 ;;		_PID_Init
   836 ;;		_PWM_Init
   837 ;;		_Timer1_Init
   838 ;;		___fldiv
   839 ;;		___flmul
   840 ;;		___fltol
   841 ;;		___lwdiv
   842 ;;		___lwmod
   843 ;;		___xxtofl
   844 ;; This function is called by:
   845 ;;		Startup code after reset
   846 ;; This function uses a non-reentrant model
   847 ;;
   848                           
   849                           
   850                           ;psect for function _main
   851  0D0C                     _main:	
   852                           
   853                           ;PWM.c: 28:     T = 0.01;
   854                           
   855                           ;incstack = 0
   856                           ; Regs used in _main: [wreg-fsr0h+status,2+status,0+btemp+1+pclath+cstack]
   857  0D0C  303C               	movlw	60
   858  0D0D  1683               	bsf	3,5	;RP0=1, select bank1
   859  0D0E  1303               	bcf	3,6	;RP1=0, select bank1
   860  0D0F  00D9               	movwf	(_T+3)^(0+128)
   861  0D10  3023               	movlw	35
   862  0D11  00D8               	movwf	(_T+2)^(0+128)
   863  0D12  30D7               	movlw	215
   864  0D13  00D7               	movwf	(_T+1)^(0+128)
   865  0D14  300A               	movlw	10
   866  0D15  00D6               	movwf	_T^(0+128)
   867                           
   868                           ;PWM.c: 29:     Kp = 16.625;
   869  0D16  3041               	movlw	65
   870  0D17  00D5               	movwf	(_Kp+3)^(0+128)
   871  0D18  3085               	movlw	133
   872  0D19  00D4               	movwf	(_Kp+2)^(0+128)
   873  0D1A  3000               	movlw	0
   874  0D1B  00D3               	movwf	(_Kp+1)^(0+128)
   875  0D1C  3000               	movlw	0
   876  0D1D  00D2               	movwf	_Kp^(0+128)
   877                           
   878                           ;PWM.c: 30:     Ki = 0.25;
   879  0D1E  303E               	movlw	62
   880  0D1F  00D1               	movwf	(_Ki+3)^(0+128)
   881  0D20  3080               	movlw	128
   882  0D21  00D0               	movwf	(_Ki+2)^(0+128)
   883  0D22  3000               	movlw	0
   884  0D23  00CF               	movwf	(_Ki+1)^(0+128)
   885  0D24  3000               	movlw	0
   886  0D25  00CE               	movwf	_Ki^(0+128)
   887                           
   888                           ;PWM.c: 31:     Kd = 0;
   889  0D26  3000               	movlw	0
   890  0D27  00CD               	movwf	(_Kd+3)^(0+128)
   891  0D28  3000               	movlw	0
   892  0D29  00CC               	movwf	(_Kd+2)^(0+128)
   893  0D2A  3000               	movlw	0
   894  0D2B  00CB               	movwf	(_Kd+1)^(0+128)
   895  0D2C  3000               	movlw	0
   896  0D2D  00CA               	movwf	_Kd^(0+128)
   897                           
   898                           ;PWM.c: 32:     E = E1 = E2 = 0;
   899  0D2E  3000               	movlw	0
   900  0D2F  1683               	bsf	3,5	;RP0=1, select bank3
   901  0D30  1703               	bsf	3,6	;RP1=1, select bank3
   902  0D31  00A3               	movwf	(_E2+3)^(0+384)
   903  0D32  3000               	movlw	0
   904  0D33  00A2               	movwf	(_E2+2)^(0+384)
   905  0D34  3000               	movlw	0
   906  0D35  00A1               	movwf	(_E2+1)^(0+384)
   907  0D36  3000               	movlw	0
   908  0D37  00A0               	movwf	_E2^(0+384)
   909  0D38  0823               	movf	(_E2+3)^(0+384),w
   910  0D39  1683               	bsf	3,5	;RP0=1, select bank1
   911  0D3A  1303               	bcf	3,6	;RP1=0, select bank1
   912  0D3B  00DD               	movwf	(_E1+3)^(0+128)
   913  0D3C  1683               	bsf	3,5	;RP0=1, select bank3
   914  0D3D  1703               	bsf	3,6	;RP1=1, select bank3
   915  0D3E  0822               	movf	(_E2+2)^(0+384),w
   916  0D3F  1683               	bsf	3,5	;RP0=1, select bank1
   917  0D40  1303               	bcf	3,6	;RP1=0, select bank1
   918  0D41  00DC               	movwf	(_E1+2)^(0+128)
   919  0D42  1683               	bsf	3,5	;RP0=1, select bank3
   920  0D43  1703               	bsf	3,6	;RP1=1, select bank3
   921  0D44  0821               	movf	(_E2+1)^(0+384),w
   922  0D45  1683               	bsf	3,5	;RP0=1, select bank1
   923  0D46  1303               	bcf	3,6	;RP1=0, select bank1
   924  0D47  00DB               	movwf	(_E1+1)^(0+128)
   925  0D48  1683               	bsf	3,5	;RP0=1, select bank3
   926  0D49  1703               	bsf	3,6	;RP1=1, select bank3
   927  0D4A  0820               	movf	_E2^(0+384),w
   928  0D4B  1683               	bsf	3,5	;RP0=1, select bank1
   929  0D4C  1303               	bcf	3,6	;RP1=0, select bank1
   930  0D4D  00DA               	movwf	_E1^(0+128)
   931  0D4E  085D               	movf	(_E1+3)^(0+128),w
   932  0D4F  00E1               	movwf	(_E+3)^(0+128)
   933  0D50  085C               	movf	(_E1+2)^(0+128),w
   934  0D51  00E0               	movwf	(_E+2)^(0+128)
   935  0D52  085B               	movf	(_E1+1)^(0+128),w
   936  0D53  00DF               	movwf	(_E+1)^(0+128)
   937  0D54  085A               	movf	_E1^(0+128),w
   938  0D55  00DE               	movwf	_E^(0+128)
   939                           
   940                           ;PWM.c: 33:     a1 = a2 = a3 = 0;
   941  0D56  3000               	movlw	0
   942  0D57  1683               	bsf	3,5	;RP0=1, select bank3
   943  0D58  1703               	bsf	3,6	;RP1=1, select bank3
   944  0D59  0097               	movwf	(_a3+3)^(0+384)
   945  0D5A  3000               	movlw	0
   946  0D5B  0096               	movwf	(_a3+2)^(0+384)
   947  0D5C  3000               	movlw	0
   948  0D5D  0095               	movwf	(_a3+1)^(0+384)
   949  0D5E  3000               	movlw	0
   950  0D5F  0094               	movwf	_a3^(0+384)
   951  0D60  0817               	movf	(_a3+3)^(0+384),w
   952  0D61  009B               	movwf	(_a2+3)^(0+384)
   953  0D62  0816               	movf	(_a3+2)^(0+384),w
   954  0D63  009A               	movwf	(_a2+2)^(0+384)
   955  0D64  0815               	movf	(_a3+1)^(0+384),w
   956  0D65  0099               	movwf	(_a2+1)^(0+384)
   957  0D66  0814               	movf	_a3^(0+384),w
   958  0D67  0098               	movwf	_a2^(0+384)
   959  0D68  081B               	movf	(_a2+3)^(0+384),w
   960  0D69  009F               	movwf	(_a1+3)^(0+384)
   961  0D6A  081A               	movf	(_a2+2)^(0+384),w
   962  0D6B  009E               	movwf	(_a1+2)^(0+384)
   963  0D6C  0819               	movf	(_a2+1)^(0+384),w
   964  0D6D  009D               	movwf	(_a1+1)^(0+384)
   965  0D6E  0818               	movf	_a2^(0+384),w
   966  0D6F  009C               	movwf	_a1^(0+384)
   967                           
   968                           ;PWM.c: 34:     out = pre_out = 0;
   969  0D70  3000               	movlw	0
   970  0D71  0093               	movwf	(_pre_out+3)^(0+384)
   971  0D72  3000               	movlw	0
   972  0D73  0092               	movwf	(_pre_out+2)^(0+384)
   973  0D74  3000               	movlw	0
   974  0D75  0091               	movwf	(_pre_out+1)^(0+384)
   975  0D76  3000               	movlw	0
   976  0D77  0090               	movwf	_pre_out^(0+384)
   977  0D78  0813               	movf	(_pre_out+3)^(0+384),w
   978  0D79  1683               	bsf	3,5	;RP0=1, select bank1
   979  0D7A  1303               	bcf	3,6	;RP1=0, select bank1
   980  0D7B  00C9               	movwf	(_out+3)^(0+128)
   981  0D7C  1683               	bsf	3,5	;RP0=1, select bank3
   982  0D7D  1703               	bsf	3,6	;RP1=1, select bank3
   983  0D7E  0812               	movf	(_pre_out+2)^(0+384),w
   984  0D7F  1683               	bsf	3,5	;RP0=1, select bank1
   985  0D80  1303               	bcf	3,6	;RP1=0, select bank1
   986  0D81  00C8               	movwf	(_out+2)^(0+128)
   987  0D82  1683               	bsf	3,5	;RP0=1, select bank3
   988  0D83  1703               	bsf	3,6	;RP1=1, select bank3
   989  0D84  0811               	movf	(_pre_out+1)^(0+384),w
   990  0D85  1683               	bsf	3,5	;RP0=1, select bank1
   991  0D86  1303               	bcf	3,6	;RP1=0, select bank1
   992  0D87  00C7               	movwf	(_out+1)^(0+128)
   993  0D88  1683               	bsf	3,5	;RP0=1, select bank3
   994  0D89  1703               	bsf	3,6	;RP1=1, select bank3
   995  0D8A  0810               	movf	_pre_out^(0+384),w
   996  0D8B  1683               	bsf	3,5	;RP0=1, select bank1
   997  0D8C  1303               	bcf	3,6	;RP1=0, select bank1
   998  0D8D  00C6               	movwf	_out^(0+128)
   999                           
  1000                           ;PWM.c: 36:     unsigned int buffer;;PWM.c: 37:     unsigned int t;;PWM.c: 39:     TRISD
      +                           = 0x00;
  1001  0D8E  0188               	clrf	8	;volatile
  1002                           
  1003                           ;PWM.c: 42:     PWM_Init(period);
  1004  0D8F  30FF               	movlw	255
  1005  0D90  00F2               	movwf	PWM_Init@period
  1006  0D91  3000               	movlw	0
  1007  0D92  00F3               	movwf	PWM_Init@period+1
  1008  0D93  160A  118A  25CE  120A  158A  	fcall	_PWM_Init
  1009                           
  1010                           ;PWM.c: 43:     Duty_Init(0);
  1011  0D98  3000               	movlw	0
  1012  0D99  1283               	bcf	3,5	;RP0=0, select bank0
  1013  0D9A  1303               	bcf	3,6	;RP1=0, select bank0
  1014  0D9B  00E5               	movwf	Duty_Init@duty
  1015  0D9C  00E6               	movwf	Duty_Init@duty+1
  1016  0D9D  160A  118A  2595  120A  158A  	fcall	_Duty_Init
  1017                           
  1018                           ;PWM.c: 44:     Timer1_Init();
  1019  0DA2  160A  118A  259C  120A  158A  	fcall	_Timer1_Init
  1020                           
  1021                           ;PWM.c: 45:     Capture_Init();
  1022  0DA7  160A  118A  25AB  120A  158A  	fcall	_Capture_Init
  1023                           
  1024                           ;PWM.c: 46:     Lcd_Init();
  1025  0DAC  160A  118A  27A4  120A  158A  	fcall	_Lcd_Init
  1026                           
  1027                           ;PWM.c: 47:     Lcd_Write_String("Gia tri: ");
  1028  0DB1  3001               	movlw	(low ((STR_1-__stringbase)| (0+32768)))& (0+255)
  1029  0DB2  160A  118A  2618  120A  158A  	fcall	_Lcd_Write_String
  1030                           
  1031                           ;PWM.c: 48:     Lcd_Set_Cursor(2,1);
  1032  0DB7  01F6               	clrf	Lcd_Set_Cursor@b
  1033  0DB8  0AF6               	incf	Lcd_Set_Cursor@b,f
  1034  0DB9  3002               	movlw	2
  1035  0DBA  160A  118A  2754  120A  158A  	fcall	_Lcd_Set_Cursor
  1036                           
  1037                           ;PWM.c: 49:     Lcd_Write_String("Toc do: ");
  1038  0DBF  300B               	movlw	(low ((STR_2-__stringbase)| (0+32768)))& (0+255)
  1039  0DC0  160A  118A  2618  120A  158A  	fcall	_Lcd_Write_String
  1040                           
  1041                           ;PWM.c: 50:     RD7 = 1;
  1042  0DC5  1283               	bcf	3,5	;RP0=0, select bank0
  1043  0DC6  1303               	bcf	3,6	;RP1=0, select bank0
  1044  0DC7  1788               	bsf	8,7	;volatile
  1045  0DC8                     l2530:	
  1046                           
  1047                           ;PWM.c: 52:     {;PWM.c: 53:       buffer = CCPR2;
  1048  0DC8  1283               	bcf	3,5	;RP0=0, select bank0
  1049  0DC9  1303               	bcf	3,6	;RP1=0, select bank0
  1050  0DCA  081C               	movf	28,w	;volatile
  1051  0DCB  1683               	bsf	3,5	;RP0=1, select bank1
  1052  0DCC  1303               	bcf	3,6	;RP1=0, select bank1
  1053  0DCD  00C3               	movwf	(main@buffer+1)^(0+128)
  1054  0DCE  1283               	bcf	3,5	;RP0=0, select bank0
  1055  0DCF  1303               	bcf	3,6	;RP1=0, select bank0
  1056  0DD0  081B               	movf	27,w	;volatile
  1057  0DD1  1683               	bsf	3,5	;RP0=1, select bank1
  1058  0DD2  1303               	bcf	3,6	;RP1=0, select bank1
  1059  0DD3  00C2               	movwf	main@buffer^(0+128)
  1060                           
  1061                           ;PWM.c: 54:       t = 60000000/(buffer*0.2f*8*24);
  1062  0DD4  0842               	movf	main@buffer^(0+128),w
  1063  0DD5  00F2               	movwf	___xxtofl@val
  1064  0DD6  0843               	movf	(main@buffer+1)^(0+128),w
  1065  0DD7  00F3               	movwf	___xxtofl@val+1
  1066  0DD8  01F4               	clrf	___xxtofl@val+2
  1067  0DD9  01F5               	clrf	___xxtofl@val+3
  1068  0DDA  3000               	movlw	0
  1069  0DDB  120A  158A  2095  120A  158A  	fcall	___xxtofl
  1070  0DE0  0875               	movf	?___xxtofl+3,w
  1071  0DE1  1283               	bcf	3,5	;RP0=0, select bank0
  1072  0DE2  1303               	bcf	3,6	;RP1=0, select bank0
  1073  0DE3  00AD               	movwf	___flmul@a+3
  1074  0DE4  0874               	movf	?___xxtofl+2,w
  1075  0DE5  00AC               	movwf	___flmul@a+2
  1076  0DE6  0873               	movf	?___xxtofl+1,w
  1077  0DE7  00AB               	movwf	___flmul@a+1
  1078  0DE8  0872               	movf	?___xxtofl,w
  1079  0DE9  00AA               	movwf	___flmul@a
  1080  0DEA  303E               	movlw	62
  1081  0DEB  00A9               	movwf	___flmul@b+3
  1082  0DEC  304C               	movlw	76
  1083  0DED  00A8               	movwf	___flmul@b+2
  1084  0DEE  30CC               	movlw	204
  1085  0DEF  00A7               	movwf	___flmul@b+1
  1086  0DF0  30CD               	movlw	205
  1087  0DF1  00A6               	movwf	___flmul@b
  1088  0DF2  120A  118A  247C  120A  158A  	fcall	___flmul
  1089  0DF7  1283               	bcf	3,5	;RP0=0, select bank0
  1090  0DF8  1303               	bcf	3,6	;RP1=0, select bank0
  1091  0DF9  0829               	movf	?___flmul+3,w
  1092  0DFA  1683               	bsf	3,5	;RP0=1, select bank1
  1093  0DFB  1303               	bcf	3,6	;RP1=0, select bank1
  1094  0DFC  00BB               	movwf	(_main$790+3)^(0+128)
  1095  0DFD  1283               	bcf	3,5	;RP0=0, select bank0
  1096  0DFE  1303               	bcf	3,6	;RP1=0, select bank0
  1097  0DFF  0828               	movf	?___flmul+2,w
  1098  0E00  1683               	bsf	3,5	;RP0=1, select bank1
  1099  0E01  1303               	bcf	3,6	;RP1=0, select bank1
  1100  0E02  00BA               	movwf	(_main$790+2)^(0+128)
  1101  0E03  1283               	bcf	3,5	;RP0=0, select bank0
  1102  0E04  1303               	bcf	3,6	;RP1=0, select bank0
  1103  0E05  0827               	movf	?___flmul+1,w
  1104  0E06  1683               	bsf	3,5	;RP0=1, select bank1
  1105  0E07  1303               	bcf	3,6	;RP1=0, select bank1
  1106  0E08  00B9               	movwf	(_main$790+1)^(0+128)
  1107  0E09  1283               	bcf	3,5	;RP0=0, select bank0
  1108  0E0A  1303               	bcf	3,6	;RP1=0, select bank0
  1109  0E0B  0826               	movf	?___flmul,w
  1110  0E0C  1683               	bsf	3,5	;RP0=1, select bank1
  1111  0E0D  1303               	bcf	3,6	;RP1=0, select bank1
  1112  0E0E  00B8               	movwf	_main$790^(0+128)
  1113                           
  1114                           ;PWM.c: 54:       t = 60000000/(buffer*0.2f*8*24);
  1115  0E0F  083B               	movf	(_main$790+3)^(0+128),w
  1116  0E10  1283               	bcf	3,5	;RP0=0, select bank0
  1117  0E11  1303               	bcf	3,6	;RP1=0, select bank0
  1118  0E12  00AD               	movwf	___flmul@a+3
  1119  0E13  1683               	bsf	3,5	;RP0=1, select bank1
  1120  0E14  1303               	bcf	3,6	;RP1=0, select bank1
  1121  0E15  083A               	movf	(_main$790+2)^(0+128),w
  1122  0E16  1283               	bcf	3,5	;RP0=0, select bank0
  1123  0E17  1303               	bcf	3,6	;RP1=0, select bank0
  1124  0E18  00AC               	movwf	___flmul@a+2
  1125  0E19  1683               	bsf	3,5	;RP0=1, select bank1
  1126  0E1A  1303               	bcf	3,6	;RP1=0, select bank1
  1127  0E1B  0839               	movf	(_main$790+1)^(0+128),w
  1128  0E1C  1283               	bcf	3,5	;RP0=0, select bank0
  1129  0E1D  1303               	bcf	3,6	;RP1=0, select bank0
  1130  0E1E  00AB               	movwf	___flmul@a+1
  1131  0E1F  1683               	bsf	3,5	;RP0=1, select bank1
  1132  0E20  1303               	bcf	3,6	;RP1=0, select bank1
  1133  0E21  0838               	movf	_main$790^(0+128),w
  1134  0E22  1283               	bcf	3,5	;RP0=0, select bank0
  1135  0E23  1303               	bcf	3,6	;RP1=0, select bank0
  1136  0E24  00AA               	movwf	___flmul@a
  1137  0E25  3041               	movlw	65
  1138  0E26  00A9               	movwf	___flmul@b+3
  1139  0E27  3000               	movlw	0
  1140  0E28  00A8               	movwf	___flmul@b+2
  1141  0E29  3000               	movlw	0
  1142  0E2A  00A7               	movwf	___flmul@b+1
  1143  0E2B  3000               	movlw	0
  1144  0E2C  00A6               	movwf	___flmul@b
  1145  0E2D  120A  118A  247C  120A  158A  	fcall	___flmul
  1146  0E32  1283               	bcf	3,5	;RP0=0, select bank0
  1147  0E33  1303               	bcf	3,6	;RP1=0, select bank0
  1148  0E34  0829               	movf	?___flmul+3,w
  1149  0E35  1683               	bsf	3,5	;RP0=1, select bank1
  1150  0E36  1303               	bcf	3,6	;RP1=0, select bank1
  1151  0E37  00BF               	movwf	(_main$791+3)^(0+128)
  1152  0E38  1283               	bcf	3,5	;RP0=0, select bank0
  1153  0E39  1303               	bcf	3,6	;RP1=0, select bank0
  1154  0E3A  0828               	movf	?___flmul+2,w
  1155  0E3B  1683               	bsf	3,5	;RP0=1, select bank1
  1156  0E3C  1303               	bcf	3,6	;RP1=0, select bank1
  1157  0E3D  00BE               	movwf	(_main$791+2)^(0+128)
  1158  0E3E  1283               	bcf	3,5	;RP0=0, select bank0
  1159  0E3F  1303               	bcf	3,6	;RP1=0, select bank0
  1160  0E40  0827               	movf	?___flmul+1,w
  1161  0E41  1683               	bsf	3,5	;RP0=1, select bank1
  1162  0E42  1303               	bcf	3,6	;RP1=0, select bank1
  1163  0E43  00BD               	movwf	(_main$791+1)^(0+128)
  1164  0E44  1283               	bcf	3,5	;RP0=0, select bank0
  1165  0E45  1303               	bcf	3,6	;RP1=0, select bank0
  1166  0E46  0826               	movf	?___flmul,w
  1167  0E47  1683               	bsf	3,5	;RP0=1, select bank1
  1168  0E48  1303               	bcf	3,6	;RP1=0, select bank1
  1169  0E49  00BC               	movwf	_main$791^(0+128)
  1170                           
  1171                           ;PWM.c: 54:       t = 60000000/(buffer*0.2f*8*24);
  1172  0E4A  304C               	movlw	76
  1173  0E4B  1283               	bcf	3,5	;RP0=0, select bank0
  1174  0E4C  1303               	bcf	3,6	;RP1=0, select bank0
  1175  0E4D  00C7               	movwf	___fldiv@b+3
  1176  0E4E  3064               	movlw	100
  1177  0E4F  00C6               	movwf	___fldiv@b+2
  1178  0E50  30E1               	movlw	225
  1179  0E51  00C5               	movwf	___fldiv@b+1
  1180  0E52  30C0               	movlw	192
  1181  0E53  00C4               	movwf	___fldiv@b
  1182  0E54  1683               	bsf	3,5	;RP0=1, select bank1
  1183  0E55  1303               	bcf	3,6	;RP1=0, select bank1
  1184  0E56  083F               	movf	(_main$791+3)^(0+128),w
  1185  0E57  1283               	bcf	3,5	;RP0=0, select bank0
  1186  0E58  1303               	bcf	3,6	;RP1=0, select bank0
  1187  0E59  00AD               	movwf	___flmul@a+3
  1188  0E5A  1683               	bsf	3,5	;RP0=1, select bank1
  1189  0E5B  1303               	bcf	3,6	;RP1=0, select bank1
  1190  0E5C  083E               	movf	(_main$791+2)^(0+128),w
  1191  0E5D  1283               	bcf	3,5	;RP0=0, select bank0
  1192  0E5E  1303               	bcf	3,6	;RP1=0, select bank0
  1193  0E5F  00AC               	movwf	___flmul@a+2
  1194  0E60  1683               	bsf	3,5	;RP0=1, select bank1
  1195  0E61  1303               	bcf	3,6	;RP1=0, select bank1
  1196  0E62  083D               	movf	(_main$791+1)^(0+128),w
  1197  0E63  1283               	bcf	3,5	;RP0=0, select bank0
  1198  0E64  1303               	bcf	3,6	;RP1=0, select bank0
  1199  0E65  00AB               	movwf	___flmul@a+1
  1200  0E66  1683               	bsf	3,5	;RP0=1, select bank1
  1201  0E67  1303               	bcf	3,6	;RP1=0, select bank1
  1202  0E68  083C               	movf	_main$791^(0+128),w
  1203  0E69  1283               	bcf	3,5	;RP0=0, select bank0
  1204  0E6A  1303               	bcf	3,6	;RP1=0, select bank0
  1205  0E6B  00AA               	movwf	___flmul@a
  1206  0E6C  3041               	movlw	65
  1207  0E6D  00A9               	movwf	___flmul@b+3
  1208  0E6E  30C0               	movlw	192
  1209  0E6F  00A8               	movwf	___flmul@b+2
  1210  0E70  3000               	movlw	0
  1211  0E71  00A7               	movwf	___flmul@b+1
  1212  0E72  3000               	movlw	0
  1213  0E73  00A6               	movwf	___flmul@b
  1214  0E74  120A  118A  247C  120A  158A  	fcall	___flmul
  1215  0E79  1283               	bcf	3,5	;RP0=0, select bank0
  1216  0E7A  1303               	bcf	3,6	;RP1=0, select bank0
  1217  0E7B  0829               	movf	?___flmul+3,w
  1218  0E7C  00C3               	movwf	___fldiv@a+3
  1219  0E7D  0828               	movf	?___flmul+2,w
  1220  0E7E  00C2               	movwf	___fldiv@a+2
  1221  0E7F  0827               	movf	?___flmul+1,w
  1222  0E80  00C1               	movwf	___fldiv@a+1
  1223  0E81  0826               	movf	?___flmul,w
  1224  0E82  00C0               	movwf	___fldiv@a
  1225  0E83  120A  158A  213A  120A  158A  	fcall	___fldiv
  1226  0E88  1283               	bcf	3,5	;RP0=0, select bank0
  1227  0E89  1303               	bcf	3,6	;RP1=0, select bank0
  1228  0E8A  0843               	movf	?___fldiv+3,w
  1229  0E8B  00DD               	movwf	___fltol@f1+3
  1230  0E8C  0842               	movf	?___fldiv+2,w
  1231  0E8D  00DC               	movwf	___fltol@f1+2
  1232  0E8E  0841               	movf	?___fldiv+1,w
  1233  0E8F  00DB               	movwf	___fltol@f1+1
  1234  0E90  0840               	movf	?___fldiv,w
  1235  0E91  00DA               	movwf	___fltol@f1
  1236  0E92  120A  118A  2791  120A  158A  	fcall	___fltol
  1237  0E97  1283               	bcf	3,5	;RP0=0, select bank0
  1238  0E98  1303               	bcf	3,6	;RP1=0, select bank0
  1239  0E99  085B               	movf	?___fltol+1,w
  1240  0E9A  1683               	bsf	3,5	;RP0=1, select bank1
  1241  0E9B  1303               	bcf	3,6	;RP1=0, select bank1
  1242  0E9C  00C5               	movwf	(main@t+1)^(0+128)
  1243  0E9D  1283               	bcf	3,5	;RP0=0, select bank0
  1244  0E9E  1303               	bcf	3,6	;RP1=0, select bank0
  1245  0E9F  085A               	movf	?___fltol,w
  1246  0EA0  1683               	bsf	3,5	;RP0=1, select bank1
  1247  0EA1  1303               	bcf	3,6	;RP1=0, select bank1
  1248  0EA2  00C4               	movwf	main@t^(0+128)
  1249                           
  1250                           ;PWM.c: 56:       Lcd_Set_Cursor(1,10);
  1251  0EA3  300A               	movlw	10
  1252  0EA4  1283               	bcf	3,5	;RP0=0, select bank0
  1253  0EA5  1303               	bcf	3,6	;RP1=0, select bank0
  1254  0EA6  00EE               	movwf	??_main
  1255  0EA7  086E               	movf	??_main,w
  1256  0EA8  00F6               	movwf	Lcd_Set_Cursor@b
  1257  0EA9  3001               	movlw	1
  1258  0EAA  160A  118A  2754  120A  158A  	fcall	_Lcd_Set_Cursor
  1259                           
  1260                           ;PWM.c: 57:       Lcd_Write_Char(buffer/10000+48);
  1261  0EAF  3010               	movlw	16
  1262  0EB0  00F8               	movwf	___lwdiv@divisor
  1263  0EB1  3027               	movlw	39
  1264  0EB2  00F9               	movwf	___lwdiv@divisor+1
  1265  0EB3  1683               	bsf	3,5	;RP0=1, select bank1
  1266  0EB4  1303               	bcf	3,6	;RP1=0, select bank1
  1267  0EB5  0843               	movf	(main@buffer+1)^(0+128),w
  1268  0EB6  00FB               	movwf	___lwdiv@dividend+1
  1269  0EB7  0842               	movf	main@buffer^(0+128),w
  1270  0EB8  00FA               	movwf	___lwdiv@dividend
  1271  0EB9  160A  118A  26C8  120A  158A  	fcall	___lwdiv
  1272  0EBE  0878               	movf	?___lwdiv,w
  1273  0EBF  3E30               	addlw	48
  1274  0EC0  160A  118A  268F  120A  158A  	fcall	_Lcd_Write_Char
  1275                           
  1276                           ;PWM.c: 58:       Lcd_Write_Char((buffer%10000)/1000+48);
  1277  0EC5  30E8               	movlw	232
  1278  0EC6  00F8               	movwf	___lwdiv@divisor
  1279  0EC7  3003               	movlw	3
  1280  0EC8  00F9               	movwf	___lwdiv@divisor+1
  1281  0EC9  1683               	bsf	3,5	;RP0=1, select bank1
  1282  0ECA  1303               	bcf	3,6	;RP1=0, select bank1
  1283  0ECB  0843               	movf	(main@buffer+1)^(0+128),w
  1284  0ECC  00F5               	movwf	___lwmod@dividend+1
  1285  0ECD  0842               	movf	main@buffer^(0+128),w
  1286  0ECE  00F4               	movwf	___lwmod@dividend
  1287  0ECF  3010               	movlw	16
  1288  0ED0  00F2               	movwf	___lwmod@divisor
  1289  0ED1  3027               	movlw	39
  1290  0ED2  00F3               	movwf	___lwmod@divisor+1
  1291  0ED3  160A  118A  265D  120A  158A  	fcall	___lwmod
  1292  0ED8  0873               	movf	?___lwmod+1,w
  1293  0ED9  00FB               	movwf	___lwdiv@dividend+1
  1294  0EDA  0872               	movf	?___lwmod,w
  1295  0EDB  00FA               	movwf	___lwdiv@dividend
  1296  0EDC  160A  118A  26C8  120A  158A  	fcall	___lwdiv
  1297  0EE1  0878               	movf	?___lwdiv,w
  1298  0EE2  3E30               	addlw	48
  1299  0EE3  160A  118A  268F  120A  158A  	fcall	_Lcd_Write_Char
  1300                           
  1301                           ;PWM.c: 59:       Lcd_Write_Char((buffer%1000)/100+48);
  1302  0EE8  3064               	movlw	100
  1303  0EE9  00F8               	movwf	___lwdiv@divisor
  1304  0EEA  3000               	movlw	0
  1305  0EEB  00F9               	movwf	___lwdiv@divisor+1
  1306  0EEC  1683               	bsf	3,5	;RP0=1, select bank1
  1307  0EED  1303               	bcf	3,6	;RP1=0, select bank1
  1308  0EEE  0843               	movf	(main@buffer+1)^(0+128),w
  1309  0EEF  00F5               	movwf	___lwmod@dividend+1
  1310  0EF0  0842               	movf	main@buffer^(0+128),w
  1311  0EF1  00F4               	movwf	___lwmod@dividend
  1312  0EF2  30E8               	movlw	232
  1313  0EF3  00F2               	movwf	___lwmod@divisor
  1314  0EF4  3003               	movlw	3
  1315  0EF5  00F3               	movwf	___lwmod@divisor+1
  1316  0EF6  160A  118A  265D  120A  158A  	fcall	___lwmod
  1317  0EFB  0873               	movf	?___lwmod+1,w
  1318  0EFC  00FB               	movwf	___lwdiv@dividend+1
  1319  0EFD  0872               	movf	?___lwmod,w
  1320  0EFE  00FA               	movwf	___lwdiv@dividend
  1321  0EFF  160A  118A  26C8  120A  158A  	fcall	___lwdiv
  1322  0F04  0878               	movf	?___lwdiv,w
  1323  0F05  3E30               	addlw	48
  1324  0F06  160A  118A  268F  120A  158A  	fcall	_Lcd_Write_Char
  1325                           
  1326                           ;PWM.c: 60:       Lcd_Write_Char((buffer%100)/10+48);
  1327  0F0B  300A               	movlw	10
  1328  0F0C  00F8               	movwf	___lwdiv@divisor
  1329  0F0D  3000               	movlw	0
  1330  0F0E  00F9               	movwf	___lwdiv@divisor+1
  1331  0F0F  1683               	bsf	3,5	;RP0=1, select bank1
  1332  0F10  1303               	bcf	3,6	;RP1=0, select bank1
  1333  0F11  0843               	movf	(main@buffer+1)^(0+128),w
  1334  0F12  00F5               	movwf	___lwmod@dividend+1
  1335  0F13  0842               	movf	main@buffer^(0+128),w
  1336  0F14  00F4               	movwf	___lwmod@dividend
  1337  0F15  3064               	movlw	100
  1338  0F16  00F2               	movwf	___lwmod@divisor
  1339  0F17  3000               	movlw	0
  1340  0F18  00F3               	movwf	___lwmod@divisor+1
  1341  0F19  160A  118A  265D  120A  158A  	fcall	___lwmod
  1342  0F1E  0873               	movf	?___lwmod+1,w
  1343  0F1F  00FB               	movwf	___lwdiv@dividend+1
  1344  0F20  0872               	movf	?___lwmod,w
  1345  0F21  00FA               	movwf	___lwdiv@dividend
  1346  0F22  160A  118A  26C8  120A  158A  	fcall	___lwdiv
  1347  0F27  0878               	movf	?___lwdiv,w
  1348  0F28  3E30               	addlw	48
  1349  0F29  160A  118A  268F  120A  158A  	fcall	_Lcd_Write_Char
  1350                           
  1351                           ;PWM.c: 61:       Lcd_Write_Char(buffer%10+48);
  1352  0F2E  300A               	movlw	10
  1353  0F2F  00F2               	movwf	___lwmod@divisor
  1354  0F30  3000               	movlw	0
  1355  0F31  00F3               	movwf	___lwmod@divisor+1
  1356  0F32  1683               	bsf	3,5	;RP0=1, select bank1
  1357  0F33  1303               	bcf	3,6	;RP1=0, select bank1
  1358  0F34  0843               	movf	(main@buffer+1)^(0+128),w
  1359  0F35  00F5               	movwf	___lwmod@dividend+1
  1360  0F36  0842               	movf	main@buffer^(0+128),w
  1361  0F37  00F4               	movwf	___lwmod@dividend
  1362  0F38  160A  118A  265D  120A  158A  	fcall	___lwmod
  1363  0F3D  0872               	movf	?___lwmod,w
  1364  0F3E  3E30               	addlw	48
  1365  0F3F  160A  118A  268F  120A  158A  	fcall	_Lcd_Write_Char
  1366                           
  1367                           ;PWM.c: 64:       Lcd_Set_Cursor(2,9);
  1368  0F44  3009               	movlw	9
  1369  0F45  1283               	bcf	3,5	;RP0=0, select bank0
  1370  0F46  1303               	bcf	3,6	;RP1=0, select bank0
  1371  0F47  00EE               	movwf	??_main
  1372  0F48  086E               	movf	??_main,w
  1373  0F49  00F6               	movwf	Lcd_Set_Cursor@b
  1374  0F4A  3002               	movlw	2
  1375  0F4B  160A  118A  2754  120A  158A  	fcall	_Lcd_Set_Cursor
  1376                           
  1377                           ;PWM.c: 65:       Lcd_Write_Char(t/10000+48);
  1378  0F50  3010               	movlw	16
  1379  0F51  00F8               	movwf	___lwdiv@divisor
  1380  0F52  3027               	movlw	39
  1381  0F53  00F9               	movwf	___lwdiv@divisor+1
  1382  0F54  1683               	bsf	3,5	;RP0=1, select bank1
  1383  0F55  1303               	bcf	3,6	;RP1=0, select bank1
  1384  0F56  0845               	movf	(main@t+1)^(0+128),w
  1385  0F57  00FB               	movwf	___lwdiv@dividend+1
  1386  0F58  0844               	movf	main@t^(0+128),w
  1387  0F59  00FA               	movwf	___lwdiv@dividend
  1388  0F5A  160A  118A  26C8  120A  158A  	fcall	___lwdiv
  1389  0F5F  0878               	movf	?___lwdiv,w
  1390  0F60  3E30               	addlw	48
  1391  0F61  160A  118A  268F  120A  158A  	fcall	_Lcd_Write_Char
  1392                           
  1393                           ;PWM.c: 66:       Lcd_Write_Char((t%10000)/1000+48);
  1394  0F66  30E8               	movlw	232
  1395  0F67  00F8               	movwf	___lwdiv@divisor
  1396  0F68  3003               	movlw	3
  1397  0F69  00F9               	movwf	___lwdiv@divisor+1
  1398  0F6A  1683               	bsf	3,5	;RP0=1, select bank1
  1399  0F6B  1303               	bcf	3,6	;RP1=0, select bank1
  1400  0F6C  0845               	movf	(main@t+1)^(0+128),w
  1401  0F6D  00F5               	movwf	___lwmod@dividend+1
  1402  0F6E  0844               	movf	main@t^(0+128),w
  1403  0F6F  00F4               	movwf	___lwmod@dividend
  1404  0F70  3010               	movlw	16
  1405  0F71  00F2               	movwf	___lwmod@divisor
  1406  0F72  3027               	movlw	39
  1407  0F73  00F3               	movwf	___lwmod@divisor+1
  1408  0F74  160A  118A  265D  120A  158A  	fcall	___lwmod
  1409  0F79  0873               	movf	?___lwmod+1,w
  1410  0F7A  00FB               	movwf	___lwdiv@dividend+1
  1411  0F7B  0872               	movf	?___lwmod,w
  1412  0F7C  00FA               	movwf	___lwdiv@dividend
  1413  0F7D  160A  118A  26C8  120A  158A  	fcall	___lwdiv
  1414  0F82  0878               	movf	?___lwdiv,w
  1415  0F83  3E30               	addlw	48
  1416  0F84  160A  118A  268F  120A  158A  	fcall	_Lcd_Write_Char
  1417                           
  1418                           ;PWM.c: 67:       Lcd_Write_Char((t%1000)/100+48);
  1419  0F89  3064               	movlw	100
  1420  0F8A  00F8               	movwf	___lwdiv@divisor
  1421  0F8B  3000               	movlw	0
  1422  0F8C  00F9               	movwf	___lwdiv@divisor+1
  1423  0F8D  1683               	bsf	3,5	;RP0=1, select bank1
  1424  0F8E  1303               	bcf	3,6	;RP1=0, select bank1
  1425  0F8F  0845               	movf	(main@t+1)^(0+128),w
  1426  0F90  00F5               	movwf	___lwmod@dividend+1
  1427  0F91  0844               	movf	main@t^(0+128),w
  1428  0F92  00F4               	movwf	___lwmod@dividend
  1429  0F93  30E8               	movlw	232
  1430  0F94  00F2               	movwf	___lwmod@divisor
  1431  0F95  3003               	movlw	3
  1432  0F96  00F3               	movwf	___lwmod@divisor+1
  1433  0F97  160A  118A  265D  120A  158A  	fcall	___lwmod
  1434  0F9C  0873               	movf	?___lwmod+1,w
  1435  0F9D  00FB               	movwf	___lwdiv@dividend+1
  1436  0F9E  0872               	movf	?___lwmod,w
  1437  0F9F  00FA               	movwf	___lwdiv@dividend
  1438  0FA0  160A  118A  26C8  120A  158A  	fcall	___lwdiv
  1439  0FA5  0878               	movf	?___lwdiv,w
  1440  0FA6  3E30               	addlw	48
  1441  0FA7  160A  118A  268F  120A  158A  	fcall	_Lcd_Write_Char
  1442                           
  1443                           ;PWM.c: 68:       Lcd_Write_Char((t%100)/10+48);
  1444  0FAC  300A               	movlw	10
  1445  0FAD  00F8               	movwf	___lwdiv@divisor
  1446  0FAE  3000               	movlw	0
  1447  0FAF  00F9               	movwf	___lwdiv@divisor+1
  1448  0FB0  1683               	bsf	3,5	;RP0=1, select bank1
  1449  0FB1  1303               	bcf	3,6	;RP1=0, select bank1
  1450  0FB2  0845               	movf	(main@t+1)^(0+128),w
  1451  0FB3  00F5               	movwf	___lwmod@dividend+1
  1452  0FB4  0844               	movf	main@t^(0+128),w
  1453  0FB5  00F4               	movwf	___lwmod@dividend
  1454  0FB6  3064               	movlw	100
  1455  0FB7  00F2               	movwf	___lwmod@divisor
  1456  0FB8  3000               	movlw	0
  1457  0FB9  00F3               	movwf	___lwmod@divisor+1
  1458  0FBA  160A  118A  265D  120A  158A  	fcall	___lwmod
  1459  0FBF  0873               	movf	?___lwmod+1,w
  1460  0FC0  00FB               	movwf	___lwdiv@dividend+1
  1461  0FC1  0872               	movf	?___lwmod,w
  1462  0FC2  00FA               	movwf	___lwdiv@dividend
  1463  0FC3  160A  118A  26C8  120A  158A  	fcall	___lwdiv
  1464  0FC8  0878               	movf	?___lwdiv,w
  1465  0FC9  3E30               	addlw	48
  1466  0FCA  160A  118A  268F  120A  158A  	fcall	_Lcd_Write_Char
  1467                           
  1468                           ;PWM.c: 69:       Lcd_Write_Char(t%10+48);
  1469  0FCF  300A               	movlw	10
  1470  0FD0  00F2               	movwf	___lwmod@divisor
  1471  0FD1  3000               	movlw	0
  1472  0FD2  00F3               	movwf	___lwmod@divisor+1
  1473  0FD3  1683               	bsf	3,5	;RP0=1, select bank1
  1474  0FD4  1303               	bcf	3,6	;RP1=0, select bank1
  1475  0FD5  0845               	movf	(main@t+1)^(0+128),w
  1476  0FD6  00F5               	movwf	___lwmod@dividend+1
  1477  0FD7  0844               	movf	main@t^(0+128),w
  1478  0FD8  00F4               	movwf	___lwmod@dividend
  1479  0FD9  160A  118A  265D  120A  158A  	fcall	___lwmod
  1480  0FDE  0872               	movf	?___lwmod,w
  1481  0FDF  3E30               	addlw	48
  1482  0FE0  160A  118A  268F  120A  158A  	fcall	_Lcd_Write_Char
  1483                           
  1484                           ;PWM.c: 70:       PID_Init(t, 100);
  1485  0FE5  1683               	bsf	3,5	;RP0=1, select bank1
  1486  0FE6  1303               	bcf	3,6	;RP1=0, select bank1
  1487  0FE7  0845               	movf	(main@t+1)^(0+128),w
  1488  0FE8  00A9               	movwf	(PID_Init@tocdo+1)^(0+128)
  1489  0FE9  0844               	movf	main@t^(0+128),w
  1490  0FEA  00A8               	movwf	PID_Init@tocdo^(0+128)
  1491  0FEB  3064               	movlw	100
  1492  0FEC  00AA               	movwf	PID_Init@tocdodat^(0+128)
  1493  0FED  3000               	movlw	0
  1494  0FEE  00AB               	movwf	(PID_Init@tocdodat^(0+128)+1)
  1495  0FEF  120A  118A  2021  120A  158A  	fcall	_PID_Init
  1496                           
  1497                           ;PWM.c: 71:       _delay((unsigned long)((10)*(20000000/4000.0)));
  1498  0FF4  3041               	movlw	65
  1499  0FF5  1283               	bcf	3,5	;RP0=0, select bank0
  1500  0FF6  1303               	bcf	3,6	;RP1=0, select bank0
  1501  0FF7  00EF               	movwf	??_main+1
  1502  0FF8  30ED               	movlw	237
  1503  0FF9  00EE               	movwf	??_main
  1504  0FFA                     u3457:	
  1505  0FFA  0BEE               	decfsz	??_main,f
  1506  0FFB  2FFA               	goto	u3457
  1507  0FFC  0BEF               	decfsz	??_main+1,f
  1508  0FFD  2FFA               	goto	u3457
  1509  0FFE  2FFF               	nop2
  1510  0FFF  2DC8               	goto	l2530
  1511  1000                     __end_of_main:	
  1512                           
  1513                           	psect	text1
  1514  165D                     __ptext1:	
  1515 ;; *************** function ___lwmod *****************
  1516 ;; Defined at:
  1517 ;;		line 5 in file "D:\Mplab X\xc8\pic\sources\c90\common\lwmod.c"
  1518 ;; Parameters:    Size  Location     Type
  1519 ;;  divisor         2    2[COMMON] unsigned int 
  1520 ;;  dividend        2    4[COMMON] unsigned int 
  1521 ;; Auto vars:     Size  Location     Type
  1522 ;;  counter         1    7[COMMON] unsigned char 
  1523 ;; Return value:  Size  Location     Type
  1524 ;;                  2    2[COMMON] unsigned int 
  1525 ;; Registers used:
  1526 ;;		wreg, status,2, status,0
  1527 ;; Tracked objects:
  1528 ;;		On entry : 0/0
  1529 ;;		On exit  : 0/0
  1530 ;;		Unchanged: 0/0
  1531 ;; Data sizes:     COMMON   BANK0   BANK1   BANK3   BANK2
  1532 ;;      Params:         4       0       0       0       0
  1533 ;;      Locals:         1       0       0       0       0
  1534 ;;      Temps:          1       0       0       0       0
  1535 ;;      Totals:         6       0       0       0       0
  1536 ;;Total ram usage:        6 bytes
  1537 ;; Hardware stack levels used:    1
  1538 ;; Hardware stack levels required when called:    1
  1539 ;; This function calls:
  1540 ;;		Nothing
  1541 ;; This function is called by:
  1542 ;;		_main
  1543 ;; This function uses a non-reentrant model
  1544 ;;
  1545                           
  1546                           
  1547                           ;psect for function ___lwmod
  1548  165D                     ___lwmod:	
  1549                           
  1550                           ;incstack = 0
  1551                           ; Regs used in ___lwmod: [wreg+status,2+status,0]
  1552  165D  0872               	movf	___lwmod@divisor,w
  1553  165E  0473               	iorwf	___lwmod@divisor+1,w
  1554  165F  1903               	btfsc	3,2
  1555  1660  2E8A               	goto	l2502
  1556  1661  01F7               	clrf	___lwmod@counter
  1557  1662  0AF7               	incf	___lwmod@counter,f
  1558  1663                     l2492:	
  1559  1663  1BF3               	btfsc	___lwmod@divisor+1,7
  1560  1664  2E71               	goto	l2494
  1561  1665  3001               	movlw	1
  1562  1666                     u3405:	
  1563  1666  1003               	clrc
  1564  1667  0DF2               	rlf	___lwmod@divisor,f
  1565  1668  0DF3               	rlf	___lwmod@divisor+1,f
  1566  1669  3EFF               	addlw	-1
  1567  166A  1D03               	skipz
  1568  166B  2E66               	goto	u3405
  1569  166C  3001               	movlw	1
  1570  166D  00F6               	movwf	??___lwmod
  1571  166E  0876               	movf	??___lwmod,w
  1572  166F  07F7               	addwf	___lwmod@counter,f
  1573  1670  2E63               	goto	l2492
  1574  1671                     l2494:	
  1575  1671  0873               	movf	___lwmod@divisor+1,w
  1576  1672  0275               	subwf	___lwmod@dividend+1,w
  1577  1673  1D03               	skipz
  1578  1674  2E77               	goto	u3425
  1579  1675  0872               	movf	___lwmod@divisor,w
  1580  1676  0274               	subwf	___lwmod@dividend,w
  1581  1677                     u3425:	
  1582  1677  1C03               	skipc
  1583  1678  2E7F               	goto	l2498
  1584  1679  0872               	movf	___lwmod@divisor,w
  1585  167A  02F4               	subwf	___lwmod@dividend,f
  1586  167B  0873               	movf	___lwmod@divisor+1,w
  1587  167C  1C03               	skipc
  1588  167D  03F5               	decf	___lwmod@dividend+1,f
  1589  167E  02F5               	subwf	___lwmod@dividend+1,f
  1590  167F                     l2498:	
  1591  167F  3001               	movlw	1
  1592  1680                     u3435:	
  1593  1680  1003               	clrc
  1594  1681  0CF3               	rrf	___lwmod@divisor+1,f
  1595  1682  0CF2               	rrf	___lwmod@divisor,f
  1596  1683  3EFF               	addlw	-1
  1597  1684  1D03               	skipz
  1598  1685  2E80               	goto	u3435
  1599  1686  3001               	movlw	1
  1600  1687  02F7               	subwf	___lwmod@counter,f
  1601  1688  1D03               	btfss	3,2
  1602  1689  2E71               	goto	l2494
  1603  168A                     l2502:	
  1604  168A  0875               	movf	___lwmod@dividend+1,w
  1605  168B  00F3               	movwf	?___lwmod+1
  1606  168C  0874               	movf	___lwmod@dividend,w
  1607  168D  00F2               	movwf	?___lwmod
  1608  168E  0008               	return
  1609  168F                     __end_of___lwmod:	
  1610                           
  1611                           	psect	text2
  1612  16C8                     __ptext2:	
  1613 ;; *************** function ___lwdiv *****************
  1614 ;; Defined at:
  1615 ;;		line 5 in file "D:\Mplab X\xc8\pic\sources\c90\common\lwdiv.c"
  1616 ;; Parameters:    Size  Location     Type
  1617 ;;  divisor         2    8[COMMON] unsigned int 
  1618 ;;  dividend        2   10[COMMON] unsigned int 
  1619 ;; Auto vars:     Size  Location     Type
  1620 ;;  quotient        2    1[BANK0 ] unsigned int 
  1621 ;;  counter         1    3[BANK0 ] unsigned char 
  1622 ;; Return value:  Size  Location     Type
  1623 ;;                  2    8[COMMON] unsigned int 
  1624 ;; Registers used:
  1625 ;;		wreg, status,2, status,0
  1626 ;; Tracked objects:
  1627 ;;		On entry : 0/0
  1628 ;;		On exit  : 0/0
  1629 ;;		Unchanged: 0/0
  1630 ;; Data sizes:     COMMON   BANK0   BANK1   BANK3   BANK2
  1631 ;;      Params:         4       0       0       0       0
  1632 ;;      Locals:         0       3       0       0       0
  1633 ;;      Temps:          0       1       0       0       0
  1634 ;;      Totals:         4       4       0       0       0
  1635 ;;Total ram usage:        8 bytes
  1636 ;; Hardware stack levels used:    1
  1637 ;; Hardware stack levels required when called:    1
  1638 ;; This function calls:
  1639 ;;		Nothing
  1640 ;; This function is called by:
  1641 ;;		_main
  1642 ;; This function uses a non-reentrant model
  1643 ;;
  1644                           
  1645                           
  1646                           ;psect for function ___lwdiv
  1647  16C8                     ___lwdiv:	
  1648                           
  1649                           ;incstack = 0
  1650                           ; Regs used in ___lwdiv: [wreg+status,2+status,0]
  1651  16C8  1283               	bcf	3,5	;RP0=0, select bank0
  1652  16C9  1303               	bcf	3,6	;RP1=0, select bank0
  1653  16CA  01A1               	clrf	___lwdiv@quotient
  1654  16CB  01A2               	clrf	___lwdiv@quotient+1
  1655  16CC  0878               	movf	___lwdiv@divisor,w
  1656  16CD  0479               	iorwf	___lwdiv@divisor+1,w
  1657  16CE  1903               	btfsc	3,2
  1658  16CF  2F01               	goto	l2480
  1659  16D0  01A3               	clrf	___lwdiv@counter
  1660  16D1  0AA3               	incf	___lwdiv@counter,f
  1661  16D2                     l2468:	
  1662  16D2  1BF9               	btfsc	___lwdiv@divisor+1,7
  1663  16D3  2EE0               	goto	l2470
  1664  16D4  3001               	movlw	1
  1665  16D5                     u3335:	
  1666  16D5  1003               	clrc
  1667  16D6  0DF8               	rlf	___lwdiv@divisor,f
  1668  16D7  0DF9               	rlf	___lwdiv@divisor+1,f
  1669  16D8  3EFF               	addlw	-1
  1670  16D9  1D03               	skipz
  1671  16DA  2ED5               	goto	u3335
  1672  16DB  3001               	movlw	1
  1673  16DC  00A0               	movwf	??___lwdiv
  1674  16DD  0820               	movf	??___lwdiv,w
  1675  16DE  07A3               	addwf	___lwdiv@counter,f
  1676  16DF  2ED2               	goto	l2468
  1677  16E0                     l2470:	
  1678  16E0  3001               	movlw	1
  1679  16E1                     u3355:	
  1680  16E1  1003               	clrc
  1681  16E2  0DA1               	rlf	___lwdiv@quotient,f
  1682  16E3  0DA2               	rlf	___lwdiv@quotient+1,f
  1683  16E4  3EFF               	addlw	-1
  1684  16E5  1D03               	skipz
  1685  16E6  2EE1               	goto	u3355
  1686  16E7  0879               	movf	___lwdiv@divisor+1,w
  1687  16E8  027B               	subwf	___lwdiv@dividend+1,w
  1688  16E9  1D03               	skipz
  1689  16EA  2EED               	goto	u3365
  1690  16EB  0878               	movf	___lwdiv@divisor,w
  1691  16EC  027A               	subwf	___lwdiv@dividend,w
  1692  16ED                     u3365:	
  1693  16ED  1C03               	skipc
  1694  16EE  2EF6               	goto	l2476
  1695  16EF  0878               	movf	___lwdiv@divisor,w
  1696  16F0  02FA               	subwf	___lwdiv@dividend,f
  1697  16F1  0879               	movf	___lwdiv@divisor+1,w
  1698  16F2  1C03               	skipc
  1699  16F3  03FB               	decf	___lwdiv@dividend+1,f
  1700  16F4  02FB               	subwf	___lwdiv@dividend+1,f
  1701  16F5  1421               	bsf	___lwdiv@quotient,0
  1702  16F6                     l2476:	
  1703  16F6  3001               	movlw	1
  1704  16F7                     u3375:	
  1705  16F7  1003               	clrc
  1706  16F8  0CF9               	rrf	___lwdiv@divisor+1,f
  1707  16F9  0CF8               	rrf	___lwdiv@divisor,f
  1708  16FA  3EFF               	addlw	-1
  1709  16FB  1D03               	skipz
  1710  16FC  2EF7               	goto	u3375
  1711  16FD  3001               	movlw	1
  1712  16FE  02A3               	subwf	___lwdiv@counter,f
  1713  16FF  1D03               	btfss	3,2
  1714  1700  2EE0               	goto	l2470
  1715  1701                     l2480:	
  1716  1701  0822               	movf	___lwdiv@quotient+1,w
  1717  1702  00F9               	movwf	?___lwdiv+1
  1718  1703  0821               	movf	___lwdiv@quotient,w
  1719  1704  00F8               	movwf	?___lwdiv
  1720  1705  0008               	return
  1721  1706                     __end_of___lwdiv:	
  1722                           
  1723                           	psect	text3
  1724  159C                     __ptext3:	
  1725 ;; *************** function _Timer1_Init *****************
  1726 ;; Defined at:
  1727 ;;		line 104 in file "PWM.c"
  1728 ;; Parameters:    Size  Location     Type
  1729 ;;		None
  1730 ;; Auto vars:     Size  Location     Type
  1731 ;;		None
  1732 ;; Return value:  Size  Location     Type
  1733 ;;                  1    wreg      void 
  1734 ;; Registers used:
  1735 ;;		status,2
  1736 ;; Tracked objects:
  1737 ;;		On entry : 0/0
  1738 ;;		On exit  : 0/0
  1739 ;;		Unchanged: 0/0
  1740 ;; Data sizes:     COMMON   BANK0   BANK1   BANK3   BANK2
  1741 ;;      Params:         0       0       0       0       0
  1742 ;;      Locals:         0       0       0       0       0
  1743 ;;      Temps:          0       0       0       0       0
  1744 ;;      Totals:         0       0       0       0       0
  1745 ;;Total ram usage:        0 bytes
  1746 ;; Hardware stack levels used:    1
  1747 ;; Hardware stack levels required when called:    1
  1748 ;; This function calls:
  1749 ;;		Nothing
  1750 ;; This function is called by:
  1751 ;;		_main
  1752 ;; This function uses a non-reentrant model
  1753 ;;
  1754                           
  1755                           
  1756                           ;psect for function _Timer1_Init
  1757  159C                     _Timer1_Init:	
  1758                           
  1759                           ;PWM.c: 106:     TMR1 = 0;
  1760                           
  1761                           ;incstack = 0
  1762                           ; Regs used in _Timer1_Init: [status,2]
  1763  159C  1283               	bcf	3,5	;RP0=0, select bank0
  1764  159D  1303               	bcf	3,6	;RP1=0, select bank0
  1765  159E  018E               	clrf	14	;volatile
  1766  159F  018F               	clrf	15	;volatile
  1767                           
  1768                           ;PWM.c: 108:     T1CKPS1 = 1;
  1769  15A0  1690               	bsf	16,5	;volatile
  1770                           
  1771                           ;PWM.c: 109:     T1CKPS0 = 1;
  1772  15A1  1610               	bsf	16,4	;volatile
  1773                           
  1774                           ;PWM.c: 111:     GIE = 1;
  1775  15A2  178B               	bsf	11,7	;volatile
  1776                           
  1777                           ;PWM.c: 112:     PEIE = 1;
  1778  15A3  170B               	bsf	11,6	;volatile
  1779                           
  1780                           ;PWM.c: 113:     TMR1IE = 0;
  1781  15A4  1683               	bsf	3,5	;RP0=1, select bank1
  1782  15A5  1303               	bcf	3,6	;RP1=0, select bank1
  1783  15A6  100C               	bcf	12,0	;volatile
  1784                           
  1785                           ;PWM.c: 115:     TMR1ON = 1;
  1786  15A7  1283               	bcf	3,5	;RP0=0, select bank0
  1787  15A8  1303               	bcf	3,6	;RP1=0, select bank0
  1788  15A9  1410               	bsf	16,0	;volatile
  1789  15AA  0008               	return
  1790  15AB                     __end_of_Timer1_Init:	
  1791                           
  1792                           	psect	text4
  1793  15CE                     __ptext4:	
  1794 ;; *************** function _PWM_Init *****************
  1795 ;; Defined at:
  1796 ;;		line 75 in file "PWM.c"
  1797 ;; Parameters:    Size  Location     Type
  1798 ;;  period          2    2[COMMON] unsigned int 
  1799 ;; Auto vars:     Size  Location     Type
  1800 ;;		None
  1801 ;; Return value:  Size  Location     Type
  1802 ;;                  1    wreg      void 
  1803 ;; Registers used:
  1804 ;;		wreg, status,2
  1805 ;; Tracked objects:
  1806 ;;		On entry : 0/0
  1807 ;;		On exit  : 0/0
  1808 ;;		Unchanged: 0/0
  1809 ;; Data sizes:     COMMON   BANK0   BANK1   BANK3   BANK2
  1810 ;;      Params:         2       0       0       0       0
  1811 ;;      Locals:         0       0       0       0       0
  1812 ;;      Temps:          0       0       0       0       0
  1813 ;;      Totals:         2       0       0       0       0
  1814 ;;Total ram usage:        2 bytes
  1815 ;; Hardware stack levels used:    1
  1816 ;; Hardware stack levels required when called:    1
  1817 ;; This function calls:
  1818 ;;		Nothing
  1819 ;; This function is called by:
  1820 ;;		_main
  1821 ;; This function uses a non-reentrant model
  1822 ;;
  1823                           
  1824                           
  1825                           ;psect for function _PWM_Init
  1826  15CE                     _PWM_Init:	
  1827                           
  1828                           ;PWM.c: 75: void PWM_Init(unsigned int period);PWM.c: 76: {;PWM.c: 78:     PR2 = period;
  1829                           
  1830                           ;incstack = 0
  1831                           ; Regs used in _PWM_Init: [wreg+status,2]
  1832  15CE  0872               	movf	PWM_Init@period,w
  1833  15CF  1683               	bsf	3,5	;RP0=1, select bank1
  1834  15D0  1303               	bcf	3,6	;RP1=0, select bank1
  1835  15D1  0092               	movwf	18	;volatile
  1836                           
  1837                           ;PWM.c: 80:     CCP1M3 = 1;
  1838  15D2  1283               	bcf	3,5	;RP0=0, select bank0
  1839  15D3  1303               	bcf	3,6	;RP1=0, select bank0
  1840  15D4  1597               	bsf	23,3	;volatile
  1841                           
  1842                           ;PWM.c: 81:     CCP1M2 = 1;
  1843  15D5  1517               	bsf	23,2	;volatile
  1844                           
  1845                           ;PWM.c: 83:     TRISC2 = 0;
  1846  15D6  1683               	bsf	3,5	;RP0=1, select bank1
  1847  15D7  1303               	bcf	3,6	;RP1=0, select bank1
  1848  15D8  1107               	bcf	7,2	;volatile
  1849                           
  1850                           ;PWM.c: 86:     TMR2 = 0;
  1851  15D9  1283               	bcf	3,5	;RP0=0, select bank0
  1852  15DA  1303               	bcf	3,6	;RP1=0, select bank0
  1853  15DB  0191               	clrf	17	;volatile
  1854                           
  1855                           ;PWM.c: 88:     TOUTPS3 = 0;
  1856  15DC  1312               	bcf	18,6	;volatile
  1857                           
  1858                           ;PWM.c: 89:     TOUTPS2 = 0;
  1859  15DD  1292               	bcf	18,5	;volatile
  1860                           
  1861                           ;PWM.c: 90:     TOUTPS1 = 0;
  1862  15DE  1212               	bcf	18,4	;volatile
  1863                           
  1864                           ;PWM.c: 91:     TOUTPS0 = 0;
  1865  15DF  1192               	bcf	18,3	;volatile
  1866                           
  1867                           ;PWM.c: 92:     T2CKPS1 = 1;
  1868  15E0  1492               	bsf	18,1	;volatile
  1869                           
  1870                           ;PWM.c: 93:     T2CKPS0 = 0;
  1871  15E1  1012               	bcf	18,0	;volatile
  1872                           
  1873                           ;PWM.c: 95:     TMR2ON = 1;
  1874  15E2  1512               	bsf	18,2	;volatile
  1875  15E3  0008               	return
  1876  15E4                     __end_of_PWM_Init:	
  1877                           
  1878                           	psect	text5
  1879  0021                     __ptext5:	
  1880 ;; *************** function _PID_Init *****************
  1881 ;; Defined at:
  1882 ;;		line 135 in file "PWM.c"
  1883 ;; Parameters:    Size  Location     Type
  1884 ;;  tocdo           2    8[BANK1 ] unsigned int 
  1885 ;;  tocdodat        2   10[BANK1 ] unsigned int 
  1886 ;; Auto vars:     Size  Location     Type
  1887 ;;		None
  1888 ;; Return value:  Size  Location     Type
  1889 ;;                  1    wreg      void 
  1890 ;; Registers used:
  1891 ;;		wreg, status,2, status,0, btemp+1, pclath, cstack
  1892 ;; Tracked objects:
  1893 ;;		On entry : 0/0
  1894 ;;		On exit  : 0/0
  1895 ;;		Unchanged: 0/0
  1896 ;; Data sizes:     COMMON   BANK0   BANK1   BANK3   BANK2
  1897 ;;      Params:         0       0       4       0       0
  1898 ;;      Locals:         0       0      12       0       0
  1899 ;;      Temps:          0       0       0       0       0
  1900 ;;      Totals:         0       0      16       0       0
  1901 ;;Total ram usage:       16 bytes
  1902 ;; Hardware stack levels used:    1
  1903 ;; Hardware stack levels required when called:    3
  1904 ;; This function calls:
  1905 ;;		_Duty_Init
  1906 ;;		___fladd
  1907 ;;		___fldiv
  1908 ;;		___flge
  1909 ;;		___flmul
  1910 ;;		___flsub
  1911 ;;		___fltol
  1912 ;;		___xxtofl
  1913 ;; This function is called by:
  1914 ;;		_main
  1915 ;; This function uses a non-reentrant model
  1916 ;;
  1917                           
  1918                           
  1919                           ;psect for function _PID_Init
  1920  0021                     _PID_Init:	
  1921                           
  1922                           ;PWM.c: 135: void PID_Init(unsigned int tocdo, unsigned int tocdodat);PWM.c: 136: {;PWM.
      +                          c: 137:     E = tocdodat-tocdo;
  1923                           
  1924                           ;incstack = 0
  1925                           ; Regs used in _PID_Init: [wreg+status,2+status,0+btemp+1+pclath+cstack]
  1926  0021  1683               	bsf	3,5	;RP0=1, select bank1
  1927  0022  1303               	bcf	3,6	;RP1=0, select bank1
  1928  0023  0828               	movf	PID_Init@tocdo^(0+128),w
  1929  0024  022A               	subwf	PID_Init@tocdodat^(0+128),w
  1930  0025  00F2               	movwf	___xxtofl@val
  1931  0026  0829               	movf	(PID_Init@tocdo+1)^(0+128),w
  1932  0027  1C03               	skipc
  1933  0028  0A29               	incf	(PID_Init@tocdo+1)^(0+128),w
  1934  0029  022B               	subwf	(PID_Init@tocdodat+1)^(0+128),w
  1935  002A  00F3               	movwf	___xxtofl@val+1
  1936  002B  01F4               	clrf	___xxtofl@val+2
  1937  002C  01F5               	clrf	___xxtofl@val+3
  1938  002D  3000               	movlw	0
  1939  002E  120A  158A  2095  120A  118A  	fcall	___xxtofl
  1940  0033  0875               	movf	?___xxtofl+3,w
  1941  0034  1683               	bsf	3,5	;RP0=1, select bank1
  1942  0035  1303               	bcf	3,6	;RP1=0, select bank1
  1943  0036  00E1               	movwf	(_E+3)^(0+128)
  1944  0037  0874               	movf	?___xxtofl+2,w
  1945  0038  00E0               	movwf	(_E+2)^(0+128)
  1946  0039  0873               	movf	?___xxtofl+1,w
  1947  003A  00DF               	movwf	(_E+1)^(0+128)
  1948  003B  0872               	movf	?___xxtofl,w
  1949  003C  00DE               	movwf	_E^(0+128)
  1950                           
  1951                           ;PWM.c: 138:     a1 = Kp + (Ki*T)/2 + Kd/2;
  1952  003D  0855               	movf	(_Kp+3)^(0+128),w
  1953  003E  1283               	bcf	3,5	;RP0=0, select bank0
  1954  003F  1303               	bcf	3,6	;RP1=0, select bank0
  1955  0040  00DD               	movwf	___fladd@b+3
  1956  0041  1683               	bsf	3,5	;RP0=1, select bank1
  1957  0042  1303               	bcf	3,6	;RP1=0, select bank1
  1958  0043  0854               	movf	(_Kp+2)^(0+128),w
  1959  0044  1283               	bcf	3,5	;RP0=0, select bank0
  1960  0045  1303               	bcf	3,6	;RP1=0, select bank0
  1961  0046  00DC               	movwf	___fladd@b+2
  1962  0047  1683               	bsf	3,5	;RP0=1, select bank1
  1963  0048  1303               	bcf	3,6	;RP1=0, select bank1
  1964  0049  0853               	movf	(_Kp+1)^(0+128),w
  1965  004A  1283               	bcf	3,5	;RP0=0, select bank0
  1966  004B  1303               	bcf	3,6	;RP1=0, select bank0
  1967  004C  00DB               	movwf	___fladd@b+1
  1968  004D  1683               	bsf	3,5	;RP0=1, select bank1
  1969  004E  1303               	bcf	3,6	;RP1=0, select bank1
  1970  004F  0852               	movf	_Kp^(0+128),w
  1971  0050  1283               	bcf	3,5	;RP0=0, select bank0
  1972  0051  1303               	bcf	3,6	;RP1=0, select bank0
  1973  0052  00DA               	movwf	___fladd@b
  1974  0053  3040               	movlw	64
  1975  0054  00C3               	movwf	___fldiv@a+3
  1976  0055  3000               	movlw	0
  1977  0056  00C2               	movwf	___fldiv@a+2
  1978  0057  3000               	movlw	0
  1979  0058  00C1               	movwf	___fldiv@a+1
  1980  0059  3000               	movlw	0
  1981  005A  00C0               	movwf	___fldiv@a
  1982  005B  1683               	bsf	3,5	;RP0=1, select bank1
  1983  005C  1303               	bcf	3,6	;RP1=0, select bank1
  1984  005D  0859               	movf	(_T+3)^(0+128),w
  1985  005E  1283               	bcf	3,5	;RP0=0, select bank0
  1986  005F  1303               	bcf	3,6	;RP1=0, select bank0
  1987  0060  00A9               	movwf	___flmul@b+3
  1988  0061  1683               	bsf	3,5	;RP0=1, select bank1
  1989  0062  1303               	bcf	3,6	;RP1=0, select bank1
  1990  0063  0858               	movf	(_T+2)^(0+128),w
  1991  0064  1283               	bcf	3,5	;RP0=0, select bank0
  1992  0065  1303               	bcf	3,6	;RP1=0, select bank0
  1993  0066  00A8               	movwf	___flmul@b+2
  1994  0067  1683               	bsf	3,5	;RP0=1, select bank1
  1995  0068  1303               	bcf	3,6	;RP1=0, select bank1
  1996  0069  0857               	movf	(_T+1)^(0+128),w
  1997  006A  1283               	bcf	3,5	;RP0=0, select bank0
  1998  006B  1303               	bcf	3,6	;RP1=0, select bank0
  1999  006C  00A7               	movwf	___flmul@b+1
  2000  006D  1683               	bsf	3,5	;RP0=1, select bank1
  2001  006E  1303               	bcf	3,6	;RP1=0, select bank1
  2002  006F  0856               	movf	_T^(0+128),w
  2003  0070  1283               	bcf	3,5	;RP0=0, select bank0
  2004  0071  1303               	bcf	3,6	;RP1=0, select bank0
  2005  0072  00A6               	movwf	___flmul@b
  2006  0073  1683               	bsf	3,5	;RP0=1, select bank1
  2007  0074  1303               	bcf	3,6	;RP1=0, select bank1
  2008  0075  0851               	movf	(_Ki+3)^(0+128),w
  2009  0076  1283               	bcf	3,5	;RP0=0, select bank0
  2010  0077  1303               	bcf	3,6	;RP1=0, select bank0
  2011  0078  00AD               	movwf	___flmul@a+3
  2012  0079  1683               	bsf	3,5	;RP0=1, select bank1
  2013  007A  1303               	bcf	3,6	;RP1=0, select bank1
  2014  007B  0850               	movf	(_Ki+2)^(0+128),w
  2015  007C  1283               	bcf	3,5	;RP0=0, select bank0
  2016  007D  1303               	bcf	3,6	;RP1=0, select bank0
  2017  007E  00AC               	movwf	___flmul@a+2
  2018  007F  1683               	bsf	3,5	;RP0=1, select bank1
  2019  0080  1303               	bcf	3,6	;RP1=0, select bank1
  2020  0081  084F               	movf	(_Ki+1)^(0+128),w
  2021  0082  1283               	bcf	3,5	;RP0=0, select bank0
  2022  0083  1303               	bcf	3,6	;RP1=0, select bank0
  2023  0084  00AB               	movwf	___flmul@a+1
  2024  0085  1683               	bsf	3,5	;RP0=1, select bank1
  2025  0086  1303               	bcf	3,6	;RP1=0, select bank1
  2026  0087  084E               	movf	_Ki^(0+128),w
  2027  0088  1283               	bcf	3,5	;RP0=0, select bank0
  2028  0089  1303               	bcf	3,6	;RP1=0, select bank0
  2029  008A  00AA               	movwf	___flmul@a
  2030  008B  120A  118A  247C  120A  118A  	fcall	___flmul
  2031  0090  1283               	bcf	3,5	;RP0=0, select bank0
  2032  0091  1303               	bcf	3,6	;RP1=0, select bank0
  2033  0092  0829               	movf	?___flmul+3,w
  2034  0093  00C7               	movwf	___fldiv@b+3
  2035  0094  0828               	movf	?___flmul+2,w
  2036  0095  00C6               	movwf	___fldiv@b+2
  2037  0096  0827               	movf	?___flmul+1,w
  2038  0097  00C5               	movwf	___fldiv@b+1
  2039  0098  0826               	movf	?___flmul,w
  2040  0099  00C4               	movwf	___fldiv@b
  2041  009A  120A  158A  213A  120A  118A  	fcall	___fldiv
  2042  009F  1283               	bcf	3,5	;RP0=0, select bank0
  2043  00A0  1303               	bcf	3,6	;RP1=0, select bank0
  2044  00A1  0843               	movf	?___fldiv+3,w
  2045  00A2  00E1               	movwf	___fladd@a+3
  2046  00A3  0842               	movf	?___fldiv+2,w
  2047  00A4  00E0               	movwf	___fladd@a+2
  2048  00A5  0841               	movf	?___fldiv+1,w
  2049  00A6  00DF               	movwf	___fladd@a+1
  2050  00A7  0840               	movf	?___fldiv,w
  2051  00A8  00DE               	movwf	___fladd@a
  2052  00A9  120A  158A  22DD  120A  118A  	fcall	___fladd
  2053  00AE  1283               	bcf	3,5	;RP0=0, select bank0
  2054  00AF  1303               	bcf	3,6	;RP1=0, select bank0
  2055  00B0  085D               	movf	?___fladd+3,w
  2056  00B1  1683               	bsf	3,5	;RP0=1, select bank1
  2057  00B2  1303               	bcf	3,6	;RP1=0, select bank1
  2058  00B3  00B7               	movwf	(_PID_Init$792+3)^(0+128)
  2059  00B4  1283               	bcf	3,5	;RP0=0, select bank0
  2060  00B5  1303               	bcf	3,6	;RP1=0, select bank0
  2061  00B6  085C               	movf	?___fladd+2,w
  2062  00B7  1683               	bsf	3,5	;RP0=1, select bank1
  2063  00B8  1303               	bcf	3,6	;RP1=0, select bank1
  2064  00B9  00B6               	movwf	(_PID_Init$792+2)^(0+128)
  2065  00BA  1283               	bcf	3,5	;RP0=0, select bank0
  2066  00BB  1303               	bcf	3,6	;RP1=0, select bank0
  2067  00BC  085B               	movf	?___fladd+1,w
  2068  00BD  1683               	bsf	3,5	;RP0=1, select bank1
  2069  00BE  1303               	bcf	3,6	;RP1=0, select bank1
  2070  00BF  00B5               	movwf	(_PID_Init$792+1)^(0+128)
  2071  00C0  1283               	bcf	3,5	;RP0=0, select bank0
  2072  00C1  1303               	bcf	3,6	;RP1=0, select bank0
  2073  00C2  085A               	movf	?___fladd,w
  2074  00C3  1683               	bsf	3,5	;RP0=1, select bank1
  2075  00C4  1303               	bcf	3,6	;RP1=0, select bank1
  2076  00C5  00B4               	movwf	_PID_Init$792^(0+128)
  2077                           
  2078                           ;PWM.c: 138:     a1 = Kp + (Ki*T)/2 + Kd/2;
  2079  00C6  3040               	movlw	64
  2080  00C7  1283               	bcf	3,5	;RP0=0, select bank0
  2081  00C8  1303               	bcf	3,6	;RP1=0, select bank0
  2082  00C9  00C3               	movwf	___fldiv@a+3
  2083  00CA  3000               	movlw	0
  2084  00CB  00C2               	movwf	___fldiv@a+2
  2085  00CC  3000               	movlw	0
  2086  00CD  00C1               	movwf	___fldiv@a+1
  2087  00CE  3000               	movlw	0
  2088  00CF  00C0               	movwf	___fldiv@a
  2089  00D0  1683               	bsf	3,5	;RP0=1, select bank1
  2090  00D1  1303               	bcf	3,6	;RP1=0, select bank1
  2091  00D2  084D               	movf	(_Kd+3)^(0+128),w
  2092  00D3  1283               	bcf	3,5	;RP0=0, select bank0
  2093  00D4  1303               	bcf	3,6	;RP1=0, select bank0
  2094  00D5  00C7               	movwf	___fldiv@b+3
  2095  00D6  1683               	bsf	3,5	;RP0=1, select bank1
  2096  00D7  1303               	bcf	3,6	;RP1=0, select bank1
  2097  00D8  084C               	movf	(_Kd+2)^(0+128),w
  2098  00D9  1283               	bcf	3,5	;RP0=0, select bank0
  2099  00DA  1303               	bcf	3,6	;RP1=0, select bank0
  2100  00DB  00C6               	movwf	___fldiv@b+2
  2101  00DC  1683               	bsf	3,5	;RP0=1, select bank1
  2102  00DD  1303               	bcf	3,6	;RP1=0, select bank1
  2103  00DE  084B               	movf	(_Kd+1)^(0+128),w
  2104  00DF  1283               	bcf	3,5	;RP0=0, select bank0
  2105  00E0  1303               	bcf	3,6	;RP1=0, select bank0
  2106  00E1  00C5               	movwf	___fldiv@b+1
  2107  00E2  1683               	bsf	3,5	;RP0=1, select bank1
  2108  00E3  1303               	bcf	3,6	;RP1=0, select bank1
  2109  00E4  084A               	movf	_Kd^(0+128),w
  2110  00E5  1283               	bcf	3,5	;RP0=0, select bank0
  2111  00E6  1303               	bcf	3,6	;RP1=0, select bank0
  2112  00E7  00C4               	movwf	___fldiv@b
  2113  00E8  120A  158A  213A  120A  118A  	fcall	___fldiv
  2114  00ED  1283               	bcf	3,5	;RP0=0, select bank0
  2115  00EE  1303               	bcf	3,6	;RP1=0, select bank0
  2116  00EF  0843               	movf	?___fldiv+3,w
  2117  00F0  00DD               	movwf	___fladd@b+3
  2118  00F1  0842               	movf	?___fldiv+2,w
  2119  00F2  00DC               	movwf	___fladd@b+2
  2120  00F3  0841               	movf	?___fldiv+1,w
  2121  00F4  00DB               	movwf	___fladd@b+1
  2122  00F5  0840               	movf	?___fldiv,w
  2123  00F6  00DA               	movwf	___fladd@b
  2124  00F7  1683               	bsf	3,5	;RP0=1, select bank1
  2125  00F8  1303               	bcf	3,6	;RP1=0, select bank1
  2126  00F9  0837               	movf	(_PID_Init$792+3)^(0+128),w
  2127  00FA  1283               	bcf	3,5	;RP0=0, select bank0
  2128  00FB  1303               	bcf	3,6	;RP1=0, select bank0
  2129  00FC  00E1               	movwf	___fladd@a+3
  2130  00FD  1683               	bsf	3,5	;RP0=1, select bank1
  2131  00FE  1303               	bcf	3,6	;RP1=0, select bank1
  2132  00FF  0836               	movf	(_PID_Init$792+2)^(0+128),w
  2133  0100  1283               	bcf	3,5	;RP0=0, select bank0
  2134  0101  1303               	bcf	3,6	;RP1=0, select bank0
  2135  0102  00E0               	movwf	___fladd@a+2
  2136  0103  1683               	bsf	3,5	;RP0=1, select bank1
  2137  0104  1303               	bcf	3,6	;RP1=0, select bank1
  2138  0105  0835               	movf	(_PID_Init$792+1)^(0+128),w
  2139  0106  1283               	bcf	3,5	;RP0=0, select bank0
  2140  0107  1303               	bcf	3,6	;RP1=0, select bank0
  2141  0108  00DF               	movwf	___fladd@a+1
  2142  0109  1683               	bsf	3,5	;RP0=1, select bank1
  2143  010A  1303               	bcf	3,6	;RP1=0, select bank1
  2144  010B  0834               	movf	_PID_Init$792^(0+128),w
  2145  010C  1283               	bcf	3,5	;RP0=0, select bank0
  2146  010D  1303               	bcf	3,6	;RP1=0, select bank0
  2147  010E  00DE               	movwf	___fladd@a
  2148  010F  120A  158A  22DD  120A  118A  	fcall	___fladd
  2149  0114  1283               	bcf	3,5	;RP0=0, select bank0
  2150  0115  1303               	bcf	3,6	;RP1=0, select bank0
  2151  0116  085D               	movf	?___fladd+3,w
  2152  0117  1683               	bsf	3,5	;RP0=1, select bank3
  2153  0118  1703               	bsf	3,6	;RP1=1, select bank3
  2154  0119  009F               	movwf	(_a1+3)^(0+384)
  2155  011A  1283               	bcf	3,5	;RP0=0, select bank0
  2156  011B  1303               	bcf	3,6	;RP1=0, select bank0
  2157  011C  085C               	movf	?___fladd+2,w
  2158  011D  1683               	bsf	3,5	;RP0=1, select bank3
  2159  011E  1703               	bsf	3,6	;RP1=1, select bank3
  2160  011F  009E               	movwf	(_a1+2)^(0+384)
  2161  0120  1283               	bcf	3,5	;RP0=0, select bank0
  2162  0121  1303               	bcf	3,6	;RP1=0, select bank0
  2163  0122  085B               	movf	?___fladd+1,w
  2164  0123  1683               	bsf	3,5	;RP0=1, select bank3
  2165  0124  1703               	bsf	3,6	;RP1=1, select bank3
  2166  0125  009D               	movwf	(_a1+1)^(0+384)
  2167  0126  1283               	bcf	3,5	;RP0=0, select bank0
  2168  0127  1303               	bcf	3,6	;RP1=0, select bank0
  2169  0128  085A               	movf	?___fladd,w
  2170  0129  1683               	bsf	3,5	;RP0=1, select bank3
  2171  012A  1703               	bsf	3,6	;RP1=1, select bank3
  2172  012B  009C               	movwf	_a1^(0+384)
  2173                           
  2174                           ;PWM.c: 139:     a2 = -Kp + (Ki*T)/2 - 2*Kd/T;
  2175  012C  1683               	bsf	3,5	;RP0=1, select bank1
  2176  012D  1303               	bcf	3,6	;RP1=0, select bank1
  2177  012E  0855               	movf	(_Kp+3)^(0+128),w
  2178  012F  00A3               	movwf	(___flsub@a+3)^(0+128)
  2179  0130  0854               	movf	(_Kp+2)^(0+128),w
  2180  0131  00A2               	movwf	(___flsub@a+2)^(0+128)
  2181  0132  0853               	movf	(_Kp+1)^(0+128),w
  2182  0133  00A1               	movwf	(___flsub@a+1)^(0+128)
  2183  0134  0852               	movf	_Kp^(0+128),w
  2184  0135  00A0               	movwf	___flsub@a^(0+128)
  2185  0136  3040               	movlw	64
  2186  0137  1283               	bcf	3,5	;RP0=0, select bank0
  2187  0138  1303               	bcf	3,6	;RP1=0, select bank0
  2188  0139  00C3               	movwf	___fldiv@a+3
  2189  013A  3000               	movlw	0
  2190  013B  00C2               	movwf	___fldiv@a+2
  2191  013C  3000               	movlw	0
  2192  013D  00C1               	movwf	___fldiv@a+1
  2193  013E  3000               	movlw	0
  2194  013F  00C0               	movwf	___fldiv@a
  2195  0140  1683               	bsf	3,5	;RP0=1, select bank1
  2196  0141  1303               	bcf	3,6	;RP1=0, select bank1
  2197  0142  0859               	movf	(_T+3)^(0+128),w
  2198  0143  1283               	bcf	3,5	;RP0=0, select bank0
  2199  0144  1303               	bcf	3,6	;RP1=0, select bank0
  2200  0145  00A9               	movwf	___flmul@b+3
  2201  0146  1683               	bsf	3,5	;RP0=1, select bank1
  2202  0147  1303               	bcf	3,6	;RP1=0, select bank1
  2203  0148  0858               	movf	(_T+2)^(0+128),w
  2204  0149  1283               	bcf	3,5	;RP0=0, select bank0
  2205  014A  1303               	bcf	3,6	;RP1=0, select bank0
  2206  014B  00A8               	movwf	___flmul@b+2
  2207  014C  1683               	bsf	3,5	;RP0=1, select bank1
  2208  014D  1303               	bcf	3,6	;RP1=0, select bank1
  2209  014E  0857               	movf	(_T+1)^(0+128),w
  2210  014F  1283               	bcf	3,5	;RP0=0, select bank0
  2211  0150  1303               	bcf	3,6	;RP1=0, select bank0
  2212  0151  00A7               	movwf	___flmul@b+1
  2213  0152  1683               	bsf	3,5	;RP0=1, select bank1
  2214  0153  1303               	bcf	3,6	;RP1=0, select bank1
  2215  0154  0856               	movf	_T^(0+128),w
  2216  0155  1283               	bcf	3,5	;RP0=0, select bank0
  2217  0156  1303               	bcf	3,6	;RP1=0, select bank0
  2218  0157  00A6               	movwf	___flmul@b
  2219  0158  1683               	bsf	3,5	;RP0=1, select bank1
  2220  0159  1303               	bcf	3,6	;RP1=0, select bank1
  2221  015A  0851               	movf	(_Ki+3)^(0+128),w
  2222  015B  1283               	bcf	3,5	;RP0=0, select bank0
  2223  015C  1303               	bcf	3,6	;RP1=0, select bank0
  2224  015D  00AD               	movwf	___flmul@a+3
  2225  015E  1683               	bsf	3,5	;RP0=1, select bank1
  2226  015F  1303               	bcf	3,6	;RP1=0, select bank1
  2227  0160  0850               	movf	(_Ki+2)^(0+128),w
  2228  0161  1283               	bcf	3,5	;RP0=0, select bank0
  2229  0162  1303               	bcf	3,6	;RP1=0, select bank0
  2230  0163  00AC               	movwf	___flmul@a+2
  2231  0164  1683               	bsf	3,5	;RP0=1, select bank1
  2232  0165  1303               	bcf	3,6	;RP1=0, select bank1
  2233  0166  084F               	movf	(_Ki+1)^(0+128),w
  2234  0167  1283               	bcf	3,5	;RP0=0, select bank0
  2235  0168  1303               	bcf	3,6	;RP1=0, select bank0
  2236  0169  00AB               	movwf	___flmul@a+1
  2237  016A  1683               	bsf	3,5	;RP0=1, select bank1
  2238  016B  1303               	bcf	3,6	;RP1=0, select bank1
  2239  016C  084E               	movf	_Ki^(0+128),w
  2240  016D  1283               	bcf	3,5	;RP0=0, select bank0
  2241  016E  1303               	bcf	3,6	;RP1=0, select bank0
  2242  016F  00AA               	movwf	___flmul@a
  2243  0170  120A  118A  247C  120A  118A  	fcall	___flmul
  2244  0175  1283               	bcf	3,5	;RP0=0, select bank0
  2245  0176  1303               	bcf	3,6	;RP1=0, select bank0
  2246  0177  0829               	movf	?___flmul+3,w
  2247  0178  00C7               	movwf	___fldiv@b+3
  2248  0179  0828               	movf	?___flmul+2,w
  2249  017A  00C6               	movwf	___fldiv@b+2
  2250  017B  0827               	movf	?___flmul+1,w
  2251  017C  00C5               	movwf	___fldiv@b+1
  2252  017D  0826               	movf	?___flmul,w
  2253  017E  00C4               	movwf	___fldiv@b
  2254  017F  120A  158A  213A  120A  118A  	fcall	___fldiv
  2255  0184  1283               	bcf	3,5	;RP0=0, select bank0
  2256  0185  1303               	bcf	3,6	;RP1=0, select bank0
  2257  0186  0843               	movf	?___fldiv+3,w
  2258  0187  1683               	bsf	3,5	;RP0=1, select bank1
  2259  0188  1303               	bcf	3,6	;RP1=0, select bank1
  2260  0189  00A7               	movwf	(___flsub@b+3)^(0+128)
  2261  018A  1283               	bcf	3,5	;RP0=0, select bank0
  2262  018B  1303               	bcf	3,6	;RP1=0, select bank0
  2263  018C  0842               	movf	?___fldiv+2,w
  2264  018D  1683               	bsf	3,5	;RP0=1, select bank1
  2265  018E  1303               	bcf	3,6	;RP1=0, select bank1
  2266  018F  00A6               	movwf	(___flsub@b+2)^(0+128)
  2267  0190  1283               	bcf	3,5	;RP0=0, select bank0
  2268  0191  1303               	bcf	3,6	;RP1=0, select bank0
  2269  0192  0841               	movf	?___fldiv+1,w
  2270  0193  1683               	bsf	3,5	;RP0=1, select bank1
  2271  0194  1303               	bcf	3,6	;RP1=0, select bank1
  2272  0195  00A5               	movwf	(___flsub@b+1)^(0+128)
  2273  0196  1283               	bcf	3,5	;RP0=0, select bank0
  2274  0197  1303               	bcf	3,6	;RP1=0, select bank0
  2275  0198  0840               	movf	?___fldiv,w
  2276  0199  1683               	bsf	3,5	;RP0=1, select bank1
  2277  019A  1303               	bcf	3,6	;RP1=0, select bank1
  2278  019B  00A4               	movwf	___flsub@b^(0+128)
  2279  019C  160A  118A  2706  120A  118A  	fcall	___flsub
  2280  01A1  1683               	bsf	3,5	;RP0=1, select bank1
  2281  01A2  1303               	bcf	3,6	;RP1=0, select bank1
  2282  01A3  0823               	movf	(?___flsub+3)^(0+128),w
  2283  01A4  00AF               	movwf	(_PID_Init$793+3)^(0+128)
  2284  01A5  0822               	movf	(?___flsub+2)^(0+128),w
  2285  01A6  00AE               	movwf	(_PID_Init$793+2)^(0+128)
  2286  01A7  0821               	movf	(?___flsub+1)^(0+128),w
  2287  01A8  00AD               	movwf	(_PID_Init$793+1)^(0+128)
  2288  01A9  0820               	movf	?___flsub^(0+128),w
  2289  01AA  00AC               	movwf	_PID_Init$793^(0+128)
  2290                           
  2291                           ;PWM.c: 139:     a2 = -Kp + (Ki*T)/2 - 2*Kd/T;
  2292  01AB  0859               	movf	(_T+3)^(0+128),w
  2293  01AC  1283               	bcf	3,5	;RP0=0, select bank0
  2294  01AD  1303               	bcf	3,6	;RP1=0, select bank0
  2295  01AE  00C3               	movwf	___fldiv@a+3
  2296  01AF  1683               	bsf	3,5	;RP0=1, select bank1
  2297  01B0  1303               	bcf	3,6	;RP1=0, select bank1
  2298  01B1  0858               	movf	(_T+2)^(0+128),w
  2299  01B2  1283               	bcf	3,5	;RP0=0, select bank0
  2300  01B3  1303               	bcf	3,6	;RP1=0, select bank0
  2301  01B4  00C2               	movwf	___fldiv@a+2
  2302  01B5  1683               	bsf	3,5	;RP0=1, select bank1
  2303  01B6  1303               	bcf	3,6	;RP1=0, select bank1
  2304  01B7  0857               	movf	(_T+1)^(0+128),w
  2305  01B8  1283               	bcf	3,5	;RP0=0, select bank0
  2306  01B9  1303               	bcf	3,6	;RP1=0, select bank0
  2307  01BA  00C1               	movwf	___fldiv@a+1
  2308  01BB  1683               	bsf	3,5	;RP0=1, select bank1
  2309  01BC  1303               	bcf	3,6	;RP1=0, select bank1
  2310  01BD  0856               	movf	_T^(0+128),w
  2311  01BE  1283               	bcf	3,5	;RP0=0, select bank0
  2312  01BF  1303               	bcf	3,6	;RP1=0, select bank0
  2313  01C0  00C0               	movwf	___fldiv@a
  2314  01C1  3040               	movlw	64
  2315  01C2  00A9               	movwf	___flmul@b+3
  2316  01C3  3000               	movlw	0
  2317  01C4  00A8               	movwf	___flmul@b+2
  2318  01C5  3000               	movlw	0
  2319  01C6  00A7               	movwf	___flmul@b+1
  2320  01C7  3000               	movlw	0
  2321  01C8  00A6               	movwf	___flmul@b
  2322  01C9  1683               	bsf	3,5	;RP0=1, select bank1
  2323  01CA  1303               	bcf	3,6	;RP1=0, select bank1
  2324  01CB  084D               	movf	(_Kd+3)^(0+128),w
  2325  01CC  1283               	bcf	3,5	;RP0=0, select bank0
  2326  01CD  1303               	bcf	3,6	;RP1=0, select bank0
  2327  01CE  00AD               	movwf	___flmul@a+3
  2328  01CF  1683               	bsf	3,5	;RP0=1, select bank1
  2329  01D0  1303               	bcf	3,6	;RP1=0, select bank1
  2330  01D1  084C               	movf	(_Kd+2)^(0+128),w
  2331  01D2  1283               	bcf	3,5	;RP0=0, select bank0
  2332  01D3  1303               	bcf	3,6	;RP1=0, select bank0
  2333  01D4  00AC               	movwf	___flmul@a+2
  2334  01D5  1683               	bsf	3,5	;RP0=1, select bank1
  2335  01D6  1303               	bcf	3,6	;RP1=0, select bank1
  2336  01D7  084B               	movf	(_Kd+1)^(0+128),w
  2337  01D8  1283               	bcf	3,5	;RP0=0, select bank0
  2338  01D9  1303               	bcf	3,6	;RP1=0, select bank0
  2339  01DA  00AB               	movwf	___flmul@a+1
  2340  01DB  1683               	bsf	3,5	;RP0=1, select bank1
  2341  01DC  1303               	bcf	3,6	;RP1=0, select bank1
  2342  01DD  084A               	movf	_Kd^(0+128),w
  2343  01DE  1283               	bcf	3,5	;RP0=0, select bank0
  2344  01DF  1303               	bcf	3,6	;RP1=0, select bank0
  2345  01E0  00AA               	movwf	___flmul@a
  2346  01E1  120A  118A  247C  120A  118A  	fcall	___flmul
  2347  01E6  1283               	bcf	3,5	;RP0=0, select bank0
  2348  01E7  1303               	bcf	3,6	;RP1=0, select bank0
  2349  01E8  0829               	movf	?___flmul+3,w
  2350  01E9  00C7               	movwf	___fldiv@b+3
  2351  01EA  0828               	movf	?___flmul+2,w
  2352  01EB  00C6               	movwf	___fldiv@b+2
  2353  01EC  0827               	movf	?___flmul+1,w
  2354  01ED  00C5               	movwf	___fldiv@b+1
  2355  01EE  0826               	movf	?___flmul,w
  2356  01EF  00C4               	movwf	___fldiv@b
  2357  01F0  120A  158A  213A  120A  118A  	fcall	___fldiv
  2358  01F5  1283               	bcf	3,5	;RP0=0, select bank0
  2359  01F6  1303               	bcf	3,6	;RP1=0, select bank0
  2360  01F7  0843               	movf	?___fldiv+3,w
  2361  01F8  1683               	bsf	3,5	;RP0=1, select bank1
  2362  01F9  1303               	bcf	3,6	;RP1=0, select bank1
  2363  01FA  00A3               	movwf	(___flsub@a+3)^(0+128)
  2364  01FB  1283               	bcf	3,5	;RP0=0, select bank0
  2365  01FC  1303               	bcf	3,6	;RP1=0, select bank0
  2366  01FD  0842               	movf	?___fldiv+2,w
  2367  01FE  1683               	bsf	3,5	;RP0=1, select bank1
  2368  01FF  1303               	bcf	3,6	;RP1=0, select bank1
  2369  0200  00A2               	movwf	(___flsub@a+2)^(0+128)
  2370  0201  1283               	bcf	3,5	;RP0=0, select bank0
  2371  0202  1303               	bcf	3,6	;RP1=0, select bank0
  2372  0203  0841               	movf	?___fldiv+1,w
  2373  0204  1683               	bsf	3,5	;RP0=1, select bank1
  2374  0205  1303               	bcf	3,6	;RP1=0, select bank1
  2375  0206  00A1               	movwf	(___flsub@a+1)^(0+128)
  2376  0207  1283               	bcf	3,5	;RP0=0, select bank0
  2377  0208  1303               	bcf	3,6	;RP1=0, select bank0
  2378  0209  0840               	movf	?___fldiv,w
  2379  020A  1683               	bsf	3,5	;RP0=1, select bank1
  2380  020B  1303               	bcf	3,6	;RP1=0, select bank1
  2381  020C  00A0               	movwf	___flsub@a^(0+128)
  2382  020D  082F               	movf	(_PID_Init$793+3)^(0+128),w
  2383  020E  00A7               	movwf	(___flsub@b+3)^(0+128)
  2384  020F  082E               	movf	(_PID_Init$793+2)^(0+128),w
  2385  0210  00A6               	movwf	(___flsub@b+2)^(0+128)
  2386  0211  082D               	movf	(_PID_Init$793+1)^(0+128),w
  2387  0212  00A5               	movwf	(___flsub@b+1)^(0+128)
  2388  0213  082C               	movf	_PID_Init$793^(0+128),w
  2389  0214  00A4               	movwf	___flsub@b^(0+128)
  2390  0215  160A  118A  2706  120A  118A  	fcall	___flsub
  2391  021A  1683               	bsf	3,5	;RP0=1, select bank1
  2392  021B  1303               	bcf	3,6	;RP1=0, select bank1
  2393  021C  0823               	movf	(?___flsub+3)^(0+128),w
  2394  021D  1683               	bsf	3,5	;RP0=1, select bank3
  2395  021E  1703               	bsf	3,6	;RP1=1, select bank3
  2396  021F  009B               	movwf	(_a2+3)^(0+384)
  2397  0220  1683               	bsf	3,5	;RP0=1, select bank1
  2398  0221  1303               	bcf	3,6	;RP1=0, select bank1
  2399  0222  0822               	movf	(?___flsub+2)^(0+128),w
  2400  0223  1683               	bsf	3,5	;RP0=1, select bank3
  2401  0224  1703               	bsf	3,6	;RP1=1, select bank3
  2402  0225  009A               	movwf	(_a2+2)^(0+384)
  2403  0226  1683               	bsf	3,5	;RP0=1, select bank1
  2404  0227  1303               	bcf	3,6	;RP1=0, select bank1
  2405  0228  0821               	movf	(?___flsub+1)^(0+128),w
  2406  0229  1683               	bsf	3,5	;RP0=1, select bank3
  2407  022A  1703               	bsf	3,6	;RP1=1, select bank3
  2408  022B  0099               	movwf	(_a2+1)^(0+384)
  2409  022C  1683               	bsf	3,5	;RP0=1, select bank1
  2410  022D  1303               	bcf	3,6	;RP1=0, select bank1
  2411  022E  0820               	movf	?___flsub^(0+128),w
  2412  022F  1683               	bsf	3,5	;RP0=1, select bank3
  2413  0230  1703               	bsf	3,6	;RP1=1, select bank3
  2414  0231  0098               	movwf	_a2^(0+384)
  2415                           
  2416                           ;PWM.c: 140:     a3 = Kd/T;
  2417  0232  1683               	bsf	3,5	;RP0=1, select bank1
  2418  0233  1303               	bcf	3,6	;RP1=0, select bank1
  2419  0234  0859               	movf	(_T+3)^(0+128),w
  2420  0235  1283               	bcf	3,5	;RP0=0, select bank0
  2421  0236  1303               	bcf	3,6	;RP1=0, select bank0
  2422  0237  00C3               	movwf	___fldiv@a+3
  2423  0238  1683               	bsf	3,5	;RP0=1, select bank1
  2424  0239  1303               	bcf	3,6	;RP1=0, select bank1
  2425  023A  0858               	movf	(_T+2)^(0+128),w
  2426  023B  1283               	bcf	3,5	;RP0=0, select bank0
  2427  023C  1303               	bcf	3,6	;RP1=0, select bank0
  2428  023D  00C2               	movwf	___fldiv@a+2
  2429  023E  1683               	bsf	3,5	;RP0=1, select bank1
  2430  023F  1303               	bcf	3,6	;RP1=0, select bank1
  2431  0240  0857               	movf	(_T+1)^(0+128),w
  2432  0241  1283               	bcf	3,5	;RP0=0, select bank0
  2433  0242  1303               	bcf	3,6	;RP1=0, select bank0
  2434  0243  00C1               	movwf	___fldiv@a+1
  2435  0244  1683               	bsf	3,5	;RP0=1, select bank1
  2436  0245  1303               	bcf	3,6	;RP1=0, select bank1
  2437  0246  0856               	movf	_T^(0+128),w
  2438  0247  1283               	bcf	3,5	;RP0=0, select bank0
  2439  0248  1303               	bcf	3,6	;RP1=0, select bank0
  2440  0249  00C0               	movwf	___fldiv@a
  2441  024A  1683               	bsf	3,5	;RP0=1, select bank1
  2442  024B  1303               	bcf	3,6	;RP1=0, select bank1
  2443  024C  084D               	movf	(_Kd+3)^(0+128),w
  2444  024D  1283               	bcf	3,5	;RP0=0, select bank0
  2445  024E  1303               	bcf	3,6	;RP1=0, select bank0
  2446  024F  00C7               	movwf	___fldiv@b+3
  2447  0250  1683               	bsf	3,5	;RP0=1, select bank1
  2448  0251  1303               	bcf	3,6	;RP1=0, select bank1
  2449  0252  084C               	movf	(_Kd+2)^(0+128),w
  2450  0253  1283               	bcf	3,5	;RP0=0, select bank0
  2451  0254  1303               	bcf	3,6	;RP1=0, select bank0
  2452  0255  00C6               	movwf	___fldiv@b+2
  2453  0256  1683               	bsf	3,5	;RP0=1, select bank1
  2454  0257  1303               	bcf	3,6	;RP1=0, select bank1
  2455  0258  084B               	movf	(_Kd+1)^(0+128),w
  2456  0259  1283               	bcf	3,5	;RP0=0, select bank0
  2457  025A  1303               	bcf	3,6	;RP1=0, select bank0
  2458  025B  00C5               	movwf	___fldiv@b+1
  2459  025C  1683               	bsf	3,5	;RP0=1, select bank1
  2460  025D  1303               	bcf	3,6	;RP1=0, select bank1
  2461  025E  084A               	movf	_Kd^(0+128),w
  2462  025F  1283               	bcf	3,5	;RP0=0, select bank0
  2463  0260  1303               	bcf	3,6	;RP1=0, select bank0
  2464  0261  00C4               	movwf	___fldiv@b
  2465  0262  120A  158A  213A  120A  118A  	fcall	___fldiv
  2466  0267  1283               	bcf	3,5	;RP0=0, select bank0
  2467  0268  1303               	bcf	3,6	;RP1=0, select bank0
  2468  0269  0843               	movf	?___fldiv+3,w
  2469  026A  1683               	bsf	3,5	;RP0=1, select bank3
  2470  026B  1703               	bsf	3,6	;RP1=1, select bank3
  2471  026C  0097               	movwf	(_a3+3)^(0+384)
  2472  026D  1283               	bcf	3,5	;RP0=0, select bank0
  2473  026E  1303               	bcf	3,6	;RP1=0, select bank0
  2474  026F  0842               	movf	?___fldiv+2,w
  2475  0270  1683               	bsf	3,5	;RP0=1, select bank3
  2476  0271  1703               	bsf	3,6	;RP1=1, select bank3
  2477  0272  0096               	movwf	(_a3+2)^(0+384)
  2478  0273  1283               	bcf	3,5	;RP0=0, select bank0
  2479  0274  1303               	bcf	3,6	;RP1=0, select bank0
  2480  0275  0841               	movf	?___fldiv+1,w
  2481  0276  1683               	bsf	3,5	;RP0=1, select bank3
  2482  0277  1703               	bsf	3,6	;RP1=1, select bank3
  2483  0278  0095               	movwf	(_a3+1)^(0+384)
  2484  0279  1283               	bcf	3,5	;RP0=0, select bank0
  2485  027A  1303               	bcf	3,6	;RP1=0, select bank0
  2486  027B  0840               	movf	?___fldiv,w
  2487  027C  1683               	bsf	3,5	;RP0=1, select bank3
  2488  027D  1703               	bsf	3,6	;RP1=1, select bank3
  2489  027E  0094               	movwf	_a3^(0+384)
  2490                           
  2491                           ;PWM.c: 141:     out = pre_out + E*a1 + E1*a2 + E2*a3;
  2492  027F  0813               	movf	(_pre_out+3)^(0+384),w
  2493  0280  1283               	bcf	3,5	;RP0=0, select bank0
  2494  0281  1303               	bcf	3,6	;RP1=0, select bank0
  2495  0282  00DD               	movwf	___fladd@b+3
  2496  0283  1683               	bsf	3,5	;RP0=1, select bank3
  2497  0284  1703               	bsf	3,6	;RP1=1, select bank3
  2498  0285  0812               	movf	(_pre_out+2)^(0+384),w
  2499  0286  1283               	bcf	3,5	;RP0=0, select bank0
  2500  0287  1303               	bcf	3,6	;RP1=0, select bank0
  2501  0288  00DC               	movwf	___fladd@b+2
  2502  0289  1683               	bsf	3,5	;RP0=1, select bank3
  2503  028A  1703               	bsf	3,6	;RP1=1, select bank3
  2504  028B  0811               	movf	(_pre_out+1)^(0+384),w
  2505  028C  1283               	bcf	3,5	;RP0=0, select bank0
  2506  028D  1303               	bcf	3,6	;RP1=0, select bank0
  2507  028E  00DB               	movwf	___fladd@b+1
  2508  028F  1683               	bsf	3,5	;RP0=1, select bank3
  2509  0290  1703               	bsf	3,6	;RP1=1, select bank3
  2510  0291  0810               	movf	_pre_out^(0+384),w
  2511  0292  1283               	bcf	3,5	;RP0=0, select bank0
  2512  0293  1303               	bcf	3,6	;RP1=0, select bank0
  2513  0294  00DA               	movwf	___fladd@b
  2514  0295  1683               	bsf	3,5	;RP0=1, select bank3
  2515  0296  1703               	bsf	3,6	;RP1=1, select bank3
  2516  0297  081F               	movf	(_a1+3)^(0+384),w
  2517  0298  1283               	bcf	3,5	;RP0=0, select bank0
  2518  0299  1303               	bcf	3,6	;RP1=0, select bank0
  2519  029A  00A9               	movwf	___flmul@b+3
  2520  029B  1683               	bsf	3,5	;RP0=1, select bank3
  2521  029C  1703               	bsf	3,6	;RP1=1, select bank3
  2522  029D  081E               	movf	(_a1+2)^(0+384),w
  2523  029E  1283               	bcf	3,5	;RP0=0, select bank0
  2524  029F  1303               	bcf	3,6	;RP1=0, select bank0
  2525  02A0  00A8               	movwf	___flmul@b+2
  2526  02A1  1683               	bsf	3,5	;RP0=1, select bank3
  2527  02A2  1703               	bsf	3,6	;RP1=1, select bank3
  2528  02A3  081D               	movf	(_a1+1)^(0+384),w
  2529  02A4  1283               	bcf	3,5	;RP0=0, select bank0
  2530  02A5  1303               	bcf	3,6	;RP1=0, select bank0
  2531  02A6  00A7               	movwf	___flmul@b+1
  2532  02A7  1683               	bsf	3,5	;RP0=1, select bank3
  2533  02A8  1703               	bsf	3,6	;RP1=1, select bank3
  2534  02A9  081C               	movf	_a1^(0+384),w
  2535  02AA  1283               	bcf	3,5	;RP0=0, select bank0
  2536  02AB  1303               	bcf	3,6	;RP1=0, select bank0
  2537  02AC  00A6               	movwf	___flmul@b
  2538  02AD  1683               	bsf	3,5	;RP0=1, select bank1
  2539  02AE  1303               	bcf	3,6	;RP1=0, select bank1
  2540  02AF  0861               	movf	(_E+3)^(0+128),w
  2541  02B0  1283               	bcf	3,5	;RP0=0, select bank0
  2542  02B1  1303               	bcf	3,6	;RP1=0, select bank0
  2543  02B2  00AD               	movwf	___flmul@a+3
  2544  02B3  1683               	bsf	3,5	;RP0=1, select bank1
  2545  02B4  1303               	bcf	3,6	;RP1=0, select bank1
  2546  02B5  0860               	movf	(_E+2)^(0+128),w
  2547  02B6  1283               	bcf	3,5	;RP0=0, select bank0
  2548  02B7  1303               	bcf	3,6	;RP1=0, select bank0
  2549  02B8  00AC               	movwf	___flmul@a+2
  2550  02B9  1683               	bsf	3,5	;RP0=1, select bank1
  2551  02BA  1303               	bcf	3,6	;RP1=0, select bank1
  2552  02BB  085F               	movf	(_E+1)^(0+128),w
  2553  02BC  1283               	bcf	3,5	;RP0=0, select bank0
  2554  02BD  1303               	bcf	3,6	;RP1=0, select bank0
  2555  02BE  00AB               	movwf	___flmul@a+1
  2556  02BF  1683               	bsf	3,5	;RP0=1, select bank1
  2557  02C0  1303               	bcf	3,6	;RP1=0, select bank1
  2558  02C1  085E               	movf	_E^(0+128),w
  2559  02C2  1283               	bcf	3,5	;RP0=0, select bank0
  2560  02C3  1303               	bcf	3,6	;RP1=0, select bank0
  2561  02C4  00AA               	movwf	___flmul@a
  2562  02C5  120A  118A  247C  120A  118A  	fcall	___flmul
  2563  02CA  1283               	bcf	3,5	;RP0=0, select bank0
  2564  02CB  1303               	bcf	3,6	;RP1=0, select bank0
  2565  02CC  0829               	movf	?___flmul+3,w
  2566  02CD  00E1               	movwf	___fladd@a+3
  2567  02CE  0828               	movf	?___flmul+2,w
  2568  02CF  00E0               	movwf	___fladd@a+2
  2569  02D0  0827               	movf	?___flmul+1,w
  2570  02D1  00DF               	movwf	___fladd@a+1
  2571  02D2  0826               	movf	?___flmul,w
  2572  02D3  00DE               	movwf	___fladd@a
  2573  02D4  120A  158A  22DD  120A  118A  	fcall	___fladd
  2574  02D9  1283               	bcf	3,5	;RP0=0, select bank0
  2575  02DA  1303               	bcf	3,6	;RP1=0, select bank0
  2576  02DB  085D               	movf	?___fladd+3,w
  2577  02DC  1683               	bsf	3,5	;RP0=1, select bank1
  2578  02DD  1303               	bcf	3,6	;RP1=0, select bank1
  2579  02DE  00B7               	movwf	(_PID_Init$792+3)^(0+128)
  2580  02DF  1283               	bcf	3,5	;RP0=0, select bank0
  2581  02E0  1303               	bcf	3,6	;RP1=0, select bank0
  2582  02E1  085C               	movf	?___fladd+2,w
  2583  02E2  1683               	bsf	3,5	;RP0=1, select bank1
  2584  02E3  1303               	bcf	3,6	;RP1=0, select bank1
  2585  02E4  00B6               	movwf	(_PID_Init$792+2)^(0+128)
  2586  02E5  1283               	bcf	3,5	;RP0=0, select bank0
  2587  02E6  1303               	bcf	3,6	;RP1=0, select bank0
  2588  02E7  085B               	movf	?___fladd+1,w
  2589  02E8  1683               	bsf	3,5	;RP0=1, select bank1
  2590  02E9  1303               	bcf	3,6	;RP1=0, select bank1
  2591  02EA  00B5               	movwf	(_PID_Init$792+1)^(0+128)
  2592  02EB  1283               	bcf	3,5	;RP0=0, select bank0
  2593  02EC  1303               	bcf	3,6	;RP1=0, select bank0
  2594  02ED  085A               	movf	?___fladd,w
  2595  02EE  1683               	bsf	3,5	;RP0=1, select bank1
  2596  02EF  1303               	bcf	3,6	;RP1=0, select bank1
  2597  02F0  00B4               	movwf	_PID_Init$792^(0+128)
  2598                           
  2599                           ;PWM.c: 141:     out = pre_out + E*a1 + E1*a2 + E2*a3;
  2600  02F1  1683               	bsf	3,5	;RP0=1, select bank3
  2601  02F2  1703               	bsf	3,6	;RP1=1, select bank3
  2602  02F3  081B               	movf	(_a2+3)^(0+384),w
  2603  02F4  1283               	bcf	3,5	;RP0=0, select bank0
  2604  02F5  1303               	bcf	3,6	;RP1=0, select bank0
  2605  02F6  00A9               	movwf	___flmul@b+3
  2606  02F7  1683               	bsf	3,5	;RP0=1, select bank3
  2607  02F8  1703               	bsf	3,6	;RP1=1, select bank3
  2608  02F9  081A               	movf	(_a2+2)^(0+384),w
  2609  02FA  1283               	bcf	3,5	;RP0=0, select bank0
  2610  02FB  1303               	bcf	3,6	;RP1=0, select bank0
  2611  02FC  00A8               	movwf	___flmul@b+2
  2612  02FD  1683               	bsf	3,5	;RP0=1, select bank3
  2613  02FE  1703               	bsf	3,6	;RP1=1, select bank3
  2614  02FF  0819               	movf	(_a2+1)^(0+384),w
  2615  0300  1283               	bcf	3,5	;RP0=0, select bank0
  2616  0301  1303               	bcf	3,6	;RP1=0, select bank0
  2617  0302  00A7               	movwf	___flmul@b+1
  2618  0303  1683               	bsf	3,5	;RP0=1, select bank3
  2619  0304  1703               	bsf	3,6	;RP1=1, select bank3
  2620  0305  0818               	movf	_a2^(0+384),w
  2621  0306  1283               	bcf	3,5	;RP0=0, select bank0
  2622  0307  1303               	bcf	3,6	;RP1=0, select bank0
  2623  0308  00A6               	movwf	___flmul@b
  2624  0309  1683               	bsf	3,5	;RP0=1, select bank1
  2625  030A  1303               	bcf	3,6	;RP1=0, select bank1
  2626  030B  085D               	movf	(_E1+3)^(0+128),w
  2627  030C  1283               	bcf	3,5	;RP0=0, select bank0
  2628  030D  1303               	bcf	3,6	;RP1=0, select bank0
  2629  030E  00AD               	movwf	___flmul@a+3
  2630  030F  1683               	bsf	3,5	;RP0=1, select bank1
  2631  0310  1303               	bcf	3,6	;RP1=0, select bank1
  2632  0311  085C               	movf	(_E1+2)^(0+128),w
  2633  0312  1283               	bcf	3,5	;RP0=0, select bank0
  2634  0313  1303               	bcf	3,6	;RP1=0, select bank0
  2635  0314  00AC               	movwf	___flmul@a+2
  2636  0315  1683               	bsf	3,5	;RP0=1, select bank1
  2637  0316  1303               	bcf	3,6	;RP1=0, select bank1
  2638  0317  085B               	movf	(_E1+1)^(0+128),w
  2639  0318  1283               	bcf	3,5	;RP0=0, select bank0
  2640  0319  1303               	bcf	3,6	;RP1=0, select bank0
  2641  031A  00AB               	movwf	___flmul@a+1
  2642  031B  1683               	bsf	3,5	;RP0=1, select bank1
  2643  031C  1303               	bcf	3,6	;RP1=0, select bank1
  2644  031D  085A               	movf	_E1^(0+128),w
  2645  031E  1283               	bcf	3,5	;RP0=0, select bank0
  2646  031F  1303               	bcf	3,6	;RP1=0, select bank0
  2647  0320  00AA               	movwf	___flmul@a
  2648  0321  120A  118A  247C  120A  118A  	fcall	___flmul
  2649  0326  1283               	bcf	3,5	;RP0=0, select bank0
  2650  0327  1303               	bcf	3,6	;RP1=0, select bank0
  2651  0328  0829               	movf	?___flmul+3,w
  2652  0329  00DD               	movwf	___fladd@b+3
  2653  032A  0828               	movf	?___flmul+2,w
  2654  032B  00DC               	movwf	___fladd@b+2
  2655  032C  0827               	movf	?___flmul+1,w
  2656  032D  00DB               	movwf	___fladd@b+1
  2657  032E  0826               	movf	?___flmul,w
  2658  032F  00DA               	movwf	___fladd@b
  2659  0330  1683               	bsf	3,5	;RP0=1, select bank1
  2660  0331  1303               	bcf	3,6	;RP1=0, select bank1
  2661  0332  0837               	movf	(_PID_Init$792+3)^(0+128),w
  2662  0333  1283               	bcf	3,5	;RP0=0, select bank0
  2663  0334  1303               	bcf	3,6	;RP1=0, select bank0
  2664  0335  00E1               	movwf	___fladd@a+3
  2665  0336  1683               	bsf	3,5	;RP0=1, select bank1
  2666  0337  1303               	bcf	3,6	;RP1=0, select bank1
  2667  0338  0836               	movf	(_PID_Init$792+2)^(0+128),w
  2668  0339  1283               	bcf	3,5	;RP0=0, select bank0
  2669  033A  1303               	bcf	3,6	;RP1=0, select bank0
  2670  033B  00E0               	movwf	___fladd@a+2
  2671  033C  1683               	bsf	3,5	;RP0=1, select bank1
  2672  033D  1303               	bcf	3,6	;RP1=0, select bank1
  2673  033E  0835               	movf	(_PID_Init$792+1)^(0+128),w
  2674  033F  1283               	bcf	3,5	;RP0=0, select bank0
  2675  0340  1303               	bcf	3,6	;RP1=0, select bank0
  2676  0341  00DF               	movwf	___fladd@a+1
  2677  0342  1683               	bsf	3,5	;RP0=1, select bank1
  2678  0343  1303               	bcf	3,6	;RP1=0, select bank1
  2679  0344  0834               	movf	_PID_Init$792^(0+128),w
  2680  0345  1283               	bcf	3,5	;RP0=0, select bank0
  2681  0346  1303               	bcf	3,6	;RP1=0, select bank0
  2682  0347  00DE               	movwf	___fladd@a
  2683  0348  120A  158A  22DD  120A  118A  	fcall	___fladd
  2684  034D  1283               	bcf	3,5	;RP0=0, select bank0
  2685  034E  1303               	bcf	3,6	;RP1=0, select bank0
  2686  034F  085D               	movf	?___fladd+3,w
  2687  0350  1683               	bsf	3,5	;RP0=1, select bank1
  2688  0351  1303               	bcf	3,6	;RP1=0, select bank1
  2689  0352  00B3               	movwf	(_PID_Init$794+3)^(0+128)
  2690  0353  1283               	bcf	3,5	;RP0=0, select bank0
  2691  0354  1303               	bcf	3,6	;RP1=0, select bank0
  2692  0355  085C               	movf	?___fladd+2,w
  2693  0356  1683               	bsf	3,5	;RP0=1, select bank1
  2694  0357  1303               	bcf	3,6	;RP1=0, select bank1
  2695  0358  00B2               	movwf	(_PID_Init$794+2)^(0+128)
  2696  0359  1283               	bcf	3,5	;RP0=0, select bank0
  2697  035A  1303               	bcf	3,6	;RP1=0, select bank0
  2698  035B  085B               	movf	?___fladd+1,w
  2699  035C  1683               	bsf	3,5	;RP0=1, select bank1
  2700  035D  1303               	bcf	3,6	;RP1=0, select bank1
  2701  035E  00B1               	movwf	(_PID_Init$794+1)^(0+128)
  2702  035F  1283               	bcf	3,5	;RP0=0, select bank0
  2703  0360  1303               	bcf	3,6	;RP1=0, select bank0
  2704  0361  085A               	movf	?___fladd,w
  2705  0362  1683               	bsf	3,5	;RP0=1, select bank1
  2706  0363  1303               	bcf	3,6	;RP1=0, select bank1
  2707  0364  00B0               	movwf	_PID_Init$794^(0+128)
  2708                           
  2709                           ;PWM.c: 141:     out = pre_out + E*a1 + E1*a2 + E2*a3;
  2710  0365  1683               	bsf	3,5	;RP0=1, select bank3
  2711  0366  1703               	bsf	3,6	;RP1=1, select bank3
  2712  0367  0817               	movf	(_a3+3)^(0+384),w
  2713  0368  1283               	bcf	3,5	;RP0=0, select bank0
  2714  0369  1303               	bcf	3,6	;RP1=0, select bank0
  2715  036A  00A9               	movwf	___flmul@b+3
  2716  036B  1683               	bsf	3,5	;RP0=1, select bank3
  2717  036C  1703               	bsf	3,6	;RP1=1, select bank3
  2718  036D  0816               	movf	(_a3+2)^(0+384),w
  2719  036E  1283               	bcf	3,5	;RP0=0, select bank0
  2720  036F  1303               	bcf	3,6	;RP1=0, select bank0
  2721  0370  00A8               	movwf	___flmul@b+2
  2722  0371  1683               	bsf	3,5	;RP0=1, select bank3
  2723  0372  1703               	bsf	3,6	;RP1=1, select bank3
  2724  0373  0815               	movf	(_a3+1)^(0+384),w
  2725  0374  1283               	bcf	3,5	;RP0=0, select bank0
  2726  0375  1303               	bcf	3,6	;RP1=0, select bank0
  2727  0376  00A7               	movwf	___flmul@b+1
  2728  0377  1683               	bsf	3,5	;RP0=1, select bank3
  2729  0378  1703               	bsf	3,6	;RP1=1, select bank3
  2730  0379  0814               	movf	_a3^(0+384),w
  2731  037A  1283               	bcf	3,5	;RP0=0, select bank0
  2732  037B  1303               	bcf	3,6	;RP1=0, select bank0
  2733  037C  00A6               	movwf	___flmul@b
  2734  037D  1683               	bsf	3,5	;RP0=1, select bank3
  2735  037E  1703               	bsf	3,6	;RP1=1, select bank3
  2736  037F  0823               	movf	(_E2+3)^(0+384),w
  2737  0380  1283               	bcf	3,5	;RP0=0, select bank0
  2738  0381  1303               	bcf	3,6	;RP1=0, select bank0
  2739  0382  00AD               	movwf	___flmul@a+3
  2740  0383  1683               	bsf	3,5	;RP0=1, select bank3
  2741  0384  1703               	bsf	3,6	;RP1=1, select bank3
  2742  0385  0822               	movf	(_E2+2)^(0+384),w
  2743  0386  1283               	bcf	3,5	;RP0=0, select bank0
  2744  0387  1303               	bcf	3,6	;RP1=0, select bank0
  2745  0388  00AC               	movwf	___flmul@a+2
  2746  0389  1683               	bsf	3,5	;RP0=1, select bank3
  2747  038A  1703               	bsf	3,6	;RP1=1, select bank3
  2748  038B  0821               	movf	(_E2+1)^(0+384),w
  2749  038C  1283               	bcf	3,5	;RP0=0, select bank0
  2750  038D  1303               	bcf	3,6	;RP1=0, select bank0
  2751  038E  00AB               	movwf	___flmul@a+1
  2752  038F  1683               	bsf	3,5	;RP0=1, select bank3
  2753  0390  1703               	bsf	3,6	;RP1=1, select bank3
  2754  0391  0820               	movf	_E2^(0+384),w
  2755  0392  1283               	bcf	3,5	;RP0=0, select bank0
  2756  0393  1303               	bcf	3,6	;RP1=0, select bank0
  2757  0394  00AA               	movwf	___flmul@a
  2758  0395  120A  118A  247C  120A  118A  	fcall	___flmul
  2759  039A  1283               	bcf	3,5	;RP0=0, select bank0
  2760  039B  1303               	bcf	3,6	;RP1=0, select bank0
  2761  039C  0829               	movf	?___flmul+3,w
  2762  039D  00DD               	movwf	___fladd@b+3
  2763  039E  0828               	movf	?___flmul+2,w
  2764  039F  00DC               	movwf	___fladd@b+2
  2765  03A0  0827               	movf	?___flmul+1,w
  2766  03A1  00DB               	movwf	___fladd@b+1
  2767  03A2  0826               	movf	?___flmul,w
  2768  03A3  00DA               	movwf	___fladd@b
  2769  03A4  1683               	bsf	3,5	;RP0=1, select bank1
  2770  03A5  1303               	bcf	3,6	;RP1=0, select bank1
  2771  03A6  0833               	movf	(_PID_Init$794+3)^(0+128),w
  2772  03A7  1283               	bcf	3,5	;RP0=0, select bank0
  2773  03A8  1303               	bcf	3,6	;RP1=0, select bank0
  2774  03A9  00E1               	movwf	___fladd@a+3
  2775  03AA  1683               	bsf	3,5	;RP0=1, select bank1
  2776  03AB  1303               	bcf	3,6	;RP1=0, select bank1
  2777  03AC  0832               	movf	(_PID_Init$794+2)^(0+128),w
  2778  03AD  1283               	bcf	3,5	;RP0=0, select bank0
  2779  03AE  1303               	bcf	3,6	;RP1=0, select bank0
  2780  03AF  00E0               	movwf	___fladd@a+2
  2781  03B0  1683               	bsf	3,5	;RP0=1, select bank1
  2782  03B1  1303               	bcf	3,6	;RP1=0, select bank1
  2783  03B2  0831               	movf	(_PID_Init$794+1)^(0+128),w
  2784  03B3  1283               	bcf	3,5	;RP0=0, select bank0
  2785  03B4  1303               	bcf	3,6	;RP1=0, select bank0
  2786  03B5  00DF               	movwf	___fladd@a+1
  2787  03B6  1683               	bsf	3,5	;RP0=1, select bank1
  2788  03B7  1303               	bcf	3,6	;RP1=0, select bank1
  2789  03B8  0830               	movf	_PID_Init$794^(0+128),w
  2790  03B9  1283               	bcf	3,5	;RP0=0, select bank0
  2791  03BA  1303               	bcf	3,6	;RP1=0, select bank0
  2792  03BB  00DE               	movwf	___fladd@a
  2793  03BC  120A  158A  22DD  120A  118A  	fcall	___fladd
  2794  03C1  1283               	bcf	3,5	;RP0=0, select bank0
  2795  03C2  1303               	bcf	3,6	;RP1=0, select bank0
  2796  03C3  085D               	movf	?___fladd+3,w
  2797  03C4  1683               	bsf	3,5	;RP0=1, select bank1
  2798  03C5  1303               	bcf	3,6	;RP1=0, select bank1
  2799  03C6  00C9               	movwf	(_out+3)^(0+128)
  2800  03C7  1283               	bcf	3,5	;RP0=0, select bank0
  2801  03C8  1303               	bcf	3,6	;RP1=0, select bank0
  2802  03C9  085C               	movf	?___fladd+2,w
  2803  03CA  1683               	bsf	3,5	;RP0=1, select bank1
  2804  03CB  1303               	bcf	3,6	;RP1=0, select bank1
  2805  03CC  00C8               	movwf	(_out+2)^(0+128)
  2806  03CD  1283               	bcf	3,5	;RP0=0, select bank0
  2807  03CE  1303               	bcf	3,6	;RP1=0, select bank0
  2808  03CF  085B               	movf	?___fladd+1,w
  2809  03D0  1683               	bsf	3,5	;RP0=1, select bank1
  2810  03D1  1303               	bcf	3,6	;RP1=0, select bank1
  2811  03D2  00C7               	movwf	(_out+1)^(0+128)
  2812  03D3  1283               	bcf	3,5	;RP0=0, select bank0
  2813  03D4  1303               	bcf	3,6	;RP1=0, select bank0
  2814  03D5  085A               	movf	?___fladd,w
  2815  03D6  1683               	bsf	3,5	;RP0=1, select bank1
  2816  03D7  1303               	bcf	3,6	;RP1=0, select bank1
  2817  03D8  00C6               	movwf	_out^(0+128)
  2818                           
  2819                           ;PWM.c: 142:     pre_out = out;
  2820  03D9  0849               	movf	(_out+3)^(0+128),w
  2821  03DA  1683               	bsf	3,5	;RP0=1, select bank3
  2822  03DB  1703               	bsf	3,6	;RP1=1, select bank3
  2823  03DC  0093               	movwf	(_pre_out+3)^(0+384)
  2824  03DD  1683               	bsf	3,5	;RP0=1, select bank1
  2825  03DE  1303               	bcf	3,6	;RP1=0, select bank1
  2826  03DF  0848               	movf	(_out+2)^(0+128),w
  2827  03E0  1683               	bsf	3,5	;RP0=1, select bank3
  2828  03E1  1703               	bsf	3,6	;RP1=1, select bank3
  2829  03E2  0092               	movwf	(_pre_out+2)^(0+384)
  2830  03E3  1683               	bsf	3,5	;RP0=1, select bank1
  2831  03E4  1303               	bcf	3,6	;RP1=0, select bank1
  2832  03E5  0847               	movf	(_out+1)^(0+128),w
  2833  03E6  1683               	bsf	3,5	;RP0=1, select bank3
  2834  03E7  1703               	bsf	3,6	;RP1=1, select bank3
  2835  03E8  0091               	movwf	(_pre_out+1)^(0+384)
  2836  03E9  1683               	bsf	3,5	;RP0=1, select bank1
  2837  03EA  1303               	bcf	3,6	;RP1=0, select bank1
  2838  03EB  0846               	movf	_out^(0+128),w
  2839  03EC  1683               	bsf	3,5	;RP0=1, select bank3
  2840  03ED  1703               	bsf	3,6	;RP1=1, select bank3
  2841  03EE  0090               	movwf	_pre_out^(0+384)
  2842                           
  2843                           ;PWM.c: 143:     E2 = E1;
  2844  03EF  1683               	bsf	3,5	;RP0=1, select bank1
  2845  03F0  1303               	bcf	3,6	;RP1=0, select bank1
  2846  03F1  085D               	movf	(_E1+3)^(0+128),w
  2847  03F2  1683               	bsf	3,5	;RP0=1, select bank3
  2848  03F3  1703               	bsf	3,6	;RP1=1, select bank3
  2849  03F4  00A3               	movwf	(_E2+3)^(0+384)
  2850  03F5  1683               	bsf	3,5	;RP0=1, select bank1
  2851  03F6  1303               	bcf	3,6	;RP1=0, select bank1
  2852  03F7  085C               	movf	(_E1+2)^(0+128),w
  2853  03F8  1683               	bsf	3,5	;RP0=1, select bank3
  2854  03F9  1703               	bsf	3,6	;RP1=1, select bank3
  2855  03FA  00A2               	movwf	(_E2+2)^(0+384)
  2856  03FB  1683               	bsf	3,5	;RP0=1, select bank1
  2857  03FC  1303               	bcf	3,6	;RP1=0, select bank1
  2858  03FD  085B               	movf	(_E1+1)^(0+128),w
  2859  03FE  1683               	bsf	3,5	;RP0=1, select bank3
  2860  03FF  1703               	bsf	3,6	;RP1=1, select bank3
  2861  0400  00A1               	movwf	(_E2+1)^(0+384)
  2862  0401  1683               	bsf	3,5	;RP0=1, select bank1
  2863  0402  1303               	bcf	3,6	;RP1=0, select bank1
  2864  0403  085A               	movf	_E1^(0+128),w
  2865  0404  1683               	bsf	3,5	;RP0=1, select bank3
  2866  0405  1703               	bsf	3,6	;RP1=1, select bank3
  2867  0406  00A0               	movwf	_E2^(0+384)
  2868                           
  2869                           ;PWM.c: 144:     E1 = E;
  2870  0407  1683               	bsf	3,5	;RP0=1, select bank1
  2871  0408  1303               	bcf	3,6	;RP1=0, select bank1
  2872  0409  0861               	movf	(_E+3)^(0+128),w
  2873  040A  00DD               	movwf	(_E1+3)^(0+128)
  2874  040B  0860               	movf	(_E+2)^(0+128),w
  2875  040C  00DC               	movwf	(_E1+2)^(0+128)
  2876  040D  085F               	movf	(_E+1)^(0+128),w
  2877  040E  00DB               	movwf	(_E1+1)^(0+128)
  2878  040F  085E               	movf	_E^(0+128),w
  2879  0410  00DA               	movwf	_E1^(0+128)
  2880                           
  2881                           ;PWM.c: 145:     if(out > 255) out = 255;
  2882  0411  3043               	movlw	67
  2883  0412  00F5               	movwf	___flge@ff1+3
  2884  0413  307F               	movlw	127
  2885  0414  00F4               	movwf	___flge@ff1+2
  2886  0415  3000               	movlw	0
  2887  0416  00F3               	movwf	___flge@ff1+1
  2888  0417  3000               	movlw	0
  2889  0418  00F2               	movwf	___flge@ff1
  2890  0419  0849               	movf	(_out+3)^(0+128),w
  2891  041A  00F9               	movwf	___flge@ff2+3
  2892  041B  0848               	movf	(_out+2)^(0+128),w
  2893  041C  00F8               	movwf	___flge@ff2+2
  2894  041D  0847               	movf	(_out+1)^(0+128),w
  2895  041E  00F7               	movwf	___flge@ff2+1
  2896  041F  0846               	movf	_out^(0+128),w
  2897  0420  00F6               	movwf	___flge@ff2
  2898  0421  120A  158A  2000  120A  118A  	fcall	___flge
  2899  0426  1803               	btfsc	3,0
  2900  0427  2C32               	goto	l2452
  2901  0428  3043               	movlw	67
  2902  0429  1683               	bsf	3,5	;RP0=1, select bank1
  2903  042A  1303               	bcf	3,6	;RP1=0, select bank1
  2904  042B  00C9               	movwf	(_out+3)^(0+128)
  2905  042C  307F               	movlw	127
  2906  042D  00C8               	movwf	(_out+2)^(0+128)
  2907  042E  3000               	movlw	0
  2908  042F  00C7               	movwf	(_out+1)^(0+128)
  2909  0430  3000               	movlw	0
  2910  0431  00C6               	movwf	_out^(0+128)
  2911  0432                     l2452:	
  2912                           
  2913                           ;PWM.c: 146:     if(out < 0) out = 0;
  2914  0432  1683               	bsf	3,5	;RP0=1, select bank1
  2915  0433  1303               	bcf	3,6	;RP1=0, select bank1
  2916  0434  0849               	movf	(_out+3)^(0+128),w
  2917  0435  00F5               	movwf	___flge@ff1+3
  2918  0436  0848               	movf	(_out+2)^(0+128),w
  2919  0437  00F4               	movwf	___flge@ff1+2
  2920  0438  0847               	movf	(_out+1)^(0+128),w
  2921  0439  00F3               	movwf	___flge@ff1+1
  2922  043A  0846               	movf	_out^(0+128),w
  2923  043B  00F2               	movwf	___flge@ff1
  2924  043C  3000               	movlw	0
  2925  043D  00F9               	movwf	___flge@ff2+3
  2926  043E  3000               	movlw	0
  2927  043F  00F8               	movwf	___flge@ff2+2
  2928  0440  3000               	movlw	0
  2929  0441  00F7               	movwf	___flge@ff2+1
  2930  0442  3000               	movlw	0
  2931  0443  00F6               	movwf	___flge@ff2
  2932  0444  120A  158A  2000  120A  118A  	fcall	___flge
  2933  0449  1803               	btfsc	3,0
  2934  044A  2C55               	goto	l2456
  2935  044B  3000               	movlw	0
  2936  044C  1683               	bsf	3,5	;RP0=1, select bank1
  2937  044D  1303               	bcf	3,6	;RP1=0, select bank1
  2938  044E  00C9               	movwf	(_out+3)^(0+128)
  2939  044F  3000               	movlw	0
  2940  0450  00C8               	movwf	(_out+2)^(0+128)
  2941  0451  3000               	movlw	0
  2942  0452  00C7               	movwf	(_out+1)^(0+128)
  2943  0453  3000               	movlw	0
  2944  0454  00C6               	movwf	_out^(0+128)
  2945  0455                     l2456:	
  2946                           
  2947                           ;PWM.c: 147:     Duty_Init(out);
  2948  0455  1683               	bsf	3,5	;RP0=1, select bank1
  2949  0456  1303               	bcf	3,6	;RP1=0, select bank1
  2950  0457  0849               	movf	(_out+3)^(0+128),w
  2951  0458  1283               	bcf	3,5	;RP0=0, select bank0
  2952  0459  1303               	bcf	3,6	;RP1=0, select bank0
  2953  045A  00DD               	movwf	___fltol@f1+3
  2954  045B  1683               	bsf	3,5	;RP0=1, select bank1
  2955  045C  1303               	bcf	3,6	;RP1=0, select bank1
  2956  045D  0848               	movf	(_out+2)^(0+128),w
  2957  045E  1283               	bcf	3,5	;RP0=0, select bank0
  2958  045F  1303               	bcf	3,6	;RP1=0, select bank0
  2959  0460  00DC               	movwf	___fltol@f1+2
  2960  0461  1683               	bsf	3,5	;RP0=1, select bank1
  2961  0462  1303               	bcf	3,6	;RP1=0, select bank1
  2962  0463  0847               	movf	(_out+1)^(0+128),w
  2963  0464  1283               	bcf	3,5	;RP0=0, select bank0
  2964  0465  1303               	bcf	3,6	;RP1=0, select bank0
  2965  0466  00DB               	movwf	___fltol@f1+1
  2966  0467  1683               	bsf	3,5	;RP0=1, select bank1
  2967  0468  1303               	bcf	3,6	;RP1=0, select bank1
  2968  0469  0846               	movf	_out^(0+128),w
  2969  046A  1283               	bcf	3,5	;RP0=0, select bank0
  2970  046B  1303               	bcf	3,6	;RP1=0, select bank0
  2971  046C  00DA               	movwf	___fltol@f1
  2972  046D  120A  118A  2791  120A  118A  	fcall	___fltol
  2973  0472  1283               	bcf	3,5	;RP0=0, select bank0
  2974  0473  1303               	bcf	3,6	;RP1=0, select bank0
  2975  0474  085B               	movf	?___fltol+1,w
  2976  0475  00E6               	movwf	Duty_Init@duty+1
  2977  0476  085A               	movf	?___fltol,w
  2978  0477  00E5               	movwf	Duty_Init@duty
  2979  0478  160A  118A  2595   	fcall	_Duty_Init
  2980  047B  0008               	return
  2981  047C                     __end_of_PID_Init:	
  2982                           
  2983                           	psect	text6
  2984  0895                     __ptext6:	
  2985 ;; *************** function ___xxtofl *****************
  2986 ;; Defined at:
  2987 ;;		line 10 in file "D:\Mplab X\xc8\pic\sources\c90\common\xxtofl.c"
  2988 ;; Parameters:    Size  Location     Type
  2989 ;;  sign            1    wreg     unsigned char 
  2990 ;;  val             4    2[COMMON] long 
  2991 ;; Auto vars:     Size  Location     Type
  2992 ;;  sign            1    0[BANK0 ] unsigned char 
  2993 ;;  arg             4    2[BANK0 ] unsigned long 
  2994 ;;  exp             1    1[BANK0 ] unsigned char 
  2995 ;; Return value:  Size  Location     Type
  2996 ;;                  4    2[COMMON] unsigned char 
  2997 ;; Registers used:
  2998 ;;		wreg, status,2, status,0
  2999 ;; Tracked objects:
  3000 ;;		On entry : 0/0
  3001 ;;		On exit  : 0/0
  3002 ;;		Unchanged: 0/0
  3003 ;; Data sizes:     COMMON   BANK0   BANK1   BANK3   BANK2
  3004 ;;      Params:         4       0       0       0       0
  3005 ;;      Locals:         0       6       0       0       0
  3006 ;;      Temps:          4       0       0       0       0
  3007 ;;      Totals:         8       6       0       0       0
  3008 ;;Total ram usage:       14 bytes
  3009 ;; Hardware stack levels used:    1
  3010 ;; Hardware stack levels required when called:    1
  3011 ;; This function calls:
  3012 ;;		Nothing
  3013 ;; This function is called by:
  3014 ;;		_main
  3015 ;;		_PID_Init
  3016 ;; This function uses a non-reentrant model
  3017 ;;
  3018                           
  3019                           
  3020                           ;psect for function ___xxtofl
  3021  0895                     ___xxtofl:	
  3022                           
  3023                           ;incstack = 0
  3024                           ; Regs used in ___xxtofl: [wreg+status,2+status,0]
  3025                           ;___xxtofl@sign stored from wreg
  3026  0895  1283               	bcf	3,5	;RP0=0, select bank0
  3027  0896  1303               	bcf	3,6	;RP1=0, select bank0
  3028  0897  00A0               	movwf	___xxtofl@sign
  3029  0898  0820               	movf	___xxtofl@sign,w
  3030  0899  1D03               	btfss	3,2
  3031  089A  1FF5               	btfss	___xxtofl@val+3,7
  3032  089B  28AC               	goto	l2296
  3033  089C  0972               	comf	___xxtofl@val,w
  3034  089D  00A2               	movwf	___xxtofl@arg
  3035  089E  0973               	comf	___xxtofl@val+1,w
  3036  089F  00A3               	movwf	___xxtofl@arg+1
  3037  08A0  0974               	comf	___xxtofl@val+2,w
  3038  08A1  00A4               	movwf	___xxtofl@arg+2
  3039  08A2  0975               	comf	___xxtofl@val+3,w
  3040  08A3  00A5               	movwf	___xxtofl@arg+3
  3041  08A4  0AA2               	incf	___xxtofl@arg,f
  3042  08A5  1903               	skipnz
  3043  08A6  0AA3               	incf	___xxtofl@arg+1,f
  3044  08A7  1903               	skipnz
  3045  08A8  0AA4               	incf	___xxtofl@arg+2,f
  3046  08A9  1903               	skipnz
  3047  08AA  0AA5               	incf	___xxtofl@arg+3,f
  3048  08AB  28B4               	goto	l713
  3049  08AC                     l2296:	
  3050  08AC  0875               	movf	___xxtofl@val+3,w
  3051  08AD  00A5               	movwf	___xxtofl@arg+3
  3052  08AE  0874               	movf	___xxtofl@val+2,w
  3053  08AF  00A4               	movwf	___xxtofl@arg+2
  3054  08B0  0873               	movf	___xxtofl@val+1,w
  3055  08B1  00A3               	movwf	___xxtofl@arg+1
  3056  08B2  0872               	movf	___xxtofl@val,w
  3057  08B3  00A2               	movwf	___xxtofl@arg
  3058  08B4                     l713:	
  3059  08B4  0875               	movf	___xxtofl@val+3,w
  3060  08B5  0474               	iorwf	___xxtofl@val+2,w
  3061  08B6  0473               	iorwf	___xxtofl@val+1,w
  3062  08B7  0472               	iorwf	___xxtofl@val,w
  3063  08B8  1D03               	skipz
  3064  08B9  28C3               	goto	l2302
  3065  08BA  3000               	movlw	0
  3066  08BB  00F5               	movwf	?___xxtofl+3
  3067  08BC  3000               	movlw	0
  3068  08BD  00F4               	movwf	?___xxtofl+2
  3069  08BE  3000               	movlw	0
  3070  08BF  00F3               	movwf	?___xxtofl+1
  3071  08C0  3000               	movlw	0
  3072  08C1  00F2               	movwf	?___xxtofl
  3073  08C2  0008               	return
  3074  08C3                     l2302:	
  3075  08C3  3096               	movlw	150
  3076  08C4  00F6               	movwf	??___xxtofl
  3077  08C5  0876               	movf	??___xxtofl,w
  3078  08C6  00A1               	movwf	___xxtofl@exp
  3079  08C7                     l2306:	
  3080  08C7  30FE               	movlw	254
  3081  08C8  0525               	andwf	___xxtofl@arg+3,w
  3082  08C9  1903               	btfsc	3,2
  3083  08CA  28F4               	goto	l719
  3084  08CB  3001               	movlw	1
  3085  08CC  00F6               	movwf	??___xxtofl
  3086  08CD  0876               	movf	??___xxtofl,w
  3087  08CE  07A1               	addwf	___xxtofl@exp,f
  3088  08CF  3001               	movlw	1
  3089  08D0                     u3145:	
  3090  08D0  1003               	clrc
  3091  08D1  0CA5               	rrf	___xxtofl@arg+3,f
  3092  08D2  0CA4               	rrf	___xxtofl@arg+2,f
  3093  08D3  0CA3               	rrf	___xxtofl@arg+1,f
  3094  08D4  0CA2               	rrf	___xxtofl@arg,f
  3095  08D5  3EFF               	addlw	-1
  3096  08D6  1D03               	skipz
  3097  08D7  28D0               	goto	u3145
  3098  08D8  28C7               	goto	l2306
  3099  08D9                     l2308:	
  3100  08D9  3001               	movlw	1
  3101  08DA  00F6               	movwf	??___xxtofl
  3102  08DB  0876               	movf	??___xxtofl,w
  3103  08DC  07A1               	addwf	___xxtofl@exp,f
  3104  08DD  3001               	movlw	1
  3105  08DE  07A2               	addwf	___xxtofl@arg,f
  3106  08DF  3000               	movlw	0
  3107  08E0  1803               	skipnc
  3108  08E1  3001               	movlw	1
  3109  08E2  07A3               	addwf	___xxtofl@arg+1,f
  3110  08E3  3000               	movlw	0
  3111  08E4  1803               	skipnc
  3112  08E5  3001               	movlw	1
  3113  08E6  07A4               	addwf	___xxtofl@arg+2,f
  3114  08E7  3000               	movlw	0
  3115  08E8  1803               	skipnc
  3116  08E9  3001               	movlw	1
  3117  08EA  07A5               	addwf	___xxtofl@arg+3,f
  3118  08EB  3001               	movlw	1
  3119  08EC                     u3165:	
  3120  08EC  1003               	clrc
  3121  08ED  0CA5               	rrf	___xxtofl@arg+3,f
  3122  08EE  0CA4               	rrf	___xxtofl@arg+2,f
  3123  08EF  0CA3               	rrf	___xxtofl@arg+1,f
  3124  08F0  0CA2               	rrf	___xxtofl@arg,f
  3125  08F1  3EFF               	addlw	-1
  3126  08F2  1D03               	skipz
  3127  08F3  28EC               	goto	u3165
  3128  08F4                     l719:	
  3129  08F4  30FF               	movlw	255
  3130  08F5  0525               	andwf	___xxtofl@arg+3,w
  3131  08F6  1903               	btfsc	3,2
  3132  08F7  2908               	goto	l2316
  3133  08F8  28D9               	goto	l2308
  3134  08F9                     l2318:	
  3135  08F9  3002               	movlw	2
  3136  08FA  0221               	subwf	___xxtofl@exp,w
  3137  08FB  1C03               	btfss	3,0
  3138  08FC  290A               	goto	l726
  3139  08FD  3001               	movlw	1
  3140  08FE  02A1               	subwf	___xxtofl@exp,f
  3141  08FF  3001               	movlw	1
  3142  0900  00F6               	movwf	??___xxtofl
  3143  0901                     u3185:	
  3144  0901  1003               	clrc
  3145  0902  0DA2               	rlf	___xxtofl@arg,f
  3146  0903  0DA3               	rlf	___xxtofl@arg+1,f
  3147  0904  0DA4               	rlf	___xxtofl@arg+2,f
  3148  0905  0DA5               	rlf	___xxtofl@arg+3,f
  3149  0906  0BF6               	decfsz	??___xxtofl,f
  3150  0907  2901               	goto	u3185
  3151  0908                     l2316:	
  3152  0908  1FA4               	btfss	___xxtofl@arg+2,7
  3153  0909  28F9               	goto	l2318
  3154  090A                     l726:	
  3155  090A  1821               	btfsc	___xxtofl@exp,0
  3156  090B  2914               	goto	l727
  3157  090C  30FF               	movlw	255
  3158  090D  05A2               	andwf	___xxtofl@arg,f
  3159  090E  30FF               	movlw	255
  3160  090F  05A3               	andwf	___xxtofl@arg+1,f
  3161  0910  307F               	movlw	127
  3162  0911  05A4               	andwf	___xxtofl@arg+2,f
  3163  0912  30FF               	movlw	255
  3164  0913  05A5               	andwf	___xxtofl@arg+3,f
  3165  0914                     l727:	
  3166  0914  1003               	clrc
  3167  0915  0CA1               	rrf	___xxtofl@exp,f
  3168  0916  0821               	movf	___xxtofl@exp,w
  3169  0917  00F6               	movwf	??___xxtofl
  3170  0918  01F7               	clrf	??___xxtofl+1
  3171  0919  01F8               	clrf	??___xxtofl+2
  3172  091A  01F9               	clrf	??___xxtofl+3
  3173  091B  3018               	movlw	24
  3174  091C                     u3225:	
  3175  091C  1003               	clrc
  3176  091D  0DF6               	rlf	??___xxtofl,f
  3177  091E  0DF7               	rlf	??___xxtofl+1,f
  3178  091F  0DF8               	rlf	??___xxtofl+2,f
  3179  0920  0DF9               	rlf	??___xxtofl+3,f
  3180  0921  3EFF               	addlw	-1
  3181  0922  1D03               	skipz
  3182  0923  291C               	goto	u3225
  3183  0924  0876               	movf	??___xxtofl,w
  3184  0925  04A2               	iorwf	___xxtofl@arg,f
  3185  0926  0877               	movf	??___xxtofl+1,w
  3186  0927  04A3               	iorwf	___xxtofl@arg+1,f
  3187  0928  0878               	movf	??___xxtofl+2,w
  3188  0929  04A4               	iorwf	___xxtofl@arg+2,f
  3189  092A  0879               	movf	??___xxtofl+3,w
  3190  092B  04A5               	iorwf	___xxtofl@arg+3,f
  3191  092C  0820               	movf	___xxtofl@sign,w
  3192  092D  1D03               	btfss	3,2
  3193  092E  1FF5               	btfss	___xxtofl@val+3,7
  3194  092F  2931               	goto	l2330
  3195  0930  17A5               	bsf	___xxtofl@arg+3,7
  3196  0931                     l2330:	
  3197  0931  0825               	movf	___xxtofl@arg+3,w
  3198  0932  00F5               	movwf	?___xxtofl+3
  3199  0933  0824               	movf	___xxtofl@arg+2,w
  3200  0934  00F4               	movwf	?___xxtofl+2
  3201  0935  0823               	movf	___xxtofl@arg+1,w
  3202  0936  00F3               	movwf	?___xxtofl+1
  3203  0937  0822               	movf	___xxtofl@arg,w
  3204  0938  00F2               	movwf	?___xxtofl
  3205  0939  0008               	return
  3206  093A                     __end_of___xxtofl:	
  3207                           
  3208                           	psect	text7
  3209  0791                     __ptext7:	
  3210 ;; *************** function ___fltol *****************
  3211 ;; Defined at:
  3212 ;;		line 43 in file "D:\Mplab X\xc8\pic\sources\c90\common\fltol.c"
  3213 ;; Parameters:    Size  Location     Type
  3214 ;;  f1              4   58[BANK0 ] unsigned char 
  3215 ;; Auto vars:     Size  Location     Type
  3216 ;;  exp1            1   68[BANK0 ] unsigned char 
  3217 ;;  sign1           1   67[BANK0 ] unsigned char 
  3218 ;; Return value:  Size  Location     Type
  3219 ;;                  4   58[BANK0 ] long 
  3220 ;; Registers used:
  3221 ;;		wreg, status,2, status,0
  3222 ;; Tracked objects:
  3223 ;;		On entry : 0/0
  3224 ;;		On exit  : 0/0
  3225 ;;		Unchanged: 0/0
  3226 ;; Data sizes:     COMMON   BANK0   BANK1   BANK3   BANK2
  3227 ;;      Params:         0       4       0       0       0
  3228 ;;      Locals:         0       2       0       0       0
  3229 ;;      Temps:          0       5       0       0       0
  3230 ;;      Totals:         0      11       0       0       0
  3231 ;;Total ram usage:       11 bytes
  3232 ;; Hardware stack levels used:    1
  3233 ;; Hardware stack levels required when called:    1
  3234 ;; This function calls:
  3235 ;;		Nothing
  3236 ;; This function is called by:
  3237 ;;		_main
  3238 ;;		_PID_Init
  3239 ;; This function uses a non-reentrant model
  3240 ;;
  3241                           
  3242                           
  3243                           ;psect for function ___fltol
  3244  0791                     ___fltol:	
  3245                           
  3246                           ;incstack = 0
  3247                           ; Regs used in ___fltol: [wreg+status,2+status,0]
  3248  0791  1003               	clrc
  3249  0792  1283               	bcf	3,5	;RP0=0, select bank0
  3250  0793  1303               	bcf	3,6	;RP1=0, select bank0
  3251  0794  0D5C               	rlf	___fltol@f1+2,w
  3252  0795  0D5D               	rlf	___fltol@f1+3,w
  3253  0796  00DE               	movwf	??___fltol
  3254  0797  085E               	movf	??___fltol,w
  3255  0798  00E4               	movwf	___fltol@exp1
  3256  0799  0864               	movf	___fltol@exp1,w
  3257  079A  1D03               	btfss	3,2
  3258  079B  2FA5               	goto	l1972
  3259  079C                     l1968:	
  3260  079C  3000               	movlw	0
  3261  079D  00DD               	movwf	?___fltol+3
  3262  079E  3000               	movlw	0
  3263  079F  00DC               	movwf	?___fltol+2
  3264  07A0  3000               	movlw	0
  3265  07A1  00DB               	movwf	?___fltol+1
  3266  07A2  3000               	movlw	0
  3267  07A3  00DA               	movwf	?___fltol
  3268  07A4  0008               	return
  3269  07A5                     l1972:	
  3270  07A5  085A               	movf	___fltol@f1,w
  3271  07A6  00DE               	movwf	??___fltol
  3272  07A7  085B               	movf	___fltol@f1+1,w
  3273  07A8  00DF               	movwf	??___fltol+1
  3274  07A9  085C               	movf	___fltol@f1+2,w
  3275  07AA  00E0               	movwf	??___fltol+2
  3276  07AB  085D               	movf	___fltol@f1+3,w
  3277  07AC  00E1               	movwf	??___fltol+3
  3278  07AD  301F               	movlw	31
  3279  07AE                     u2365:	
  3280  07AE  1003               	clrc
  3281  07AF  0CE1               	rrf	??___fltol+3,f
  3282  07B0  0CE0               	rrf	??___fltol+2,f
  3283  07B1  0CDF               	rrf	??___fltol+1,f
  3284  07B2  0CDE               	rrf	??___fltol,f
  3285  07B3  3EFF               	addlw	-1
  3286  07B4  1D03               	skipz
  3287  07B5  2FAE               	goto	u2365
  3288  07B6  085E               	movf	??___fltol,w
  3289  07B7  00E2               	movwf	??___fltol+4
  3290  07B8  0862               	movf	??___fltol+4,w
  3291  07B9  00E3               	movwf	___fltol@sign1
  3292  07BA  17DC               	bsf	___fltol@f1+2,7
  3293  07BB  30FF               	movlw	255
  3294  07BC  05DA               	andwf	___fltol@f1,f
  3295  07BD  30FF               	movlw	255
  3296  07BE  05DB               	andwf	___fltol@f1+1,f
  3297  07BF  30FF               	movlw	255
  3298  07C0  05DC               	andwf	___fltol@f1+2,f
  3299  07C1  3000               	movlw	0
  3300  07C2  05DD               	andwf	___fltol@f1+3,f
  3301  07C3  3096               	movlw	150
  3302  07C4  02E4               	subwf	___fltol@exp1,f
  3303  07C5  1FE4               	btfss	___fltol@exp1,7
  3304  07C6  2FDC               	goto	l1990
  3305  07C7  0864               	movf	___fltol@exp1,w
  3306  07C8  3A80               	xorlw	128
  3307  07C9  3E97               	addlw	151
  3308  07CA  1C03               	btfss	3,0
  3309  07CB  2F9C               	goto	l1968
  3310  07CC                     l1988:	
  3311  07CC  3001               	movlw	1
  3312  07CD                     u2395:	
  3313  07CD  1003               	clrc
  3314  07CE  0CDD               	rrf	___fltol@f1+3,f
  3315  07CF  0CDC               	rrf	___fltol@f1+2,f
  3316  07D0  0CDB               	rrf	___fltol@f1+1,f
  3317  07D1  0CDA               	rrf	___fltol@f1,f
  3318  07D2  3EFF               	addlw	-1
  3319  07D3  1D03               	skipz
  3320  07D4  2FCD               	goto	u2395
  3321  07D5  3001               	movlw	1
  3322  07D6  00DE               	movwf	??___fltol
  3323  07D7  085E               	movf	??___fltol,w
  3324  07D8  07E4               	addwf	___fltol@exp1,f
  3325  07D9  1903               	btfsc	3,2
  3326  07DA  2FEF               	goto	l1998
  3327  07DB  2FCC               	goto	l1988
  3328  07DC                     l1990:	
  3329  07DC  3020               	movlw	32
  3330  07DD  0264               	subwf	___fltol@exp1,w
  3331  07DE  1803               	btfsc	3,0
  3332  07DF  2F9C               	goto	l1968
  3333  07E0                     l479:	
  3334  07E0  0864               	movf	___fltol@exp1,w
  3335  07E1  1903               	btfsc	3,2
  3336  07E2  2FEF               	goto	l1998
  3337  07E3  3001               	movlw	1
  3338  07E4  00DE               	movwf	??___fltol
  3339  07E5                     u2425:	
  3340  07E5  1003               	clrc
  3341  07E6  0DDA               	rlf	___fltol@f1,f
  3342  07E7  0DDB               	rlf	___fltol@f1+1,f
  3343  07E8  0DDC               	rlf	___fltol@f1+2,f
  3344  07E9  0DDD               	rlf	___fltol@f1+3,f
  3345  07EA  0BDE               	decfsz	??___fltol,f
  3346  07EB  2FE5               	goto	u2425
  3347  07EC  3001               	movlw	1
  3348  07ED  02E4               	subwf	___fltol@exp1,f
  3349  07EE  2FE0               	goto	l479
  3350  07EF                     l1998:	
  3351  07EF  0863               	movf	___fltol@sign1,w
  3352  07F0  1903               	btfsc	3,2
  3353  07F1  0008               	return
  3354  07F2  09DA               	comf	___fltol@f1,f
  3355  07F3  09DB               	comf	___fltol@f1+1,f
  3356  07F4  09DC               	comf	___fltol@f1+2,f
  3357  07F5  09DD               	comf	___fltol@f1+3,f
  3358  07F6  0ADA               	incf	___fltol@f1,f
  3359  07F7  1903               	skipnz
  3360  07F8  0ADB               	incf	___fltol@f1+1,f
  3361  07F9  1903               	skipnz
  3362  07FA  0ADC               	incf	___fltol@f1+2,f
  3363  07FB  1903               	skipnz
  3364  07FC  0ADD               	incf	___fltol@f1+3,f
  3365  07FD  0008               	return
  3366  07FE                     __end_of___fltol:	
  3367                           
  3368                           	psect	text8
  3369  1706                     __ptext8:	
  3370 ;; *************** function ___flsub *****************
  3371 ;; Defined at:
  3372 ;;		line 242 in file "D:\Mplab X\xc8\pic\sources\c90\common\sprcadd.c"
  3373 ;; Parameters:    Size  Location     Type
  3374 ;;  a               4    0[BANK1 ] long 
  3375 ;;  b               4    4[BANK1 ] long 
  3376 ;; Auto vars:     Size  Location     Type
  3377 ;;		None
  3378 ;; Return value:  Size  Location     Type
  3379 ;;                  4    0[BANK1 ] long 
  3380 ;; Registers used:
  3381 ;;		wreg, status,2, status,0, btemp+1, pclath, cstack
  3382 ;; Tracked objects:
  3383 ;;		On entry : 0/0
  3384 ;;		On exit  : 0/0
  3385 ;;		Unchanged: 0/0
  3386 ;; Data sizes:     COMMON   BANK0   BANK1   BANK3   BANK2
  3387 ;;      Params:         0       0       8       0       0
  3388 ;;      Locals:         0       0       0       0       0
  3389 ;;      Temps:          0       0       0       0       0
  3390 ;;      Totals:         0       0       8       0       0
  3391 ;;Total ram usage:        8 bytes
  3392 ;; Hardware stack levels used:    1
  3393 ;; Hardware stack levels required when called:    2
  3394 ;; This function calls:
  3395 ;;		___fladd
  3396 ;; This function is called by:
  3397 ;;		_PID_Init
  3398 ;; This function uses a non-reentrant model
  3399 ;;
  3400                           
  3401                           
  3402                           ;psect for function ___flsub
  3403  1706                     ___flsub:	
  3404                           
  3405                           ;incstack = 0
  3406                           ; Regs used in ___flsub: [wreg+status,2+status,0+btemp+1+pclath+cstack]
  3407  1706  3080               	movlw	128
  3408  1707  1683               	bsf	3,5	;RP0=1, select bank1
  3409  1708  1303               	bcf	3,6	;RP1=0, select bank1
  3410  1709  06A3               	xorwf	(___flsub@a+3)^(0+128),f
  3411  170A  0827               	movf	(___flsub@b+3)^(0+128),w
  3412  170B  1283               	bcf	3,5	;RP0=0, select bank0
  3413  170C  1303               	bcf	3,6	;RP1=0, select bank0
  3414  170D  00DD               	movwf	___fladd@b+3
  3415  170E  1683               	bsf	3,5	;RP0=1, select bank1
  3416  170F  1303               	bcf	3,6	;RP1=0, select bank1
  3417  1710  0826               	movf	(___flsub@b+2)^(0+128),w
  3418  1711  1283               	bcf	3,5	;RP0=0, select bank0
  3419  1712  1303               	bcf	3,6	;RP1=0, select bank0
  3420  1713  00DC               	movwf	___fladd@b+2
  3421  1714  1683               	bsf	3,5	;RP0=1, select bank1
  3422  1715  1303               	bcf	3,6	;RP1=0, select bank1
  3423  1716  0825               	movf	(___flsub@b+1)^(0+128),w
  3424  1717  1283               	bcf	3,5	;RP0=0, select bank0
  3425  1718  1303               	bcf	3,6	;RP1=0, select bank0
  3426  1719  00DB               	movwf	___fladd@b+1
  3427  171A  1683               	bsf	3,5	;RP0=1, select bank1
  3428  171B  1303               	bcf	3,6	;RP1=0, select bank1
  3429  171C  0824               	movf	___flsub@b^(0+128),w
  3430  171D  1283               	bcf	3,5	;RP0=0, select bank0
  3431  171E  1303               	bcf	3,6	;RP1=0, select bank0
  3432  171F  00DA               	movwf	___fladd@b
  3433  1720  1683               	bsf	3,5	;RP0=1, select bank1
  3434  1721  1303               	bcf	3,6	;RP1=0, select bank1
  3435  1722  0823               	movf	(___flsub@a+3)^(0+128),w
  3436  1723  1283               	bcf	3,5	;RP0=0, select bank0
  3437  1724  1303               	bcf	3,6	;RP1=0, select bank0
  3438  1725  00E1               	movwf	___fladd@a+3
  3439  1726  1683               	bsf	3,5	;RP0=1, select bank1
  3440  1727  1303               	bcf	3,6	;RP1=0, select bank1
  3441  1728  0822               	movf	(___flsub@a+2)^(0+128),w
  3442  1729  1283               	bcf	3,5	;RP0=0, select bank0
  3443  172A  1303               	bcf	3,6	;RP1=0, select bank0
  3444  172B  00E0               	movwf	___fladd@a+2
  3445  172C  1683               	bsf	3,5	;RP0=1, select bank1
  3446  172D  1303               	bcf	3,6	;RP1=0, select bank1
  3447  172E  0821               	movf	(___flsub@a+1)^(0+128),w
  3448  172F  1283               	bcf	3,5	;RP0=0, select bank0
  3449  1730  1303               	bcf	3,6	;RP1=0, select bank0
  3450  1731  00DF               	movwf	___fladd@a+1
  3451  1732  1683               	bsf	3,5	;RP0=1, select bank1
  3452  1733  1303               	bcf	3,6	;RP1=0, select bank1
  3453  1734  0820               	movf	___flsub@a^(0+128),w
  3454  1735  1283               	bcf	3,5	;RP0=0, select bank0
  3455  1736  1303               	bcf	3,6	;RP1=0, select bank0
  3456  1737  00DE               	movwf	___fladd@a
  3457  1738  120A  158A  22DD   	fcall	___fladd
  3458  173B  1283               	bcf	3,5	;RP0=0, select bank0
  3459  173C  1303               	bcf	3,6	;RP1=0, select bank0
  3460  173D  085D               	movf	?___fladd+3,w
  3461  173E  1683               	bsf	3,5	;RP0=1, select bank1
  3462  173F  1303               	bcf	3,6	;RP1=0, select bank1
  3463  1740  00A3               	movwf	(?___flsub+3)^(0+128)
  3464  1741  1283               	bcf	3,5	;RP0=0, select bank0
  3465  1742  1303               	bcf	3,6	;RP1=0, select bank0
  3466  1743  085C               	movf	?___fladd+2,w
  3467  1744  1683               	bsf	3,5	;RP0=1, select bank1
  3468  1745  1303               	bcf	3,6	;RP1=0, select bank1
  3469  1746  00A2               	movwf	(?___flsub+2)^(0+128)
  3470  1747  1283               	bcf	3,5	;RP0=0, select bank0
  3471  1748  1303               	bcf	3,6	;RP1=0, select bank0
  3472  1749  085B               	movf	?___fladd+1,w
  3473  174A  1683               	bsf	3,5	;RP0=1, select bank1
  3474  174B  1303               	bcf	3,6	;RP1=0, select bank1
  3475  174C  00A1               	movwf	(?___flsub+1)^(0+128)
  3476  174D  1283               	bcf	3,5	;RP0=0, select bank0
  3477  174E  1303               	bcf	3,6	;RP1=0, select bank0
  3478  174F  085A               	movf	?___fladd,w
  3479  1750  1683               	bsf	3,5	;RP0=1, select bank1
  3480  1751  1303               	bcf	3,6	;RP1=0, select bank1
  3481  1752  00A0               	movwf	?___flsub^(0+128)
  3482  1753  0008               	return
  3483  1754                     __end_of___flsub:	
  3484                           
  3485                           	psect	text9
  3486  0ADD                     __ptext9:	
  3487 ;; *************** function ___fladd *****************
  3488 ;; Defined at:
  3489 ;;		line 10 in file "D:\Mplab X\xc8\pic\sources\c90\common\sprcadd.c"
  3490 ;; Parameters:    Size  Location     Type
  3491 ;;  b               4   58[BANK0 ] long 
  3492 ;;  a               4   62[BANK0 ] long 
  3493 ;; Auto vars:     Size  Location     Type
  3494 ;;  grs             1   77[BANK0 ] unsigned char 
  3495 ;;  bexp            1   76[BANK0 ] unsigned char 
  3496 ;;  aexp            1   75[BANK0 ] unsigned char 
  3497 ;;  signs           1   74[BANK0 ] unsigned char 
  3498 ;; Return value:  Size  Location     Type
  3499 ;;                  4   58[BANK0 ] unsigned char 
  3500 ;; Registers used:
  3501 ;;		wreg, status,2, status,0, btemp+1
  3502 ;; Tracked objects:
  3503 ;;		On entry : 0/0
  3504 ;;		On exit  : 0/0
  3505 ;;		Unchanged: 0/0
  3506 ;; Data sizes:     COMMON   BANK0   BANK1   BANK3   BANK2
  3507 ;;      Params:         0       8       0       0       0
  3508 ;;      Locals:         0       4       0       0       0
  3509 ;;      Temps:          0       8       0       0       0
  3510 ;;      Totals:         0      20       0       0       0
  3511 ;;Total ram usage:       20 bytes
  3512 ;; Hardware stack levels used:    1
  3513 ;; Hardware stack levels required when called:    1
  3514 ;; This function calls:
  3515 ;;		Nothing
  3516 ;; This function is called by:
  3517 ;;		_PID_Init
  3518 ;;		___flsub
  3519 ;; This function uses a non-reentrant model
  3520 ;;
  3521                           
  3522                           
  3523                           ;psect for function ___fladd
  3524  0ADD                     ___fladd:	
  3525                           
  3526                           ;incstack = 0
  3527                           ; Regs used in ___fladd: [wreg+status,2+status,0+btemp+1]
  3528  0ADD  1283               	bcf	3,5	;RP0=0, select bank0
  3529  0ADE  1303               	bcf	3,6	;RP1=0, select bank0
  3530  0ADF  085D               	movf	___fladd@b+3,w
  3531  0AE0  3980               	andlw	128
  3532  0AE1  00E2               	movwf	??___fladd
  3533  0AE2  0862               	movf	??___fladd,w
  3534  0AE3  00EA               	movwf	___fladd@signs
  3535  0AE4  085D               	movf	___fladd@b+3,w
  3536  0AE5  00E2               	movwf	??___fladd
  3537  0AE6  0762               	addwf	??___fladd,w
  3538  0AE7  00E3               	movwf	??___fladd+1
  3539  0AE8  0863               	movf	??___fladd+1,w
  3540  0AE9  00EC               	movwf	___fladd@bexp
  3541  0AEA  1BDC               	btfsc	___fladd@b+2,7
  3542  0AEB  146C               	bsf	___fladd@bexp,0
  3543  0AEC  086C               	movf	___fladd@bexp,w
  3544  0AED  1903               	btfsc	3,2
  3545  0AEE  2AFD               	goto	l1722
  3546  0AEF  0A6C               	incf	___fladd@bexp,w
  3547  0AF0  1D03               	btfss	3,2
  3548  0AF1  2AFA               	goto	l1718
  3549  0AF2  3000               	movlw	0
  3550  0AF3  00DD               	movwf	___fladd@b+3
  3551  0AF4  3000               	movlw	0
  3552  0AF5  00DC               	movwf	___fladd@b+2
  3553  0AF6  3000               	movlw	0
  3554  0AF7  00DB               	movwf	___fladd@b+1
  3555  0AF8  3000               	movlw	0
  3556  0AF9  00DA               	movwf	___fladd@b
  3557  0AFA                     l1718:	
  3558  0AFA  17DC               	bsf	___fladd@b+2,7
  3559  0AFB  01DD               	clrf	___fladd@b+3
  3560  0AFC  2B05               	goto	l1724
  3561  0AFD                     l1722:	
  3562  0AFD  3000               	movlw	0
  3563  0AFE  00DD               	movwf	___fladd@b+3
  3564  0AFF  3000               	movlw	0
  3565  0B00  00DC               	movwf	___fladd@b+2
  3566  0B01  3000               	movlw	0
  3567  0B02  00DB               	movwf	___fladd@b+1
  3568  0B03  3000               	movlw	0
  3569  0B04  00DA               	movwf	___fladd@b
  3570  0B05                     l1724:	
  3571  0B05  0861               	movf	___fladd@a+3,w
  3572  0B06  3980               	andlw	128
  3573  0B07  00E2               	movwf	??___fladd
  3574  0B08  0862               	movf	??___fladd,w
  3575  0B09  00EB               	movwf	___fladd@aexp
  3576  0B0A  086B               	movf	___fladd@aexp,w
  3577  0B0B  066A               	xorwf	___fladd@signs,w
  3578  0B0C  1D03               	btfss	3,2
  3579  0B0D  176A               	bsf	___fladd@signs,6
  3580  0B0E  0861               	movf	___fladd@a+3,w
  3581  0B0F  00E2               	movwf	??___fladd
  3582  0B10  0762               	addwf	??___fladd,w
  3583  0B11  00E3               	movwf	??___fladd+1
  3584  0B12  0863               	movf	??___fladd+1,w
  3585  0B13  00EB               	movwf	___fladd@aexp
  3586  0B14  1BE0               	btfsc	___fladd@a+2,7
  3587  0B15  146B               	bsf	___fladd@aexp,0
  3588  0B16  086B               	movf	___fladd@aexp,w
  3589  0B17  1903               	btfsc	3,2
  3590  0B18  2B27               	goto	l1746
  3591  0B19  0A6B               	incf	___fladd@aexp,w
  3592  0B1A  1D03               	btfss	3,2
  3593  0B1B  2B24               	goto	l1742
  3594  0B1C  3000               	movlw	0
  3595  0B1D  00E1               	movwf	___fladd@a+3
  3596  0B1E  3000               	movlw	0
  3597  0B1F  00E0               	movwf	___fladd@a+2
  3598  0B20  3000               	movlw	0
  3599  0B21  00DF               	movwf	___fladd@a+1
  3600  0B22  3000               	movlw	0
  3601  0B23  00DE               	movwf	___fladd@a
  3602  0B24                     l1742:	
  3603  0B24  17E0               	bsf	___fladd@a+2,7
  3604  0B25  01E1               	clrf	___fladd@a+3
  3605  0B26  2B2F               	goto	l579
  3606  0B27                     l1746:	
  3607  0B27  3000               	movlw	0
  3608  0B28  00E1               	movwf	___fladd@a+3
  3609  0B29  3000               	movlw	0
  3610  0B2A  00E0               	movwf	___fladd@a+2
  3611  0B2B  3000               	movlw	0
  3612  0B2C  00DF               	movwf	___fladd@a+1
  3613  0B2D  3000               	movlw	0
  3614  0B2E  00DE               	movwf	___fladd@a
  3615  0B2F                     l579:	
  3616  0B2F  086C               	movf	___fladd@bexp,w
  3617  0B30  026B               	subwf	___fladd@aexp,w
  3618  0B31  1803               	skipnc
  3619  0B32  2B75               	goto	l1782
  3620  0B33  1F6A               	btfss	___fladd@signs,6
  3621  0B34  2B39               	goto	l1752
  3622  0B35  3080               	movlw	128
  3623  0B36  00E2               	movwf	??___fladd
  3624  0B37  0862               	movf	??___fladd,w
  3625  0B38  06EA               	xorwf	___fladd@signs,f
  3626  0B39                     l1752:	
  3627  0B39  086C               	movf	___fladd@bexp,w
  3628  0B3A  00E2               	movwf	??___fladd
  3629  0B3B  0862               	movf	??___fladd,w
  3630  0B3C  00ED               	movwf	___fladd@grs
  3631  0B3D  086B               	movf	___fladd@aexp,w
  3632  0B3E  00E2               	movwf	??___fladd
  3633  0B3F  0862               	movf	??___fladd,w
  3634  0B40  00EC               	movwf	___fladd@bexp
  3635  0B41  086D               	movf	___fladd@grs,w
  3636  0B42  00E2               	movwf	??___fladd
  3637  0B43  0862               	movf	??___fladd,w
  3638  0B44  00EB               	movwf	___fladd@aexp
  3639  0B45  085A               	movf	___fladd@b,w
  3640  0B46  00E2               	movwf	??___fladd
  3641  0B47  0862               	movf	??___fladd,w
  3642  0B48  00ED               	movwf	___fladd@grs
  3643  0B49  085E               	movf	___fladd@a,w
  3644  0B4A  00E2               	movwf	??___fladd
  3645  0B4B  0862               	movf	??___fladd,w
  3646  0B4C  00DA               	movwf	___fladd@b
  3647  0B4D  086D               	movf	___fladd@grs,w
  3648  0B4E  00E2               	movwf	??___fladd
  3649  0B4F  0862               	movf	??___fladd,w
  3650  0B50  00DE               	movwf	___fladd@a
  3651  0B51  085B               	movf	___fladd@b+1,w
  3652  0B52  00E2               	movwf	??___fladd
  3653  0B53  0862               	movf	??___fladd,w
  3654  0B54  00ED               	movwf	___fladd@grs
  3655  0B55  085F               	movf	___fladd@a+1,w
  3656  0B56  00E2               	movwf	??___fladd
  3657  0B57  0862               	movf	??___fladd,w
  3658  0B58  00DB               	movwf	___fladd@b+1
  3659  0B59  086D               	movf	___fladd@grs,w
  3660  0B5A  00E2               	movwf	??___fladd
  3661  0B5B  0862               	movf	??___fladd,w
  3662  0B5C  00DF               	movwf	___fladd@a+1
  3663  0B5D  085C               	movf	___fladd@b+2,w
  3664  0B5E  00E2               	movwf	??___fladd
  3665  0B5F  0862               	movf	??___fladd,w
  3666  0B60  00ED               	movwf	___fladd@grs
  3667  0B61  0860               	movf	___fladd@a+2,w
  3668  0B62  00E2               	movwf	??___fladd
  3669  0B63  0862               	movf	??___fladd,w
  3670  0B64  00DC               	movwf	___fladd@b+2
  3671  0B65  086D               	movf	___fladd@grs,w
  3672  0B66  00E2               	movwf	??___fladd
  3673  0B67  0862               	movf	??___fladd,w
  3674  0B68  00E0               	movwf	___fladd@a+2
  3675  0B69  085D               	movf	___fladd@b+3,w
  3676  0B6A  00E2               	movwf	??___fladd
  3677  0B6B  0862               	movf	??___fladd,w
  3678  0B6C  00ED               	movwf	___fladd@grs
  3679  0B6D  0861               	movf	___fladd@a+3,w
  3680  0B6E  00E2               	movwf	??___fladd
  3681  0B6F  0862               	movf	??___fladd,w
  3682  0B70  00DD               	movwf	___fladd@b+3
  3683  0B71  086D               	movf	___fladd@grs,w
  3684  0B72  00E2               	movwf	??___fladd
  3685  0B73  0862               	movf	??___fladd,w
  3686  0B74  00E1               	movwf	___fladd@a+3
  3687  0B75                     l1782:	
  3688  0B75  01ED               	clrf	___fladd@grs
  3689  0B76  086B               	movf	___fladd@aexp,w
  3690  0B77  00E2               	movwf	??___fladd
  3691  0B78  01E3               	clrf	??___fladd+1
  3692  0B79  0863               	movf	??___fladd+1,w
  3693  0B7A  00E5               	movwf	??___fladd+3
  3694  0B7B  086C               	movf	___fladd@bexp,w
  3695  0B7C  0262               	subwf	??___fladd,w
  3696  0B7D  00E4               	movwf	??___fladd+2
  3697  0B7E  1C03               	skipc
  3698  0B7F  03E5               	decf	??___fladd+3,f
  3699  0B80  0865               	movf	??___fladd+3,w
  3700  0B81  3A80               	xorlw	128
  3701  0B82  00FF               	movwf	127
  3702  0B83  3080               	movlw	128
  3703  0B84  027F               	subwf	127,w
  3704  0B85  1D03               	skipz
  3705  0B86  2B89               	goto	u1875
  3706  0B87  301A               	movlw	26
  3707  0B88  0264               	subwf	??___fladd+2,w
  3708  0B89                     u1875:	
  3709  0B89  1C03               	skipc
  3710  0B8A  2BC2               	goto	l1800
  3711  0B8B  1283               	bcf	3,5	;RP0=0, select bank0
  3712  0B8C  1303               	bcf	3,6	;RP1=0, select bank0
  3713  0B8D  085D               	movf	___fladd@b+3,w
  3714  0B8E  045C               	iorwf	___fladd@b+2,w
  3715  0B8F  045B               	iorwf	___fladd@b+1,w
  3716  0B90  045A               	iorwf	___fladd@b,w
  3717  0B91  1903               	btfsc	3,2
  3718  0B92  2B95               	goto	u1880
  3719  0B93  3001               	movlw	1
  3720  0B94  2B96               	goto	u1890
  3721  0B95                     u1880:	
  3722  0B95  3000               	movlw	0
  3723  0B96                     u1890:	
  3724  0B96  00E2               	movwf	??___fladd
  3725  0B97  0862               	movf	??___fladd,w
  3726  0B98  00ED               	movwf	___fladd@grs
  3727  0B99  3000               	movlw	0
  3728  0B9A  00DD               	movwf	___fladd@b+3
  3729  0B9B  3000               	movlw	0
  3730  0B9C  00DC               	movwf	___fladd@b+2
  3731  0B9D  3000               	movlw	0
  3732  0B9E  00DB               	movwf	___fladd@b+1
  3733  0B9F  3000               	movlw	0
  3734  0BA0  00DA               	movwf	___fladd@b
  3735  0BA1  086B               	movf	___fladd@aexp,w
  3736  0BA2  00E2               	movwf	??___fladd
  3737  0BA3  0862               	movf	??___fladd,w
  3738  0BA4  00EC               	movwf	___fladd@bexp
  3739  0BA5  2BC8               	goto	l583
  3740  0BA6                     l585:	
  3741  0BA6  1C6D               	btfss	___fladd@grs,0
  3742  0BA7  2BB1               	goto	l1790
  3743  0BA8  086D               	movf	___fladd@grs,w
  3744  0BA9  00E2               	movwf	??___fladd
  3745  0BAA  1003               	clrc
  3746  0BAB  0C62               	rrf	??___fladd,w
  3747  0BAC  3801               	iorlw	1
  3748  0BAD  00E3               	movwf	??___fladd+1
  3749  0BAE  0863               	movf	??___fladd+1,w
  3750  0BAF  00ED               	movwf	___fladd@grs
  3751  0BB0  2BB3               	goto	l1792
  3752  0BB1                     l1790:	
  3753  0BB1  1003               	clrc
  3754  0BB2  0CED               	rrf	___fladd@grs,f
  3755  0BB3                     l1792:	
  3756  0BB3  185A               	btfsc	___fladd@b,0
  3757  0BB4  17ED               	bsf	___fladd@grs,7
  3758  0BB5  3001               	movlw	1
  3759  0BB6  00E2               	movwf	??___fladd
  3760  0BB7                     u1925:	
  3761  0BB7  0D5D               	rlf	___fladd@b+3,w
  3762  0BB8  0CDD               	rrf	___fladd@b+3,f
  3763  0BB9  0CDC               	rrf	___fladd@b+2,f
  3764  0BBA  0CDB               	rrf	___fladd@b+1,f
  3765  0BBB  0CDA               	rrf	___fladd@b,f
  3766  0BBC  0BE2               	decfsz	??___fladd& (0+127),f
  3767  0BBD  2BB7               	goto	u1925
  3768  0BBE  3001               	movlw	1
  3769  0BBF  00E2               	movwf	??___fladd
  3770  0BC0  0862               	movf	??___fladd,w
  3771  0BC1  07EC               	addwf	___fladd@bexp,f
  3772  0BC2                     l1800:	
  3773  0BC2  1283               	bcf	3,5	;RP0=0, select bank0
  3774  0BC3  1303               	bcf	3,6	;RP1=0, select bank0
  3775  0BC4  086B               	movf	___fladd@aexp,w
  3776  0BC5  026C               	subwf	___fladd@bexp,w
  3777  0BC6  1C03               	skipc
  3778  0BC7  2BA6               	goto	l585
  3779  0BC8                     l583:	
  3780  0BC8  1B6A               	btfsc	___fladd@signs,6
  3781  0BC9  2C09               	goto	l1826
  3782  0BCA  086C               	movf	___fladd@bexp,w
  3783  0BCB  1D03               	btfss	3,2
  3784  0BCC  2BD6               	goto	l1808
  3785  0BCD  3000               	movlw	0
  3786  0BCE  00DD               	movwf	?___fladd+3
  3787  0BCF  3000               	movlw	0
  3788  0BD0  00DC               	movwf	?___fladd+2
  3789  0BD1  3000               	movlw	0
  3790  0BD2  00DB               	movwf	?___fladd+1
  3791  0BD3  3000               	movlw	0
  3792  0BD4  00DA               	movwf	?___fladd
  3793  0BD5  0008               	return
  3794  0BD6                     l1808:	
  3795  0BD6  085E               	movf	___fladd@a,w
  3796  0BD7  07DA               	addwf	___fladd@b,f
  3797  0BD8  085F               	movf	___fladd@a+1,w
  3798  0BD9  1103               	clrz
  3799  0BDA  1803               	skipnc
  3800  0BDB  3E01               	addlw	1
  3801  0BDC  1D03               	btfss	3,2
  3802  0BDD  07DB               	addwf	___fladd@b+1,f
  3803  0BDE  0860               	movf	___fladd@a+2,w
  3804  0BDF  1103               	clrz
  3805  0BE0  1803               	skipnc
  3806  0BE1  3E01               	addlw	1
  3807  0BE2  1D03               	btfss	3,2
  3808  0BE3  07DC               	addwf	___fladd@b+2,f
  3809  0BE4  0861               	movf	___fladd@a+3,w
  3810  0BE5  1103               	clrz
  3811  0BE6  1803               	skipnc
  3812  0BE7  3E01               	addlw	1
  3813  0BE8  1D03               	btfss	3,2
  3814  0BE9  07DD               	addwf	___fladd@b+3,f
  3815  0BEA  1C5D               	btfss	___fladd@b+3,0
  3816  0BEB  2CAB               	goto	l1860
  3817  0BEC  1C6D               	btfss	___fladd@grs,0
  3818  0BED  2BF7               	goto	l1816
  3819  0BEE  086D               	movf	___fladd@grs,w
  3820  0BEF  00E2               	movwf	??___fladd
  3821  0BF0  1003               	clrc
  3822  0BF1  0C62               	rrf	??___fladd,w
  3823  0BF2  3801               	iorlw	1
  3824  0BF3  00E3               	movwf	??___fladd+1
  3825  0BF4  0863               	movf	??___fladd+1,w
  3826  0BF5  00ED               	movwf	___fladd@grs
  3827  0BF6  2BF9               	goto	l1818
  3828  0BF7                     l1816:	
  3829  0BF7  1003               	clrc
  3830  0BF8  0CED               	rrf	___fladd@grs,f
  3831  0BF9                     l1818:	
  3832  0BF9  185A               	btfsc	___fladd@b,0
  3833  0BFA  17ED               	bsf	___fladd@grs,7
  3834  0BFB  3001               	movlw	1
  3835  0BFC  00E2               	movwf	??___fladd
  3836  0BFD                     u2005:	
  3837  0BFD  0D5D               	rlf	___fladd@b+3,w
  3838  0BFE  0CDD               	rrf	___fladd@b+3,f
  3839  0BFF  0CDC               	rrf	___fladd@b+2,f
  3840  0C00  0CDB               	rrf	___fladd@b+1,f
  3841  0C01  0CDA               	rrf	___fladd@b,f
  3842  0C02  0BE2               	decfsz	??___fladd& (0+127),f
  3843  0C03  2BFD               	goto	u2005
  3844  0C04  3001               	movlw	1
  3845  0C05  00E2               	movwf	??___fladd
  3846  0C06  0862               	movf	??___fladd,w
  3847  0C07  07EC               	addwf	___fladd@bexp,f
  3848  0C08  2CAB               	goto	l1860
  3849  0C09                     l1826:	
  3850  0C09  085D               	movf	___fladd@b+3,w
  3851  0C0A  3A80               	xorlw	128
  3852  0C0B  00FF               	movwf	127
  3853  0C0C  0861               	movf	___fladd@a+3,w
  3854  0C0D  3A80               	xorlw	128
  3855  0C0E  027F               	subwf	127,w
  3856  0C0F  1D03               	skipz
  3857  0C10  2C1B               	goto	u2013
  3858  0C11  0860               	movf	___fladd@a+2,w
  3859  0C12  025C               	subwf	___fladd@b+2,w
  3860  0C13  1D03               	skipz
  3861  0C14  2C1B               	goto	u2013
  3862  0C15  085F               	movf	___fladd@a+1,w
  3863  0C16  025B               	subwf	___fladd@b+1,w
  3864  0C17  1D03               	skipz
  3865  0C18  2C1B               	goto	u2013
  3866  0C19  085E               	movf	___fladd@a,w
  3867  0C1A  025A               	subwf	___fladd@b,w
  3868  0C1B                     u2013:	
  3869  0C1B  1803               	skipnc
  3870  0C1C  2C73               	goto	l1836
  3871  0C1D  30FF               	movlw	255
  3872  0C1E  00E2               	movwf	??___fladd
  3873  0C1F  30FF               	movlw	255
  3874  0C20  00E3               	movwf	??___fladd+1
  3875  0C21  30FF               	movlw	255
  3876  0C22  00E4               	movwf	??___fladd+2
  3877  0C23  30FF               	movlw	255
  3878  0C24  00E5               	movwf	??___fladd+3
  3879  0C25  085E               	movf	___fladd@a,w
  3880  0C26  00E6               	movwf	??___fladd+4
  3881  0C27  085F               	movf	___fladd@a+1,w
  3882  0C28  00E7               	movwf	??___fladd+5
  3883  0C29  0860               	movf	___fladd@a+2,w
  3884  0C2A  00E8               	movwf	??___fladd+6
  3885  0C2B  0861               	movf	___fladd@a+3,w
  3886  0C2C  00E9               	movwf	??___fladd+7
  3887  0C2D  085A               	movf	___fladd@b,w
  3888  0C2E  02E6               	subwf	??___fladd+4,f
  3889  0C2F  085B               	movf	___fladd@b+1,w
  3890  0C30  1C03               	skipc
  3891  0C31  0F5B               	incfsz	___fladd@b+1,w
  3892  0C32  2C34               	goto	u2021
  3893  0C33  2C35               	goto	u2022
  3894  0C34                     u2021:	
  3895  0C34  02E7               	subwf	??___fladd+5,f
  3896  0C35                     u2022:	
  3897  0C35  085C               	movf	___fladd@b+2,w
  3898  0C36  1C03               	skipc
  3899  0C37  0F5C               	incfsz	___fladd@b+2,w
  3900  0C38  2C3A               	goto	u2023
  3901  0C39  2C3B               	goto	u2024
  3902  0C3A                     u2023:	
  3903  0C3A  02E8               	subwf	??___fladd+6,f
  3904  0C3B                     u2024:	
  3905  0C3B  085D               	movf	___fladd@b+3,w
  3906  0C3C  1C03               	skipc
  3907  0C3D  0F5D               	incfsz	___fladd@b+3,w
  3908  0C3E  2C40               	goto	u2025
  3909  0C3F  2C41               	goto	u2026
  3910  0C40                     u2025:	
  3911  0C40  02E9               	subwf	??___fladd+7,f
  3912  0C41                     u2026:	
  3913  0C41  0866               	movf	??___fladd+4,w
  3914  0C42  07E2               	addwf	??___fladd,f
  3915  0C43  0867               	movf	??___fladd+5,w
  3916  0C44  1803               	skipnc
  3917  0C45  0F67               	incfsz	??___fladd+5,w
  3918  0C46  2C48               	goto	u2030
  3919  0C47  2C49               	goto	u2031
  3920  0C48                     u2030:	
  3921  0C48  07E3               	addwf	??___fladd+1,f
  3922  0C49                     u2031:	
  3923  0C49  0868               	movf	??___fladd+6,w
  3924  0C4A  1803               	skipnc
  3925  0C4B  0F68               	incfsz	??___fladd+6,w
  3926  0C4C  2C4E               	goto	u2032
  3927  0C4D  2C4F               	goto	u2033
  3928  0C4E                     u2032:	
  3929  0C4E  07E4               	addwf	??___fladd+2,f
  3930  0C4F                     u2033:	
  3931  0C4F  0869               	movf	??___fladd+7,w
  3932  0C50  1803               	skipnc
  3933  0C51  0A69               	incf	??___fladd+7,w
  3934  0C52  07E5               	addwf	??___fladd+3,f
  3935  0C53  0865               	movf	??___fladd+3,w
  3936  0C54  00DD               	movwf	___fladd@b+3
  3937  0C55  0864               	movf	??___fladd+2,w
  3938  0C56  00DC               	movwf	___fladd@b+2
  3939  0C57  0863               	movf	??___fladd+1,w
  3940  0C58  00DB               	movwf	___fladd@b+1
  3941  0C59  0862               	movf	??___fladd,w
  3942  0C5A  00DA               	movwf	___fladd@b
  3943  0C5B  3080               	movlw	128
  3944  0C5C  00E2               	movwf	??___fladd
  3945  0C5D  0862               	movf	??___fladd,w
  3946  0C5E  06EA               	xorwf	___fladd@signs,f
  3947  0C5F  09ED               	comf	___fladd@grs,f
  3948  0C60  0AED               	incf	___fladd@grs,f
  3949  0C61  086D               	movf	___fladd@grs,w
  3950  0C62  1D03               	btfss	3,2
  3951  0C63  2C81               	goto	l600
  3952  0C64  3001               	movlw	1
  3953  0C65  07DA               	addwf	___fladd@b,f
  3954  0C66  3000               	movlw	0
  3955  0C67  1803               	skipnc
  3956  0C68  3001               	movlw	1
  3957  0C69  07DB               	addwf	___fladd@b+1,f
  3958  0C6A  3000               	movlw	0
  3959  0C6B  1803               	skipnc
  3960  0C6C  3001               	movlw	1
  3961  0C6D  07DC               	addwf	___fladd@b+2,f
  3962  0C6E  3000               	movlw	0
  3963  0C6F  1803               	skipnc
  3964  0C70  3001               	movlw	1
  3965  0C71  07DD               	addwf	___fladd@b+3,f
  3966  0C72  2C81               	goto	l600
  3967  0C73                     l1836:	
  3968  0C73  085E               	movf	___fladd@a,w
  3969  0C74  02DA               	subwf	___fladd@b,f
  3970  0C75  085F               	movf	___fladd@a+1,w
  3971  0C76  1C03               	skipc
  3972  0C77  0F5F               	incfsz	___fladd@a+1,w
  3973  0C78  02DB               	subwf	___fladd@b+1,f
  3974  0C79  0860               	movf	___fladd@a+2,w
  3975  0C7A  1C03               	skipc
  3976  0C7B  0F60               	incfsz	___fladd@a+2,w
  3977  0C7C  02DC               	subwf	___fladd@b+2,f
  3978  0C7D  0861               	movf	___fladd@a+3,w
  3979  0C7E  1C03               	skipc
  3980  0C7F  0F61               	incfsz	___fladd@a+3,w
  3981  0C80  02DD               	subwf	___fladd@b+3,f
  3982  0C81                     l600:	
  3983  0C81  085D               	movf	___fladd@b+3,w
  3984  0C82  045C               	iorwf	___fladd@b+2,w
  3985  0C83  045B               	iorwf	___fladd@b+1,w
  3986  0C84  045A               	iorwf	___fladd@b,w
  3987  0C85  1D03               	skipz
  3988  0C86  2CA9               	goto	l1858
  3989  0C87  086D               	movf	___fladd@grs,w
  3990  0C88  1D03               	btfss	3,2
  3991  0C89  2CA9               	goto	l1858
  3992  0C8A  3000               	movlw	0
  3993  0C8B  00DD               	movwf	?___fladd+3
  3994  0C8C  3000               	movlw	0
  3995  0C8D  00DC               	movwf	?___fladd+2
  3996  0C8E  3000               	movlw	0
  3997  0C8F  00DB               	movwf	?___fladd+1
  3998  0C90  3000               	movlw	0
  3999  0C91  00DA               	movwf	?___fladd
  4000  0C92  0008               	return
  4001  0C93                     l1844:	
  4002  0C93  3001               	movlw	1
  4003  0C94  00E2               	movwf	??___fladd
  4004  0C95                     u2075:	
  4005  0C95  1003               	clrc
  4006  0C96  0DDA               	rlf	___fladd@b,f
  4007  0C97  0DDB               	rlf	___fladd@b+1,f
  4008  0C98  0DDC               	rlf	___fladd@b+2,f
  4009  0C99  0DDD               	rlf	___fladd@b+3,f
  4010  0C9A  0BE2               	decfsz	??___fladd,f
  4011  0C9B  2C95               	goto	u2075
  4012  0C9C  1BED               	btfsc	___fladd@grs,7
  4013  0C9D  145A               	bsf	___fladd@b,0
  4014  0C9E  1C6D               	btfss	___fladd@grs,0
  4015  0C9F  2CA2               	goto	l1852
  4016  0CA0  1403               	setc
  4017  0CA1  2CA3               	goto	L1
  4018  0CA2                     l1852:	
  4019  0CA2  1003               	clrc
  4020  0CA3                     L1:	
  4021  0CA3  0DED               	rlf	___fladd@grs,f
  4022  0CA4  086C               	movf	___fladd@bexp,w
  4023  0CA5  1903               	btfsc	3,2
  4024  0CA6  2CA9               	goto	l1858
  4025  0CA7  3001               	movlw	1
  4026  0CA8  02EC               	subwf	___fladd@bexp,f
  4027  0CA9                     l1858:	
  4028  0CA9  1FDC               	btfss	___fladd@b+2,7
  4029  0CAA  2C93               	goto	l1844
  4030  0CAB                     l1860:	
  4031  0CAB  01EB               	clrf	___fladd@aexp
  4032  0CAC  1FED               	btfss	___fladd@grs,7
  4033  0CAD  2CB6               	goto	l1870
  4034  0CAE  086D               	movf	___fladd@grs,w
  4035  0CAF  397F               	andlw	127
  4036  0CB0  1903               	btfsc	3,2
  4037  0CB1  185A               	btfsc	___fladd@b,0
  4038  0CB2  2CB4               	goto	l1866
  4039  0CB3  2CB6               	goto	l1870
  4040  0CB4                     l1866:	
  4041  0CB4  01EB               	clrf	___fladd@aexp
  4042  0CB5  0AEB               	incf	___fladd@aexp,f
  4043  0CB6                     l1870:	
  4044  0CB6  086B               	movf	___fladd@aexp,w
  4045  0CB7  1903               	btfsc	3,2
  4046  0CB8  2CE9               	goto	l613
  4047  0CB9  3001               	movlw	1
  4048  0CBA  07DA               	addwf	___fladd@b,f
  4049  0CBB  3000               	movlw	0
  4050  0CBC  1803               	skipnc
  4051  0CBD  3001               	movlw	1
  4052  0CBE  07DB               	addwf	___fladd@b+1,f
  4053  0CBF  3000               	movlw	0
  4054  0CC0  1803               	skipnc
  4055  0CC1  3001               	movlw	1
  4056  0CC2  07DC               	addwf	___fladd@b+2,f
  4057  0CC3  3000               	movlw	0
  4058  0CC4  1803               	skipnc
  4059  0CC5  3001               	movlw	1
  4060  0CC6  07DD               	addwf	___fladd@b+3,f
  4061  0CC7  1C5D               	btfss	___fladd@b+3,0
  4062  0CC8  2CE9               	goto	l613
  4063  0CC9  085A               	movf	___fladd@b,w
  4064  0CCA  00E2               	movwf	??___fladd
  4065  0CCB  085B               	movf	___fladd@b+1,w
  4066  0CCC  00E3               	movwf	??___fladd+1
  4067  0CCD  085C               	movf	___fladd@b+2,w
  4068  0CCE  00E4               	movwf	??___fladd+2
  4069  0CCF  085D               	movf	___fladd@b+3,w
  4070  0CD0  00E5               	movwf	??___fladd+3
  4071  0CD1  3001               	movlw	1
  4072  0CD2  00E6               	movwf	??___fladd+4
  4073  0CD3                     u2175:	
  4074  0CD3  0D65               	rlf	??___fladd+3,w
  4075  0CD4  0CE5               	rrf	??___fladd+3,f
  4076  0CD5  0CE4               	rrf	??___fladd+2,f
  4077  0CD6  0CE3               	rrf	??___fladd+1,f
  4078  0CD7  0CE2               	rrf	??___fladd,f
  4079  0CD8  0BE6               	decfsz	??___fladd+4,f
  4080  0CD9  2CD3               	goto	u2175
  4081  0CDA  0865               	movf	??___fladd+3,w
  4082  0CDB  00DD               	movwf	___fladd@b+3
  4083  0CDC  0864               	movf	??___fladd+2,w
  4084  0CDD  00DC               	movwf	___fladd@b+2
  4085  0CDE  0863               	movf	??___fladd+1,w
  4086  0CDF  00DB               	movwf	___fladd@b+1
  4087  0CE0  0862               	movf	??___fladd,w
  4088  0CE1  00DA               	movwf	___fladd@b
  4089  0CE2  0A6C               	incf	___fladd@bexp,w
  4090  0CE3  1903               	btfsc	3,2
  4091  0CE4  2CE9               	goto	l613
  4092  0CE5  3001               	movlw	1
  4093  0CE6  00E2               	movwf	??___fladd
  4094  0CE7  0862               	movf	??___fladd,w
  4095  0CE8  07EC               	addwf	___fladd@bexp,f
  4096  0CE9                     l613:	
  4097  0CE9  0A6C               	incf	___fladd@bexp,w
  4098  0CEA  1D03               	btfss	3,2
  4099  0CEB  086C               	movf	___fladd@bexp,w
  4100  0CEC  1D03               	btfss	3,2
  4101  0CED  2CF9               	goto	l1888
  4102  0CEE  3000               	movlw	0
  4103  0CEF  00DD               	movwf	___fladd@b+3
  4104  0CF0  3000               	movlw	0
  4105  0CF1  00DC               	movwf	___fladd@b+2
  4106  0CF2  3000               	movlw	0
  4107  0CF3  00DB               	movwf	___fladd@b+1
  4108  0CF4  3000               	movlw	0
  4109  0CF5  00DA               	movwf	___fladd@b
  4110  0CF6  086C               	movf	___fladd@bexp,w
  4111  0CF7  1903               	btfsc	3,2
  4112  0CF8  01EA               	clrf	___fladd@signs
  4113  0CF9                     l1888:	
  4114  0CF9  1C6C               	btfss	___fladd@bexp,0
  4115  0CFA  2CFD               	goto	l1892
  4116  0CFB  17DC               	bsf	___fladd@b+2,7
  4117  0CFC  2D01               	goto	l621
  4118  0CFD                     l1892:	
  4119  0CFD  307F               	movlw	127
  4120  0CFE  00E2               	movwf	??___fladd
  4121  0CFF  0862               	movf	??___fladd,w
  4122  0D00  05DC               	andwf	___fladd@b+2,f
  4123  0D01                     l621:	
  4124  0D01  086C               	movf	___fladd@bexp,w
  4125  0D02  00E2               	movwf	??___fladd
  4126  0D03  1003               	clrc
  4127  0D04  0C62               	rrf	??___fladd,w
  4128  0D05  00E3               	movwf	??___fladd+1
  4129  0D06  0863               	movf	??___fladd+1,w
  4130  0D07  00DD               	movwf	___fladd@b+3
  4131  0D08  1FEA               	btfss	___fladd@signs,7
  4132  0D09  0008               	return
  4133  0D0A  17DD               	bsf	___fladd@b+3,7
  4134  0D0B  0008               	return
  4135  0D0C                     __end_of___fladd:	
  4136                           
  4137                           	psect	text10
  4138  047C                     __ptext10:	
  4139 ;; *************** function ___flmul *****************
  4140 ;; Defined at:
  4141 ;;		line 8 in file "D:\Mplab X\xc8\pic\sources\c90\common\sprcmul.c"
  4142 ;; Parameters:    Size  Location     Type
  4143 ;;  b               4    6[BANK0 ] unsigned char 
  4144 ;;  a               4   10[BANK0 ] unsigned char 
  4145 ;; Auto vars:     Size  Location     Type
  4146 ;;  prod            4   26[BANK0 ] struct .
  4147 ;;  grs             4   20[BANK0 ] unsigned long 
  4148 ;;  temp            2   30[BANK0 ] struct .
  4149 ;;  bexp            1   25[BANK0 ] unsigned char 
  4150 ;;  aexp            1   24[BANK0 ] unsigned char 
  4151 ;;  sign            1   19[BANK0 ] unsigned char 
  4152 ;; Return value:  Size  Location     Type
  4153 ;;                  4    6[BANK0 ] unsigned char 
  4154 ;; Registers used:
  4155 ;;		wreg, status,2, status,0, btemp+1, pclath, cstack
  4156 ;; Tracked objects:
  4157 ;;		On entry : 0/0
  4158 ;;		On exit  : 0/0
  4159 ;;		Unchanged: 0/0
  4160 ;; Data sizes:     COMMON   BANK0   BANK1   BANK3   BANK2
  4161 ;;      Params:         0       8       0       0       0
  4162 ;;      Locals:         0      13       0       0       0
  4163 ;;      Temps:          0       5       0       0       0
  4164 ;;      Totals:         0      26       0       0       0
  4165 ;;Total ram usage:       26 bytes
  4166 ;; Hardware stack levels used:    1
  4167 ;; Hardware stack levels required when called:    2
  4168 ;; This function calls:
  4169 ;;		__Umul8_16
  4170 ;; This function is called by:
  4171 ;;		_main
  4172 ;;		_PID_Init
  4173 ;; This function uses a non-reentrant model
  4174 ;;
  4175                           
  4176                           
  4177                           ;psect for function ___flmul
  4178  047C                     ___flmul:	
  4179                           
  4180                           ;incstack = 0
  4181                           ; Regs used in ___flmul: [wreg+status,2+status,0+btemp+1+pclath+cstack]
  4182  047C  1283               	bcf	3,5	;RP0=0, select bank0
  4183  047D  1303               	bcf	3,6	;RP1=0, select bank0
  4184  047E  0829               	movf	___flmul@b+3,w
  4185  047F  3980               	andlw	128
  4186  0480  00AE               	movwf	??___flmul
  4187  0481  082E               	movf	??___flmul,w
  4188  0482  00B3               	movwf	___flmul@sign
  4189  0483  0829               	movf	___flmul@b+3,w
  4190  0484  00AE               	movwf	??___flmul
  4191  0485  072E               	addwf	??___flmul,w
  4192  0486  00AF               	movwf	??___flmul+1
  4193  0487  082F               	movf	??___flmul+1,w
  4194  0488  00B9               	movwf	___flmul@bexp
  4195  0489  1BA8               	btfsc	___flmul@b+2,7
  4196  048A  1439               	bsf	___flmul@bexp,0
  4197  048B  0839               	movf	___flmul@bexp,w
  4198  048C  1903               	btfsc	3,2
  4199  048D  2C9B               	goto	l2166
  4200  048E  0A39               	incf	___flmul@bexp,w
  4201  048F  1D03               	btfss	3,2
  4202  0490  2C99               	goto	l2164
  4203  0491  3000               	movlw	0
  4204  0492  00A9               	movwf	___flmul@b+3
  4205  0493  3000               	movlw	0
  4206  0494  00A8               	movwf	___flmul@b+2
  4207  0495  3000               	movlw	0
  4208  0496  00A7               	movwf	___flmul@b+1
  4209  0497  3000               	movlw	0
  4210  0498  00A6               	movwf	___flmul@b
  4211  0499                     l2164:	
  4212  0499  17A8               	bsf	___flmul@b+2,7
  4213  049A  2CA3               	goto	l2168
  4214  049B                     l2166:	
  4215  049B  3000               	movlw	0
  4216  049C  00A9               	movwf	___flmul@b+3
  4217  049D  3000               	movlw	0
  4218  049E  00A8               	movwf	___flmul@b+2
  4219  049F  3000               	movlw	0
  4220  04A0  00A7               	movwf	___flmul@b+1
  4221  04A1  3000               	movlw	0
  4222  04A2  00A6               	movwf	___flmul@b
  4223  04A3                     l2168:	
  4224  04A3  082D               	movf	___flmul@a+3,w
  4225  04A4  3980               	andlw	128
  4226  04A5  00AE               	movwf	??___flmul
  4227  04A6  082E               	movf	??___flmul,w
  4228  04A7  06B3               	xorwf	___flmul@sign,f
  4229  04A8  082D               	movf	___flmul@a+3,w
  4230  04A9  00AE               	movwf	??___flmul
  4231  04AA  072E               	addwf	??___flmul,w
  4232  04AB  00AF               	movwf	??___flmul+1
  4233  04AC  082F               	movf	??___flmul+1,w
  4234  04AD  00B8               	movwf	___flmul@aexp
  4235  04AE  1BAC               	btfsc	___flmul@a+2,7
  4236  04AF  1438               	bsf	___flmul@aexp,0
  4237  04B0  0838               	movf	___flmul@aexp,w
  4238  04B1  1903               	btfsc	3,2
  4239  04B2  2CC0               	goto	l2184
  4240  04B3  0A38               	incf	___flmul@aexp,w
  4241  04B4  1D03               	btfss	3,2
  4242  04B5  2CBE               	goto	l2182
  4243  04B6  3000               	movlw	0
  4244  04B7  00AD               	movwf	___flmul@a+3
  4245  04B8  3000               	movlw	0
  4246  04B9  00AC               	movwf	___flmul@a+2
  4247  04BA  3000               	movlw	0
  4248  04BB  00AB               	movwf	___flmul@a+1
  4249  04BC  3000               	movlw	0
  4250  04BD  00AA               	movwf	___flmul@a
  4251  04BE                     l2182:	
  4252  04BE  17AC               	bsf	___flmul@a+2,7
  4253  04BF  2CC8               	goto	l2186
  4254  04C0                     l2184:	
  4255  04C0  3000               	movlw	0
  4256  04C1  00AD               	movwf	___flmul@a+3
  4257  04C2  3000               	movlw	0
  4258  04C3  00AC               	movwf	___flmul@a+2
  4259  04C4  3000               	movlw	0
  4260  04C5  00AB               	movwf	___flmul@a+1
  4261  04C6  3000               	movlw	0
  4262  04C7  00AA               	movwf	___flmul@a
  4263  04C8                     l2186:	
  4264  04C8  0838               	movf	___flmul@aexp,w
  4265  04C9  1D03               	btfss	3,2
  4266  04CA  0839               	movf	___flmul@bexp,w
  4267  04CB  1D03               	btfss	3,2
  4268  04CC  2CD6               	goto	l2194
  4269  04CD  3000               	movlw	0
  4270  04CE  00A9               	movwf	?___flmul+3
  4271  04CF  3000               	movlw	0
  4272  04D0  00A8               	movwf	?___flmul+2
  4273  04D1  3000               	movlw	0
  4274  04D2  00A7               	movwf	?___flmul+1
  4275  04D3  3000               	movlw	0
  4276  04D4  00A6               	movwf	?___flmul
  4277  04D5  0008               	return
  4278  04D6                     l2194:	
  4279  04D6  0826               	movf	___flmul@b,w
  4280  04D7  00AE               	movwf	??___flmul
  4281  04D8  082E               	movf	??___flmul,w
  4282  04D9  00F2               	movwf	__Umul8_16@multiplicand
  4283  04DA  082C               	movf	___flmul@a+2,w
  4284  04DB  160A  118A  263A  120A  118A  	fcall	__Umul8_16
  4285  04E0  0873               	movf	?__Umul8_16+1,w
  4286  04E1  1283               	bcf	3,5	;RP0=0, select bank0
  4287  04E2  1303               	bcf	3,6	;RP1=0, select bank0
  4288  04E3  00BF               	movwf	___flmul@temp+1
  4289  04E4  0872               	movf	?__Umul8_16,w
  4290  04E5  00BE               	movwf	___flmul@temp
  4291  04E6  083E               	movf	___flmul@temp,w
  4292  04E7  00AE               	movwf	??___flmul
  4293  04E8  01AF               	clrf	??___flmul+1
  4294  04E9  01B0               	clrf	??___flmul+2
  4295  04EA  01B1               	clrf	??___flmul+3
  4296  04EB  0831               	movf	??___flmul+3,w
  4297  04EC  00B7               	movwf	___flmul@grs+3
  4298  04ED  0830               	movf	??___flmul+2,w
  4299  04EE  00B6               	movwf	___flmul@grs+2
  4300  04EF  082F               	movf	??___flmul+1,w
  4301  04F0  00B5               	movwf	___flmul@grs+1
  4302  04F1  082E               	movf	??___flmul,w
  4303  04F2  00B4               	movwf	___flmul@grs
  4304  04F3  083F               	movf	___flmul@temp+1,w
  4305  04F4  00AE               	movwf	??___flmul
  4306  04F5  01AF               	clrf	??___flmul+1
  4307  04F6  01B0               	clrf	??___flmul+2
  4308  04F7  01B1               	clrf	??___flmul+3
  4309  04F8  0831               	movf	??___flmul+3,w
  4310  04F9  00BD               	movwf	___flmul@prod+3
  4311  04FA  0830               	movf	??___flmul+2,w
  4312  04FB  00BC               	movwf	___flmul@prod+2
  4313  04FC  082F               	movf	??___flmul+1,w
  4314  04FD  00BB               	movwf	___flmul@prod+1
  4315  04FE  082E               	movf	??___flmul,w
  4316  04FF  00BA               	movwf	___flmul@prod
  4317  0500  0827               	movf	___flmul@b+1,w
  4318  0501  00AE               	movwf	??___flmul
  4319  0502  082E               	movf	??___flmul,w
  4320  0503  00F2               	movwf	__Umul8_16@multiplicand
  4321  0504  082B               	movf	___flmul@a+1,w
  4322  0505  160A  118A  263A  120A  118A  	fcall	__Umul8_16
  4323  050A  0873               	movf	?__Umul8_16+1,w
  4324  050B  1283               	bcf	3,5	;RP0=0, select bank0
  4325  050C  1303               	bcf	3,6	;RP1=0, select bank0
  4326  050D  00BF               	movwf	___flmul@temp+1
  4327  050E  0872               	movf	?__Umul8_16,w
  4328  050F  00BE               	movwf	___flmul@temp
  4329  0510  083E               	movf	___flmul@temp,w
  4330  0511  00AE               	movwf	??___flmul
  4331  0512  01AF               	clrf	??___flmul+1
  4332  0513  01B0               	clrf	??___flmul+2
  4333  0514  01B1               	clrf	??___flmul+3
  4334  0515  082E               	movf	??___flmul,w
  4335  0516  07B4               	addwf	___flmul@grs,f
  4336  0517  082F               	movf	??___flmul+1,w
  4337  0518  1103               	clrz
  4338  0519  1803               	skipnc
  4339  051A  3E01               	addlw	1
  4340  051B  1D03               	btfss	3,2
  4341  051C  07B5               	addwf	___flmul@grs+1,f
  4342  051D  0830               	movf	??___flmul+2,w
  4343  051E  1103               	clrz
  4344  051F  1803               	skipnc
  4345  0520  3E01               	addlw	1
  4346  0521  1D03               	btfss	3,2
  4347  0522  07B6               	addwf	___flmul@grs+2,f
  4348  0523  0831               	movf	??___flmul+3,w
  4349  0524  1103               	clrz
  4350  0525  1803               	skipnc
  4351  0526  3E01               	addlw	1
  4352  0527  1D03               	btfss	3,2
  4353  0528  07B7               	addwf	___flmul@grs+3,f
  4354  0529  083F               	movf	___flmul@temp+1,w
  4355  052A  00AE               	movwf	??___flmul
  4356  052B  01AF               	clrf	??___flmul+1
  4357  052C  01B0               	clrf	??___flmul+2
  4358  052D  01B1               	clrf	??___flmul+3
  4359  052E  082E               	movf	??___flmul,w
  4360  052F  07BA               	addwf	___flmul@prod,f
  4361  0530  082F               	movf	??___flmul+1,w
  4362  0531  1103               	clrz
  4363  0532  1803               	skipnc
  4364  0533  3E01               	addlw	1
  4365  0534  1D03               	btfss	3,2
  4366  0535  07BB               	addwf	___flmul@prod+1,f
  4367  0536  0830               	movf	??___flmul+2,w
  4368  0537  1103               	clrz
  4369  0538  1803               	skipnc
  4370  0539  3E01               	addlw	1
  4371  053A  1D03               	btfss	3,2
  4372  053B  07BC               	addwf	___flmul@prod+2,f
  4373  053C  0831               	movf	??___flmul+3,w
  4374  053D  1103               	clrz
  4375  053E  1803               	skipnc
  4376  053F  3E01               	addlw	1
  4377  0540  1D03               	btfss	3,2
  4378  0541  07BD               	addwf	___flmul@prod+3,f
  4379  0542  0828               	movf	___flmul@b+2,w
  4380  0543  00AE               	movwf	??___flmul
  4381  0544  082E               	movf	??___flmul,w
  4382  0545  00F2               	movwf	__Umul8_16@multiplicand
  4383  0546  082A               	movf	___flmul@a,w
  4384  0547  160A  118A  263A  120A  118A  	fcall	__Umul8_16
  4385  054C  0873               	movf	?__Umul8_16+1,w
  4386  054D  1283               	bcf	3,5	;RP0=0, select bank0
  4387  054E  1303               	bcf	3,6	;RP1=0, select bank0
  4388  054F  00BF               	movwf	___flmul@temp+1
  4389  0550  0872               	movf	?__Umul8_16,w
  4390  0551  00BE               	movwf	___flmul@temp
  4391  0552  083E               	movf	___flmul@temp,w
  4392  0553  00AE               	movwf	??___flmul
  4393  0554  01AF               	clrf	??___flmul+1
  4394  0555  01B0               	clrf	??___flmul+2
  4395  0556  01B1               	clrf	??___flmul+3
  4396  0557  082E               	movf	??___flmul,w
  4397  0558  07B4               	addwf	___flmul@grs,f
  4398  0559  082F               	movf	??___flmul+1,w
  4399  055A  1103               	clrz
  4400  055B  1803               	skipnc
  4401  055C  3E01               	addlw	1
  4402  055D  1D03               	btfss	3,2
  4403  055E  07B5               	addwf	___flmul@grs+1,f
  4404  055F  0830               	movf	??___flmul+2,w
  4405  0560  1103               	clrz
  4406  0561  1803               	skipnc
  4407  0562  3E01               	addlw	1
  4408  0563  1D03               	btfss	3,2
  4409  0564  07B6               	addwf	___flmul@grs+2,f
  4410  0565  0831               	movf	??___flmul+3,w
  4411  0566  1103               	clrz
  4412  0567  1803               	skipnc
  4413  0568  3E01               	addlw	1
  4414  0569  1D03               	btfss	3,2
  4415  056A  07B7               	addwf	___flmul@grs+3,f
  4416  056B  083F               	movf	___flmul@temp+1,w
  4417  056C  00AE               	movwf	??___flmul
  4418  056D  01AF               	clrf	??___flmul+1
  4419  056E  01B0               	clrf	??___flmul+2
  4420  056F  01B1               	clrf	??___flmul+3
  4421  0570  082E               	movf	??___flmul,w
  4422  0571  07BA               	addwf	___flmul@prod,f
  4423  0572  082F               	movf	??___flmul+1,w
  4424  0573  1103               	clrz
  4425  0574  1803               	skipnc
  4426  0575  3E01               	addlw	1
  4427  0576  1D03               	btfss	3,2
  4428  0577  07BB               	addwf	___flmul@prod+1,f
  4429  0578  0830               	movf	??___flmul+2,w
  4430  0579  1103               	clrz
  4431  057A  1803               	skipnc
  4432  057B  3E01               	addlw	1
  4433  057C  1D03               	btfss	3,2
  4434  057D  07BC               	addwf	___flmul@prod+2,f
  4435  057E  0831               	movf	??___flmul+3,w
  4436  057F  1103               	clrz
  4437  0580  1803               	skipnc
  4438  0581  3E01               	addlw	1
  4439  0582  1D03               	btfss	3,2
  4440  0583  07BD               	addwf	___flmul@prod+3,f
  4441  0584  3008               	movlw	8
  4442  0585  00AE               	movwf	??___flmul
  4443  0586                     u2865:	
  4444  0586  1003               	clrc
  4445  0587  0DB4               	rlf	___flmul@grs,f
  4446  0588  0DB5               	rlf	___flmul@grs+1,f
  4447  0589  0DB6               	rlf	___flmul@grs+2,f
  4448  058A  0DB7               	rlf	___flmul@grs+3,f
  4449  058B  0BAE               	decfsz	??___flmul,f
  4450  058C  2D86               	goto	u2865
  4451  058D  0827               	movf	___flmul@b+1,w
  4452  058E  00AE               	movwf	??___flmul
  4453  058F  082E               	movf	??___flmul,w
  4454  0590  00F2               	movwf	__Umul8_16@multiplicand
  4455  0591  082A               	movf	___flmul@a,w
  4456  0592  160A  118A  263A  120A  118A  	fcall	__Umul8_16
  4457  0597  0873               	movf	?__Umul8_16+1,w
  4458  0598  1283               	bcf	3,5	;RP0=0, select bank0
  4459  0599  1303               	bcf	3,6	;RP1=0, select bank0
  4460  059A  00BF               	movwf	___flmul@temp+1
  4461  059B  0872               	movf	?__Umul8_16,w
  4462  059C  00BE               	movwf	___flmul@temp
  4463  059D  083E               	movf	___flmul@temp,w
  4464  059E  00AE               	movwf	??___flmul
  4465  059F  083F               	movf	___flmul@temp+1,w
  4466  05A0  00AF               	movwf	??___flmul+1
  4467  05A1  01B0               	clrf	??___flmul+2
  4468  05A2  01B1               	clrf	??___flmul+3
  4469  05A3  082E               	movf	??___flmul,w
  4470  05A4  07B4               	addwf	___flmul@grs,f
  4471  05A5  082F               	movf	??___flmul+1,w
  4472  05A6  1103               	clrz
  4473  05A7  1803               	skipnc
  4474  05A8  3E01               	addlw	1
  4475  05A9  1D03               	btfss	3,2
  4476  05AA  07B5               	addwf	___flmul@grs+1,f
  4477  05AB  0830               	movf	??___flmul+2,w
  4478  05AC  1103               	clrz
  4479  05AD  1803               	skipnc
  4480  05AE  3E01               	addlw	1
  4481  05AF  1D03               	btfss	3,2
  4482  05B0  07B6               	addwf	___flmul@grs+2,f
  4483  05B1  0831               	movf	??___flmul+3,w
  4484  05B2  1103               	clrz
  4485  05B3  1803               	skipnc
  4486  05B4  3E01               	addlw	1
  4487  05B5  1D03               	btfss	3,2
  4488  05B6  07B7               	addwf	___flmul@grs+3,f
  4489  05B7  0826               	movf	___flmul@b,w
  4490  05B8  00AE               	movwf	??___flmul
  4491  05B9  082E               	movf	??___flmul,w
  4492  05BA  00F2               	movwf	__Umul8_16@multiplicand
  4493  05BB  082B               	movf	___flmul@a+1,w
  4494  05BC  160A  118A  263A  120A  118A  	fcall	__Umul8_16
  4495  05C1  0873               	movf	?__Umul8_16+1,w
  4496  05C2  1283               	bcf	3,5	;RP0=0, select bank0
  4497  05C3  1303               	bcf	3,6	;RP1=0, select bank0
  4498  05C4  00BF               	movwf	___flmul@temp+1
  4499  05C5  0872               	movf	?__Umul8_16,w
  4500  05C6  00BE               	movwf	___flmul@temp
  4501  05C7  083E               	movf	___flmul@temp,w
  4502  05C8  00AE               	movwf	??___flmul
  4503  05C9  083F               	movf	___flmul@temp+1,w
  4504  05CA  00AF               	movwf	??___flmul+1
  4505  05CB  01B0               	clrf	??___flmul+2
  4506  05CC  01B1               	clrf	??___flmul+3
  4507  05CD  082E               	movf	??___flmul,w
  4508  05CE  07B4               	addwf	___flmul@grs,f
  4509  05CF  082F               	movf	??___flmul+1,w
  4510  05D0  1103               	clrz
  4511  05D1  1803               	skipnc
  4512  05D2  3E01               	addlw	1
  4513  05D3  1D03               	btfss	3,2
  4514  05D4  07B5               	addwf	___flmul@grs+1,f
  4515  05D5  0830               	movf	??___flmul+2,w
  4516  05D6  1103               	clrz
  4517  05D7  1803               	skipnc
  4518  05D8  3E01               	addlw	1
  4519  05D9  1D03               	btfss	3,2
  4520  05DA  07B6               	addwf	___flmul@grs+2,f
  4521  05DB  0831               	movf	??___flmul+3,w
  4522  05DC  1103               	clrz
  4523  05DD  1803               	skipnc
  4524  05DE  3E01               	addlw	1
  4525  05DF  1D03               	btfss	3,2
  4526  05E0  07B7               	addwf	___flmul@grs+3,f
  4527  05E1  3008               	movlw	8
  4528  05E2  00AE               	movwf	??___flmul
  4529  05E3                     u2895:	
  4530  05E3  1003               	clrc
  4531  05E4  0DB4               	rlf	___flmul@grs,f
  4532  05E5  0DB5               	rlf	___flmul@grs+1,f
  4533  05E6  0DB6               	rlf	___flmul@grs+2,f
  4534  05E7  0DB7               	rlf	___flmul@grs+3,f
  4535  05E8  0BAE               	decfsz	??___flmul,f
  4536  05E9  2DE3               	goto	u2895
  4537  05EA  0826               	movf	___flmul@b,w
  4538  05EB  00AE               	movwf	??___flmul
  4539  05EC  082E               	movf	??___flmul,w
  4540  05ED  00F2               	movwf	__Umul8_16@multiplicand
  4541  05EE  082A               	movf	___flmul@a,w
  4542  05EF  160A  118A  263A  120A  118A  	fcall	__Umul8_16
  4543  05F4  0873               	movf	?__Umul8_16+1,w
  4544  05F5  1283               	bcf	3,5	;RP0=0, select bank0
  4545  05F6  1303               	bcf	3,6	;RP1=0, select bank0
  4546  05F7  00BF               	movwf	___flmul@temp+1
  4547  05F8  0872               	movf	?__Umul8_16,w
  4548  05F9  00BE               	movwf	___flmul@temp
  4549  05FA  083E               	movf	___flmul@temp,w
  4550  05FB  00AE               	movwf	??___flmul
  4551  05FC  083F               	movf	___flmul@temp+1,w
  4552  05FD  00AF               	movwf	??___flmul+1
  4553  05FE  01B0               	clrf	??___flmul+2
  4554  05FF  01B1               	clrf	??___flmul+3
  4555  0600  082E               	movf	??___flmul,w
  4556  0601  07B4               	addwf	___flmul@grs,f
  4557  0602  082F               	movf	??___flmul+1,w
  4558  0603  1103               	clrz
  4559  0604  1803               	skipnc
  4560  0605  3E01               	addlw	1
  4561  0606  1D03               	btfss	3,2
  4562  0607  07B5               	addwf	___flmul@grs+1,f
  4563  0608  0830               	movf	??___flmul+2,w
  4564  0609  1103               	clrz
  4565  060A  1803               	skipnc
  4566  060B  3E01               	addlw	1
  4567  060C  1D03               	btfss	3,2
  4568  060D  07B6               	addwf	___flmul@grs+2,f
  4569  060E  0831               	movf	??___flmul+3,w
  4570  060F  1103               	clrz
  4571  0610  1803               	skipnc
  4572  0611  3E01               	addlw	1
  4573  0612  1D03               	btfss	3,2
  4574  0613  07B7               	addwf	___flmul@grs+3,f
  4575  0614  0827               	movf	___flmul@b+1,w
  4576  0615  00AE               	movwf	??___flmul
  4577  0616  082E               	movf	??___flmul,w
  4578  0617  00F2               	movwf	__Umul8_16@multiplicand
  4579  0618  082C               	movf	___flmul@a+2,w
  4580  0619  160A  118A  263A  120A  118A  	fcall	__Umul8_16
  4581  061E  0873               	movf	?__Umul8_16+1,w
  4582  061F  1283               	bcf	3,5	;RP0=0, select bank0
  4583  0620  1303               	bcf	3,6	;RP1=0, select bank0
  4584  0621  00BF               	movwf	___flmul@temp+1
  4585  0622  0872               	movf	?__Umul8_16,w
  4586  0623  00BE               	movwf	___flmul@temp
  4587  0624  083E               	movf	___flmul@temp,w
  4588  0625  00AE               	movwf	??___flmul
  4589  0626  083F               	movf	___flmul@temp+1,w
  4590  0627  00AF               	movwf	??___flmul+1
  4591  0628  01B0               	clrf	??___flmul+2
  4592  0629  01B1               	clrf	??___flmul+3
  4593  062A  082E               	movf	??___flmul,w
  4594  062B  07BA               	addwf	___flmul@prod,f
  4595  062C  082F               	movf	??___flmul+1,w
  4596  062D  1103               	clrz
  4597  062E  1803               	skipnc
  4598  062F  3E01               	addlw	1
  4599  0630  1D03               	btfss	3,2
  4600  0631  07BB               	addwf	___flmul@prod+1,f
  4601  0632  0830               	movf	??___flmul+2,w
  4602  0633  1103               	clrz
  4603  0634  1803               	skipnc
  4604  0635  3E01               	addlw	1
  4605  0636  1D03               	btfss	3,2
  4606  0637  07BC               	addwf	___flmul@prod+2,f
  4607  0638  0831               	movf	??___flmul+3,w
  4608  0639  1103               	clrz
  4609  063A  1803               	skipnc
  4610  063B  3E01               	addlw	1
  4611  063C  1D03               	btfss	3,2
  4612  063D  07BD               	addwf	___flmul@prod+3,f
  4613  063E  0828               	movf	___flmul@b+2,w
  4614  063F  00AE               	movwf	??___flmul
  4615  0640  082E               	movf	??___flmul,w
  4616  0641  00F2               	movwf	__Umul8_16@multiplicand
  4617  0642  082B               	movf	___flmul@a+1,w
  4618  0643  160A  118A  263A  120A  118A  	fcall	__Umul8_16
  4619  0648  0873               	movf	?__Umul8_16+1,w
  4620  0649  1283               	bcf	3,5	;RP0=0, select bank0
  4621  064A  1303               	bcf	3,6	;RP1=0, select bank0
  4622  064B  00BF               	movwf	___flmul@temp+1
  4623  064C  0872               	movf	?__Umul8_16,w
  4624  064D  00BE               	movwf	___flmul@temp
  4625  064E  083E               	movf	___flmul@temp,w
  4626  064F  00AE               	movwf	??___flmul
  4627  0650  083F               	movf	___flmul@temp+1,w
  4628  0651  00AF               	movwf	??___flmul+1
  4629  0652  01B0               	clrf	??___flmul+2
  4630  0653  01B1               	clrf	??___flmul+3
  4631  0654  082E               	movf	??___flmul,w
  4632  0655  07BA               	addwf	___flmul@prod,f
  4633  0656  082F               	movf	??___flmul+1,w
  4634  0657  1103               	clrz
  4635  0658  1803               	skipnc
  4636  0659  3E01               	addlw	1
  4637  065A  1D03               	btfss	3,2
  4638  065B  07BB               	addwf	___flmul@prod+1,f
  4639  065C  0830               	movf	??___flmul+2,w
  4640  065D  1103               	clrz
  4641  065E  1803               	skipnc
  4642  065F  3E01               	addlw	1
  4643  0660  1D03               	btfss	3,2
  4644  0661  07BC               	addwf	___flmul@prod+2,f
  4645  0662  0831               	movf	??___flmul+3,w
  4646  0663  1103               	clrz
  4647  0664  1803               	skipnc
  4648  0665  3E01               	addlw	1
  4649  0666  1D03               	btfss	3,2
  4650  0667  07BD               	addwf	___flmul@prod+3,f
  4651  0668  0828               	movf	___flmul@b+2,w
  4652  0669  00AE               	movwf	??___flmul
  4653  066A  082E               	movf	??___flmul,w
  4654  066B  00F2               	movwf	__Umul8_16@multiplicand
  4655  066C  082C               	movf	___flmul@a+2,w
  4656  066D  160A  118A  263A  120A  118A  	fcall	__Umul8_16
  4657  0672  0873               	movf	?__Umul8_16+1,w
  4658  0673  1283               	bcf	3,5	;RP0=0, select bank0
  4659  0674  1303               	bcf	3,6	;RP1=0, select bank0
  4660  0675  00BF               	movwf	___flmul@temp+1
  4661  0676  0872               	movf	?__Umul8_16,w
  4662  0677  00BE               	movwf	___flmul@temp
  4663  0678  083E               	movf	___flmul@temp,w
  4664  0679  00AE               	movwf	??___flmul
  4665  067A  083F               	movf	___flmul@temp+1,w
  4666  067B  00AF               	movwf	??___flmul+1
  4667  067C  01B0               	clrf	??___flmul+2
  4668  067D  01B1               	clrf	??___flmul+3
  4669  067E  3008               	movlw	8
  4670  067F                     u2935:	
  4671  067F  1003               	clrc
  4672  0680  0DAE               	rlf	??___flmul,f
  4673  0681  0DAF               	rlf	??___flmul+1,f
  4674  0682  0DB0               	rlf	??___flmul+2,f
  4675  0683  0DB1               	rlf	??___flmul+3,f
  4676  0684  3EFF               	addlw	-1
  4677  0685  1D03               	skipz
  4678  0686  2E7F               	goto	u2935
  4679  0687  082E               	movf	??___flmul,w
  4680  0688  07BA               	addwf	___flmul@prod,f
  4681  0689  082F               	movf	??___flmul+1,w
  4682  068A  1103               	clrz
  4683  068B  1803               	skipnc
  4684  068C  3E01               	addlw	1
  4685  068D  1D03               	btfss	3,2
  4686  068E  07BB               	addwf	___flmul@prod+1,f
  4687  068F  0830               	movf	??___flmul+2,w
  4688  0690  1103               	clrz
  4689  0691  1803               	skipnc
  4690  0692  3E01               	addlw	1
  4691  0693  1D03               	btfss	3,2
  4692  0694  07BC               	addwf	___flmul@prod+2,f
  4693  0695  0831               	movf	??___flmul+3,w
  4694  0696  1103               	clrz
  4695  0697  1803               	skipnc
  4696  0698  3E01               	addlw	1
  4697  0699  1D03               	btfss	3,2
  4698  069A  07BD               	addwf	___flmul@prod+3,f
  4699  069B  0834               	movf	___flmul@grs,w
  4700  069C  00AE               	movwf	??___flmul
  4701  069D  0835               	movf	___flmul@grs+1,w
  4702  069E  00AF               	movwf	??___flmul+1
  4703  069F  0836               	movf	___flmul@grs+2,w
  4704  06A0  00B0               	movwf	??___flmul+2
  4705  06A1  0837               	movf	___flmul@grs+3,w
  4706  06A2  00B1               	movwf	??___flmul+3
  4707  06A3  3018               	movlw	24
  4708  06A4                     u2955:	
  4709  06A4  1003               	clrc
  4710  06A5  0CB1               	rrf	??___flmul+3,f
  4711  06A6  0CB0               	rrf	??___flmul+2,f
  4712  06A7  0CAF               	rrf	??___flmul+1,f
  4713  06A8  0CAE               	rrf	??___flmul,f
  4714  06A9  3EFF               	addlw	-1
  4715  06AA  1D03               	skipz
  4716  06AB  2EA4               	goto	u2955
  4717  06AC  082E               	movf	??___flmul,w
  4718  06AD  07BA               	addwf	___flmul@prod,f
  4719  06AE  082F               	movf	??___flmul+1,w
  4720  06AF  1103               	clrz
  4721  06B0  1803               	skipnc
  4722  06B1  3E01               	addlw	1
  4723  06B2  1D03               	btfss	3,2
  4724  06B3  07BB               	addwf	___flmul@prod+1,f
  4725  06B4  0830               	movf	??___flmul+2,w
  4726  06B5  1103               	clrz
  4727  06B6  1803               	skipnc
  4728  06B7  3E01               	addlw	1
  4729  06B8  1D03               	btfss	3,2
  4730  06B9  07BC               	addwf	___flmul@prod+2,f
  4731  06BA  0831               	movf	??___flmul+3,w
  4732  06BB  1103               	clrz
  4733  06BC  1803               	skipnc
  4734  06BD  3E01               	addlw	1
  4735  06BE  1D03               	btfss	3,2
  4736  06BF  07BD               	addwf	___flmul@prod+3,f
  4737  06C0  3008               	movlw	8
  4738  06C1  00AE               	movwf	??___flmul
  4739  06C2                     u2975:	
  4740  06C2  1003               	clrc
  4741  06C3  0DB4               	rlf	___flmul@grs,f
  4742  06C4  0DB5               	rlf	___flmul@grs+1,f
  4743  06C5  0DB6               	rlf	___flmul@grs+2,f
  4744  06C6  0DB7               	rlf	___flmul@grs+3,f
  4745  06C7  0BAE               	decfsz	??___flmul,f
  4746  06C8  2EC2               	goto	u2975
  4747  06C9  0839               	movf	___flmul@bexp,w
  4748  06CA  0738               	addwf	___flmul@aexp,w
  4749  06CB  00AE               	movwf	??___flmul
  4750  06CC  01AF               	clrf	??___flmul+1
  4751  06CD  0DAF               	rlf	??___flmul+1,f
  4752  06CE  082E               	movf	??___flmul,w
  4753  06CF  3E82               	addlw	130
  4754  06D0  00BE               	movwf	___flmul@temp
  4755  06D1  082F               	movf	??___flmul+1,w
  4756  06D2  1803               	skipnc
  4757  06D3  3E01               	addlw	1
  4758  06D4  3EFF               	addlw	255
  4759  06D5  00BF               	movwf	___flmul@temp+1
  4760  06D6                     l2246:	
  4761  06D6  1BBC               	btfsc	___flmul@prod+2,7
  4762  06D7  2EF3               	goto	l2248
  4763  06D8  3001               	movlw	1
  4764  06D9  00AE               	movwf	??___flmul
  4765  06DA                     u2985:	
  4766  06DA  1003               	clrc
  4767  06DB  0DBA               	rlf	___flmul@prod,f
  4768  06DC  0DBB               	rlf	___flmul@prod+1,f
  4769  06DD  0DBC               	rlf	___flmul@prod+2,f
  4770  06DE  0DBD               	rlf	___flmul@prod+3,f
  4771  06DF  0BAE               	decfsz	??___flmul,f
  4772  06E0  2EDA               	goto	u2985
  4773  06E1  1BB7               	btfsc	___flmul@grs+3,7
  4774  06E2  143A               	bsf	___flmul@prod,0
  4775  06E3  3001               	movlw	1
  4776  06E4  00AE               	movwf	??___flmul
  4777  06E5                     u3005:	
  4778  06E5  1003               	clrc
  4779  06E6  0DB4               	rlf	___flmul@grs,f
  4780  06E7  0DB5               	rlf	___flmul@grs+1,f
  4781  06E8  0DB6               	rlf	___flmul@grs+2,f
  4782  06E9  0DB7               	rlf	___flmul@grs+3,f
  4783  06EA  0BAE               	decfsz	??___flmul,f
  4784  06EB  2EE5               	goto	u3005
  4785  06EC  30FF               	movlw	255
  4786  06ED  07BE               	addwf	___flmul@temp,f
  4787  06EE  1803               	skipnc
  4788  06EF  0ABF               	incf	___flmul@temp+1,f
  4789  06F0  30FF               	movlw	255
  4790  06F1  07BF               	addwf	___flmul@temp+1,f
  4791  06F2  2ED6               	goto	l2246
  4792  06F3                     l2248:	
  4793  06F3  01B8               	clrf	___flmul@aexp
  4794  06F4  1FB7               	btfss	___flmul@grs+3,7
  4795  06F5  2F0C               	goto	l2258
  4796  06F6  30FF               	movlw	255
  4797  06F7  0534               	andwf	___flmul@grs,w
  4798  06F8  00AE               	movwf	??___flmul
  4799  06F9  30FF               	movlw	255
  4800  06FA  0535               	andwf	___flmul@grs+1,w
  4801  06FB  00AF               	movwf	??___flmul+1
  4802  06FC  30FF               	movlw	255
  4803  06FD  0536               	andwf	___flmul@grs+2,w
  4804  06FE  00B0               	movwf	??___flmul+2
  4805  06FF  307F               	movlw	127
  4806  0700  0537               	andwf	___flmul@grs+3,w
  4807  0701  00B1               	movwf	??___flmul+3
  4808  0702  0831               	movf	??___flmul+3,w
  4809  0703  0430               	iorwf	??___flmul+2,w
  4810  0704  042F               	iorwf	??___flmul+1,w
  4811  0705  042E               	iorwf	??___flmul,w
  4812  0706  1903               	skipnz
  4813  0707  183A               	btfsc	___flmul@prod,0
  4814  0708  2F0A               	goto	l2254
  4815  0709  2F0C               	goto	l2258
  4816  070A                     l2254:	
  4817  070A  01B8               	clrf	___flmul@aexp
  4818  070B  0AB8               	incf	___flmul@aexp,f
  4819  070C                     l2258:	
  4820  070C  0838               	movf	___flmul@aexp,w
  4821  070D  1903               	btfsc	3,2
  4822  070E  2F3E               	goto	l2268
  4823  070F  3001               	movlw	1
  4824  0710  07BA               	addwf	___flmul@prod,f
  4825  0711  3000               	movlw	0
  4826  0712  1803               	skipnc
  4827  0713  3001               	movlw	1
  4828  0714  07BB               	addwf	___flmul@prod+1,f
  4829  0715  3000               	movlw	0
  4830  0716  1803               	skipnc
  4831  0717  3001               	movlw	1
  4832  0718  07BC               	addwf	___flmul@prod+2,f
  4833  0719  3000               	movlw	0
  4834  071A  1803               	skipnc
  4835  071B  3001               	movlw	1
  4836  071C  07BD               	addwf	___flmul@prod+3,f
  4837  071D  1C3D               	btfss	___flmul@prod+3,0
  4838  071E  2F3E               	goto	l2268
  4839  071F  083A               	movf	___flmul@prod,w
  4840  0720  00AE               	movwf	??___flmul
  4841  0721  083B               	movf	___flmul@prod+1,w
  4842  0722  00AF               	movwf	??___flmul+1
  4843  0723  083C               	movf	___flmul@prod+2,w
  4844  0724  00B0               	movwf	??___flmul+2
  4845  0725  083D               	movf	___flmul@prod+3,w
  4846  0726  00B1               	movwf	??___flmul+3
  4847  0727  3001               	movlw	1
  4848  0728  00B2               	movwf	??___flmul+4
  4849  0729                     u3075:	
  4850  0729  0D31               	rlf	??___flmul+3,w
  4851  072A  0CB1               	rrf	??___flmul+3,f
  4852  072B  0CB0               	rrf	??___flmul+2,f
  4853  072C  0CAF               	rrf	??___flmul+1,f
  4854  072D  0CAE               	rrf	??___flmul,f
  4855  072E  0BB2               	decfsz	??___flmul+4,f
  4856  072F  2F29               	goto	u3075
  4857  0730  0831               	movf	??___flmul+3,w
  4858  0731  00BD               	movwf	___flmul@prod+3
  4859  0732  0830               	movf	??___flmul+2,w
  4860  0733  00BC               	movwf	___flmul@prod+2
  4861  0734  082F               	movf	??___flmul+1,w
  4862  0735  00BB               	movwf	___flmul@prod+1
  4863  0736  082E               	movf	??___flmul,w
  4864  0737  00BA               	movwf	___flmul@prod
  4865  0738  3001               	movlw	1
  4866  0739  07BE               	addwf	___flmul@temp,f
  4867  073A  1803               	skipnc
  4868  073B  0ABF               	incf	___flmul@temp+1,f
  4869  073C  3000               	movlw	0
  4870  073D  07BF               	addwf	___flmul@temp+1,f
  4871  073E                     l2268:	
  4872  073E  083F               	movf	___flmul@temp+1,w
  4873  073F  3A80               	xorlw	128
  4874  0740  00FF               	movwf	127
  4875  0741  3080               	movlw	128
  4876  0742  027F               	subwf	127,w
  4877  0743  1D03               	skipz
  4878  0744  2F47               	goto	u3085
  4879  0745  30FF               	movlw	255
  4880  0746  023E               	subwf	___flmul@temp,w
  4881  0747                     u3085:	
  4882  0747  1C03               	skipc
  4883  0748  2F54               	goto	l2272
  4884  0749  307F               	movlw	127
  4885  074A  1283               	bcf	3,5	;RP0=0, select bank0
  4886  074B  1303               	bcf	3,6	;RP1=0, select bank0
  4887  074C  00BD               	movwf	___flmul@prod+3
  4888  074D  3080               	movlw	128
  4889  074E  00BC               	movwf	___flmul@prod+2
  4890  074F  3000               	movlw	0
  4891  0750  00BB               	movwf	___flmul@prod+1
  4892  0751  3000               	movlw	0
  4893  0752  00BA               	movwf	___flmul@prod
  4894  0753  2F84               	goto	l687
  4895  0754                     l2272:	
  4896  0754  1283               	bcf	3,5	;RP0=0, select bank0
  4897  0755  1303               	bcf	3,6	;RP1=0, select bank0
  4898  0756  083F               	movf	___flmul@temp+1,w
  4899  0757  3A80               	xorlw	128
  4900  0758  00FF               	movwf	127
  4901  0759  3080               	movlw	128
  4902  075A  027F               	subwf	127,w
  4903  075B  1D03               	skipz
  4904  075C  2F5F               	goto	u3095
  4905  075D  3001               	movlw	1
  4906  075E  023E               	subwf	___flmul@temp,w
  4907  075F                     u3095:	
  4908  075F  1803               	skipnc
  4909  0760  2F6D               	goto	l2278
  4910  0761  3000               	movlw	0
  4911  0762  1283               	bcf	3,5	;RP0=0, select bank0
  4912  0763  1303               	bcf	3,6	;RP1=0, select bank0
  4913  0764  00BD               	movwf	___flmul@prod+3
  4914  0765  3000               	movlw	0
  4915  0766  00BC               	movwf	___flmul@prod+2
  4916  0767  3000               	movlw	0
  4917  0768  00BB               	movwf	___flmul@prod+1
  4918  0769  3000               	movlw	0
  4919  076A  00BA               	movwf	___flmul@prod
  4920  076B  01B3               	clrf	___flmul@sign
  4921  076C  2F84               	goto	l687
  4922  076D                     l2278:	
  4923  076D  1283               	bcf	3,5	;RP0=0, select bank0
  4924  076E  1303               	bcf	3,6	;RP1=0, select bank0
  4925  076F  083E               	movf	___flmul@temp,w
  4926  0770  00AE               	movwf	??___flmul
  4927  0771  082E               	movf	??___flmul,w
  4928  0772  00B9               	movwf	___flmul@bexp
  4929  0773  30FF               	movlw	255
  4930  0774  05BA               	andwf	___flmul@prod,f
  4931  0775  30FF               	movlw	255
  4932  0776  05BB               	andwf	___flmul@prod+1,f
  4933  0777  307F               	movlw	127
  4934  0778  05BC               	andwf	___flmul@prod+2,f
  4935  0779  3000               	movlw	0
  4936  077A  05BD               	andwf	___flmul@prod+3,f
  4937  077B  1839               	btfsc	___flmul@bexp,0
  4938  077C  17BC               	bsf	___flmul@prod+2,7
  4939  077D  0839               	movf	___flmul@bexp,w
  4940  077E  00AE               	movwf	??___flmul
  4941  077F  1003               	clrc
  4942  0780  0C2E               	rrf	??___flmul,w
  4943  0781  00AF               	movwf	??___flmul+1
  4944  0782  082F               	movf	??___flmul+1,w
  4945  0783  00BD               	movwf	___flmul@prod+3
  4946  0784                     l687:	
  4947  0784  0833               	movf	___flmul@sign,w
  4948  0785  00AE               	movwf	??___flmul
  4949  0786  082E               	movf	??___flmul,w
  4950  0787  04BD               	iorwf	___flmul@prod+3,f
  4951  0788  083D               	movf	___flmul@prod+3,w
  4952  0789  00A9               	movwf	?___flmul+3
  4953  078A  083C               	movf	___flmul@prod+2,w
  4954  078B  00A8               	movwf	?___flmul+2
  4955  078C  083B               	movf	___flmul@prod+1,w
  4956  078D  00A7               	movwf	?___flmul+1
  4957  078E  083A               	movf	___flmul@prod,w
  4958  078F  00A6               	movwf	?___flmul
  4959  0790  0008               	return
  4960  0791                     __end_of___flmul:	
  4961                           
  4962                           	psect	text11
  4963  163A                     __ptext11:	
  4964 ;; *************** function __Umul8_16 *****************
  4965 ;; Defined at:
  4966 ;;		line 4 in file "D:\Mplab X\xc8\pic\sources\c90\common\Umul8_16.c"
  4967 ;; Parameters:    Size  Location     Type
  4968 ;;  multiplier      1    wreg     unsigned char 
  4969 ;;  multiplicand    1    2[COMMON] unsigned char 
  4970 ;; Auto vars:     Size  Location     Type
  4971 ;;  multiplier      1   10[COMMON] unsigned char 
  4972 ;;  word_mpld       2    8[COMMON] unsigned int 
  4973 ;;  product         2    6[COMMON] unsigned int 
  4974 ;; Return value:  Size  Location     Type
  4975 ;;                  2    2[COMMON] unsigned int 
  4976 ;; Registers used:
  4977 ;;		wreg, status,2, status,0
  4978 ;; Tracked objects:
  4979 ;;		On entry : 0/0
  4980 ;;		On exit  : 0/0
  4981 ;;		Unchanged: 0/0
  4982 ;; Data sizes:     COMMON   BANK0   BANK1   BANK3   BANK2
  4983 ;;      Params:         2       0       0       0       0
  4984 ;;      Locals:         5       0       0       0       0
  4985 ;;      Temps:          2       0       0       0       0
  4986 ;;      Totals:         9       0       0       0       0
  4987 ;;Total ram usage:        9 bytes
  4988 ;; Hardware stack levels used:    1
  4989 ;; Hardware stack levels required when called:    1
  4990 ;; This function calls:
  4991 ;;		Nothing
  4992 ;; This function is called by:
  4993 ;;		___flmul
  4994 ;; This function uses a non-reentrant model
  4995 ;;
  4996                           
  4997                           
  4998                           ;psect for function __Umul8_16
  4999  163A                     __Umul8_16:	
  5000                           
  5001                           ;incstack = 0
  5002                           ; Regs used in __Umul8_16: [wreg+status,2+status,0]
  5003                           ;__Umul8_16@multiplier stored from wreg
  5004  163A  00FA               	movwf	__Umul8_16@multiplier
  5005  163B  01F6               	clrf	__Umul8_16@product
  5006  163C  01F7               	clrf	__Umul8_16@product+1
  5007  163D  0872               	movf	__Umul8_16@multiplicand,w
  5008  163E  00F4               	movwf	??__Umul8_16
  5009  163F  01F5               	clrf	??__Umul8_16+1
  5010  1640  0874               	movf	??__Umul8_16,w
  5011  1641  00F8               	movwf	__Umul8_16@word_mpld
  5012  1642  0875               	movf	??__Umul8_16+1,w
  5013  1643  00F9               	movwf	__Umul8_16@word_mpld+1
  5014  1644                     l1902:	
  5015  1644  1C7A               	btfss	__Umul8_16@multiplier,0
  5016  1645  2E4C               	goto	l732
  5017  1646  0878               	movf	__Umul8_16@word_mpld,w
  5018  1647  07F6               	addwf	__Umul8_16@product,f
  5019  1648  1803               	skipnc
  5020  1649  0AF7               	incf	__Umul8_16@product+1,f
  5021  164A  0879               	movf	__Umul8_16@word_mpld+1,w
  5022  164B  07F7               	addwf	__Umul8_16@product+1,f
  5023  164C                     l732:	
  5024  164C  3001               	movlw	1
  5025  164D                     u2255:	
  5026  164D  1003               	clrc
  5027  164E  0DF8               	rlf	__Umul8_16@word_mpld,f
  5028  164F  0DF9               	rlf	__Umul8_16@word_mpld+1,f
  5029  1650  3EFF               	addlw	-1
  5030  1651  1D03               	skipz
  5031  1652  2E4D               	goto	u2255
  5032  1653  1003               	clrc
  5033  1654  0CFA               	rrf	__Umul8_16@multiplier,f
  5034  1655  087A               	movf	__Umul8_16@multiplier,w
  5035  1656  1D03               	btfss	3,2
  5036  1657  2E44               	goto	l1902
  5037  1658  0877               	movf	__Umul8_16@product+1,w
  5038  1659  00F3               	movwf	?__Umul8_16+1
  5039  165A  0876               	movf	__Umul8_16@product,w
  5040  165B  00F2               	movwf	?__Umul8_16
  5041  165C  0008               	return
  5042  165D                     __end_of__Umul8_16:	
  5043                           
  5044                           	psect	text12
  5045  0800                     __ptext12:	
  5046 ;; *************** function ___flge *****************
  5047 ;; Defined at:
  5048 ;;		line 4 in file "D:\Mplab X\xc8\pic\sources\c90\common\flge.c"
  5049 ;; Parameters:    Size  Location     Type
  5050 ;;  ff1             4    2[COMMON] unsigned int 
  5051 ;;  ff2             4    6[COMMON] unsigned int 
  5052 ;; Auto vars:     Size  Location     Type
  5053 ;;		None
  5054 ;; Return value:  Size  Location     Type
  5055 ;;		None               void
  5056 ;; Registers used:
  5057 ;;		wreg, status,2, status,0
  5058 ;; Tracked objects:
  5059 ;;		On entry : 0/0
  5060 ;;		On exit  : 0/0
  5061 ;;		Unchanged: 0/0
  5062 ;; Data sizes:     COMMON   BANK0   BANK1   BANK3   BANK2
  5063 ;;      Params:         8       0       0       0       0
  5064 ;;      Locals:         0       0       0       0       0
  5065 ;;      Temps:          0       4       0       0       0
  5066 ;;      Totals:         8       4       0       0       0
  5067 ;;Total ram usage:       12 bytes
  5068 ;; Hardware stack levels used:    1
  5069 ;; Hardware stack levels required when called:    1
  5070 ;; This function calls:
  5071 ;;		Nothing
  5072 ;; This function is called by:
  5073 ;;		_PID_Init
  5074 ;; This function uses a non-reentrant model
  5075 ;;
  5076                           
  5077                           
  5078                           ;psect for function ___flge
  5079  0800                     ___flge:	
  5080                           
  5081                           ;incstack = 0
  5082                           ; Regs used in ___flge: [wreg+status,2+status,0]
  5083  0800  3000               	movlw	0
  5084  0801  0572               	andwf	___flge@ff1,w
  5085  0802  1283               	bcf	3,5	;RP0=0, select bank0
  5086  0803  1303               	bcf	3,6	;RP1=0, select bank0
  5087  0804  00A0               	movwf	??___flge
  5088  0805  3000               	movlw	0
  5089  0806  0573               	andwf	___flge@ff1+1,w
  5090  0807  00A1               	movwf	??___flge+1
  5091  0808  3080               	movlw	128
  5092  0809  0574               	andwf	___flge@ff1+2,w
  5093  080A  00A2               	movwf	??___flge+2
  5094  080B  307F               	movlw	127
  5095  080C  0575               	andwf	___flge@ff1+3,w
  5096  080D  00A3               	movwf	??___flge+3
  5097  080E  0823               	movf	??___flge+3,w
  5098  080F  0422               	iorwf	??___flge+2,w
  5099  0810  0421               	iorwf	??___flge+1,w
  5100  0811  0420               	iorwf	??___flge,w
  5101  0812  1D03               	skipz
  5102  0813  281C               	goto	l460
  5103  0814  3000               	movlw	0
  5104  0815  00F5               	movwf	___flge@ff1+3
  5105  0816  3000               	movlw	0
  5106  0817  00F4               	movwf	___flge@ff1+2
  5107  0818  3000               	movlw	0
  5108  0819  00F3               	movwf	___flge@ff1+1
  5109  081A  3000               	movlw	0
  5110  081B  00F2               	movwf	___flge@ff1
  5111  081C                     l460:	
  5112  081C  3000               	movlw	0
  5113  081D  0576               	andwf	___flge@ff2,w
  5114  081E  00A0               	movwf	??___flge
  5115  081F  3000               	movlw	0
  5116  0820  0577               	andwf	___flge@ff2+1,w
  5117  0821  00A1               	movwf	??___flge+1
  5118  0822  3080               	movlw	128
  5119  0823  0578               	andwf	___flge@ff2+2,w
  5120  0824  00A2               	movwf	??___flge+2
  5121  0825  307F               	movlw	127
  5122  0826  0579               	andwf	___flge@ff2+3,w
  5123  0827  00A3               	movwf	??___flge+3
  5124  0828  0823               	movf	??___flge+3,w
  5125  0829  0422               	iorwf	??___flge+2,w
  5126  082A  0421               	iorwf	??___flge+1,w
  5127  082B  0420               	iorwf	??___flge,w
  5128  082C  1D03               	skipz
  5129  082D  2836               	goto	l1952
  5130  082E  3000               	movlw	0
  5131  082F  00F9               	movwf	___flge@ff2+3
  5132  0830  3000               	movlw	0
  5133  0831  00F8               	movwf	___flge@ff2+2
  5134  0832  3000               	movlw	0
  5135  0833  00F7               	movwf	___flge@ff2+1
  5136  0834  3000               	movlw	0
  5137  0835  00F6               	movwf	___flge@ff2
  5138  0836                     l1952:	
  5139  0836  1FF5               	btfss	___flge@ff1+3,7
  5140  0837  285C               	goto	l1956
  5141  0838  3000               	movlw	0
  5142  0839  00A0               	movwf	??___flge
  5143  083A  3000               	movlw	0
  5144  083B  00A1               	movwf	??___flge+1
  5145  083C  3000               	movlw	0
  5146  083D  00A2               	movwf	??___flge+2
  5147  083E  3080               	movlw	128
  5148  083F  00A3               	movwf	??___flge+3
  5149  0840  0872               	movf	___flge@ff1,w
  5150  0841  02A0               	subwf	??___flge,f
  5151  0842  0873               	movf	___flge@ff1+1,w
  5152  0843  1C03               	skipc
  5153  0844  0F73               	incfsz	___flge@ff1+1,w
  5154  0845  2847               	goto	u2311
  5155  0846  2848               	goto	u2312
  5156  0847                     u2311:	
  5157  0847  02A1               	subwf	??___flge+1,f
  5158  0848                     u2312:	
  5159  0848  0874               	movf	___flge@ff1+2,w
  5160  0849  1C03               	skipc
  5161  084A  0F74               	incfsz	___flge@ff1+2,w
  5162  084B  284D               	goto	u2313
  5163  084C  284E               	goto	u2314
  5164  084D                     u2313:	
  5165  084D  02A2               	subwf	??___flge+2,f
  5166  084E                     u2314:	
  5167  084E  0875               	movf	___flge@ff1+3,w
  5168  084F  1C03               	skipc
  5169  0850  0F75               	incfsz	___flge@ff1+3,w
  5170  0851  2853               	goto	u2315
  5171  0852  2854               	goto	u2316
  5172  0853                     u2315:	
  5173  0853  02A3               	subwf	??___flge+3,f
  5174  0854                     u2316:	
  5175  0854  0823               	movf	??___flge+3,w
  5176  0855  00F5               	movwf	___flge@ff1+3
  5177  0856  0822               	movf	??___flge+2,w
  5178  0857  00F4               	movwf	___flge@ff1+2
  5179  0858  0821               	movf	??___flge+1,w
  5180  0859  00F3               	movwf	___flge@ff1+1
  5181  085A  0820               	movf	??___flge,w
  5182  085B  00F2               	movwf	___flge@ff1
  5183  085C                     l1956:	
  5184  085C  1FF9               	btfss	___flge@ff2+3,7
  5185  085D  2882               	goto	l463
  5186  085E  3000               	movlw	0
  5187  085F  00A0               	movwf	??___flge
  5188  0860  3000               	movlw	0
  5189  0861  00A1               	movwf	??___flge+1
  5190  0862  3000               	movlw	0
  5191  0863  00A2               	movwf	??___flge+2
  5192  0864  3080               	movlw	128
  5193  0865  00A3               	movwf	??___flge+3
  5194  0866  0876               	movf	___flge@ff2,w
  5195  0867  02A0               	subwf	??___flge,f
  5196  0868  0877               	movf	___flge@ff2+1,w
  5197  0869  1C03               	skipc
  5198  086A  0F77               	incfsz	___flge@ff2+1,w
  5199  086B  286D               	goto	u2331
  5200  086C  286E               	goto	u2332
  5201  086D                     u2331:	
  5202  086D  02A1               	subwf	??___flge+1,f
  5203  086E                     u2332:	
  5204  086E  0878               	movf	___flge@ff2+2,w
  5205  086F  1C03               	skipc
  5206  0870  0F78               	incfsz	___flge@ff2+2,w
  5207  0871  2873               	goto	u2333
  5208  0872  2874               	goto	u2334
  5209  0873                     u2333:	
  5210  0873  02A2               	subwf	??___flge+2,f
  5211  0874                     u2334:	
  5212  0874  0879               	movf	___flge@ff2+3,w
  5213  0875  1C03               	skipc
  5214  0876  0F79               	incfsz	___flge@ff2+3,w
  5215  0877  2879               	goto	u2335
  5216  0878  287A               	goto	u2336
  5217  0879                     u2335:	
  5218  0879  02A3               	subwf	??___flge+3,f
  5219  087A                     u2336:	
  5220  087A  0823               	movf	??___flge+3,w
  5221  087B  00F9               	movwf	___flge@ff2+3
  5222  087C  0822               	movf	??___flge+2,w
  5223  087D  00F8               	movwf	___flge@ff2+2
  5224  087E  0821               	movf	??___flge+1,w
  5225  087F  00F7               	movwf	___flge@ff2+1
  5226  0880  0820               	movf	??___flge,w
  5227  0881  00F6               	movwf	___flge@ff2
  5228  0882                     l463:	
  5229  0882  3080               	movlw	128
  5230  0883  06F5               	xorwf	___flge@ff1+3,f
  5231  0884  3080               	movlw	128
  5232  0885  06F9               	xorwf	___flge@ff2+3,f
  5233  0886  0879               	movf	___flge@ff2+3,w
  5234  0887  0275               	subwf	___flge@ff1+3,w
  5235  0888  1D03               	skipz
  5236  0889  0008               	return
  5237  088A  0878               	movf	___flge@ff2+2,w
  5238  088B  0274               	subwf	___flge@ff1+2,w
  5239  088C  1D03               	skipz
  5240  088D  0008               	return
  5241  088E  0877               	movf	___flge@ff2+1,w
  5242  088F  0273               	subwf	___flge@ff1+1,w
  5243  0890  1D03               	skipz
  5244  0891  0008               	return
  5245  0892  0876               	movf	___flge@ff2,w
  5246  0893  0272               	subwf	___flge@ff1,w
  5247  0894  0008               	return
  5248  0895                     __end_of___flge:	
  5249                           
  5250                           	psect	text13
  5251  093A                     __ptext13:	
  5252 ;; *************** function ___fldiv *****************
  5253 ;; Defined at:
  5254 ;;		line 8 in file "D:\Mplab X\xc8\pic\sources\c90\common\sprcdiv.c"
  5255 ;; Parameters:    Size  Location     Type
  5256 ;;  a               4   32[BANK0 ] unsigned int 
  5257 ;;  b               4   36[BANK0 ] unsigned int 
  5258 ;; Auto vars:     Size  Location     Type
  5259 ;;  grs             4   52[BANK0 ] unsigned long 
  5260 ;;  rem             4   45[BANK0 ] unsigned long 
  5261 ;;  new_exp         2   50[BANK0 ] int 
  5262 ;;  aexp            1   57[BANK0 ] unsigned char 
  5263 ;;  bexp            1   56[BANK0 ] unsigned char 
  5264 ;;  sign            1   49[BANK0 ] unsigned char 
  5265 ;; Return value:  Size  Location     Type
  5266 ;;                  4   32[BANK0 ] unsigned char 
  5267 ;; Registers used:
  5268 ;;		wreg, status,2, status,0, btemp+1
  5269 ;; Tracked objects:
  5270 ;;		On entry : 0/0
  5271 ;;		On exit  : 0/0
  5272 ;;		Unchanged: 0/0
  5273 ;; Data sizes:     COMMON   BANK0   BANK1   BANK3   BANK2
  5274 ;;      Params:         0       8       0       0       0
  5275 ;;      Locals:         0      13       0       0       0
  5276 ;;      Temps:          0       5       0       0       0
  5277 ;;      Totals:         0      26       0       0       0
  5278 ;;Total ram usage:       26 bytes
  5279 ;; Hardware stack levels used:    1
  5280 ;; Hardware stack levels required when called:    1
  5281 ;; This function calls:
  5282 ;;		Nothing
  5283 ;; This function is called by:
  5284 ;;		_main
  5285 ;;		_PID_Init
  5286 ;; This function uses a non-reentrant model
  5287 ;;
  5288                           
  5289                           
  5290                           ;psect for function ___fldiv
  5291  093A                     ___fldiv:	
  5292                           
  5293                           ;incstack = 0
  5294                           ; Regs used in ___fldiv: [wreg+status,2+status,0+btemp+1]
  5295  093A  1283               	bcf	3,5	;RP0=0, select bank0
  5296  093B  1303               	bcf	3,6	;RP1=0, select bank0
  5297  093C  0847               	movf	___fldiv@b+3,w
  5298  093D  3980               	andlw	128
  5299  093E  00C8               	movwf	??___fldiv
  5300  093F  0848               	movf	??___fldiv,w
  5301  0940  00D1               	movwf	___fldiv@sign
  5302  0941  0847               	movf	___fldiv@b+3,w
  5303  0942  00C8               	movwf	??___fldiv
  5304  0943  0748               	addwf	??___fldiv,w
  5305  0944  00C9               	movwf	??___fldiv+1
  5306  0945  0849               	movf	??___fldiv+1,w
  5307  0946  00D8               	movwf	___fldiv@bexp
  5308  0947  1BC6               	btfsc	___fldiv@b+2,7
  5309  0948  1458               	bsf	___fldiv@bexp,0
  5310  0949  0858               	movf	___fldiv@bexp,w
  5311  094A  1903               	btfsc	3,2
  5312  094B  295A               	goto	l2026
  5313  094C  0A58               	incf	___fldiv@bexp,w
  5314  094D  1D03               	btfss	3,2
  5315  094E  2957               	goto	l2022
  5316  094F  3000               	movlw	0
  5317  0950  00C7               	movwf	___fldiv@b+3
  5318  0951  3000               	movlw	0
  5319  0952  00C6               	movwf	___fldiv@b+2
  5320  0953  3000               	movlw	0
  5321  0954  00C5               	movwf	___fldiv@b+1
  5322  0955  3000               	movlw	0
  5323  0956  00C4               	movwf	___fldiv@b
  5324  0957                     l2022:	
  5325  0957  17C6               	bsf	___fldiv@b+2,7
  5326  0958  01C7               	clrf	___fldiv@b+3
  5327  0959  2962               	goto	l2028
  5328  095A                     l2026:	
  5329  095A  3000               	movlw	0
  5330  095B  00C7               	movwf	___fldiv@b+3
  5331  095C  3000               	movlw	0
  5332  095D  00C6               	movwf	___fldiv@b+2
  5333  095E  3000               	movlw	0
  5334  095F  00C5               	movwf	___fldiv@b+1
  5335  0960  3000               	movlw	0
  5336  0961  00C4               	movwf	___fldiv@b
  5337  0962                     l2028:	
  5338  0962  0843               	movf	___fldiv@a+3,w
  5339  0963  3980               	andlw	128
  5340  0964  00C8               	movwf	??___fldiv
  5341  0965  0848               	movf	??___fldiv,w
  5342  0966  06D1               	xorwf	___fldiv@sign,f
  5343  0967  0843               	movf	___fldiv@a+3,w
  5344  0968  00C8               	movwf	??___fldiv
  5345  0969  0748               	addwf	??___fldiv,w
  5346  096A  00C9               	movwf	??___fldiv+1
  5347  096B  0849               	movf	??___fldiv+1,w
  5348  096C  00D9               	movwf	___fldiv@aexp
  5349  096D  1BC2               	btfsc	___fldiv@a+2,7
  5350  096E  1459               	bsf	___fldiv@aexp,0
  5351  096F  0859               	movf	___fldiv@aexp,w
  5352  0970  1903               	btfsc	3,2
  5353  0971  2980               	goto	l2046
  5354  0972  0A59               	incf	___fldiv@aexp,w
  5355  0973  1D03               	btfss	3,2
  5356  0974  297D               	goto	l2042
  5357  0975  3000               	movlw	0
  5358  0976  00C3               	movwf	___fldiv@a+3
  5359  0977  3000               	movlw	0
  5360  0978  00C2               	movwf	___fldiv@a+2
  5361  0979  3000               	movlw	0
  5362  097A  00C1               	movwf	___fldiv@a+1
  5363  097B  3000               	movlw	0
  5364  097C  00C0               	movwf	___fldiv@a
  5365  097D                     l2042:	
  5366  097D  17C2               	bsf	___fldiv@a+2,7
  5367  097E  01C3               	clrf	___fldiv@a+3
  5368  097F  2988               	goto	l635
  5369  0980                     l2046:	
  5370  0980  3000               	movlw	0
  5371  0981  00C3               	movwf	___fldiv@a+3
  5372  0982  3000               	movlw	0
  5373  0983  00C2               	movwf	___fldiv@a+2
  5374  0984  3000               	movlw	0
  5375  0985  00C1               	movwf	___fldiv@a+1
  5376  0986  3000               	movlw	0
  5377  0987  00C0               	movwf	___fldiv@a
  5378  0988                     l635:	
  5379  0988  0843               	movf	___fldiv@a+3,w
  5380  0989  0442               	iorwf	___fldiv@a+2,w
  5381  098A  0441               	iorwf	___fldiv@a+1,w
  5382  098B  0440               	iorwf	___fldiv@a,w
  5383  098C  1D03               	skipz
  5384  098D  29A7               	goto	l2056
  5385  098E  3000               	movlw	0
  5386  098F  00C7               	movwf	___fldiv@b+3
  5387  0990  3000               	movlw	0
  5388  0991  00C6               	movwf	___fldiv@b+2
  5389  0992  3000               	movlw	0
  5390  0993  00C5               	movwf	___fldiv@b+1
  5391  0994  3000               	movlw	0
  5392  0995  00C4               	movwf	___fldiv@b
  5393  0996  3080               	movlw	128
  5394  0997  04C6               	iorwf	___fldiv@b+2,f
  5395  0998  307F               	movlw	127
  5396  0999  04C7               	iorwf	___fldiv@b+3,f
  5397  099A                     L3:	
  5398  099A  0851               	movf	___fldiv@sign,w
  5399  099B  00C8               	movwf	??___fldiv
  5400  099C  0848               	movf	??___fldiv,w
  5401  099D  04C7               	iorwf	___fldiv@b+3,f
  5402  099E  0847               	movf	___fldiv@b+3,w
  5403  099F  00C3               	movwf	?___fldiv+3
  5404  09A0  0846               	movf	___fldiv@b+2,w
  5405  09A1  00C2               	movwf	?___fldiv+2
  5406  09A2  0845               	movf	___fldiv@b+1,w
  5407  09A3  00C1               	movwf	?___fldiv+1
  5408  09A4  0844               	movf	___fldiv@b,w
  5409  09A5  00C0               	movwf	?___fldiv
  5410  09A6  0008               	return
  5411  09A7                     l2056:	
  5412  09A7  0858               	movf	___fldiv@bexp,w
  5413  09A8  1D03               	btfss	3,2
  5414  09A9  29B3               	goto	l2062
  5415  09AA  3000               	movlw	0
  5416  09AB  00C3               	movwf	?___fldiv+3
  5417  09AC  3000               	movlw	0
  5418  09AD  00C2               	movwf	?___fldiv+2
  5419  09AE  3000               	movlw	0
  5420  09AF  00C1               	movwf	?___fldiv+1
  5421  09B0  3000               	movlw	0
  5422  09B1  00C0               	movwf	?___fldiv
  5423  09B2  0008               	return
  5424  09B3                     l2062:	
  5425  09B3  0858               	movf	___fldiv@bexp,w
  5426  09B4  00C8               	movwf	??___fldiv
  5427  09B5  01C9               	clrf	??___fldiv+1
  5428  09B6  0849               	movf	??___fldiv+1,w
  5429  09B7  00CB               	movwf	??___fldiv+3
  5430  09B8  0859               	movf	___fldiv@aexp,w
  5431  09B9  0248               	subwf	??___fldiv,w
  5432  09BA  00CA               	movwf	??___fldiv+2
  5433  09BB  1C03               	skipc
  5434  09BC  03CB               	decf	??___fldiv+3,f
  5435  09BD  084A               	movf	??___fldiv+2,w
  5436  09BE  3E7F               	addlw	127
  5437  09BF  00D2               	movwf	___fldiv@new_exp
  5438  09C0  084B               	movf	??___fldiv+3,w
  5439  09C1  1803               	skipnc
  5440  09C2  3E01               	addlw	1
  5441  09C3  3E00               	addlw	0
  5442  09C4  00D3               	movwf	___fldiv@new_exp+1
  5443  09C5  0847               	movf	___fldiv@b+3,w
  5444  09C6  00D0               	movwf	___fldiv@rem+3
  5445  09C7  0846               	movf	___fldiv@b+2,w
  5446  09C8  00CF               	movwf	___fldiv@rem+2
  5447  09C9  0845               	movf	___fldiv@b+1,w
  5448  09CA  00CE               	movwf	___fldiv@rem+1
  5449  09CB  0844               	movf	___fldiv@b,w
  5450  09CC  00CD               	movwf	___fldiv@rem
  5451  09CD  3000               	movlw	0
  5452  09CE  00C7               	movwf	___fldiv@b+3
  5453  09CF  3000               	movlw	0
  5454  09D0  00C6               	movwf	___fldiv@b+2
  5455  09D1  3000               	movlw	0
  5456  09D2  00C5               	movwf	___fldiv@b+1
  5457  09D3  3000               	movlw	0
  5458  09D4  00C4               	movwf	___fldiv@b
  5459  09D5  3000               	movlw	0
  5460  09D6  00D7               	movwf	___fldiv@grs+3
  5461  09D7  3000               	movlw	0
  5462  09D8  00D6               	movwf	___fldiv@grs+2
  5463  09D9  3000               	movlw	0
  5464  09DA  00D5               	movwf	___fldiv@grs+1
  5465  09DB  3000               	movlw	0
  5466  09DC  00D4               	movwf	___fldiv@grs
  5467  09DD  01D9               	clrf	___fldiv@aexp
  5468  09DE                     l2090:	
  5469  09DE  301A               	movlw	26
  5470  09DF  0259               	subwf	___fldiv@aexp,w
  5471  09E0  1803               	btfsc	3,0
  5472  09E1  2A26               	goto	l2092
  5473  09E2  0859               	movf	___fldiv@aexp,w
  5474  09E3  1903               	btfsc	3,2
  5475  09E4  2A02               	goto	l2082
  5476  09E5  3001               	movlw	1
  5477  09E6  00C8               	movwf	??___fldiv
  5478  09E7                     u2545:	
  5479  09E7  1003               	clrc
  5480  09E8  0DCD               	rlf	___fldiv@rem,f
  5481  09E9  0DCE               	rlf	___fldiv@rem+1,f
  5482  09EA  0DCF               	rlf	___fldiv@rem+2,f
  5483  09EB  0DD0               	rlf	___fldiv@rem+3,f
  5484  09EC  0BC8               	decfsz	??___fldiv,f
  5485  09ED  29E7               	goto	u2545
  5486  09EE  3001               	movlw	1
  5487  09EF  00C8               	movwf	??___fldiv
  5488  09F0                     u2555:	
  5489  09F0  1003               	clrc
  5490  09F1  0DC4               	rlf	___fldiv@b,f
  5491  09F2  0DC5               	rlf	___fldiv@b+1,f
  5492  09F3  0DC6               	rlf	___fldiv@b+2,f
  5493  09F4  0DC7               	rlf	___fldiv@b+3,f
  5494  09F5  0BC8               	decfsz	??___fldiv,f
  5495  09F6  29F0               	goto	u2555
  5496  09F7  1BD7               	btfsc	___fldiv@grs+3,7
  5497  09F8  1444               	bsf	___fldiv@b,0
  5498  09F9  3001               	movlw	1
  5499  09FA  00C8               	movwf	??___fldiv
  5500  09FB                     u2575:	
  5501  09FB  1003               	clrc
  5502  09FC  0DD4               	rlf	___fldiv@grs,f
  5503  09FD  0DD5               	rlf	___fldiv@grs+1,f
  5504  09FE  0DD6               	rlf	___fldiv@grs+2,f
  5505  09FF  0DD7               	rlf	___fldiv@grs+3,f
  5506  0A00  0BC8               	decfsz	??___fldiv,f
  5507  0A01  29FB               	goto	u2575
  5508  0A02                     l2082:	
  5509  0A02  0843               	movf	___fldiv@a+3,w
  5510  0A03  0250               	subwf	___fldiv@rem+3,w
  5511  0A04  1D03               	skipz
  5512  0A05  2A10               	goto	u2585
  5513  0A06  0842               	movf	___fldiv@a+2,w
  5514  0A07  024F               	subwf	___fldiv@rem+2,w
  5515  0A08  1D03               	skipz
  5516  0A09  2A10               	goto	u2585
  5517  0A0A  0841               	movf	___fldiv@a+1,w
  5518  0A0B  024E               	subwf	___fldiv@rem+1,w
  5519  0A0C  1D03               	skipz
  5520  0A0D  2A10               	goto	u2585
  5521  0A0E  0840               	movf	___fldiv@a,w
  5522  0A0F  024D               	subwf	___fldiv@rem,w
  5523  0A10                     u2585:	
  5524  0A10  1C03               	skipc
  5525  0A11  2A21               	goto	l2088
  5526  0A12  1757               	bsf	___fldiv@grs+3,6
  5527  0A13  0840               	movf	___fldiv@a,w
  5528  0A14  02CD               	subwf	___fldiv@rem,f
  5529  0A15  0841               	movf	___fldiv@a+1,w
  5530  0A16  1C03               	skipc
  5531  0A17  0F41               	incfsz	___fldiv@a+1,w
  5532  0A18  02CE               	subwf	___fldiv@rem+1,f
  5533  0A19  0842               	movf	___fldiv@a+2,w
  5534  0A1A  1C03               	skipc
  5535  0A1B  0F42               	incfsz	___fldiv@a+2,w
  5536  0A1C  02CF               	subwf	___fldiv@rem+2,f
  5537  0A1D  0843               	movf	___fldiv@a+3,w
  5538  0A1E  1C03               	skipc
  5539  0A1F  0F43               	incfsz	___fldiv@a+3,w
  5540  0A20  02D0               	subwf	___fldiv@rem+3,f
  5541  0A21                     l2088:	
  5542  0A21  3001               	movlw	1
  5543  0A22  00C8               	movwf	??___fldiv
  5544  0A23  0848               	movf	??___fldiv,w
  5545  0A24  07D9               	addwf	___fldiv@aexp,f
  5546  0A25  29DE               	goto	l2090
  5547  0A26                     l2092:	
  5548  0A26  0850               	movf	___fldiv@rem+3,w
  5549  0A27  044F               	iorwf	___fldiv@rem+2,w
  5550  0A28  044E               	iorwf	___fldiv@rem+1,w
  5551  0A29  044D               	iorwf	___fldiv@rem,w
  5552  0A2A  1D03               	btfss	3,2
  5553  0A2B  1454               	bsf	___fldiv@grs,0
  5554  0A2C                     l2106:	
  5555  0A2C  1BC6               	btfsc	___fldiv@b+2,7
  5556  0A2D  2A49               	goto	l2108
  5557  0A2E  3001               	movlw	1
  5558  0A2F  00C8               	movwf	??___fldiv
  5559  0A30                     u2615:	
  5560  0A30  1003               	clrc
  5561  0A31  0DC4               	rlf	___fldiv@b,f
  5562  0A32  0DC5               	rlf	___fldiv@b+1,f
  5563  0A33  0DC6               	rlf	___fldiv@b+2,f
  5564  0A34  0DC7               	rlf	___fldiv@b+3,f
  5565  0A35  0BC8               	decfsz	??___fldiv,f
  5566  0A36  2A30               	goto	u2615
  5567  0A37  1BD7               	btfsc	___fldiv@grs+3,7
  5568  0A38  1444               	bsf	___fldiv@b,0
  5569  0A39  3001               	movlw	1
  5570  0A3A  00C8               	movwf	??___fldiv
  5571  0A3B                     u2635:	
  5572  0A3B  1003               	clrc
  5573  0A3C  0DD4               	rlf	___fldiv@grs,f
  5574  0A3D  0DD5               	rlf	___fldiv@grs+1,f
  5575  0A3E  0DD6               	rlf	___fldiv@grs+2,f
  5576  0A3F  0DD7               	rlf	___fldiv@grs+3,f
  5577  0A40  0BC8               	decfsz	??___fldiv,f
  5578  0A41  2A3B               	goto	u2635
  5579  0A42  30FF               	movlw	255
  5580  0A43  07D2               	addwf	___fldiv@new_exp,f
  5581  0A44  1803               	skipnc
  5582  0A45  0AD3               	incf	___fldiv@new_exp+1,f
  5583  0A46  30FF               	movlw	255
  5584  0A47  07D3               	addwf	___fldiv@new_exp+1,f
  5585  0A48  2A2C               	goto	l2106
  5586  0A49                     l2108:	
  5587  0A49  01D9               	clrf	___fldiv@aexp
  5588  0A4A  1FD7               	btfss	___fldiv@grs+3,7
  5589  0A4B  2A62               	goto	l2118
  5590  0A4C  30FF               	movlw	255
  5591  0A4D  0554               	andwf	___fldiv@grs,w
  5592  0A4E  00C8               	movwf	??___fldiv
  5593  0A4F  30FF               	movlw	255
  5594  0A50  0555               	andwf	___fldiv@grs+1,w
  5595  0A51  00C9               	movwf	??___fldiv+1
  5596  0A52  30FF               	movlw	255
  5597  0A53  0556               	andwf	___fldiv@grs+2,w
  5598  0A54  00CA               	movwf	??___fldiv+2
  5599  0A55  307F               	movlw	127
  5600  0A56  0557               	andwf	___fldiv@grs+3,w
  5601  0A57  00CB               	movwf	??___fldiv+3
  5602  0A58  084B               	movf	??___fldiv+3,w
  5603  0A59  044A               	iorwf	??___fldiv+2,w
  5604  0A5A  0449               	iorwf	??___fldiv+1,w
  5605  0A5B  0448               	iorwf	??___fldiv,w
  5606  0A5C  1903               	skipnz
  5607  0A5D  1844               	btfsc	___fldiv@b,0
  5608  0A5E  2A60               	goto	l2114
  5609  0A5F  2A62               	goto	l2118
  5610  0A60                     l2114:	
  5611  0A60  01D9               	clrf	___fldiv@aexp
  5612  0A61  0AD9               	incf	___fldiv@aexp,f
  5613  0A62                     l2118:	
  5614  0A62  0859               	movf	___fldiv@aexp,w
  5615  0A63  1903               	btfsc	3,2
  5616  0A64  2A94               	goto	l2128
  5617  0A65  3001               	movlw	1
  5618  0A66  07C4               	addwf	___fldiv@b,f
  5619  0A67  3000               	movlw	0
  5620  0A68  1803               	skipnc
  5621  0A69  3001               	movlw	1
  5622  0A6A  07C5               	addwf	___fldiv@b+1,f
  5623  0A6B  3000               	movlw	0
  5624  0A6C  1803               	skipnc
  5625  0A6D  3001               	movlw	1
  5626  0A6E  07C6               	addwf	___fldiv@b+2,f
  5627  0A6F  3000               	movlw	0
  5628  0A70  1803               	skipnc
  5629  0A71  3001               	movlw	1
  5630  0A72  07C7               	addwf	___fldiv@b+3,f
  5631  0A73  1C47               	btfss	___fldiv@b+3,0
  5632  0A74  2A94               	goto	l2128
  5633  0A75  0844               	movf	___fldiv@b,w
  5634  0A76  00C8               	movwf	??___fldiv
  5635  0A77  0845               	movf	___fldiv@b+1,w
  5636  0A78  00C9               	movwf	??___fldiv+1
  5637  0A79  0846               	movf	___fldiv@b+2,w
  5638  0A7A  00CA               	movwf	??___fldiv+2
  5639  0A7B  0847               	movf	___fldiv@b+3,w
  5640  0A7C  00CB               	movwf	??___fldiv+3
  5641  0A7D  3001               	movlw	1
  5642  0A7E  00CC               	movwf	??___fldiv+4
  5643  0A7F                     u2705:	
  5644  0A7F  0D4B               	rlf	??___fldiv+3,w
  5645  0A80  0CCB               	rrf	??___fldiv+3,f
  5646  0A81  0CCA               	rrf	??___fldiv+2,f
  5647  0A82  0CC9               	rrf	??___fldiv+1,f
  5648  0A83  0CC8               	rrf	??___fldiv,f
  5649  0A84  0BCC               	decfsz	??___fldiv+4,f
  5650  0A85  2A7F               	goto	u2705
  5651  0A86  084B               	movf	??___fldiv+3,w
  5652  0A87  00C7               	movwf	___fldiv@b+3
  5653  0A88  084A               	movf	??___fldiv+2,w
  5654  0A89  00C6               	movwf	___fldiv@b+2
  5655  0A8A  0849               	movf	??___fldiv+1,w
  5656  0A8B  00C5               	movwf	___fldiv@b+1
  5657  0A8C  0848               	movf	??___fldiv,w
  5658  0A8D  00C4               	movwf	___fldiv@b
  5659  0A8E  3001               	movlw	1
  5660  0A8F  07D2               	addwf	___fldiv@new_exp,f
  5661  0A90  1803               	skipnc
  5662  0A91  0AD3               	incf	___fldiv@new_exp+1,f
  5663  0A92  3000               	movlw	0
  5664  0A93  07D3               	addwf	___fldiv@new_exp+1,f
  5665  0A94                     l2128:	
  5666  0A94  0853               	movf	___fldiv@new_exp+1,w
  5667  0A95  3A80               	xorlw	128
  5668  0A96  00FF               	movwf	127
  5669  0A97  3080               	movlw	128
  5670  0A98  027F               	subwf	127,w
  5671  0A99  1D03               	skipz
  5672  0A9A  2A9D               	goto	u2715
  5673  0A9B  30FF               	movlw	255
  5674  0A9C  0252               	subwf	___fldiv@new_exp,w
  5675  0A9D                     u2715:	
  5676  0A9D  1C03               	skipc
  5677  0A9E  2AAD               	goto	l2132
  5678  0A9F  30FF               	movlw	255
  5679  0AA0  1283               	bcf	3,5	;RP0=0, select bank0
  5680  0AA1  1303               	bcf	3,6	;RP1=0, select bank0
  5681  0AA2  00D2               	movwf	___fldiv@new_exp
  5682  0AA3  3000               	movlw	0
  5683  0AA4  00D3               	movwf	___fldiv@new_exp+1
  5684  0AA5  3000               	movlw	0
  5685  0AA6  00C7               	movwf	___fldiv@b+3
  5686  0AA7  3000               	movlw	0
  5687  0AA8  00C6               	movwf	___fldiv@b+2
  5688  0AA9  3000               	movlw	0
  5689  0AAA  00C5               	movwf	___fldiv@b+1
  5690  0AAB  3000               	movlw	0
  5691  0AAC  00C4               	movwf	___fldiv@b
  5692  0AAD                     l2132:	
  5693  0AAD  1283               	bcf	3,5	;RP0=0, select bank0
  5694  0AAE  1303               	bcf	3,6	;RP1=0, select bank0
  5695  0AAF  0853               	movf	___fldiv@new_exp+1,w
  5696  0AB0  3A80               	xorlw	128
  5697  0AB1  00FF               	movwf	127
  5698  0AB2  3080               	movlw	128
  5699  0AB3  027F               	subwf	127,w
  5700  0AB4  1D03               	skipz
  5701  0AB5  2AB8               	goto	u2725
  5702  0AB6  3001               	movlw	1
  5703  0AB7  0252               	subwf	___fldiv@new_exp,w
  5704  0AB8                     u2725:	
  5705  0AB8  1803               	skipnc
  5706  0AB9  2AC7               	goto	l657
  5707  0ABA  1283               	bcf	3,5	;RP0=0, select bank0
  5708  0ABB  1303               	bcf	3,6	;RP1=0, select bank0
  5709  0ABC  01D2               	clrf	___fldiv@new_exp
  5710  0ABD  01D3               	clrf	___fldiv@new_exp+1
  5711  0ABE  3000               	movlw	0
  5712  0ABF  00C7               	movwf	___fldiv@b+3
  5713  0AC0  3000               	movlw	0
  5714  0AC1  00C6               	movwf	___fldiv@b+2
  5715  0AC2  3000               	movlw	0
  5716  0AC3  00C5               	movwf	___fldiv@b+1
  5717  0AC4  3000               	movlw	0
  5718  0AC5  00C4               	movwf	___fldiv@b
  5719  0AC6  01D1               	clrf	___fldiv@sign
  5720  0AC7                     l657:	
  5721  0AC7  1283               	bcf	3,5	;RP0=0, select bank0
  5722  0AC8  1303               	bcf	3,6	;RP1=0, select bank0
  5723  0AC9  0852               	movf	___fldiv@new_exp,w
  5724  0ACA  00C8               	movwf	??___fldiv
  5725  0ACB  0848               	movf	??___fldiv,w
  5726  0ACC  00D8               	movwf	___fldiv@bexp
  5727  0ACD  1C58               	btfss	___fldiv@bexp,0
  5728  0ACE  2AD1               	goto	l2144
  5729  0ACF  17C6               	bsf	___fldiv@b+2,7
  5730  0AD0  2AD5               	goto	l659
  5731  0AD1                     l2144:	
  5732  0AD1  307F               	movlw	127
  5733  0AD2  00C8               	movwf	??___fldiv
  5734  0AD3  0848               	movf	??___fldiv,w
  5735  0AD4  05C6               	andwf	___fldiv@b+2,f
  5736  0AD5                     l659:	
  5737  0AD5  0858               	movf	___fldiv@bexp,w
  5738  0AD6  00C8               	movwf	??___fldiv
  5739  0AD7  1003               	clrc
  5740  0AD8  0C48               	rrf	??___fldiv,w
  5741  0AD9  00C9               	movwf	??___fldiv+1
  5742  0ADA  0849               	movf	??___fldiv+1,w
  5743  0ADB  00C7               	movwf	___fldiv@b+3
  5744  0ADC  299A               	goto	L3
  5745  0ADD                     __end_of___fldiv:	
  5746                           
  5747                           	psect	text14
  5748  1595                     __ptext14:	
  5749 ;; *************** function _Duty_Init *****************
  5750 ;; Defined at:
  5751 ;;		line 97 in file "PWM.c"
  5752 ;; Parameters:    Size  Location     Type
  5753 ;;  duty            2   69[BANK0 ] unsigned int 
  5754 ;; Auto vars:     Size  Location     Type
  5755 ;;		None
  5756 ;; Return value:  Size  Location     Type
  5757 ;;                  1    wreg      void 
  5758 ;; Registers used:
  5759 ;;		wreg
  5760 ;; Tracked objects:
  5761 ;;		On entry : 0/0
  5762 ;;		On exit  : 0/0
  5763 ;;		Unchanged: 0/0
  5764 ;; Data sizes:     COMMON   BANK0   BANK1   BANK3   BANK2
  5765 ;;      Params:         0       2       0       0       0
  5766 ;;      Locals:         0       0       0       0       0
  5767 ;;      Temps:          0       0       0       0       0
  5768 ;;      Totals:         0       2       0       0       0
  5769 ;;Total ram usage:        2 bytes
  5770 ;; Hardware stack levels used:    1
  5771 ;; Hardware stack levels required when called:    1
  5772 ;; This function calls:
  5773 ;;		Nothing
  5774 ;; This function is called by:
  5775 ;;		_main
  5776 ;;		_PID_Init
  5777 ;; This function uses a non-reentrant model
  5778 ;;
  5779                           
  5780                           
  5781                           ;psect for function _Duty_Init
  5782  1595                     _Duty_Init:	
  5783                           
  5784                           ;PWM.c: 97: void Duty_Init(unsigned int duty);PWM.c: 98: {;PWM.c: 100:   CCP1X = 1;
  5785                           
  5786                           ;incstack = 0
  5787                           ; Regs used in _Duty_Init: [wreg]
  5788  1595  1283               	bcf	3,5	;RP0=0, select bank0
  5789  1596  1303               	bcf	3,6	;RP1=0, select bank0
  5790  1597  1697               	bsf	23,5	;volatile
  5791                           
  5792                           ;PWM.c: 101:   CCP1Y = 0;
  5793  1598  1217               	bcf	23,4	;volatile
  5794                           
  5795                           ;PWM.c: 102:   CCPR1L = duty;
  5796  1599  0865               	movf	Duty_Init@duty,w
  5797  159A  0095               	movwf	21	;volatile
  5798  159B  0008               	return
  5799  159C                     __end_of_Duty_Init:	
  5800                           
  5801                           	psect	text15
  5802  1618                     __ptext15:	
  5803 ;; *************** function _Lcd_Write_String *****************
  5804 ;; Defined at:
  5805 ;;		line 98 in file "lcd4.c"
  5806 ;; Parameters:    Size  Location     Type
  5807 ;;  a               1    wreg     PTR unsigned char 
  5808 ;;		 -> STR_2(9), STR_1(10), 
  5809 ;; Auto vars:     Size  Location     Type
  5810 ;;  a               1    9[COMMON] PTR unsigned char 
  5811 ;;		 -> STR_2(9), STR_1(10), 
  5812 ;;  i               2    7[COMMON] int 
  5813 ;; Return value:  Size  Location     Type
  5814 ;;                  1    wreg      void 
  5815 ;; Registers used:
  5816 ;;		wreg, fsr0l, fsr0h, status,2, status,0, pclath, cstack
  5817 ;; Tracked objects:
  5818 ;;		On entry : 0/0
  5819 ;;		On exit  : 0/0
  5820 ;;		Unchanged: 0/0
  5821 ;; Data sizes:     COMMON   BANK0   BANK1   BANK3   BANK2
  5822 ;;      Params:         0       0       0       0       0
  5823 ;;      Locals:         3       0       0       0       0
  5824 ;;      Temps:          0       0       0       0       0
  5825 ;;      Totals:         3       0       0       0       0
  5826 ;;Total ram usage:        3 bytes
  5827 ;; Hardware stack levels used:    1
  5828 ;; Hardware stack levels required when called:    3
  5829 ;; This function calls:
  5830 ;;		_Lcd_Write_Char
  5831 ;; This function is called by:
  5832 ;;		_main
  5833 ;; This function uses a non-reentrant model
  5834 ;;
  5835                           
  5836                           
  5837                           ;psect for function _Lcd_Write_String
  5838  1618                     _Lcd_Write_String:	
  5839                           
  5840                           ;incstack = 0
  5841                           ; Regs used in _Lcd_Write_String: [wreg-fsr0h+status,2+status,0+pclath+cstack]
  5842                           ;Lcd_Write_String@a stored from wreg
  5843  1618  00F9               	movwf	Lcd_Write_String@a
  5844                           
  5845                           ;lcd4.c: 98: void Lcd_Write_String(char *a);lcd4.c: 99: {;lcd4.c: 100:  int i;;lcd4.c: 1
      +                          01:  for(i=0;a[i]!='\0';i++)
  5846  1619  01F7               	clrf	Lcd_Write_String@i
  5847  161A  01F8               	clrf	Lcd_Write_String@i+1
  5848  161B                     l2402:	
  5849  161B  0877               	movf	Lcd_Write_String@i,w
  5850  161C  0779               	addwf	Lcd_Write_String@a,w
  5851  161D  0084               	movwf	4
  5852  161E  160A  118A  2000  160A  118A  	fcall	stringdir
  5853  1623  3A00               	xorlw	0
  5854  1624  1903               	btfsc	3,2
  5855  1625  0008               	return
  5856                           
  5857                           ;lcd4.c: 102:     Lcd_Write_Char(a[i]);
  5858  1626  0877               	movf	Lcd_Write_String@i,w
  5859  1627  0779               	addwf	Lcd_Write_String@a,w
  5860  1628  0084               	movwf	4
  5861  1629  160A  118A  2000  160A  118A  	fcall	stringdir
  5862  162E  160A  118A  268F  160A  118A  	fcall	_Lcd_Write_Char
  5863  1633  3001               	movlw	1
  5864  1634  07F7               	addwf	Lcd_Write_String@i,f
  5865  1635  1803               	skipnc
  5866  1636  0AF8               	incf	Lcd_Write_String@i+1,f
  5867  1637  3000               	movlw	0
  5868  1638  07F8               	addwf	Lcd_Write_String@i+1,f
  5869  1639  2E1B               	goto	l2402
  5870  163A                     __end_of_Lcd_Write_String:	
  5871                           
  5872                           	psect	text16
  5873  168F                     __ptext16:	
  5874 ;; *************** function _Lcd_Write_Char *****************
  5875 ;; Defined at:
  5876 ;;		line 82 in file "lcd4.c"
  5877 ;; Parameters:    Size  Location     Type
  5878 ;;  a               1    wreg     unsigned char 
  5879 ;; Auto vars:     Size  Location     Type
  5880 ;;  a               1    6[COMMON] unsigned char 
  5881 ;;  y               1    5[COMMON] unsigned char 
  5882 ;;  temp            1    4[COMMON] unsigned char 
  5883 ;; Return value:  Size  Location     Type
  5884 ;;                  1    wreg      void 
  5885 ;; Registers used:
  5886 ;;		wreg, status,2, status,0, pclath, cstack
  5887 ;; Tracked objects:
  5888 ;;		On entry : 0/0
  5889 ;;		On exit  : 0/0
  5890 ;;		Unchanged: 0/0
  5891 ;; Data sizes:     COMMON   BANK0   BANK1   BANK3   BANK2
  5892 ;;      Params:         0       0       0       0       0
  5893 ;;      Locals:         3       0       0       0       0
  5894 ;;      Temps:          1       0       0       0       0
  5895 ;;      Totals:         4       0       0       0       0
  5896 ;;Total ram usage:        4 bytes
  5897 ;; Hardware stack levels used:    1
  5898 ;; Hardware stack levels required when called:    2
  5899 ;; This function calls:
  5900 ;;		_Lcd_Port
  5901 ;; This function is called by:
  5902 ;;		_main
  5903 ;;		_Lcd_Write_String
  5904 ;; This function uses a non-reentrant model
  5905 ;;
  5906                           
  5907                           
  5908                           ;psect for function _Lcd_Write_Char
  5909  168F                     _Lcd_Write_Char:	
  5910                           
  5911                           ;incstack = 0
  5912                           ; Regs used in _Lcd_Write_Char: [wreg+status,2+status,0+pclath+cstack]
  5913                           ;Lcd_Write_Char@a stored from wreg
  5914  168F  00F6               	movwf	Lcd_Write_Char@a
  5915                           
  5916                           ;lcd4.c: 82: void Lcd_Write_Char(char a);lcd4.c: 83: {;lcd4.c: 84:    char temp,y;;lcd4.
      +                          c: 85:    temp = a&0x0F;
  5917  1690  0876               	movf	Lcd_Write_Char@a,w
  5918  1691  390F               	andlw	15
  5919  1692  00F3               	movwf	??_Lcd_Write_Char
  5920  1693  0873               	movf	??_Lcd_Write_Char,w
  5921  1694  00F4               	movwf	Lcd_Write_Char@temp
  5922                           
  5923                           ;lcd4.c: 86:    y = a&0xF0;
  5924  1695  0876               	movf	Lcd_Write_Char@a,w
  5925  1696  39F0               	andlw	240
  5926  1697  00F3               	movwf	??_Lcd_Write_Char
  5927  1698  0873               	movf	??_Lcd_Write_Char,w
  5928  1699  00F5               	movwf	Lcd_Write_Char@y
  5929                           
  5930                           ;lcd4.c: 87:    RD0 = 1;
  5931  169A  1283               	bcf	3,5	;RP0=0, select bank0
  5932  169B  1303               	bcf	3,6	;RP1=0, select bank0
  5933  169C  1408               	bsf	8,0	;volatile
  5934                           
  5935                           ;lcd4.c: 88:    Lcd_Port(y>>4);
  5936  169D  0875               	movf	Lcd_Write_Char@y,w
  5937  169E  00F3               	movwf	??_Lcd_Write_Char
  5938  169F  3004               	movlw	4
  5939  16A0                     u2275:	
  5940  16A0  1003               	clrc
  5941  16A1  0CF3               	rrf	??_Lcd_Write_Char,f
  5942  16A2  3EFF               	addlw	-1
  5943  16A3  1D03               	skipz
  5944  16A4  2EA0               	goto	u2275
  5945  16A5  0873               	movf	??_Lcd_Write_Char,w
  5946  16A6  160A  118A  25E4  160A  118A  	fcall	_Lcd_Port
  5947                           
  5948                           ;lcd4.c: 89:    RD1 = 1;
  5949  16AB  1283               	bcf	3,5	;RP0=0, select bank0
  5950  16AC  1303               	bcf	3,6	;RP1=0, select bank0
  5951  16AD  1488               	bsf	8,1	;volatile
  5952                           
  5953                           ;lcd4.c: 90:    _delay((unsigned long)((40)*(20000000/4000000.0)));
  5954  16AE  3042               	movlw	66
  5955  16AF  00F3               	movwf	??_Lcd_Write_Char
  5956  16B0                     u3467:	
  5957  16B0  0BF3               	decfsz	??_Lcd_Write_Char,f
  5958  16B1  2EB0               	goto	u3467
  5959  16B2  0000               	nop
  5960                           
  5961                           ;lcd4.c: 91:    RD1 = 0;
  5962  16B3  1283               	bcf	3,5	;RP0=0, select bank0
  5963  16B4  1303               	bcf	3,6	;RP1=0, select bank0
  5964  16B5  1088               	bcf	8,1	;volatile
  5965                           
  5966                           ;lcd4.c: 92:    Lcd_Port(temp);
  5967  16B6  0874               	movf	Lcd_Write_Char@temp,w
  5968  16B7  160A  118A  25E4  160A  118A  	fcall	_Lcd_Port
  5969                           
  5970                           ;lcd4.c: 93:    RD1 = 1;
  5971  16BC  1283               	bcf	3,5	;RP0=0, select bank0
  5972  16BD  1303               	bcf	3,6	;RP1=0, select bank0
  5973  16BE  1488               	bsf	8,1	;volatile
  5974                           
  5975                           ;lcd4.c: 94:    _delay((unsigned long)((40)*(20000000/4000000.0)));
  5976  16BF  3042               	movlw	66
  5977  16C0  00F3               	movwf	??_Lcd_Write_Char
  5978  16C1                     u3477:	
  5979  16C1  0BF3               	decfsz	??_Lcd_Write_Char,f
  5980  16C2  2EC1               	goto	u3477
  5981  16C3  0000               	nop
  5982                           
  5983                           ;lcd4.c: 95:    RD1 = 0;
  5984  16C4  1283               	bcf	3,5	;RP0=0, select bank0
  5985  16C5  1303               	bcf	3,6	;RP1=0, select bank0
  5986  16C6  1088               	bcf	8,1	;volatile
  5987  16C7  0008               	return
  5988  16C8                     __end_of_Lcd_Write_Char:	
  5989                           
  5990                           	psect	text17
  5991  1754                     __ptext17:	
  5992 ;; *************** function _Lcd_Set_Cursor *****************
  5993 ;; Defined at:
  5994 ;;		line 42 in file "lcd4.c"
  5995 ;; Parameters:    Size  Location     Type
  5996 ;;  a               1    wreg     unsigned char 
  5997 ;;  b               1    6[COMMON] unsigned char 
  5998 ;; Auto vars:     Size  Location     Type
  5999 ;;  a               1    0[BANK0 ] unsigned char 
  6000 ;;  temp            1    3[BANK0 ] unsigned char 
  6001 ;;  y               1    2[BANK0 ] unsigned char 
  6002 ;;  z               1    1[BANK0 ] unsigned char 
  6003 ;; Return value:  Size  Location     Type
  6004 ;;                  1    wreg      void 
  6005 ;; Registers used:
  6006 ;;		wreg, status,2, status,0, pclath, cstack
  6007 ;; Tracked objects:
  6008 ;;		On entry : 0/0
  6009 ;;		On exit  : 0/0
  6010 ;;		Unchanged: 0/0
  6011 ;; Data sizes:     COMMON   BANK0   BANK1   BANK3   BANK2
  6012 ;;      Params:         1       0       0       0       0
  6013 ;;      Locals:         0       4       0       0       0
  6014 ;;      Temps:          2       0       0       0       0
  6015 ;;      Totals:         3       4       0       0       0
  6016 ;;Total ram usage:        7 bytes
  6017 ;; Hardware stack levels used:    1
  6018 ;; Hardware stack levels required when called:    3
  6019 ;; This function calls:
  6020 ;;		_Lcd_Cmd
  6021 ;; This function is called by:
  6022 ;;		_main
  6023 ;; This function uses a non-reentrant model
  6024 ;;
  6025                           
  6026                           
  6027                           ;psect for function _Lcd_Set_Cursor
  6028  1754                     _Lcd_Set_Cursor:	
  6029                           
  6030                           ;incstack = 0
  6031                           ; Regs used in _Lcd_Set_Cursor: [wreg+status,2+status,0+pclath+cstack]
  6032                           ;Lcd_Set_Cursor@a stored from wreg
  6033  1754  1283               	bcf	3,5	;RP0=0, select bank0
  6034  1755  1303               	bcf	3,6	;RP1=0, select bank0
  6035  1756  00A0               	movwf	Lcd_Set_Cursor@a
  6036                           
  6037                           ;lcd4.c: 42: void Lcd_Set_Cursor(char a, char b);lcd4.c: 43: {;lcd4.c: 44:  char temp,z,
      +                          y;;lcd4.c: 45:  if(a == 1)
  6038  1757  0320               	decf	Lcd_Set_Cursor@a,w
  6039  1758  1D03               	btfss	3,2
  6040  1759  2F7D               	goto	l2414
  6041                           
  6042                           ;lcd4.c: 46:  {;lcd4.c: 47:    temp = 0x80 + b - 1;
  6043  175A  0876               	movf	Lcd_Set_Cursor@b,w
  6044  175B  3E7F               	addlw	127
  6045  175C  00F7               	movwf	??_Lcd_Set_Cursor
  6046  175D  0877               	movf	??_Lcd_Set_Cursor,w
  6047  175E  00A3               	movwf	Lcd_Set_Cursor@temp
  6048                           
  6049                           ;lcd4.c: 48:   z = temp>>4;
  6050  175F  0823               	movf	Lcd_Set_Cursor@temp,w
  6051  1760  00F7               	movwf	??_Lcd_Set_Cursor
  6052  1761  3004               	movlw	4
  6053  1762                     u3275:	
  6054  1762  1003               	clrc
  6055  1763  0CF7               	rrf	??_Lcd_Set_Cursor,f
  6056  1764  3EFF               	addlw	-1
  6057  1765  1D03               	skipz
  6058  1766  2F62               	goto	u3275
  6059  1767  0877               	movf	??_Lcd_Set_Cursor,w
  6060  1768  00F8               	movwf	??_Lcd_Set_Cursor+1
  6061  1769  0878               	movf	??_Lcd_Set_Cursor+1,w
  6062  176A  00A1               	movwf	Lcd_Set_Cursor@z
  6063                           
  6064                           ;lcd4.c: 49:   y = temp & 0x0F;
  6065  176B  0823               	movf	Lcd_Set_Cursor@temp,w
  6066  176C  390F               	andlw	15
  6067  176D  00F7               	movwf	??_Lcd_Set_Cursor
  6068  176E  0877               	movf	??_Lcd_Set_Cursor,w
  6069  176F  00A2               	movwf	Lcd_Set_Cursor@y
  6070                           
  6071                           ;lcd4.c: 50:   Lcd_Cmd(z);
  6072  1770  0821               	movf	Lcd_Set_Cursor@z,w
  6073  1771  160A  118A  25FE  160A  118A  	fcall	_Lcd_Cmd
  6074                           
  6075                           ;lcd4.c: 51:   Lcd_Cmd(y);
  6076  1776  1283               	bcf	3,5	;RP0=0, select bank0
  6077  1777  1303               	bcf	3,6	;RP1=0, select bank0
  6078  1778  0822               	movf	Lcd_Set_Cursor@y,w
  6079  1779  160A  118A  25FE   	fcall	_Lcd_Cmd
  6080                           
  6081                           ;lcd4.c: 52:  }
  6082  177C  0008               	return
  6083  177D                     l2414:	
  6084  177D  3002               	movlw	2
  6085  177E  0620               	xorwf	Lcd_Set_Cursor@a,w
  6086  177F  1D03               	btfss	3,2
  6087  1780  0008               	return
  6088                           
  6089                           ;lcd4.c: 54:  {;lcd4.c: 55:   temp = 0xC0 + b - 1;
  6090  1781  0876               	movf	Lcd_Set_Cursor@b,w
  6091  1782  3EBF               	addlw	191
  6092  1783  00F7               	movwf	??_Lcd_Set_Cursor
  6093  1784  0877               	movf	??_Lcd_Set_Cursor,w
  6094  1785  00A3               	movwf	Lcd_Set_Cursor@temp
  6095                           
  6096                           ;lcd4.c: 56:   z = temp>>4;
  6097  1786  0823               	movf	Lcd_Set_Cursor@temp,w
  6098  1787  00F7               	movwf	??_Lcd_Set_Cursor
  6099  1788  3004               	movlw	4
  6100  1789                     u3295:	
  6101  1789  1003               	clrc
  6102  178A  0CF7               	rrf	??_Lcd_Set_Cursor,f
  6103  178B  3EFF               	addlw	-1
  6104  178C  1D03               	skipz
  6105  178D  2F89               	goto	u3295
  6106  178E  0877               	movf	??_Lcd_Set_Cursor,w
  6107  178F  00F8               	movwf	??_Lcd_Set_Cursor+1
  6108  1790  0878               	movf	??_Lcd_Set_Cursor+1,w
  6109  1791  00A1               	movwf	Lcd_Set_Cursor@z
  6110                           
  6111                           ;lcd4.c: 57:   y = temp & 0x0F;
  6112  1792  0823               	movf	Lcd_Set_Cursor@temp,w
  6113  1793  390F               	andlw	15
  6114  1794  00F7               	movwf	??_Lcd_Set_Cursor
  6115  1795  0877               	movf	??_Lcd_Set_Cursor,w
  6116  1796  00A2               	movwf	Lcd_Set_Cursor@y
  6117                           
  6118                           ;lcd4.c: 58:   Lcd_Cmd(z);
  6119  1797  0821               	movf	Lcd_Set_Cursor@z,w
  6120  1798  160A  118A  25FE  160A  118A  	fcall	_Lcd_Cmd
  6121                           
  6122                           ;lcd4.c: 59:   Lcd_Cmd(y);
  6123  179D  1283               	bcf	3,5	;RP0=0, select bank0
  6124  179E  1303               	bcf	3,6	;RP1=0, select bank0
  6125  179F  0822               	movf	Lcd_Set_Cursor@y,w
  6126  17A0  160A  118A  25FE   	fcall	_Lcd_Cmd
  6127  17A3  0008               	return
  6128  17A4                     __end_of_Lcd_Set_Cursor:	
  6129                           
  6130                           	psect	text18
  6131  17A4                     __ptext18:	
  6132 ;; *************** function _Lcd_Init *****************
  6133 ;; Defined at:
  6134 ;;		line 63 in file "lcd4.c"
  6135 ;; Parameters:    Size  Location     Type
  6136 ;;		None
  6137 ;; Auto vars:     Size  Location     Type
  6138 ;;		None
  6139 ;; Return value:  Size  Location     Type
  6140 ;;                  1    wreg      void 
  6141 ;; Registers used:
  6142 ;;		wreg, status,2, status,0, pclath, cstack
  6143 ;; Tracked objects:
  6144 ;;		On entry : 0/0
  6145 ;;		On exit  : 0/0
  6146 ;;		Unchanged: 0/0
  6147 ;; Data sizes:     COMMON   BANK0   BANK1   BANK3   BANK2
  6148 ;;      Params:         0       0       0       0       0
  6149 ;;      Locals:         0       0       0       0       0
  6150 ;;      Temps:          2       0       0       0       0
  6151 ;;      Totals:         2       0       0       0       0
  6152 ;;Total ram usage:        2 bytes
  6153 ;; Hardware stack levels used:    1
  6154 ;; Hardware stack levels required when called:    3
  6155 ;; This function calls:
  6156 ;;		_Lcd_Cmd
  6157 ;;		_Lcd_Port
  6158 ;; This function is called by:
  6159 ;;		_main
  6160 ;; This function uses a non-reentrant model
  6161 ;;
  6162                           
  6163                           
  6164                           ;psect for function _Lcd_Init
  6165  17A4                     _Lcd_Init:	
  6166                           
  6167                           ;lcd4.c: 65:   Lcd_Port(0x00);
  6168                           
  6169                           ;incstack = 0
  6170                           ; Regs used in _Lcd_Init: [wreg+status,2+status,0+pclath+cstack]
  6171  17A4  3000               	movlw	0
  6172  17A5  160A  118A  25E4  160A  118A  	fcall	_Lcd_Port
  6173                           
  6174                           ;lcd4.c: 66:    _delay((unsigned long)((20)*(20000000/4000.0)));
  6175  17AA  3082               	movlw	130
  6176  17AB  00F7               	movwf	??_Lcd_Init+1
  6177  17AC  30DD               	movlw	221
  6178  17AD  00F6               	movwf	??_Lcd_Init
  6179  17AE                     u3487:	
  6180  17AE  0BF6               	decfsz	??_Lcd_Init,f
  6181  17AF  2FAE               	goto	u3487
  6182  17B0  0BF7               	decfsz	??_Lcd_Init+1,f
  6183  17B1  2FAE               	goto	u3487
  6184  17B2  2FB3               	nop2
  6185                           
  6186                           ;lcd4.c: 67:   Lcd_Cmd(0x03);
  6187  17B3  3003               	movlw	3
  6188  17B4  160A  118A  25FE  160A  118A  	fcall	_Lcd_Cmd
  6189                           
  6190                           ;lcd4.c: 68:  _delay((unsigned long)((5)*(20000000/4000.0)));
  6191  17B9  3021               	movlw	33
  6192  17BA  00F7               	movwf	??_Lcd_Init+1
  6193  17BB  3076               	movlw	118
  6194  17BC  00F6               	movwf	??_Lcd_Init
  6195  17BD                     u3497:	
  6196  17BD  0BF6               	decfsz	??_Lcd_Init,f
  6197  17BE  2FBD               	goto	u3497
  6198  17BF  0BF7               	decfsz	??_Lcd_Init+1,f
  6199  17C0  2FBD               	goto	u3497
  6200  17C1  0000               	nop
  6201                           
  6202                           ;lcd4.c: 69:   Lcd_Cmd(0x03);
  6203  17C2  3003               	movlw	3
  6204  17C3  160A  118A  25FE  160A  118A  	fcall	_Lcd_Cmd
  6205                           
  6206                           ;lcd4.c: 70:  _delay((unsigned long)((11)*(20000000/4000.0)));
  6207  17C8  3048               	movlw	72
  6208  17C9  00F7               	movwf	??_Lcd_Init+1
  6209  17CA  306C               	movlw	108
  6210  17CB  00F6               	movwf	??_Lcd_Init
  6211  17CC                     u3507:	
  6212  17CC  0BF6               	decfsz	??_Lcd_Init,f
  6213  17CD  2FCC               	goto	u3507
  6214  17CE  0BF7               	decfsz	??_Lcd_Init+1,f
  6215  17CF  2FCC               	goto	u3507
  6216  17D0  0000               	nop
  6217                           
  6218                           ;lcd4.c: 71:   Lcd_Cmd(0x03);
  6219  17D1  3003               	movlw	3
  6220  17D2  160A  118A  25FE  160A  118A  	fcall	_Lcd_Cmd
  6221                           
  6222                           ;lcd4.c: 73:   Lcd_Cmd(0x02);
  6223  17D7  3002               	movlw	2
  6224  17D8  160A  118A  25FE  160A  118A  	fcall	_Lcd_Cmd
  6225                           
  6226                           ;lcd4.c: 74:   Lcd_Cmd(0x02);
  6227  17DD  3002               	movlw	2
  6228  17DE  160A  118A  25FE  160A  118A  	fcall	_Lcd_Cmd
  6229                           
  6230                           ;lcd4.c: 75:   Lcd_Cmd(0x08);
  6231  17E3  3008               	movlw	8
  6232  17E4  160A  118A  25FE  160A  118A  	fcall	_Lcd_Cmd
  6233                           
  6234                           ;lcd4.c: 76:   Lcd_Cmd(0x00);
  6235  17E9  3000               	movlw	0
  6236  17EA  160A  118A  25FE  160A  118A  	fcall	_Lcd_Cmd
  6237                           
  6238                           ;lcd4.c: 77:   Lcd_Cmd(0x0C);
  6239  17EF  300C               	movlw	12
  6240  17F0  160A  118A  25FE  160A  118A  	fcall	_Lcd_Cmd
  6241                           
  6242                           ;lcd4.c: 78:   Lcd_Cmd(0x00);
  6243  17F5  3000               	movlw	0
  6244  17F6  160A  118A  25FE  160A  118A  	fcall	_Lcd_Cmd
  6245                           
  6246                           ;lcd4.c: 79:   Lcd_Cmd(0x06);
  6247  17FB  3006               	movlw	6
  6248  17FC  160A  118A  25FE   	fcall	_Lcd_Cmd
  6249  17FF  0008               	return
  6250  1800                     __end_of_Lcd_Init:	
  6251                           
  6252                           	psect	text19
  6253  15FE                     __ptext19:	
  6254 ;; *************** function _Lcd_Cmd *****************
  6255 ;; Defined at:
  6256 ;;		line 27 in file "lcd4.c"
  6257 ;; Parameters:    Size  Location     Type
  6258 ;;  a               1    wreg     unsigned char 
  6259 ;; Auto vars:     Size  Location     Type
  6260 ;;  a               1    5[COMMON] unsigned char 
  6261 ;; Return value:  Size  Location     Type
  6262 ;;                  1    wreg      void 
  6263 ;; Registers used:
  6264 ;;		wreg, status,2, status,0, pclath, cstack
  6265 ;; Tracked objects:
  6266 ;;		On entry : 0/0
  6267 ;;		On exit  : 0/0
  6268 ;;		Unchanged: 0/0
  6269 ;; Data sizes:     COMMON   BANK0   BANK1   BANK3   BANK2
  6270 ;;      Params:         0       0       0       0       0
  6271 ;;      Locals:         1       0       0       0       0
  6272 ;;      Temps:          2       0       0       0       0
  6273 ;;      Totals:         3       0       0       0       0
  6274 ;;Total ram usage:        3 bytes
  6275 ;; Hardware stack levels used:    1
  6276 ;; Hardware stack levels required when called:    2
  6277 ;; This function calls:
  6278 ;;		_Lcd_Port
  6279 ;; This function is called by:
  6280 ;;		_Lcd_Set_Cursor
  6281 ;;		_Lcd_Init
  6282 ;;		_Lcd_Clear
  6283 ;;		_Lcd_Shift_Right
  6284 ;;		_Lcd_Shift_Left
  6285 ;; This function uses a non-reentrant model
  6286 ;;
  6287                           
  6288                           
  6289                           ;psect for function _Lcd_Cmd
  6290  15FE                     _Lcd_Cmd:	
  6291                           
  6292                           ;incstack = 0
  6293                           ; Regs used in _Lcd_Cmd: [wreg+status,2+status,0+pclath+cstack]
  6294                           ;Lcd_Cmd@a stored from wreg
  6295  15FE  00F5               	movwf	Lcd_Cmd@a
  6296                           
  6297                           ;lcd4.c: 27: void Lcd_Cmd(char a);lcd4.c: 28: {;lcd4.c: 29:  RD0 = 0;
  6298  15FF  1283               	bcf	3,5	;RP0=0, select bank0
  6299  1600  1303               	bcf	3,6	;RP1=0, select bank0
  6300  1601  1008               	bcf	8,0	;volatile
  6301                           
  6302                           ;lcd4.c: 30:  Lcd_Port(a);
  6303  1602  0875               	movf	Lcd_Cmd@a,w
  6304  1603  160A  118A  25E4  160A  118A  	fcall	_Lcd_Port
  6305                           
  6306                           ;lcd4.c: 31:  RD1 = 1;
  6307  1608  1283               	bcf	3,5	;RP0=0, select bank0
  6308  1609  1303               	bcf	3,6	;RP1=0, select bank0
  6309  160A  1488               	bsf	8,1	;volatile
  6310                           
  6311                           ;lcd4.c: 32:         _delay((unsigned long)((4)*(20000000/4000.0)));
  6312  160B  301A               	movlw	26
  6313  160C  00F4               	movwf	??_Lcd_Cmd+1
  6314  160D  30F8               	movlw	248
  6315  160E  00F3               	movwf	??_Lcd_Cmd
  6316  160F                     u3517:	
  6317  160F  0BF3               	decfsz	??_Lcd_Cmd,f
  6318  1610  2E0F               	goto	u3517
  6319  1611  0BF4               	decfsz	??_Lcd_Cmd+1,f
  6320  1612  2E0F               	goto	u3517
  6321  1613  0000               	nop
  6322                           
  6323                           ;lcd4.c: 33:         RD1 = 0;
  6324  1614  1283               	bcf	3,5	;RP0=0, select bank0
  6325  1615  1303               	bcf	3,6	;RP1=0, select bank0
  6326  1616  1088               	bcf	8,1	;volatile
  6327  1617  0008               	return
  6328  1618                     __end_of_Lcd_Cmd:	
  6329                           
  6330                           	psect	text20
  6331  15E4                     __ptext20:	
  6332 ;; *************** function _Lcd_Port *****************
  6333 ;; Defined at:
  6334 ;;		line 5 in file "lcd4.c"
  6335 ;; Parameters:    Size  Location     Type
  6336 ;;  a               1    wreg     unsigned char 
  6337 ;; Auto vars:     Size  Location     Type
  6338 ;;  a               1    2[COMMON] unsigned char 
  6339 ;; Return value:  Size  Location     Type
  6340 ;;                  1    wreg      void 
  6341 ;; Registers used:
  6342 ;;		wreg
  6343 ;; Tracked objects:
  6344 ;;		On entry : 0/0
  6345 ;;		On exit  : 0/0
  6346 ;;		Unchanged: 0/0
  6347 ;; Data sizes:     COMMON   BANK0   BANK1   BANK3   BANK2
  6348 ;;      Params:         0       0       0       0       0
  6349 ;;      Locals:         1       0       0       0       0
  6350 ;;      Temps:          0       0       0       0       0
  6351 ;;      Totals:         1       0       0       0       0
  6352 ;;Total ram usage:        1 bytes
  6353 ;; Hardware stack levels used:    1
  6354 ;; Hardware stack levels required when called:    1
  6355 ;; This function calls:
  6356 ;;		Nothing
  6357 ;; This function is called by:
  6358 ;;		_Lcd_Cmd
  6359 ;;		_Lcd_Init
  6360 ;;		_Lcd_Write_Char
  6361 ;; This function uses a non-reentrant model
  6362 ;;
  6363                           
  6364                           
  6365                           ;psect for function _Lcd_Port
  6366  15E4                     _Lcd_Port:	
  6367                           
  6368                           ;incstack = 0
  6369                           ; Regs used in _Lcd_Port: [wreg]
  6370                           ;Lcd_Port@a stored from wreg
  6371  15E4  00F2               	movwf	Lcd_Port@a
  6372                           
  6373                           ;lcd4.c: 5: void Lcd_Port(char a);lcd4.c: 6: {;lcd4.c: 7:  if(a & 1)
  6374  15E5  1C72               	btfss	Lcd_Port@a,0
  6375  15E6  2DEB               	goto	l162
  6376                           
  6377                           ;lcd4.c: 8:   RD2 = 1;
  6378  15E7  1283               	bcf	3,5	;RP0=0, select bank0
  6379  15E8  1303               	bcf	3,6	;RP1=0, select bank0
  6380  15E9  1508               	bsf	8,2	;volatile
  6381  15EA  2DEE               	goto	l163
  6382  15EB                     l162:	
  6383                           ;lcd4.c: 9:  else
  6384                           
  6385                           
  6386                           ;lcd4.c: 10:   RD2 = 0;
  6387  15EB  1283               	bcf	3,5	;RP0=0, select bank0
  6388  15EC  1303               	bcf	3,6	;RP1=0, select bank0
  6389  15ED  1108               	bcf	8,2	;volatile
  6390  15EE                     l163:	
  6391                           
  6392                           ;lcd4.c: 12:  if(a & 2)
  6393  15EE  1CF2               	btfss	Lcd_Port@a,1
  6394  15EF  2DF2               	goto	l164
  6395                           
  6396                           ;lcd4.c: 13:   RD3 = 1;
  6397  15F0  1588               	bsf	8,3	;volatile
  6398  15F1  2DF3               	goto	l165
  6399  15F2                     l164:	
  6400                           ;lcd4.c: 14:  else
  6401                           
  6402                           
  6403                           ;lcd4.c: 15:   RD3 = 0;
  6404  15F2  1188               	bcf	8,3	;volatile
  6405  15F3                     l165:	
  6406                           
  6407                           ;lcd4.c: 17:  if(a & 4)
  6408  15F3  1D72               	btfss	Lcd_Port@a,2
  6409  15F4  2DF7               	goto	l166
  6410                           
  6411                           ;lcd4.c: 18:   RD4 = 1;
  6412  15F5  1608               	bsf	8,4	;volatile
  6413  15F6  2DF8               	goto	l167
  6414  15F7                     l166:	
  6415                           ;lcd4.c: 19:  else
  6416                           
  6417                           
  6418                           ;lcd4.c: 20:   RD4 = 0;
  6419  15F7  1208               	bcf	8,4	;volatile
  6420  15F8                     l167:	
  6421                           
  6422                           ;lcd4.c: 22:  if(a & 8)
  6423  15F8  1DF2               	btfss	Lcd_Port@a,3
  6424  15F9  2DFC               	goto	l168
  6425                           
  6426                           ;lcd4.c: 23:   RD5 = 1;
  6427  15FA  1688               	bsf	8,5	;volatile
  6428  15FB  0008               	return
  6429  15FC                     l168:	
  6430                           ;lcd4.c: 24:  else
  6431                           
  6432                           
  6433                           ;lcd4.c: 25:   RD5 = 0;
  6434  15FC  1288               	bcf	8,5	;volatile
  6435  15FD  0008               	return
  6436  15FE                     __end_of_Lcd_Port:	
  6437                           
  6438                           	psect	text21
  6439  15AB                     __ptext21:	
  6440 ;; *************** function _Capture_Init *****************
  6441 ;; Defined at:
  6442 ;;		line 117 in file "PWM.c"
  6443 ;; Parameters:    Size  Location     Type
  6444 ;;		None
  6445 ;; Auto vars:     Size  Location     Type
  6446 ;;		None
  6447 ;; Return value:  Size  Location     Type
  6448 ;;                  1    wreg      void 
  6449 ;; Registers used:
  6450 ;;		status,2
  6451 ;; Tracked objects:
  6452 ;;		On entry : 0/0
  6453 ;;		On exit  : 0/0
  6454 ;;		Unchanged: 0/0
  6455 ;; Data sizes:     COMMON   BANK0   BANK1   BANK3   BANK2
  6456 ;;      Params:         0       0       0       0       0
  6457 ;;      Locals:         0       0       0       0       0
  6458 ;;      Temps:          0       0       0       0       0
  6459 ;;      Totals:         0       0       0       0       0
  6460 ;;Total ram usage:        0 bytes
  6461 ;; Hardware stack levels used:    1
  6462 ;; Hardware stack levels required when called:    1
  6463 ;; This function calls:
  6464 ;;		Nothing
  6465 ;; This function is called by:
  6466 ;;		_main
  6467 ;; This function uses a non-reentrant model
  6468 ;;
  6469                           
  6470                           
  6471                           ;psect for function _Capture_Init
  6472  15AB                     _Capture_Init:	
  6473                           
  6474                           ;PWM.c: 119:     TRISC1 = 1;
  6475                           
  6476                           ;incstack = 0
  6477                           ; Regs used in _Capture_Init: [status,2]
  6478  15AB  1683               	bsf	3,5	;RP0=1, select bank1
  6479  15AC  1303               	bcf	3,6	;RP1=0, select bank1
  6480  15AD  1487               	bsf	7,1	;volatile
  6481                           
  6482                           ;PWM.c: 120:     CCPR2 = 0;
  6483  15AE  1283               	bcf	3,5	;RP0=0, select bank0
  6484  15AF  1303               	bcf	3,6	;RP1=0, select bank0
  6485  15B0  019B               	clrf	27	;volatile
  6486  15B1  019C               	clrf	28	;volatile
  6487                           
  6488                           ;PWM.c: 121:     CCP2IE = 1;
  6489  15B2  1683               	bsf	3,5	;RP0=1, select bank1
  6490  15B3  1303               	bcf	3,6	;RP1=0, select bank1
  6491  15B4  140D               	bsf	13,0	;volatile
  6492                           
  6493                           ;PWM.c: 122:     CCP2M3 = 0;
  6494  15B5  1283               	bcf	3,5	;RP0=0, select bank0
  6495  15B6  1303               	bcf	3,6	;RP1=0, select bank0
  6496  15B7  119D               	bcf	29,3	;volatile
  6497                           
  6498                           ;PWM.c: 123:     CCP2M2 = 1;
  6499  15B8  151D               	bsf	29,2	;volatile
  6500                           
  6501                           ;PWM.c: 124:     CCP2M1 = 0;
  6502  15B9  109D               	bcf	29,1	;volatile
  6503                           
  6504                           ;PWM.c: 125:     CCP2M0 = 1;
  6505  15BA  141D               	bsf	29,0	;volatile
  6506  15BB  0008               	return
  6507  15BC                     __end_of_Capture_Init:	
  6508                           
  6509                           	psect	text22
  6510  15BC                     __ptext22:	
  6511 ;; *************** function _My_interrupt *****************
  6512 ;; Defined at:
  6513 ;;		line 127 in file "PWM.c"
  6514 ;; Parameters:    Size  Location     Type
  6515 ;;		None
  6516 ;; Auto vars:     Size  Location     Type
  6517 ;;		None
  6518 ;; Return value:  Size  Location     Type
  6519 ;;                  1    wreg      void 
  6520 ;; Registers used:
  6521 ;;		status,2
  6522 ;; Tracked objects:
  6523 ;;		On entry : 0/0
  6524 ;;		On exit  : 0/0
  6525 ;;		Unchanged: 0/0
  6526 ;; Data sizes:     COMMON   BANK0   BANK1   BANK3   BANK2
  6527 ;;      Params:         0       0       0       0       0
  6528 ;;      Locals:         0       0       0       0       0
  6529 ;;      Temps:          2       0       0       0       0
  6530 ;;      Totals:         2       0       0       0       0
  6531 ;;Total ram usage:        2 bytes
  6532 ;; Hardware stack levels used:    1
  6533 ;; This function calls:
  6534 ;;		Nothing
  6535 ;; This function is called by:
  6536 ;;		Interrupt level 1
  6537 ;; This function uses a non-reentrant model
  6538 ;;
  6539                           
  6540                           
  6541                           ;psect for function _My_interrupt
  6542  15BC                     _My_interrupt:	
  6543                           
  6544                           ;PWM.c: 129:     if(CCP2IE == 1 && CCP2IF == 1)
  6545  15BC  1683               	bsf	3,5	;RP0=1, select bank1
  6546  15BD  1303               	bcf	3,6	;RP1=0, select bank1
  6547  15BE  1C0D               	btfss	13,0	;volatile
  6548  15BF  2DC7               	goto	i1l140
  6549  15C0  1283               	bcf	3,5	;RP0=0, select bank0
  6550  15C1  1303               	bcf	3,6	;RP1=0, select bank0
  6551  15C2  1C0D               	btfss	13,0	;volatile
  6552  15C3  2DC7               	goto	i1l140
  6553                           
  6554                           ;PWM.c: 130:     {;PWM.c: 131:         TMR1 = 0;
  6555  15C4  018E               	clrf	14	;volatile
  6556  15C5  018F               	clrf	15	;volatile
  6557                           
  6558                           ;PWM.c: 132:         CCP2IF = 0;
  6559  15C6  100D               	bcf	13,0	;volatile
  6560  15C7                     i1l140:	
  6561  15C7  0871               	movf	??_My_interrupt+1,w
  6562  15C8  008A               	movwf	10
  6563  15C9  0E70               	swapf	??_My_interrupt^(0+4294967168),w
  6564  15CA  0083               	movwf	3
  6565  15CB  0EFE               	swapf	126,f
  6566  15CC  0E7E               	swapf	126,w
  6567  15CD  0009               	retfie
  6568  15CE                     __end_of_My_interrupt:	
  6569  007E                     btemp	set	126	;btemp
  6570  007E                     wtemp0	set	126
  6571                           
  6572                           	psect	intentry
  6573  0004                     __pintentry:	
  6574                           ;incstack = 0
  6575                           ; Regs used in _My_interrupt: [status,2]
  6576                           
  6577  0004                     interrupt_function:	
  6578  007E                     saved_w	set	btemp
  6579  0004  00FE               	movwf	btemp
  6580  0005  0E03               	swapf	3,w
  6581  0006  00F0               	movwf	??_My_interrupt
  6582  0007  080A               	movf	10,w
  6583  0008  00F1               	movwf	??_My_interrupt+1
  6584  0009  160A  118A  2DBC   	ljmp	_My_interrupt


Data Sizes:
    Strings     19
    Constant    0
    Data        0
    BSS         12
    Persistent  48
    Stack       0

Auto Spaces:
    Space          Size  Autos    Used
    COMMON           14     12      12
    BANK0            80     80      80
    BANK1            80     38      78
    BANK3            96      0      20
    BANK2            96      0       0

Pointer List with Targets:

    Lcd_Write_String@a	PTR unsigned char  size(1) Largest target is 10
		 -> STR_2(CODE[9]), STR_1(CODE[10]), 


Critical Paths under _main in COMMON

    _main->___lwdiv
    ___lwdiv->___lwmod
    ___flmul->__Umul8_16
    _Lcd_Write_String->_Lcd_Write_Char
    _Lcd_Write_Char->_Lcd_Port
    _Lcd_Set_Cursor->_Lcd_Cmd
    _Lcd_Init->_Lcd_Cmd
    _Lcd_Cmd->_Lcd_Port

Critical Paths under _My_interrupt in COMMON

    None.

Critical Paths under _main in BANK0

    _PID_Init->___fladd
    ___fltol->___fldiv
    ___flsub->___fladd
    ___fladd->___fldiv
    ___flmul->___xxtofl
    ___fldiv->___flmul
    _Duty_Init->___fltol

Critical Paths under _My_interrupt in BANK0

    None.

Critical Paths under _main in BANK1

    _main->_PID_Init
    _PID_Init->___flsub

Critical Paths under _My_interrupt in BANK1

    None.

Critical Paths under _main in BANK3

    None.

Critical Paths under _My_interrupt in BANK3

    None.

Critical Paths under _main in BANK2

    None.

Critical Paths under _My_interrupt in BANK2

    None.

Call Graph Tables:

 ---------------------------------------------------------------------------------
 (Depth) Function   	        Calls       Base Space   Used Autos Params    Refs
 ---------------------------------------------------------------------------------
 (0) _main                                                16    16      0   24809
                                             78 BANK0      2     2      0
                                             24 BANK1     14    14      0
                       _Capture_Init
                          _Duty_Init
                           _Lcd_Init
                     _Lcd_Set_Cursor
                     _Lcd_Write_Char
                   _Lcd_Write_String
                           _PID_Init
                           _PWM_Init
                        _Timer1_Init
                            ___fldiv
                            ___flmul
                            ___fltol
                            ___lwdiv
                            ___lwmod
                           ___xxtofl
 ---------------------------------------------------------------------------------
 (1) ___lwmod                                              6     2      4    1375
                                              2 COMMON     6     2      4
 ---------------------------------------------------------------------------------
 (1) ___lwdiv                                              8     4      4    1378
                                              8 COMMON     4     0      4
                                              0 BANK0      4     4      0
                            ___lwmod (ARG)
 ---------------------------------------------------------------------------------
 (1) _Timer1_Init                                          0     0      0       0
 ---------------------------------------------------------------------------------
 (1) _PWM_Init                                             2     0      2      98
                                              2 COMMON     2     0      2
 ---------------------------------------------------------------------------------
 (1) _PID_Init                                            16    12      4   13610
                                              8 BANK1     16    12      4
                          _Duty_Init
                            ___fladd
                            ___fldiv
                             ___flge
                            ___flmul
                            ___flsub
                            ___fltol
                           ___xxtofl
 ---------------------------------------------------------------------------------
 (1) ___xxtofl                                            14    10      4     474
                                              2 COMMON     8     4      4
                                              0 BANK0      6     6      0
 ---------------------------------------------------------------------------------
 (1) ___fltol                                             11     7      4     381
                                             58 BANK0     11     7      4
                            ___fldiv (ARG)
                            ___flmul (ARG)
                           ___xxtofl (ARG)
 ---------------------------------------------------------------------------------
 (2) ___flsub                                              8     0      8    3245
                                              0 BANK1      8     0      8
                            ___fladd
                            ___fldiv (ARG)
                            ___flmul (ARG)
 ---------------------------------------------------------------------------------
 (3) ___fladd                                             20    12      8    2896
                                             58 BANK0     20    12      8
                            ___fldiv (ARG)
                            ___flmul (ARG)
 ---------------------------------------------------------------------------------
 (1) ___flmul                                             26    18      8    3633
                                              6 BANK0     26    18      8
                          __Umul8_16
                           ___xxtofl (ARG)
 ---------------------------------------------------------------------------------
 (2) __Umul8_16                                            9     7      2     799
                                              2 COMMON     9     7      2
 ---------------------------------------------------------------------------------
 (2) ___flge                                              12     4      8     486
                                              2 COMMON     8     0      8
                                              0 BANK0      4     4      0
 ---------------------------------------------------------------------------------
 (1) ___fldiv                                             26    18      8    2033
                                             32 BANK0     26    18      8
                            ___flmul (ARG)
                           ___xxtofl (ARG)
 ---------------------------------------------------------------------------------
 (2) _Duty_Init                                            2     0      2     174
                                             69 BANK0      2     0      2
                            ___fltol (ARG)
 ---------------------------------------------------------------------------------
 (1) _Lcd_Write_String                                     3     3      0     334
                                              7 COMMON     3     3      0
                     _Lcd_Write_Char
 ---------------------------------------------------------------------------------
 (2) _Lcd_Write_Char                                       4     4      0     178
                                              3 COMMON     4     4      0
                           _Lcd_Port
 ---------------------------------------------------------------------------------
 (1) _Lcd_Set_Cursor                                       7     6      1     608
                                              6 COMMON     3     2      1
                                              0 BANK0      4     4      0
                            _Lcd_Cmd
 ---------------------------------------------------------------------------------
 (1) _Lcd_Init                                             2     2      0     198
                                              6 COMMON     2     2      0
                            _Lcd_Cmd
                           _Lcd_Port
 ---------------------------------------------------------------------------------
 (2) _Lcd_Cmd                                              3     3      0     110
                                              3 COMMON     3     3      0
                           _Lcd_Port
 ---------------------------------------------------------------------------------
 (3) _Lcd_Port                                             1     1      0      88
                                              2 COMMON     1     1      0
 ---------------------------------------------------------------------------------
 (1) _Capture_Init                                         0     0      0       0
 ---------------------------------------------------------------------------------
 Estimated maximum stack depth 3
 ---------------------------------------------------------------------------------
 (Depth) Function   	        Calls       Base Space   Used Autos Params    Refs
 ---------------------------------------------------------------------------------
 (4) _My_interrupt                                         2     2      0       0
                                              0 COMMON     2     2      0
 ---------------------------------------------------------------------------------
 Estimated maximum stack depth 4
 ---------------------------------------------------------------------------------

 Call Graph Graphs:

 _main (ROOT)
   _Capture_Init
   _Duty_Init
     ___fltol (ARG)
       ___fldiv (ARG)
         ___flmul (ARG)
           __Umul8_16
           ___xxtofl (ARG)
         ___xxtofl (ARG)
       ___flmul (ARG)
         __Umul8_16
         ___xxtofl (ARG)
       ___xxtofl (ARG)
   _Lcd_Init
     _Lcd_Cmd
       _Lcd_Port
     _Lcd_Port
   _Lcd_Set_Cursor
     _Lcd_Cmd
       _Lcd_Port
   _Lcd_Write_Char
     _Lcd_Port
   _Lcd_Write_String
     _Lcd_Write_Char
       _Lcd_Port
   _PID_Init
     _Duty_Init
       ___fltol (ARG)
         ___fldiv (ARG)
           ___flmul (ARG)
             __Umul8_16
             ___xxtofl (ARG)
           ___xxtofl (ARG)
         ___flmul (ARG)
           __Umul8_16
           ___xxtofl (ARG)
         ___xxtofl (ARG)
     ___fladd
       ___fldiv (ARG)
         ___flmul (ARG)
           __Umul8_16
           ___xxtofl (ARG)
         ___xxtofl (ARG)
       ___flmul (ARG)
         __Umul8_16
         ___xxtofl (ARG)
     ___fldiv
       ___flmul (ARG)
         __Umul8_16
         ___xxtofl (ARG)
       ___xxtofl (ARG)
     ___flge
     ___flmul
       __Umul8_16
       ___xxtofl (ARG)
     ___flsub
       ___fladd
         ___fldiv (ARG)
           ___flmul (ARG)
             __Umul8_16
             ___xxtofl (ARG)
           ___xxtofl (ARG)
         ___flmul (ARG)
           __Umul8_16
           ___xxtofl (ARG)
       ___fldiv (ARG)
         ___flmul (ARG)
           __Umul8_16
           ___xxtofl (ARG)
         ___xxtofl (ARG)
       ___flmul (ARG)
         __Umul8_16
         ___xxtofl (ARG)
     ___fltol
       ___fldiv (ARG)
         ___flmul (ARG)
           __Umul8_16
           ___xxtofl (ARG)
         ___xxtofl (ARG)
       ___flmul (ARG)
         __Umul8_16
         ___xxtofl (ARG)
       ___xxtofl (ARG)
     ___xxtofl
   _PWM_Init
   _Timer1_Init
   ___fldiv
     ___flmul (ARG)
       __Umul8_16
       ___xxtofl (ARG)
     ___xxtofl (ARG)
   ___flmul
     __Umul8_16
     ___xxtofl (ARG)
   ___fltol
     ___fldiv (ARG)
       ___flmul (ARG)
         __Umul8_16
         ___xxtofl (ARG)
       ___xxtofl (ARG)
     ___flmul (ARG)
       __Umul8_16
       ___xxtofl (ARG)
     ___xxtofl (ARG)
   ___lwdiv
     ___lwmod (ARG)
   ___lwmod
   ___xxtofl

 _My_interrupt (ROOT)

 Address spaces:
Name               Size   Autos  Total    Cost      Usage
BITCOMMON            E      0       0       0        0.0%
EEDATA             100      0       0       0        0.0%
NULL                 0      0       0       0        0.0%
CODE                 0      0       0       0        0.0%
COMMON               E      C       C       1       85.7%
BITSFR0              0      0       0       1        0.0%
SFR0                 0      0       0       1        0.0%
BITSFR1              0      0       0       2        0.0%
SFR1                 0      0       0       2        0.0%
STACK                0      0       0       2        0.0%
ABS                  0      0      BE       3        0.0%
BITBANK0            50      0       0       4        0.0%
BITSFR3              0      0       0       4        0.0%
SFR3                 0      0       0       4        0.0%
BANK0               50     50      50       5      100.0%
BITSFR2              0      0       0       5        0.0%
SFR2                 0      0       0       5        0.0%
BITBANK1            50      0       0       6        0.0%
BANK1               50     26      4E       7       97.5%
BITBANK3            60      0       0       8        0.0%
BANK3               60      0      14       9       20.8%
BITBANK2            60      0       0      10        0.0%
BANK2               60      0       0      11        0.0%
DATA                 0      0      BE      12        0.0%


Microchip Technology PIC Macro Assembler V2.05 build -831301201 
Symbol Table                                                                                   Wed Apr 03 21:33:24 2019

                        _E 00DE                          _T 00D6               ___fldiv@aexp 0059  
             ___fldiv@bexp 0058                          pc 0002               ___fldiv@sign 0051  
              __CFG_CP$OFF 0000                         _E1 00DA                         _E2 01A0  
                       _a1 019C                         _a2 0198                         _a3 0194  
                       _Kd 00CA                         _Ki 00CE                         _Kp 00D2  
                       fsr 0004       __end_of_Capture_Init 15BC        __Umul8_16@word_mpld 0078  
                      l162 15EB                        l163 15EE                        l164 15F2  
                      l165 15F3                        l166 15F7                        l167 15F8  
                      l168 15FC                        l600 0C81                        l460 081C  
                      l621 0D01                        l613 0CE9                        l463 0882  
                      l713 08B4                        l635 0988                        l732 164C  
                      l726 090A                        l583 0BC8                        l479 07E0  
                      l727 0914                        l719 08F4                        l657 0AC7  
                      l585 0BA6                        l659 0AD5                        l579 0B2F  
                      l687 0784                        _GIE 005F                        _RD0 0040  
                      _RD1 0041                        _RD2 0042                        _RD3 0043  
                      _RD4 0044                        _RD5 0045                        _RD7 0047  
                      _PR2 0092               __CFG_CPD$OFF 0000                        fsr0 0004  
                      _out 00C6               __CFG_FOSC$HS 0000               ___flmul@aexp 0038  
             ___flmul@bexp 0039               ___flmul@sign 0033               ___flmul@temp 003E  
             ___flmul@prod 003A               __CFG_LVP$OFF 0000               ___fltol@exp1 0064  
                     l2022 0957                       l2114 0A60                       l2106 0A2C  
                     l2042 097D                       l2026 095A                       l2132 0AAD  
                     l2108 0A49                       l2028 0962                       l2118 0A62  
                     l2062 09B3                       l2046 0980                       l2302 08C3  
                     l2144 0AD1                       l2128 0A94                       l2056 09A7  
                     l2402 161B                       l2082 0A02                       l2090 09DE  
                     l2330 0931                       l2306 08C7                       l2092 0A26  
                     l2164 0499                       l2316 0908                       l2308 08D9  
                     l2414 177D                       l2254 070A                       l2246 06D6  
                     l2182 04BE                       l2166 049B                       l2318 08F9  
                     l2502 168A                       l2088 0A21                       l2272 0754  
                     l2248 06F3                       l2184 04C0                       l2168 04A3  
                     l1800 0BC2                       l2258 070C                       l2194 04D6  
                     l2186 04C8                       l1722 0AFD                       l2530 0DC8  
                     l2268 073E                       l1724 0B05                       l2452 0432  
                     l1902 1644                       l2278 076D                       l1742 0B24  
                     l1718 0AFA                       l2470 16E0                       l1816 0BF7  
                     l1808 0BD6                       l1752 0B39                       l2296 08AC  
                     l2456 0455                       l2480 1701                       l1818 0BF9  
                     l1826 0C09                       l1746 0B27                       l1852 0CA2  
                     l1844 0C93                       l1836 0C73                       l1860 0CAB  
                     l2476 16F6                       l2468 16D2                       l2492 1663  
                     l1870 0CB6                       l1790 0BB1                       l1782 0B75  
                     l2494 1671                       l1952 0836                       l1792 0BB3  
                     l1866 0CB4                       l1858 0CA9                       l2498 167F  
                     l1956 085C                       l1892 0CFD                       l1972 07A5  
                     l1990 07DC                       l1888 0CF9                       l1968 079C  
                     l1988 07CC                       l1998 07EF                       STR_1 1006  
                     STR_2 1010                       u2021 0C34                       u2013 0C1B  
                     u2005 0BFD                       u2030 0C48                       u2022 0C35  
                     u2031 0C49                       u2023 0C3A                       u2032 0C4E  
                     u2024 0C3B                       u2033 0C4F                       u2025 0C40  
                     u2026 0C41                       u3005 06E5                       u2311 0847  
                     u2312 0848                       u2313 084D                       u2314 084E  
                     u2331 086D                       u2315 0853                       u2075 0C95  
                     u2332 086E                       u2316 0854                       u2333 0873  
                     u2334 0874                       u2335 0879                       u2255 164D  
                     u2175 0CD3                       u2336 087A                       u2425 07E5  
                     u3225 091C                       u3145 08D0                       u2275 16A0  
                     u3075 0729                       u3085 0747                       u2365 07AE  
                     u3165 08EC                       u3405 1666                       u2615 0A30  
                     u3095 075F                       u3335 16D5                       u2705 0A7F  
                     u2545 09E7                       u3185 0901                       u3425 1677  
                     u3507 17CC                       u3275 1762                       u2715 0A9D  
                     u2635 0A3B                       u2555 09F0                       u2395 07CD  
                     u3355 16E1                       u3435 1680                       u3517 160F  
                     u2725 0AB8                       u1925 0BB7                       u3365 16ED  
                     u3295 1789                       u2575 09FB                       u3375 16F7  
                     u1880 0B95                       u2585 0A10                       u3457 0FFA  
                     u1890 0B96                       u3467 16B0                       u1875 0B89  
                     _PEIE 005E                       u3477 16C1                       u3487 17AE  
                     u2935 067F                       u3497 17BD                       u2865 0586  
                     u2955 06A4                       u2975 06C2                       u2895 05E3  
                     u2985 06DA                       _TMR1 000E                       _TMR2 0011  
             __CFG_WRT$OFF 0000                       _beta 00EA          ?_Lcd_Write_String 0070  
                     _chot 00E2                       _main 0D0C                       btemp 007E  
                     start 000C         ??_Lcd_Write_String 0077            ___fldiv@new_exp 0052  
          __end_of_Lcd_Cmd 1618              ___fltol@sign1 0063            __end_of___fladd 0D0C  
                    ?_main 0070                      _CCP1X 00BD            __end_of___fldiv 0ADD  
                    _CCP1Y 00BC                      _CCPR2 001B              __CFG_WDTE$OFF 0000  
          __end_of___flmul 0791            __end_of___flsub 1754            __end_of___fltol 07FE  
          __end_of___lwdiv 1706                      i1l140 15C7            __end_of___lwmod 168F  
  __size_of_Lcd_Set_Cursor 0050                      _TRISD 0088           __end_of_PID_Init 047C  
                    _gamma 00E6                      main@t 00C4             __CFG_BOREN$OFF 0000  
                    pclath 000A           __end_of_PWM_Init 15E4                      status 0003  
                    wtemp0 007E           __end_of_Lcd_Init 1800           __end_of_Lcd_Port 15FE  
          __initialization 000F               __end_of_main 1000                     ??_main 006E  
                   _CCP1M2 00BA                     _CCP1M3 00BB                     _CCP2M0 00E8  
                   _CCP2M1 00E9                     _CCP2M2 00EA                     _CCP2M3 00EB  
                   _CCP2IE 0468                     _CCP2IF 0068                     _CCPR1L 0015  
                ??_Lcd_Cmd 0073                     _TMR1IE 0460                     _TMR1ON 0080  
                   _TMR2ON 0092    __size_of_Lcd_Write_Char 0039                     _TRISC1 0439  
                   _TRISC2 043A           __end_of___xxtofl 093A         __size_of_Duty_Init 0007  
           __CFG_PWRTE$OFF 0000              ??_Timer1_Init 0072      __size_of_Capture_Init 0011  
                   ___flge 0800                  ??___fladd 0062                  ??___fldiv 0048  
                ??___flmul 002E              PID_Init@tocdo 00A8                  ??___flsub 007B  
                ??___fltol 005E                  ??___lwdiv 0020                  ??___lwmod 0076  
       __size_of__Umul8_16 0023                     saved_w 007E            Lcd_Set_Cursor@a 0020  
          Lcd_Set_Cursor@b 0076            Lcd_Set_Cursor@y 0022            Lcd_Set_Cursor@z 0021  
               ___flge@ff1 0072                 ___flge@ff2 0076               ___xxtofl@arg 0022  
             ___xxtofl@exp 0021               ___xxtofl@val 0072    __end_of__initialization 001D  
             _Capture_Init 15AB                 ___fltol@f1 005A                  ?_PID_Init 00A8  
           __pcstackCOMMON 0070        __end_of_Timer1_Init 15AB                  ?_PWM_Init 0072  
           _Lcd_Set_Cursor 1754          __end_of_Duty_Init 159C                  ?_Lcd_Init 0070  
                ?_Lcd_Port 0070                 __pbssBANK1 00E2          __end_of__Umul8_16 165D  
               ??_PID_Init 007B                 __pmaintext 0D0C                    ?___flge 0072  
            ?_My_interrupt 0070                 __pintentry 0004  __size_of_Lcd_Write_String 0022  
   __end_of_Lcd_Set_Cursor 17A4                 ??_PWM_Init 0074                    _T1CKPS0 0084  
                  _T1CKPS1 0085                    _T2CKPS0 0090                    _T2CKPS1 0091  
                ?___xxtofl 0072                 ??_Lcd_Init 0076                 ??_Lcd_Port 0072  
                  _TOUTPS0 0093                    _TOUTPS1 0094                    _TOUTPS2 0095  
                  _TOUTPS3 0096                 __stringtab 1000             _Lcd_Write_Char 168F  
                  _Lcd_Cmd 15FE                _Timer1_Init 159C             ??_My_interrupt 0070  
          __size_of___flge 0095                    ___fladd 0ADD                    ___fldiv 093A  
                  ___flmul 047C                    ___flsub 1706                    ___fltol 0791  
                  ___lwdiv 16C8                    ___lwmod 165D            ?_Lcd_Set_Cursor 0076  
                  __ptext1 165D                    __ptext2 16C8                    __ptext3 159C  
                  __ptext4 15CE                    __ptext5 0021                    __ptext6 0895  
                  __ptext7 0791                    __ptext8 1706                    __ptext9 0ADD  
               ??___xxtofl 0076                    _pre_out 0190     __end_of_Lcd_Write_Char 16C8  
     end_of_initialization 001D                  Lcd_Port@a 0072                ___fladd@grs 006D  
            ___xxtofl@sign 0020                ___fldiv@grs 0054                ___fldiv@rem 004D  
          ?_Lcd_Write_Char 0070          Lcd_Write_String@a 0079          Lcd_Write_String@i 0077  
              ___flmul@grs 0034                 main@buffer 00C2          __size_of_PID_Init 045B  
           __end_of___flge 0895           _Lcd_Write_String 1618          __size_of_PWM_Init 0016  
      start_initialization 000F       __end_of_My_interrupt 15CE                  _Duty_Init 1595  
        __size_of_Lcd_Init 005C          __size_of_Lcd_Port 001A                   ??___flge 0020  
                __Umul8_16 163A            Lcd_Write_Char@a 0076            Lcd_Write_Char@y 0075  
                ___fladd@a 005E                  ___fladd@b 005A                  ___fldiv@a 0040  
                ___fldiv@b 0044                  ___flmul@a 002A                  ___flmul@b 0026  
                ___flsub@a 00A0                  ___flsub@b 00A4                  ___latbits 0002  
            __pcstackBANK0 0020              __pcstackBANK1 00A0          __size_of___xxtofl 00A5  
               ?_Duty_Init 0065                   ?_Lcd_Cmd 0070                  __pnvBANK1 00C6  
                __pnvBANK3 0190           PID_Init@tocdodat 00AA               ?_Timer1_Init 0070  
         ___lwdiv@dividend 007A           ??_Lcd_Set_Cursor 0077              Duty_Init@duty 0065  
                 ?___fladd 005A                   ?___fldiv 0040                   ?___flmul 0026  
                 ?___flsub 00A0                   ?___fltol 005A                 ?__Umul8_16 0072  
                 ?___lwdiv 0078                   ?___lwmod 0072                  __pstrings 1000  
         ___lwdiv@quotient 0021          interrupt_function 0004               _PID_Init$792 00B4  
             _PID_Init$793 00AC               _PID_Init$794 00B0                   Lcd_Cmd@a 0075  
                 _PID_Init 0021                __stringbase 1005                   _PWM_Init 15CE  
    __size_of_My_interrupt 0012           ??_Lcd_Write_Char 0073                   _Lcd_Init 17A4  
                 _Lcd_Port 15E4                ??_Duty_Init 007B   __end_of_Lcd_Write_String 163A  
            ?_Capture_Init 0070           __size_of_Lcd_Cmd 001A               _My_interrupt 15BC  
              ??__Umul8_16 0074           __size_of___fladd 022F           __size_of___fldiv 01A3  
         __size_of___flmul 0315           __size_of___flsub 004E           __size_of___fltol 006D  
         __size_of___lwdiv 003E           __size_of___lwmod 0032         __end_of__stringtab 1006  
                 ___xxtofl 0895                   _main$790 00B8                   _main$791 00BC  
          ___lwdiv@divisor 0078            ___lwdiv@counter 0023                   __ptext10 047C  
                 __ptext11 163A                   __ptext20 15E4                   __ptext12 0800  
                 __ptext21 15AB                   __ptext13 093A                   __ptext22 15BC  
                 __ptext14 1595                   __ptext15 1618                   __ptext16 168F  
                 __ptext17 1754                   __ptext18 17A4                   __ptext19 15FE  
           ??_Capture_Init 0072              __size_of_main 02F4       __size_of_Timer1_Init 000F  
       Lcd_Write_Char@temp 0074                   intlevel1 0000             PWM_Init@period 0072  
         ___lwmod@dividend 0074                  stringcode 1000         Lcd_Set_Cursor@temp 0023  
   __Umul8_16@multiplicand 0072            ___lwmod@divisor 0072            ___lwmod@counter 0077  
                 stringdir 1000                   stringtab 1000              ___fladd@signs 006A  
             ___fladd@aexp 006B               ___fladd@bexp 006C       __Umul8_16@multiplier 007A  
        __Umul8_16@product 0076  
