

Microchip MPLAB XC8 Assembler V2.05 build -831301201 
                                                                                               Fri Sep 27 23:14:30 2019

Microchip MPLAB XC8 C Compiler v2.05 (Free license) build 20181220022703 Og1 
     1                           	processor	16F877A
     2                           	opt	pw 120
     3                           	opt	flic
     4                           	psect	nvBANK0,global,class=BANK0,space=1,delta=1
     5                           	psect	nvBANK3,global,class=BANK3,space=1,delta=1
     6                           	psect	strings,global,class=STRING,delta=2
     7                           	psect	cinit,global,class=CODE,merge=1,delta=2
     8                           	psect	bssBANK0,global,class=BANK0,space=1,delta=1
     9                           	psect	bssBANK3,global,class=BANK3,space=1,delta=1
    10                           	psect	cstackBANK3,global,class=BANK3,space=1,delta=1
    11                           	psect	cstackBANK1,global,class=BANK1,space=1,delta=1
    12                           	psect	cstackCOMMON,global,class=COMMON,space=1,delta=1
    13                           	psect	cstackBANK0,global,class=BANK0,space=1,delta=1
    14                           	psect	maintext,global,class=CODE,split=1,delta=2
    15                           	psect	text1,local,class=CODE,merge=1,delta=2
    16                           	psect	text2,local,class=CODE,merge=1,delta=2
    17                           	psect	text3,local,class=CODE,merge=1,delta=2
    18                           	psect	text4,local,class=CODE,merge=1,delta=2
    19                           	psect	text5,local,class=CODE,merge=1,delta=2,group=1
    20                           	psect	text6,local,class=CODE,merge=1,delta=2,group=1
    21                           	psect	text7,local,class=CODE,merge=1,delta=2,group=1
    22                           	psect	text8,local,class=CODE,merge=1,delta=2,group=1
    23                           	psect	text9,local,class=CODE,merge=1,delta=2,group=1
    24                           	psect	text10,local,class=CODE,merge=1,delta=2,group=1
    25                           	psect	text11,local,class=CODE,merge=1,delta=2,group=1
    26                           	psect	text12,local,class=CODE,merge=1,delta=2,group=1
    27                           	psect	text13,local,class=CODE,merge=1,delta=2
    28                           	psect	text14,local,class=CODE,merge=1,delta=2
    29                           	psect	text15,local,class=CODE,merge=1,delta=2
    30                           	psect	text16,local,class=CODE,merge=1,delta=2,group=1
    31                           	psect	text17,local,class=CODE,merge=1,delta=2,group=1
    32                           	psect	text18,local,class=CODE,merge=1,delta=2
    33                           	psect	text19,local,class=CODE,merge=1,delta=2
    34                           	psect	text20,local,class=CODE,merge=1,delta=2
    35                           	psect	text21,local,class=CODE,merge=1,delta=2
    36                           	psect	text22,local,class=CODE,merge=1,delta=2
    37                           	psect	text23,local,class=CODE,merge=1,delta=2
    38                           	psect	text24,local,class=CODE,merge=1,delta=2
    39                           	psect	text25,local,class=CODE,merge=1,delta=2
    40                           	psect	text26,local,class=CODE,merge=1,delta=2
    41                           	psect	intentry,global,class=CODE,delta=2
    42                           	psect	text27,local,class=CODE,merge=1,delta=2
    43                           	psect	text28,local,class=CODE,merge=1,delta=2
    44                           	psect	text29,local,class=CODE,merge=1,delta=2
    45                           	psect	text30,local,class=CODE,merge=1,delta=2
    46                           	psect	text31,local,class=CODE,merge=1,delta=2
    47                           	dabs	1,0x7E,2
    48  0000                     
    49                           ; Version 2.05
    50                           ; Generated 20/12/2018 GMT
    51                           ; 
    52                           ; Copyright © 2018, Microchip Technology Inc. and its subsidiaries ("Microchip")
    53                           ; All rights reserved.
    54                           ; 
    55                           ; This software is developed by Microchip Technology Inc. and its subsidiaries ("Microch
      +                          ip").
    56                           ; 
    57                           ; Redistribution and use in source and binary forms, with or without modification, are
    58                           ; permitted provided that the following conditions are met:
    59                           ; 
    60                           ;     1. Redistributions of source code must retain the above copyright notice, this lis
      +                          t of
    61                           ;        conditions and the following disclaimer.
    62                           ; 
    63                           ;     2. Redistributions in binary form must reproduce the above copyright notice, this 
      +                          list
    64                           ;        of conditions and the following disclaimer in the documentation and/or other
    65                           ;        materials provided with the distribution.
    66                           ; 
    67                           ;     3. Microchip's name may not be used to endorse or promote products derived from th
      +                          is
    68                           ;        software without specific prior written permission.
    69                           ; 
    70                           ; THIS SOFTWARE IS PROVIDED BY MICROCHIP "AS IS" AND ANY EXPRESS OR IMPLIED WARRANTIES,
    71                           ; INCLUDING, BUT NOT LIMITED TO, THE IMPLIED WARRANTIES OF MERCHANTABILITY AND FITNESS F
      +                          OR
    72                           ; PURPOSE ARE DISCLAIMED.  IN NO EVENT SHALL MICROCHIP BE LIABLE FOR ANY DIRECT, INDIREC
      +                          T,
    73                           ; INCIDENTAL, SPECIAL, EXEMPLARY, OR CONSEQUENTIAL DAMAGES (INCLUDING BUT NOT LIMITED TO
    74                           ; PROCUREMENT OF SUBSTITUTE GOODS OR SERVICES; LOSS OF USE, DATA OR PROFITS; OR BUSINESS
    75                           ; INTERRUPTION) HOWSOEVER CAUSED AND ON ANY THEORY OF LIABILITY, WHETHER IN CONTRACT, ST
      +                          RICT
    76                           ; LIABILITY, OR TORT (INCLUDING NEGLIGENCE OR OTHERWISE) ARISING IN ANY WAY OUT OF THE U
      +                          SE OF
    77                           ; THIS SOFTWARE, EVEN IF ADVISED OF THE POSSIBILITY OF SUCH DAMAGE.
    78                           ; 
    79                           ; 
    80                           ; Code-generator required, PIC16F877A Definitions
    81                           ; 
    82                           ; SFR Addresses
    83  0000                     	;# 
    84  0001                     	;# 
    85  0002                     	;# 
    86  0003                     	;# 
    87  0004                     	;# 
    88  0005                     	;# 
    89  0006                     	;# 
    90  0007                     	;# 
    91  0008                     	;# 
    92  0009                     	;# 
    93  000A                     	;# 
    94  000B                     	;# 
    95  000C                     	;# 
    96  000D                     	;# 
    97  000E                     	;# 
    98  000E                     	;# 
    99  000F                     	;# 
   100  0010                     	;# 
   101  0011                     	;# 
   102  0012                     	;# 
   103  0013                     	;# 
   104  0014                     	;# 
   105  0015                     	;# 
   106  0015                     	;# 
   107  0016                     	;# 
   108  0017                     	;# 
   109  0018                     	;# 
   110  0019                     	;# 
   111  001A                     	;# 
   112  001B                     	;# 
   113  001B                     	;# 
   114  001C                     	;# 
   115  001D                     	;# 
   116  001E                     	;# 
   117  001F                     	;# 
   118  0081                     	;# 
   119  0085                     	;# 
   120  0086                     	;# 
   121  0087                     	;# 
   122  0088                     	;# 
   123  0089                     	;# 
   124  008C                     	;# 
   125  008D                     	;# 
   126  008E                     	;# 
   127  0091                     	;# 
   128  0092                     	;# 
   129  0093                     	;# 
   130  0094                     	;# 
   131  0098                     	;# 
   132  0099                     	;# 
   133  009C                     	;# 
   134  009D                     	;# 
   135  009E                     	;# 
   136  009F                     	;# 
   137  010C                     	;# 
   138  010D                     	;# 
   139  010E                     	;# 
   140  010F                     	;# 
   141  018C                     	;# 
   142  018D                     	;# 
   143  0000                     	;# 
   144  0001                     	;# 
   145  0002                     	;# 
   146  0003                     	;# 
   147  0004                     	;# 
   148  0005                     	;# 
   149  0006                     	;# 
   150  0007                     	;# 
   151  0008                     	;# 
   152  0009                     	;# 
   153  000A                     	;# 
   154  000B                     	;# 
   155  000C                     	;# 
   156  000D                     	;# 
   157  000E                     	;# 
   158  000E                     	;# 
   159  000F                     	;# 
   160  0010                     	;# 
   161  0011                     	;# 
   162  0012                     	;# 
   163  0013                     	;# 
   164  0014                     	;# 
   165  0015                     	;# 
   166  0015                     	;# 
   167  0016                     	;# 
   168  0017                     	;# 
   169  0018                     	;# 
   170  0019                     	;# 
   171  001A                     	;# 
   172  001B                     	;# 
   173  001B                     	;# 
   174  001C                     	;# 
   175  001D                     	;# 
   176  001E                     	;# 
   177  001F                     	;# 
   178  0081                     	;# 
   179  0085                     	;# 
   180  0086                     	;# 
   181  0087                     	;# 
   182  0088                     	;# 
   183  0089                     	;# 
   184  008C                     	;# 
   185  008D                     	;# 
   186  008E                     	;# 
   187  0091                     	;# 
   188  0092                     	;# 
   189  0093                     	;# 
   190  0094                     	;# 
   191  0098                     	;# 
   192  0099                     	;# 
   193  009C                     	;# 
   194  009D                     	;# 
   195  009E                     	;# 
   196  009F                     	;# 
   197  010C                     	;# 
   198  010D                     	;# 
   199  010E                     	;# 
   200  010F                     	;# 
   201  018C                     	;# 
   202  018D                     	;# 
   203  0000                     	;# 
   204  0001                     	;# 
   205  0002                     	;# 
   206  0003                     	;# 
   207  0004                     	;# 
   208  0005                     	;# 
   209  0006                     	;# 
   210  0007                     	;# 
   211  0008                     	;# 
   212  0009                     	;# 
   213  000A                     	;# 
   214  000B                     	;# 
   215  000C                     	;# 
   216  000D                     	;# 
   217  000E                     	;# 
   218  000E                     	;# 
   219  000F                     	;# 
   220  0010                     	;# 
   221  0011                     	;# 
   222  0012                     	;# 
   223  0013                     	;# 
   224  0014                     	;# 
   225  0015                     	;# 
   226  0015                     	;# 
   227  0016                     	;# 
   228  0017                     	;# 
   229  0018                     	;# 
   230  0019                     	;# 
   231  001A                     	;# 
   232  001B                     	;# 
   233  001B                     	;# 
   234  001C                     	;# 
   235  001D                     	;# 
   236  001E                     	;# 
   237  001F                     	;# 
   238  0081                     	;# 
   239  0085                     	;# 
   240  0086                     	;# 
   241  0087                     	;# 
   242  0088                     	;# 
   243  0089                     	;# 
   244  008C                     	;# 
   245  008D                     	;# 
   246  008E                     	;# 
   247  0091                     	;# 
   248  0092                     	;# 
   249  0093                     	;# 
   250  0094                     	;# 
   251  0098                     	;# 
   252  0099                     	;# 
   253  009C                     	;# 
   254  009D                     	;# 
   255  009E                     	;# 
   256  009F                     	;# 
   257  010C                     	;# 
   258  010D                     	;# 
   259  010E                     	;# 
   260  010F                     	;# 
   261  018C                     	;# 
   262  018D                     	;# 
   263                           
   264                           	psect	nvBANK0
   265  0050                     __pnvBANK0:	
   266  0050                     _pre_out:	
   267  0050                     	ds	4
   268  0054                     _a3:	
   269  0054                     	ds	4
   270  0058                     _a2:	
   271  0058                     	ds	4
   272                           
   273                           	psect	nvBANK3
   274  01C9                     __pnvBANK3:	
   275  01C9                     _out:	
   276  01C9                     	ds	4
   277  01CD                     _Kd:	
   278  01CD                     	ds	4
   279  01D1                     _Ki:	
   280  01D1                     	ds	4
   281  01D5                     _Kp:	
   282  01D5                     	ds	4
   283  01D9                     _a1:	
   284  01D9                     	ds	4
   285  01DD                     _T:	
   286  01DD                     	ds	4
   287  01E1                     _E2:	
   288  01E1                     	ds	4
   289  01E5                     _E1:	
   290  01E5                     	ds	4
   291  01E9                     _E:	
   292  01E9                     	ds	4
   293  000E                     _TMR1	set	14
   294  001E                     _ADRESH	set	30
   295  001F                     _ADCON0	set	31
   296  000E                     _TMR1L	set	14
   297  000F                     _TMR1H	set	15
   298  0041                     _RD1	set	65
   299  0040                     _RD0	set	64
   300  0045                     _RD5	set	69
   301  0044                     _RD4	set	68
   302  0043                     _RD3	set	67
   303  0042                     _RD2	set	66
   304  0060                     _TMR1IF	set	96
   305  0059                     _INTF	set	89
   306  003A                     _RC2	set	58
   307  0039                     _RC1	set	57
   308  0031                     _RB1	set	49
   309  005C                     _INTE	set	92
   310  0047                     _RD7	set	71
   311  0046                     _RD6	set	70
   312  005E                     _PEIE	set	94
   313  005F                     _GIE	set	95
   314  00FA                     _GO_nDONE	set	250
   315  0066                     _ADIF	set	102
   316  00F8                     _ADON	set	248
   317  00FF                     _ADCS1	set	255
   318  00FE                     _ADCS0	set	254
   319  0080                     _TMR1ON	set	128
   320  0081                     _TMR1CS	set	129
   321  0082                     _T1SYNC	set	130
   322  0083                     _T1OSCEN	set	131
   323  0084                     _T1CKPS0	set	132
   324  0085                     _T1CKPS1	set	133
   325  0038                     _RC0	set	56
   326  0088                     _TRISD	set	136
   327  0087                     _TRISC	set	135
   328  0086                     _TRISB	set	134
   329  0085                     _TRISA	set	133
   330  009E                     _ADRESL	set	158
   331  040E                     _INTEDG	set	1038
   332  0430                     _TRISB0	set	1072
   333  0466                     _ADIE	set	1126
   334  04FF                     _ADFM	set	1279
   335  04FE                     _ADCS2	set	1278
   336  04FB                     _PCFG3	set	1275
   337  04FA                     _PCFG2	set	1274
   338  04F9                     _PCFG1	set	1273
   339  04F8                     _PCFG0	set	1272
   340  0460                     _TMR1IE	set	1120
   341  043A                     _TRISC2	set	1082
   342  0439                     _TRISC1	set	1081
   343  0438                     _TRISC0	set	1080
   344  0431                     _TRISB1	set	1073
   345  0428                     _TRISA0	set	1064
   346                           
   347                           	psect	strings
   348  1800                     __pstrings:	
   349  1800                     stringtab:	
   350  1800                     __stringtab:	
   351  1800                     stringcode:	
   352                           ;	String table - string pointers are 1 byte each
   353                           
   354  1800                     stringdir:	
   355  1800  3018               	movlw	high stringdir
   356  1801  008A               	movwf	10
   357  1802  0804               	movf	4,w
   358  1803  0A84               	incf	4,f
   359  1804  0782               	addwf	2,f
   360  1805                     __stringbase:	
   361  1805  3400               	retlw	0
   362  1806                     __end_of__stringtab:	
   363  1806                     STR_3:	
   364  1806  344E               	retlw	78	;'N'
   365  1807  344E               	retlw	78	;'N'
   366  1808  3468               	retlw	104	;'h'
   367  1809  3469               	retlw	105	;'i'
   368  180A  3465               	retlw	101	;'e'
   369  180B  3474               	retlw	116	;'t'
   370  180C  3420               	retlw	32	;' '
   371  180D  3464               	retlw	100	;'d'
   372  180E  346F               	retlw	111	;'o'
   373  180F  3420               	retlw	32	;' '
   374  1810  3464               	retlw	100	;'d'
   375  1811  3461               	retlw	97	;'a'
   376  1812  3474               	retlw	116	;'t'
   377  1813  343A               	retlw	58	;':'
   378  1814  3420               	retlw	32	;' '
   379  1815  3400               	retlw	0
   380  1816                     STR_2:	
   381  1816  344E               	retlw	78	;'N'
   382  1817  3468               	retlw	104	;'h'
   383  1818  3469               	retlw	105	;'i'
   384  1819  3465               	retlw	101	;'e'
   385  181A  3474               	retlw	116	;'t'
   386  181B  3420               	retlw	32	;' '
   387  181C  3464               	retlw	100	;'d'
   388  181D  346F               	retlw	111	;'o'
   389  181E  343A               	retlw	58	;':'
   390  181F  3420               	retlw	32	;' '
   391  1820  3400               	retlw	0
   392  1821                     STR_1:	
   393  1821  3468               	retlw	104	;'h'
   394  1822  3465               	retlw	101	;'e'
   395  1823  346C               	retlw	108	;'l'
   396  1824  346C               	retlw	108	;'l'
   397  1825  346F               	retlw	111	;'o'
   398  1826  3420               	retlw	32	;' '
   399  1827  3474               	retlw	116	;'t'
   400  1828  346D               	retlw	109	;'m'
   401  1829  346C               	retlw	108	;'l'
   402  182A  3400               	retlw	0
   403                           
   404                           ; #config settings
   405  0000                     
   406                           	psect	cinit
   407  0013                     start_initialization:	
   408  0013                     __initialization:	
   409                           
   410                           ; Clear objects allocated to BANK0
   411  0013  1283               	bcf	3,5	;RP0=0, select bank0
   412  0014  1303               	bcf	3,6	;RP1=0, select bank0
   413  0015  01DC               	clrf	__pbssBANK0& (0+127)
   414  0016  01DD               	clrf	(__pbssBANK0+1)& (0+127)
   415                           
   416                           ; Clear objects allocated to BANK3
   417  0017  1683               	bsf	3,5	;RP0=1, select bank3
   418  0018  1703               	bsf	3,6	;RP1=1, select bank3
   419  0019  01ED               	clrf	__pbssBANK3& (0+127)
   420  001A  01EE               	clrf	(__pbssBANK3+1)& (0+127)
   421  001B                     end_of_initialization:	
   422                           ;End of C runtime variable initialization code
   423                           
   424  001B                     __end_of__initialization:	
   425  001B  0183               	clrf	3
   426  001C  160A  118A  2BCD   	ljmp	_main	;jump to C main() function
   427                           
   428                           	psect	bssBANK0
   429  005C                     __pbssBANK0:	
   430  005C                     _duty:	
   431  005C                     	ds	2
   432                           
   433                           	psect	bssBANK3
   434  01ED                     __pbssBANK3:	
   435  01ED                     _t:	
   436  01ED                     	ds	2
   437                           
   438                           	psect	cstackBANK3
   439  0190                     __pcstackBANK3:	
   440  0190                     ?___fladd:	
   441  0190                     ___fladd@b:	
   442                           ; 4 bytes @ 0x0
   443                           
   444                           
   445                           ; 4 bytes @ 0x0
   446  0190                     	ds	4
   447  0194                     ___fladd@a:	
   448                           
   449                           ; 4 bytes @ 0x4
   450  0194                     	ds	4
   451  0198                     ??___fladd:	
   452                           
   453                           ; 1 bytes @ 0x8
   454  0198                     	ds	8
   455  01A0                     ?___flsub:	
   456  01A0                     ___flsub@a:	
   457                           ; 4 bytes @ 0x10
   458                           
   459                           
   460                           ; 4 bytes @ 0x10
   461  01A0                     	ds	4
   462  01A4                     ___flsub@b:	
   463                           
   464                           ; 4 bytes @ 0x14
   465  01A4                     	ds	4
   466  01A8                     ?___fltol:	
   467  01A8                     ___fltol@f1:	
   468                           ; 4 bytes @ 0x18
   469                           
   470                           
   471                           ; 4 bytes @ 0x18
   472  01A8                     	ds	4
   473  01AC                     ??___fltol:	
   474                           
   475                           ; 1 bytes @ 0x1C
   476  01AC                     	ds	5
   477  01B1                     ___fltol@sign1:	
   478                           
   479                           ; 1 bytes @ 0x21
   480  01B1                     	ds	1
   481  01B2                     ___fltol@exp1:	
   482                           
   483                           ; 1 bytes @ 0x22
   484  01B2                     	ds	1
   485  01B3                     ?_PID_Init:	
   486  01B3                     PID_Init@nhietdo:	
   487                           ; 2 bytes @ 0x23
   488                           
   489                           
   490                           ; 2 bytes @ 0x23
   491  01B3                     	ds	2
   492  01B5                     PID_Init@nhietdodat:	
   493                           
   494                           ; 2 bytes @ 0x25
   495  01B5                     	ds	2
   496  01B7                     _PID_Init$826:	
   497                           
   498                           ; 4 bytes @ 0x27
   499  01B7                     	ds	4
   500  01BB                     _PID_Init$827:	
   501                           
   502                           ; 4 bytes @ 0x2B
   503  01BB                     	ds	4
   504  01BF                     _PID_Init$825:	
   505                           
   506                           ; 4 bytes @ 0x2F
   507  01BF                     	ds	4
   508  01C3                     ??_Set_temp:	
   509                           
   510                           ; 1 bytes @ 0x33
   511  01C3                     	ds	4
   512  01C7                     ??_main:	
   513                           
   514                           ; 1 bytes @ 0x37
   515  01C7                     	ds	2
   516                           
   517                           	psect	cstackBANK1
   518  00A0                     __pcstackBANK1:	
   519  00A0                     ?___flge:	
   520  00A0                     ??_Lcd_Set_Port:	
   521                           ; 1 bit 
   522                           
   523  00A0                     ??_ADC_Init:	
   524                           ; 1 bytes @ 0x0
   525                           
   526  00A0                     ??_Interrupt_Init:	
   527                           ; 1 bytes @ 0x0
   528                           
   529  00A0                     ??_Timer1_Init:	
   530                           ; 1 bytes @ 0x0
   531                           
   532  00A0                     ??_Lcd_Port:	
   533                           ; 1 bytes @ 0x0
   534                           
   535  00A0                     ?__Umul8_16:	
   536                           ; 1 bytes @ 0x0
   537                           
   538  00A0                     ?_Read_ADC:	
   539                           ; 2 bytes @ 0x0
   540                           
   541  00A0                     ?___awmod:	
   542                           ; 2 bytes @ 0x0
   543                           
   544  00A0                     Lcd_Port@a:	
   545                           ; 2 bytes @ 0x0
   546                           
   547  00A0                     __Umul8_16@multiplicand:	
   548                           ; 1 bytes @ 0x0
   549                           
   550  00A0                     ___awmod@divisor:	
   551                           ; 1 bytes @ 0x0
   552                           
   553  00A0                     ___flge@ff1:	
   554                           ; 2 bytes @ 0x0
   555                           
   556                           
   557                           ; 4 bytes @ 0x0
   558  00A0                     	ds	1
   559  00A1                     ??_Lcd_Write_Char:	
   560  00A1                     ??_Lcd_Cmd:	
   561                           ; 1 bytes @ 0x1
   562                           
   563                           
   564                           ; 1 bytes @ 0x1
   565  00A1                     	ds	1
   566  00A2                     ??__Umul8_16:	
   567  00A2                     ??_Read_ADC:	
   568                           ; 1 bytes @ 0x2
   569                           
   570  00A2                     Lcd_Write_Char@temp:	
   571                           ; 1 bytes @ 0x2
   572                           
   573  00A2                     Lcd_Set_Port@a:	
   574                           ; 1 bytes @ 0x2
   575                           
   576  00A2                     ___awmod@dividend:	
   577                           ; 1 bytes @ 0x2
   578                           
   579                           
   580                           ; 2 bytes @ 0x2
   581  00A2                     	ds	1
   582  00A3                     Lcd_Cmd@a:	
   583  00A3                     Lcd_Write_Char@y:	
   584                           ; 1 bytes @ 0x3
   585                           
   586                           
   587                           ; 1 bytes @ 0x3
   588  00A3                     	ds	1
   589  00A4                     ??_Lcd_Init:	
   590  00A4                     ?_Lcd_Set_Cursor:	
   591                           ; 1 bytes @ 0x4
   592                           
   593  00A4                     ??_Lcd_Clear:	
   594                           ; 1 bytes @ 0x4
   595                           
   596  00A4                     ??___awmod:	
   597                           ; 1 bytes @ 0x4
   598                           
   599  00A4                     Lcd_Set_Cursor@b:	
   600                           ; 1 bytes @ 0x4
   601                           
   602  00A4                     Lcd_Write_Char@a:	
   603                           ; 1 bytes @ 0x4
   604                           
   605  00A4                     __Umul8_16@product:	
   606                           ; 1 bytes @ 0x4
   607                           
   608  00A4                     ___flge@ff2:	
   609                           ; 2 bytes @ 0x4
   610                           
   611                           
   612                           ; 4 bytes @ 0x4
   613  00A4                     	ds	1
   614  00A5                     ??_Lcd_Write_String:	
   615  00A5                     ??_Lcd_Set_Cursor:	
   616                           ; 1 bytes @ 0x5
   617                           
   618  00A5                     ___awmod@counter:	
   619                           ; 1 bytes @ 0x5
   620                           
   621  00A5                     Lcd_Write_String@i:	
   622                           ; 1 bytes @ 0x5
   623                           
   624                           
   625                           ; 2 bytes @ 0x5
   626  00A5                     	ds	1
   627  00A6                     ___awmod@sign:	
   628  00A6                     Read_ADC@N:	
   629                           ; 1 bytes @ 0x6
   630                           
   631  00A6                     __Umul8_16@word_mpld:	
   632                           ; 2 bytes @ 0x6
   633                           
   634                           
   635                           ; 2 bytes @ 0x6
   636  00A6                     	ds	1
   637  00A7                     ?___awdiv:	
   638  00A7                     Lcd_Set_Cursor@a:	
   639                           ; 2 bytes @ 0x7
   640                           
   641  00A7                     Lcd_Write_String@a:	
   642                           ; 1 bytes @ 0x7
   643                           
   644  00A7                     ___awdiv@divisor:	
   645                           ; 1 bytes @ 0x7
   646                           
   647                           
   648                           ; 2 bytes @ 0x7
   649  00A7                     	ds	1
   650  00A8                     ??___flge:	
   651  00A8                     Read_ADC@channel:	
   652                           ; 1 bytes @ 0x8
   653                           
   654  00A8                     Lcd_Set_Cursor@z:	
   655                           ; 1 bytes @ 0x8
   656                           
   657  00A8                     __Umul8_16@multiplier:	
   658                           ; 1 bytes @ 0x8
   659                           
   660                           
   661                           ; 1 bytes @ 0x8
   662  00A8                     	ds	1
   663  00A9                     ?___xxtofl:	
   664  00A9                     Lcd_Set_Cursor@y:	
   665                           ; 4 bytes @ 0x9
   666                           
   667  00A9                     ___awdiv@dividend:	
   668                           ; 1 bytes @ 0x9
   669                           
   670  00A9                     ___xxtofl@val:	
   671                           ; 2 bytes @ 0x9
   672                           
   673                           
   674                           ; 4 bytes @ 0x9
   675  00A9                     	ds	1
   676  00AA                     Lcd_Set_Cursor@temp:	
   677                           
   678                           ; 1 bytes @ 0xA
   679  00AA                     	ds	1
   680  00AB                     ??___awdiv:	
   681                           
   682                           ; 1 bytes @ 0xB
   683  00AB                     	ds	1
   684  00AC                     ___awdiv@counter:	
   685                           
   686                           ; 1 bytes @ 0xC
   687  00AC                     	ds	1
   688  00AD                     ??___xxtofl:	
   689  00AD                     ___awdiv@sign:	
   690                           ; 1 bytes @ 0xD
   691                           
   692                           
   693                           ; 1 bytes @ 0xD
   694  00AD                     	ds	1
   695  00AE                     ___awdiv@quotient:	
   696                           
   697                           ; 2 bytes @ 0xE
   698  00AE                     	ds	2
   699  00B0                     ?_Display:	
   700  00B0                     Display@set_temp:	
   701                           ; 1 bytes @ 0x10
   702                           
   703                           
   704                           ; 1 bytes @ 0x10
   705  00B0                     	ds	1
   706  00B1                     ??_Display:	
   707  00B1                     ___xxtofl@sign:	
   708                           ; 1 bytes @ 0x11
   709                           
   710                           
   711                           ; 1 bytes @ 0x11
   712  00B1                     	ds	1
   713  00B2                     ___xxtofl@exp:	
   714                           
   715                           ; 1 bytes @ 0x12
   716  00B2                     	ds	1
   717  00B3                     Display@temp:	
   718  00B3                     ___xxtofl@arg:	
   719                           ; 1 bytes @ 0x13
   720                           
   721                           
   722                           ; 4 bytes @ 0x13
   723  00B3                     	ds	4
   724  00B7                     ?___flmul:	
   725  00B7                     ___flmul@b:	
   726                           ; 4 bytes @ 0x17
   727                           
   728                           
   729                           ; 4 bytes @ 0x17
   730  00B7                     	ds	4
   731  00BB                     ___flmul@a:	
   732                           
   733                           ; 4 bytes @ 0x1B
   734  00BB                     	ds	4
   735  00BF                     ??___flmul:	
   736                           
   737                           ; 1 bytes @ 0x1F
   738  00BF                     	ds	5
   739  00C4                     ___flmul@sign:	
   740                           
   741                           ; 1 bytes @ 0x24
   742  00C4                     	ds	1
   743  00C5                     ___flmul@grs:	
   744                           
   745                           ; 4 bytes @ 0x25
   746  00C5                     	ds	4
   747  00C9                     ___flmul@aexp:	
   748                           
   749                           ; 1 bytes @ 0x29
   750  00C9                     	ds	1
   751  00CA                     ___flmul@bexp:	
   752                           
   753                           ; 1 bytes @ 0x2A
   754  00CA                     	ds	1
   755  00CB                     ___flmul@prod:	
   756                           
   757                           ; 4 bytes @ 0x2B
   758  00CB                     	ds	4
   759  00CF                     ___flmul@temp:	
   760                           
   761                           ; 2 bytes @ 0x2F
   762  00CF                     	ds	2
   763  00D1                     ?___fldiv:	
   764  00D1                     ___fldiv@a:	
   765                           ; 4 bytes @ 0x31
   766                           
   767                           
   768                           ; 4 bytes @ 0x31
   769  00D1                     	ds	4
   770  00D5                     ___fldiv@b:	
   771                           
   772                           ; 4 bytes @ 0x35
   773  00D5                     	ds	4
   774  00D9                     ??___fldiv:	
   775                           
   776                           ; 1 bytes @ 0x39
   777  00D9                     	ds	5
   778  00DE                     ___fldiv@rem:	
   779                           
   780                           ; 4 bytes @ 0x3E
   781  00DE                     	ds	4
   782  00E2                     ___fldiv@sign:	
   783                           
   784                           ; 1 bytes @ 0x42
   785  00E2                     	ds	1
   786  00E3                     ___fldiv@new_exp:	
   787                           
   788                           ; 2 bytes @ 0x43
   789  00E3                     	ds	2
   790  00E5                     ___fldiv@grs:	
   791                           
   792                           ; 4 bytes @ 0x45
   793  00E5                     	ds	4
   794  00E9                     ___fldiv@bexp:	
   795                           
   796                           ; 1 bytes @ 0x49
   797  00E9                     	ds	1
   798  00EA                     ___fldiv@aexp:	
   799                           
   800                           ; 1 bytes @ 0x4A
   801  00EA                     	ds	1
   802  00EB                     ___fladd@signs:	
   803                           
   804                           ; 1 bytes @ 0x4B
   805  00EB                     	ds	1
   806  00EC                     ___fladd@aexp:	
   807                           
   808                           ; 1 bytes @ 0x4C
   809  00EC                     	ds	1
   810  00ED                     ___fladd@bexp:	
   811                           
   812                           ; 1 bytes @ 0x4D
   813  00ED                     	ds	1
   814  00EE                     ___fladd@grs:	
   815                           
   816                           ; 1 bytes @ 0x4E
   817  00EE                     	ds	1
   818  00EF                     ??_PID_Init:	
   819  00EF                     ??___flsub:	
   820                           ; 1 bytes @ 0x4F
   821                           
   822  00EF                     Set_temp@set_temp:	
   823                           ; 1 bytes @ 0x4F
   824                           
   825                           
   826                           ; 1 bytes @ 0x4F
   827  00EF                     	ds	1
   828                           
   829                           	psect	cstackCOMMON
   830  0070                     __pcstackCOMMON:	
   831  0070                     ?_Lcd_Set_Port:	
   832  0070                     ?_Lcd_Init:	
   833                           ; 1 bytes @ 0x0
   834                           
   835  0070                     ?_ADC_Init:	
   836                           ; 1 bytes @ 0x0
   837                           
   838  0070                     ?_Interrupt_Init:	
   839                           ; 1 bytes @ 0x0
   840                           
   841  0070                     ?_Timer1_Init:	
   842                           ; 1 bytes @ 0x0
   843                           
   844  0070                     ?_Lcd_Write_String:	
   845                           ; 1 bytes @ 0x0
   846                           
   847  0070                     ?_Set_temp:	
   848                           ; 1 bytes @ 0x0
   849                           
   850  0070                     ?_Lcd_Write_Char:	
   851                           ; 1 bytes @ 0x0
   852                           
   853  0070                     ?_Lcd_Clear:	
   854                           ; 1 bytes @ 0x0
   855                           
   856  0070                     ?_main:	
   857                           ; 1 bytes @ 0x0
   858                           
   859  0070                     ?_My_interrupt:	
   860                           ; 1 bytes @ 0x0
   861                           
   862  0070                     ?_Lcd_Port:	
   863                           ; 1 bytes @ 0x0
   864                           
   865  0070                     ?_Lcd_Cmd:	
   866                           ; 1 bytes @ 0x0
   867                           
   868  0070                     ?i1___fladd:	
   869                           ; 1 bytes @ 0x0
   870                           
   871  0070                     ?i1___xxtofl:	
   872                           ; 4 bytes @ 0x0
   873                           
   874  0070                     i1___fladd@b:	
   875                           ; 4 bytes @ 0x0
   876                           
   877  0070                     i1___xxtofl@val:	
   878                           ; 4 bytes @ 0x0
   879                           
   880                           
   881                           ; 4 bytes @ 0x0
   882  0070                     	ds	4
   883  0074                     ??i1___xxtofl:	
   884  0074                     i1___fladd@a:	
   885                           ; 1 bytes @ 0x4
   886                           
   887                           
   888                           ; 4 bytes @ 0x4
   889  0074                     	ds	4
   890  0078                     i1___fladd@signs:	
   891  0078                     i1___xxtofl@sign:	
   892                           ; 1 bytes @ 0x8
   893                           
   894                           
   895                           ; 1 bytes @ 0x8
   896  0078                     	ds	1
   897  0079                     i1___fladd@aexp:	
   898  0079                     i1___xxtofl@exp:	
   899                           ; 1 bytes @ 0x9
   900                           
   901                           
   902                           ; 1 bytes @ 0x9
   903  0079                     	ds	1
   904  007A                     i1___fladd@bexp:	
   905  007A                     i1___xxtofl@arg:	
   906                           ; 1 bytes @ 0xA
   907                           
   908                           
   909                           ; 4 bytes @ 0xA
   910  007A                     	ds	1
   911  007B                     i1___fladd@grs:	
   912                           
   913                           ; 1 bytes @ 0xB
   914  007B                     	ds	3
   915  007E                     ??i1___flsub:	
   916                           
   917                           	psect	cstackBANK0
   918  0020                     __pcstackBANK0:	
   919                           ; 1 bytes @ 0xE
   920                           
   921  0020                     ??i1___fladd:	
   922  0020                     ?i1___fldiv:	
   923                           ; 1 bytes @ 0x0
   924                           
   925  0020                     i1___fldiv@a:	
   926                           ; 4 bytes @ 0x0
   927                           
   928                           
   929                           ; 4 bytes @ 0x0
   930  0020                     	ds	4
   931  0024                     i1___fldiv@b:	
   932                           
   933                           ; 4 bytes @ 0x4
   934  0024                     	ds	4
   935  0028                     ??i1___fldiv:	
   936                           
   937                           ; 1 bytes @ 0x8
   938  0028                     	ds	5
   939  002D                     i1___fldiv@rem:	
   940                           
   941                           ; 4 bytes @ 0xD
   942  002D                     	ds	4
   943  0031                     i1___fldiv@sign:	
   944                           
   945                           ; 1 bytes @ 0x11
   946  0031                     	ds	1
   947  0032                     i1___fldiv@new_exp:	
   948                           
   949                           ; 2 bytes @ 0x12
   950  0032                     	ds	2
   951  0034                     i1___fldiv@grs:	
   952                           
   953                           ; 4 bytes @ 0x14
   954  0034                     	ds	4
   955  0038                     i1___fldiv@bexp:	
   956                           
   957                           ; 1 bytes @ 0x18
   958  0038                     	ds	1
   959  0039                     i1___fldiv@aexp:	
   960                           
   961                           ; 1 bytes @ 0x19
   962  0039                     	ds	1
   963  003A                     ?i1___flsub:	
   964  003A                     i1___flsub@a:	
   965                           ; 4 bytes @ 0x1A
   966                           
   967                           
   968                           ; 4 bytes @ 0x1A
   969  003A                     	ds	4
   970  003E                     i1___flsub@b:	
   971                           
   972                           ; 4 bytes @ 0x1E
   973  003E                     	ds	4
   974  0042                     ?i1___fltol:	
   975  0042                     i1___fltol@f1:	
   976                           ; 4 bytes @ 0x22
   977                           
   978                           
   979                           ; 4 bytes @ 0x22
   980  0042                     	ds	4
   981  0046                     ??i1___fltol:	
   982                           
   983                           ; 1 bytes @ 0x26
   984  0046                     	ds	5
   985  004B                     i1___fltol@sign1:	
   986                           
   987                           ; 1 bytes @ 0x2B
   988  004B                     	ds	1
   989  004C                     i1___fltol@exp1:	
   990                           
   991                           ; 1 bytes @ 0x2C
   992  004C                     	ds	1
   993  004D                     ??_My_interrupt:	
   994                           
   995                           ; 1 bytes @ 0x2D
   996  004D                     	ds	3
   997                           
   998                           	psect	maintext
   999  13CD                     __pmaintext:	
  1000 ;;
  1001 ;;Main: autosize = 0, tempsize = 2, incstack = 0, save=0
  1002 ;;
  1003 ;; *************** function _main *****************
  1004 ;; Defined at:
  1005 ;;		line 26 in file "main.c"
  1006 ;; Parameters:    Size  Location     Type
  1007 ;;		None
  1008 ;; Auto vars:     Size  Location     Type
  1009 ;;		None
  1010 ;; Return value:  Size  Location     Type
  1011 ;;                  1    wreg      void 
  1012 ;; Registers used:
  1013 ;;		wreg, fsr0l, fsr0h, status,2, status,0, btemp+1, pclath, cstack
  1014 ;; Tracked objects:
  1015 ;;		On entry : B00/0
  1016 ;;		On exit  : 0/0
  1017 ;;		Unchanged: 0/0
  1018 ;; Data sizes:     COMMON   BANK0   BANK1   BANK3   BANK2
  1019 ;;      Params:         0       0       0       0       0
  1020 ;;      Locals:         0       0       0       0       0
  1021 ;;      Temps:          0       0       0       2       0
  1022 ;;      Totals:         0       0       0       2       0
  1023 ;;Total ram usage:        2 bytes
  1024 ;; Hardware stack levels required when called:    8
  1025 ;; This function calls:
  1026 ;;		_ADC_Init
  1027 ;;		_Interrupt_Init
  1028 ;;		_Lcd_Init
  1029 ;;		_Lcd_Set_Port
  1030 ;;		_Lcd_Write_String
  1031 ;;		_Set_temp
  1032 ;;		_Timer1_Init
  1033 ;; This function is called by:
  1034 ;;		Startup code after reset
  1035 ;; This function uses a non-reentrant model
  1036 ;;
  1037                           
  1038                           
  1039                           ;psect for function _main
  1040  13CD                     _main:	
  1041                           
  1042                           ;main.c: 29:  T = 0.5;
  1043                           
  1044                           ;incstack = 0
  1045                           ; Regs used in _main: [wreg-fsr0h+status,2+status,0+btemp+1+pclath+cstack]
  1046  13CD  303F               	movlw	63
  1047  13CE  1683               	bsf	3,5	;RP0=1, select bank3
  1048  13CF  1703               	bsf	3,6	;RP1=1, select bank3
  1049  13D0  00E0               	movwf	(_T+3)^(0+384)
  1050  13D1  3000               	movlw	0
  1051  13D2  00DF               	movwf	(_T+2)^(0+384)
  1052  13D3  3000               	movlw	0
  1053  13D4  00DE               	movwf	(_T+1)^(0+384)
  1054  13D5  3000               	movlw	0
  1055  13D6  00DD               	movwf	_T^(0+384)
  1056                           
  1057                           ;main.c: 30:  Kp = 300;
  1058  13D7  3043               	movlw	67
  1059  13D8  00D8               	movwf	(_Kp+3)^(0+384)
  1060  13D9  3096               	movlw	150
  1061  13DA  00D7               	movwf	(_Kp+2)^(0+384)
  1062  13DB  3000               	movlw	0
  1063  13DC  00D6               	movwf	(_Kp+1)^(0+384)
  1064  13DD  3000               	movlw	0
  1065  13DE  00D5               	movwf	_Kp^(0+384)
  1066                           
  1067                           ;main.c: 31:  Ki = 0;
  1068  13DF  3000               	movlw	0
  1069  13E0  00D4               	movwf	(_Ki+3)^(0+384)
  1070  13E1  3000               	movlw	0
  1071  13E2  00D3               	movwf	(_Ki+2)^(0+384)
  1072  13E3  3000               	movlw	0
  1073  13E4  00D2               	movwf	(_Ki+1)^(0+384)
  1074  13E5  3000               	movlw	0
  1075  13E6  00D1               	movwf	_Ki^(0+384)
  1076                           
  1077                           ;main.c: 32:  Kd = 0;
  1078  13E7  3000               	movlw	0
  1079  13E8  00D0               	movwf	(_Kd+3)^(0+384)
  1080  13E9  3000               	movlw	0
  1081  13EA  00CF               	movwf	(_Kd+2)^(0+384)
  1082  13EB  3000               	movlw	0
  1083  13EC  00CE               	movwf	(_Kd+1)^(0+384)
  1084  13ED  3000               	movlw	0
  1085  13EE  00CD               	movwf	_Kd^(0+384)
  1086                           
  1087                           ;main.c: 33:  E = E1 = E2 = 0;
  1088  13EF  3000               	movlw	0
  1089  13F0  00E4               	movwf	(_E2+3)^(0+384)
  1090  13F1  3000               	movlw	0
  1091  13F2  00E3               	movwf	(_E2+2)^(0+384)
  1092  13F3  3000               	movlw	0
  1093  13F4  00E2               	movwf	(_E2+1)^(0+384)
  1094  13F5  3000               	movlw	0
  1095  13F6  00E1               	movwf	_E2^(0+384)
  1096  13F7  0864               	movf	(_E2+3)^(0+384),w
  1097  13F8  00E8               	movwf	(_E1+3)^(0+384)
  1098  13F9  0863               	movf	(_E2+2)^(0+384),w
  1099  13FA  00E7               	movwf	(_E1+2)^(0+384)
  1100  13FB  0862               	movf	(_E2+1)^(0+384),w
  1101  13FC  00E6               	movwf	(_E1+1)^(0+384)
  1102  13FD  0861               	movf	_E2^(0+384),w
  1103  13FE  00E5               	movwf	_E1^(0+384)
  1104  13FF  0868               	movf	(_E1+3)^(0+384),w
  1105  1400  00EC               	movwf	(_E+3)^(0+384)
  1106  1401  0867               	movf	(_E1+2)^(0+384),w
  1107  1402  00EB               	movwf	(_E+2)^(0+384)
  1108  1403  0866               	movf	(_E1+1)^(0+384),w
  1109  1404  00EA               	movwf	(_E+1)^(0+384)
  1110  1405  0865               	movf	_E1^(0+384),w
  1111  1406  00E9               	movwf	_E^(0+384)
  1112                           
  1113                           ;main.c: 34:  a1 = a2 = a3 = 0;
  1114  1407  3000               	movlw	0
  1115  1408  1283               	bcf	3,5	;RP0=0, select bank0
  1116  1409  1303               	bcf	3,6	;RP1=0, select bank0
  1117  140A  00D7               	movwf	_a3+3
  1118  140B  3000               	movlw	0
  1119  140C  00D6               	movwf	_a3+2
  1120  140D  3000               	movlw	0
  1121  140E  00D5               	movwf	_a3+1
  1122  140F  3000               	movlw	0
  1123  1410  00D4               	movwf	_a3
  1124  1411  0857               	movf	_a3+3,w
  1125  1412  00DB               	movwf	_a2+3
  1126  1413  0856               	movf	_a3+2,w
  1127  1414  00DA               	movwf	_a2+2
  1128  1415  0855               	movf	_a3+1,w
  1129  1416  00D9               	movwf	_a2+1
  1130  1417  0854               	movf	_a3,w
  1131  1418  00D8               	movwf	_a2
  1132  1419  085B               	movf	_a2+3,w
  1133  141A  1683               	bsf	3,5	;RP0=1, select bank3
  1134  141B  1703               	bsf	3,6	;RP1=1, select bank3
  1135  141C  00DC               	movwf	(_a1+3)^(0+384)
  1136  141D  1283               	bcf	3,5	;RP0=0, select bank0
  1137  141E  1303               	bcf	3,6	;RP1=0, select bank0
  1138  141F  085A               	movf	_a2+2,w
  1139  1420  1683               	bsf	3,5	;RP0=1, select bank3
  1140  1421  1703               	bsf	3,6	;RP1=1, select bank3
  1141  1422  00DB               	movwf	(_a1+2)^(0+384)
  1142  1423  1283               	bcf	3,5	;RP0=0, select bank0
  1143  1424  1303               	bcf	3,6	;RP1=0, select bank0
  1144  1425  0859               	movf	_a2+1,w
  1145  1426  1683               	bsf	3,5	;RP0=1, select bank3
  1146  1427  1703               	bsf	3,6	;RP1=1, select bank3
  1147  1428  00DA               	movwf	(_a1+1)^(0+384)
  1148  1429  1283               	bcf	3,5	;RP0=0, select bank0
  1149  142A  1303               	bcf	3,6	;RP1=0, select bank0
  1150  142B  0858               	movf	_a2,w
  1151  142C  1683               	bsf	3,5	;RP0=1, select bank3
  1152  142D  1703               	bsf	3,6	;RP1=1, select bank3
  1153  142E  00D9               	movwf	_a1^(0+384)
  1154                           
  1155                           ;main.c: 35:  out = pre_out = 0;
  1156  142F  3000               	movlw	0
  1157  1430  1283               	bcf	3,5	;RP0=0, select bank0
  1158  1431  1303               	bcf	3,6	;RP1=0, select bank0
  1159  1432  00D3               	movwf	_pre_out+3
  1160  1433  3000               	movlw	0
  1161  1434  00D2               	movwf	_pre_out+2
  1162  1435  3000               	movlw	0
  1163  1436  00D1               	movwf	_pre_out+1
  1164  1437  3000               	movlw	0
  1165  1438  00D0               	movwf	_pre_out
  1166  1439  0853               	movf	_pre_out+3,w
  1167  143A  1683               	bsf	3,5	;RP0=1, select bank3
  1168  143B  1703               	bsf	3,6	;RP1=1, select bank3
  1169  143C  00CC               	movwf	(_out+3)^(0+384)
  1170  143D  1283               	bcf	3,5	;RP0=0, select bank0
  1171  143E  1303               	bcf	3,6	;RP1=0, select bank0
  1172  143F  0852               	movf	_pre_out+2,w
  1173  1440  1683               	bsf	3,5	;RP0=1, select bank3
  1174  1441  1703               	bsf	3,6	;RP1=1, select bank3
  1175  1442  00CB               	movwf	(_out+2)^(0+384)
  1176  1443  1283               	bcf	3,5	;RP0=0, select bank0
  1177  1444  1303               	bcf	3,6	;RP1=0, select bank0
  1178  1445  0851               	movf	_pre_out+1,w
  1179  1446  1683               	bsf	3,5	;RP0=1, select bank3
  1180  1447  1703               	bsf	3,6	;RP1=1, select bank3
  1181  1448  00CA               	movwf	(_out+1)^(0+384)
  1182  1449  1283               	bcf	3,5	;RP0=0, select bank0
  1183  144A  1303               	bcf	3,6	;RP1=0, select bank0
  1184  144B  0850               	movf	_pre_out,w
  1185  144C  1683               	bsf	3,5	;RP0=1, select bank3
  1186  144D  1703               	bsf	3,6	;RP1=1, select bank3
  1187  144E  00C9               	movwf	_out^(0+384)
  1188                           
  1189                           ;main.c: 37:     TRISA0 = 1;
  1190  144F  1683               	bsf	3,5	;RP0=1, select bank1
  1191  1450  1303               	bcf	3,6	;RP1=0, select bank1
  1192  1451  1405               	bsf	5,0	;volatile
  1193                           
  1194                           ;main.c: 38:     TRISB1 = 0;
  1195  1452  1086               	bcf	6,1	;volatile
  1196                           
  1197                           ;main.c: 39:     TRISC0 = 1;
  1198  1453  1407               	bsf	7,0	;volatile
  1199                           
  1200                           ;main.c: 40:     TRISC1 = 1;
  1201  1454  1487               	bsf	7,1	;volatile
  1202                           
  1203                           ;main.c: 41:     TRISC2 = 1;
  1204  1455  1507               	bsf	7,2	;volatile
  1205                           
  1206                           ;main.c: 43:     Lcd_Set_Port('D');
  1207  1456  3044               	movlw	68
  1208  1457  120A  158A  2001  160A  118A  	fcall	_Lcd_Set_Port
  1209                           
  1210                           ;main.c: 44:     Lcd_Init();
  1211  145C  160A  158A  279F  160A  118A  	fcall	_Lcd_Init
  1212                           
  1213                           ;main.c: 45:     ADC_Init();
  1214  1461  160A  118A  2004  160A  118A  	fcall	_ADC_Init
  1215                           
  1216                           ;main.c: 46:     Interrupt_Init();
  1217  1466  160A  158A  2576  160A  118A  	fcall	_Interrupt_Init
  1218                           
  1219                           ;main.c: 47:     Timer1_Init();
  1220  146B  160A  158A  257D  160A  118A  	fcall	_Timer1_Init
  1221                           
  1222                           ;main.c: 49:     Lcd_Write_String("hello tml");
  1223  1470  301C               	movlw	(low ((STR_1-__stringbase)| (0+32768)))& (0+255)
  1224  1471  160A  158A  262D  160A  118A  	fcall	_Lcd_Write_String
  1225  1476                     l3786:	
  1226                           
  1227                           ;main.c: 51:     {;main.c: 52:         if(RC0==0)
  1228  1476  1283               	bcf	3,5	;RP0=0, select bank0
  1229  1477  1303               	bcf	3,6	;RP1=0, select bank0
  1230  1478  1807               	btfsc	7,0	;volatile
  1231  1479  2CAE               	goto	l3804
  1232                           
  1233                           ;main.c: 53:         {;main.c: 54:             _delay((unsigned long)((10)*(20000000/400
      +                          0.0)));
  1234  147A  3041               	movlw	65
  1235  147B  1683               	bsf	3,5	;RP0=1, select bank3
  1236  147C  1703               	bsf	3,6	;RP1=1, select bank3
  1237  147D  00C8               	movwf	(??_main^(0+384)+1)
  1238  147E  30ED               	movlw	237
  1239  147F  00C7               	movwf	??_main^(0+384)
  1240  1480                     u6307:	
  1241  1480  0BC7               	decfsz	??_main^(0+384),f
  1242  1481  2C80               	goto	u6307
  1243  1482  0BC8               	decfsz	(??_main^(0+384)+1),f
  1244  1483  2C80               	goto	u6307
  1245  1484  2C85               	nop2
  1246                           
  1247                           ;main.c: 55:             if(RC0==0)
  1248  1485  1283               	bcf	3,5	;RP0=0, select bank0
  1249  1486  1303               	bcf	3,6	;RP1=0, select bank0
  1250  1487  1807               	btfsc	7,0	;volatile
  1251  1488  2CAE               	goto	l3804
  1252                           
  1253                           ;main.c: 56:             {;main.c: 57:                 _delay((unsigned long)((10)*(2000
      +                          0000/4000.0)));
  1254  1489  3041               	movlw	65
  1255  148A  1683               	bsf	3,5	;RP0=1, select bank3
  1256  148B  1703               	bsf	3,6	;RP1=1, select bank3
  1257  148C  00C8               	movwf	(??_main^(0+384)+1)
  1258  148D  30ED               	movlw	237
  1259  148E  00C7               	movwf	??_main^(0+384)
  1260  148F                     u6317:	
  1261  148F  0BC7               	decfsz	??_main^(0+384),f
  1262  1490  2C8F               	goto	u6317
  1263  1491  0BC8               	decfsz	(??_main^(0+384)+1),f
  1264  1492  2C8F               	goto	u6317
  1265  1493  2C94               	nop2
  1266                           
  1267                           ;main.c: 58:                 if(RC0==0)
  1268  1494  1283               	bcf	3,5	;RP0=0, select bank0
  1269  1495  1303               	bcf	3,6	;RP1=0, select bank0
  1270  1496  1807               	btfsc	7,0	;volatile
  1271  1497  2CAE               	goto	l3804
  1272                           
  1273                           ;main.c: 59:                 {;main.c: 60:                     _delay((unsigned long)((1
      +                          0)*(20000000/4000.0)));
  1274  1498  3041               	movlw	65
  1275  1499  1683               	bsf	3,5	;RP0=1, select bank3
  1276  149A  1703               	bsf	3,6	;RP1=1, select bank3
  1277  149B  00C8               	movwf	(??_main^(0+384)+1)
  1278  149C  30ED               	movlw	237
  1279  149D  00C7               	movwf	??_main^(0+384)
  1280  149E                     u6327:	
  1281  149E  0BC7               	decfsz	??_main^(0+384),f
  1282  149F  2C9E               	goto	u6327
  1283  14A0  0BC8               	decfsz	(??_main^(0+384)+1),f
  1284  14A1  2C9E               	goto	u6327
  1285  14A2  2CA3               	nop2
  1286                           
  1287                           ;main.c: 61:                     if(RC0==0)
  1288  14A3  1283               	bcf	3,5	;RP0=0, select bank0
  1289  14A4  1303               	bcf	3,6	;RP1=0, select bank0
  1290  14A5  1807               	btfsc	7,0	;volatile
  1291  14A6  2CAE               	goto	l3804
  1292  14A7                     l146:	
  1293  14A7  1C07               	btfss	7,0	;volatile
  1294  14A8  2CA7               	goto	l146
  1295                           
  1296                           ;main.c: 64:                         Set_temp();
  1297  14A9  120A  158A  2263  160A  118A  	fcall	_Set_temp
  1298  14AE                     l3804:	
  1299                           ;main.c: 67:             }
  1300                           
  1301                           
  1302                           ;main.c: 69:         _delay((unsigned long)((10)*(20000000/4000.0)));
  1303  14AE  3041               	movlw	65
  1304  14AF  1683               	bsf	3,5	;RP0=1, select bank3
  1305  14B0  1703               	bsf	3,6	;RP1=1, select bank3
  1306  14B1  00C8               	movwf	(??_main^(0+384)+1)
  1307  14B2  30ED               	movlw	237
  1308  14B3  00C7               	movwf	??_main^(0+384)
  1309  14B4                     u6337:	
  1310  14B4  0BC7               	decfsz	??_main^(0+384),f
  1311  14B5  2CB4               	goto	u6337
  1312  14B6  0BC8               	decfsz	(??_main^(0+384)+1),f
  1313  14B7  2CB4               	goto	u6337
  1314  14B8  2CB9               	nop2
  1315  14B9  2C76               	goto	l3786
  1316  14BA                     __end_of_main:	
  1317                           
  1318                           	psect	text1
  1319  1D7D                     __ptext1:	
  1320 ;; *************** function _Timer1_Init *****************
  1321 ;; Defined at:
  1322 ;;		line 73 in file "main.c"
  1323 ;; Parameters:    Size  Location     Type
  1324 ;;		None
  1325 ;; Auto vars:     Size  Location     Type
  1326 ;;		None
  1327 ;; Return value:  Size  Location     Type
  1328 ;;                  1    wreg      void 
  1329 ;; Registers used:
  1330 ;;		status,2
  1331 ;; Tracked objects:
  1332 ;;		On entry : 0/0
  1333 ;;		On exit  : 0/0
  1334 ;;		Unchanged: 0/0
  1335 ;; Data sizes:     COMMON   BANK0   BANK1   BANK3   BANK2
  1336 ;;      Params:         0       0       0       0       0
  1337 ;;      Locals:         0       0       0       0       0
  1338 ;;      Temps:          0       0       0       0       0
  1339 ;;      Totals:         0       0       0       0       0
  1340 ;;Total ram usage:        0 bytes
  1341 ;; Hardware stack levels used:    1
  1342 ;; Hardware stack levels required when called:    3
  1343 ;; This function calls:
  1344 ;;		Nothing
  1345 ;; This function is called by:
  1346 ;;		_main
  1347 ;; This function uses a non-reentrant model
  1348 ;;
  1349                           
  1350                           
  1351                           ;psect for function _Timer1_Init
  1352  1D7D                     _Timer1_Init:	
  1353                           
  1354                           ;main.c: 75:     TMR1H=0x00;
  1355                           
  1356                           ;incstack = 0
  1357                           ; Regs used in _Timer1_Init: [status,2]
  1358  1D7D  1283               	bcf	3,5	;RP0=0, select bank0
  1359  1D7E  1303               	bcf	3,6	;RP1=0, select bank0
  1360  1D7F  018F               	clrf	15	;volatile
  1361                           
  1362                           ;main.c: 76:     TMR1L=0x00;
  1363  1D80  018E               	clrf	14	;volatile
  1364                           
  1365                           ;main.c: 78:     T1CKPS1 = 0;
  1366  1D81  1290               	bcf	16,5	;volatile
  1367                           
  1368                           ;main.c: 79:     T1CKPS0 = 0;
  1369  1D82  1210               	bcf	16,4	;volatile
  1370                           
  1371                           ;main.c: 80:     T1OSCEN = 0;
  1372  1D83  1190               	bcf	16,3	;volatile
  1373                           
  1374                           ;main.c: 81:     T1SYNC = 0;
  1375  1D84  1110               	bcf	16,2	;volatile
  1376                           
  1377                           ;main.c: 82:     TMR1CS = 0;
  1378  1D85  1090               	bcf	16,1	;volatile
  1379                           
  1380                           ;main.c: 84:     TMR1IE = 0;
  1381  1D86  1683               	bsf	3,5	;RP0=1, select bank1
  1382  1D87  1303               	bcf	3,6	;RP1=0, select bank1
  1383  1D88  100C               	bcf	12,0	;volatile
  1384                           
  1385                           ;main.c: 86:     TMR1ON = 0;
  1386  1D89  1283               	bcf	3,5	;RP0=0, select bank0
  1387  1D8A  1303               	bcf	3,6	;RP1=0, select bank0
  1388  1D8B  1010               	bcf	16,0	;volatile
  1389  1D8C  0008               	return
  1390  1D8D                     __end_of_Timer1_Init:	
  1391                           
  1392                           	psect	text2
  1393  0A63                     __ptext2:	
  1394 ;; *************** function _Set_temp *****************
  1395 ;; Defined at:
  1396 ;;		line 157 in file "main.c"
  1397 ;; Parameters:    Size  Location     Type
  1398 ;;		None
  1399 ;; Auto vars:     Size  Location     Type
  1400 ;;  set_temp        1   79[BANK1 ] unsigned char 
  1401 ;; Return value:  Size  Location     Type
  1402 ;;                  1    wreg      void 
  1403 ;; Registers used:
  1404 ;;		wreg, fsr0l, fsr0h, status,2, status,0, btemp+1, pclath, cstack
  1405 ;; Tracked objects:
  1406 ;;		On entry : 0/0
  1407 ;;		On exit  : 0/0
  1408 ;;		Unchanged: 0/0
  1409 ;; Data sizes:     COMMON   BANK0   BANK1   BANK3   BANK2
  1410 ;;      Params:         0       0       0       0       0
  1411 ;;      Locals:         0       0       1       0       0
  1412 ;;      Temps:          0       0       0       4       0
  1413 ;;      Totals:         0       0       1       4       0
  1414 ;;Total ram usage:        5 bytes
  1415 ;; Hardware stack levels used:    1
  1416 ;; Hardware stack levels required when called:    7
  1417 ;; This function calls:
  1418 ;;		_Display
  1419 ;;		_Lcd_Clear
  1420 ;;		_Lcd_Set_Cursor
  1421 ;;		_Lcd_Write_String
  1422 ;;		_PID_Init
  1423 ;;		_Read_ADC
  1424 ;;		___fladd
  1425 ;;		___flmul
  1426 ;;		___fltol
  1427 ;;		___xxtofl
  1428 ;; This function is called by:
  1429 ;;		_main
  1430 ;; This function uses a non-reentrant model
  1431 ;;
  1432                           
  1433                           
  1434                           ;psect for function _Set_temp
  1435  0A63                     _Set_temp:	
  1436  0A63                     l182:	
  1437                           ;incstack = 0
  1438                           ; Regs used in _Set_temp: [wreg-fsr0h+status,2+status,0+btemp+1+pclath+cstack]
  1439                           ;main.c: 159:     here:
  1440                           
  1441                           
  1442                           ;main.c: 160:     Lcd_Clear();
  1443  0A63  160A  158A  258D  120A  158A  	fcall	_Lcd_Clear
  1444                           
  1445                           ;main.c: 161:     RD6 = 0;
  1446  0A68  1283               	bcf	3,5	;RP0=0, select bank0
  1447  0A69  1303               	bcf	3,6	;RP1=0, select bank0
  1448  0A6A  1308               	bcf	8,6	;volatile
  1449                           
  1450                           ;main.c: 162:     RD7 = 1;
  1451  0A6B  1788               	bsf	8,7	;volatile
  1452                           
  1453                           ;main.c: 164:     unsigned char set_temp = 60;
  1454  0A6C  303C               	movlw	60
  1455  0A6D  1683               	bsf	3,5	;RP0=1, select bank3
  1456  0A6E  1703               	bsf	3,6	;RP1=1, select bank3
  1457  0A6F  00C3               	movwf	??_Set_temp^(0+384)
  1458  0A70  0843               	movf	??_Set_temp^(0+384),w
  1459  0A71  1683               	bsf	3,5	;RP0=1, select bank1
  1460  0A72  1303               	bcf	3,6	;RP1=0, select bank1
  1461  0A73  00EF               	movwf	Set_temp@set_temp^(0+128)
  1462                           
  1463                           ;main.c: 166:     INTE = 0;
  1464  0A74  120B               	bcf	11,4	;volatile
  1465                           
  1466                           ;main.c: 167:     _delay((unsigned long)((10)*(20000000/4000.0)));
  1467  0A75  3041               	movlw	65
  1468  0A76  1683               	bsf	3,5	;RP0=1, select bank3
  1469  0A77  1703               	bsf	3,6	;RP1=1, select bank3
  1470  0A78  00C4               	movwf	(??_Set_temp^(0+384)+1)
  1471  0A79  30ED               	movlw	237
  1472  0A7A  00C3               	movwf	??_Set_temp^(0+384)
  1473  0A7B                     u6347:	
  1474  0A7B  0BC3               	decfsz	??_Set_temp^(0+384),f
  1475  0A7C  2A7B               	goto	u6347
  1476  0A7D  0BC4               	decfsz	(??_Set_temp^(0+384)+1),f
  1477  0A7E  2A7B               	goto	u6347
  1478  0A7F  2A80               	nop2
  1479                           
  1480                           ;main.c: 168:     RB1 = 0;
  1481  0A80  1283               	bcf	3,5	;RP0=0, select bank0
  1482  0A81  1303               	bcf	3,6	;RP1=0, select bank0
  1483  0A82  1086               	bcf	6,1	;volatile
  1484                           
  1485                           ;main.c: 170:     Lcd_Write_String("Nhiet do: ");
  1486  0A83  3011               	movlw	(low ((STR_2-__stringbase)| (0+32768)))& (0+255)
  1487  0A84  160A  158A  262D  120A  158A  	fcall	_Lcd_Write_String
  1488                           
  1489                           ;main.c: 171:     Lcd_Set_Cursor(2,0);
  1490  0A89  1683               	bsf	3,5	;RP0=1, select bank1
  1491  0A8A  1303               	bcf	3,6	;RP1=0, select bank1
  1492  0A8B  01A4               	clrf	Lcd_Set_Cursor@b^(0+128)
  1493  0A8C  3002               	movlw	2
  1494  0A8D  160A  158A  274F  120A  158A  	fcall	_Lcd_Set_Cursor
  1495                           
  1496                           ;main.c: 172:     Lcd_Write_String("NNhiet do dat: ");
  1497  0A92  3001               	movlw	(low ((STR_3-__stringbase)| (0+32768)))& (0+255)
  1498  0A93  160A  158A  262D  120A  158A  	fcall	_Lcd_Write_String
  1499  0A98                     l3442:	
  1500                           
  1501                           ;main.c: 174:     {;main.c: 175:         t = Read_ADC(0)*0.488f+0.5f;
  1502  0A98  3000               	movlw	0
  1503  0A99  160A  158A  2681  120A  158A  	fcall	_Read_ADC
  1504  0A9E  1683               	bsf	3,5	;RP0=1, select bank1
  1505  0A9F  1303               	bcf	3,6	;RP1=0, select bank1
  1506  0AA0  0820               	movf	?_Read_ADC^(0+128),w
  1507  0AA1  1683               	bsf	3,5	;RP0=1, select bank3
  1508  0AA2  1703               	bsf	3,6	;RP1=1, select bank3
  1509  0AA3  00C3               	movwf	??_Set_temp^(0+384)
  1510  0AA4  1683               	bsf	3,5	;RP0=1, select bank1
  1511  0AA5  1303               	bcf	3,6	;RP1=0, select bank1
  1512  0AA6  0821               	movf	(?_Read_ADC+1)^(0+128),w
  1513  0AA7  1683               	bsf	3,5	;RP0=1, select bank3
  1514  0AA8  1703               	bsf	3,6	;RP1=1, select bank3
  1515  0AA9  00C4               	movwf	(??_Set_temp^(0+384)+1)
  1516  0AAA  01C5               	clrf	(??_Set_temp^(0+384)+2)
  1517  0AAB  01C6               	clrf	(??_Set_temp^(0+384)+3)
  1518  0AAC  0846               	movf	(??_Set_temp+3)^(0+384),w
  1519  0AAD  1683               	bsf	3,5	;RP0=1, select bank1
  1520  0AAE  1303               	bcf	3,6	;RP1=0, select bank1
  1521  0AAF  00AC               	movwf	(___xxtofl@val+3)^(0+128)
  1522  0AB0  1683               	bsf	3,5	;RP0=1, select bank3
  1523  0AB1  1703               	bsf	3,6	;RP1=1, select bank3
  1524  0AB2  0845               	movf	(??_Set_temp+2)^(0+384),w
  1525  0AB3  1683               	bsf	3,5	;RP0=1, select bank1
  1526  0AB4  1303               	bcf	3,6	;RP1=0, select bank1
  1527  0AB5  00AB               	movwf	(___xxtofl@val+2)^(0+128)
  1528  0AB6  1683               	bsf	3,5	;RP0=1, select bank3
  1529  0AB7  1703               	bsf	3,6	;RP1=1, select bank3
  1530  0AB8  0844               	movf	(??_Set_temp+1)^(0+384),w
  1531  0AB9  1683               	bsf	3,5	;RP0=1, select bank1
  1532  0ABA  1303               	bcf	3,6	;RP1=0, select bank1
  1533  0ABB  00AA               	movwf	(___xxtofl@val+1)^(0+128)
  1534  0ABC  1683               	bsf	3,5	;RP0=1, select bank3
  1535  0ABD  1703               	bsf	3,6	;RP1=1, select bank3
  1536  0ABE  0843               	movf	??_Set_temp^(0+384),w
  1537  0ABF  1683               	bsf	3,5	;RP0=1, select bank1
  1538  0AC0  1303               	bcf	3,6	;RP1=0, select bank1
  1539  0AC1  00A9               	movwf	___xxtofl@val^(0+128)
  1540  0AC2  3000               	movlw	0
  1541  0AC3  160A  118A  2328  120A  158A  	fcall	___xxtofl
  1542  0AC8  1683               	bsf	3,5	;RP0=1, select bank1
  1543  0AC9  1303               	bcf	3,6	;RP1=0, select bank1
  1544  0ACA  082C               	movf	(?___xxtofl+3)^(0+128),w
  1545  0ACB  00BE               	movwf	(___flmul@a+3)^(0+128)
  1546  0ACC  082B               	movf	(?___xxtofl+2)^(0+128),w
  1547  0ACD  00BD               	movwf	(___flmul@a+2)^(0+128)
  1548  0ACE  082A               	movf	(?___xxtofl+1)^(0+128),w
  1549  0ACF  00BC               	movwf	(___flmul@a+1)^(0+128)
  1550  0AD0  0829               	movf	?___xxtofl^(0+128),w
  1551  0AD1  00BB               	movwf	___flmul@a^(0+128)
  1552  0AD2  303E               	movlw	62
  1553  0AD3  00BA               	movwf	(___flmul@b+3)^(0+128)
  1554  0AD4  30F9               	movlw	249
  1555  0AD5  00B9               	movwf	(___flmul@b+2)^(0+128)
  1556  0AD6  30DB               	movlw	219
  1557  0AD7  00B8               	movwf	(___flmul@b+1)^(0+128)
  1558  0AD8  3023               	movlw	35
  1559  0AD9  00B7               	movwf	___flmul@b^(0+128)
  1560  0ADA  120A  118A  248C  120A  158A  	fcall	___flmul
  1561  0ADF  1683               	bsf	3,5	;RP0=1, select bank1
  1562  0AE0  1303               	bcf	3,6	;RP1=0, select bank1
  1563  0AE1  083A               	movf	(?___flmul+3)^(0+128),w
  1564  0AE2  1683               	bsf	3,5	;RP0=1, select bank3
  1565  0AE3  1703               	bsf	3,6	;RP1=1, select bank3
  1566  0AE4  0097               	movwf	(___fladd@a+3)^(0+384)
  1567  0AE5  1683               	bsf	3,5	;RP0=1, select bank1
  1568  0AE6  1303               	bcf	3,6	;RP1=0, select bank1
  1569  0AE7  0839               	movf	(?___flmul+2)^(0+128),w
  1570  0AE8  1683               	bsf	3,5	;RP0=1, select bank3
  1571  0AE9  1703               	bsf	3,6	;RP1=1, select bank3
  1572  0AEA  0096               	movwf	(___fladd@a+2)^(0+384)
  1573  0AEB  1683               	bsf	3,5	;RP0=1, select bank1
  1574  0AEC  1303               	bcf	3,6	;RP1=0, select bank1
  1575  0AED  0838               	movf	(?___flmul+1)^(0+128),w
  1576  0AEE  1683               	bsf	3,5	;RP0=1, select bank3
  1577  0AEF  1703               	bsf	3,6	;RP1=1, select bank3
  1578  0AF0  0095               	movwf	(___fladd@a+1)^(0+384)
  1579  0AF1  1683               	bsf	3,5	;RP0=1, select bank1
  1580  0AF2  1303               	bcf	3,6	;RP1=0, select bank1
  1581  0AF3  0837               	movf	?___flmul^(0+128),w
  1582  0AF4  1683               	bsf	3,5	;RP0=1, select bank3
  1583  0AF5  1703               	bsf	3,6	;RP1=1, select bank3
  1584  0AF6  0094               	movwf	___fladd@a^(0+384)
  1585  0AF7  303F               	movlw	63
  1586  0AF8  0093               	movwf	(___fladd@b+3)^(0+384)
  1587  0AF9  3000               	movlw	0
  1588  0AFA  0092               	movwf	(___fladd@b+2)^(0+384)
  1589  0AFB  3000               	movlw	0
  1590  0AFC  0091               	movwf	(___fladd@b+1)^(0+384)
  1591  0AFD  3000               	movlw	0
  1592  0AFE  0090               	movwf	___fladd@b^(0+384)
  1593  0AFF  120A  158A  2516  120A  158A  	fcall	___fladd
  1594  0B04  1683               	bsf	3,5	;RP0=1, select bank3
  1595  0B05  1703               	bsf	3,6	;RP1=1, select bank3
  1596  0B06  0813               	movf	(?___fladd+3)^(0+384),w
  1597  0B07  00AB               	movwf	(___fltol@f1+3)^(0+384)
  1598  0B08  0812               	movf	(?___fladd+2)^(0+384),w
  1599  0B09  00AA               	movwf	(___fltol@f1+2)^(0+384)
  1600  0B0A  0811               	movf	(?___fladd+1)^(0+384),w
  1601  0B0B  00A9               	movwf	(___fltol@f1+1)^(0+384)
  1602  0B0C  0810               	movf	?___fladd^(0+384),w
  1603  0B0D  00A8               	movwf	___fltol@f1^(0+384)
  1604  0B0E  160A  118A  20F0  120A  158A  	fcall	___fltol
  1605  0B13  1683               	bsf	3,5	;RP0=1, select bank3
  1606  0B14  1703               	bsf	3,6	;RP1=1, select bank3
  1607  0B15  0829               	movf	(?___fltol+1)^(0+384),w
  1608  0B16  00EE               	movwf	(_t+1)^(0+384)
  1609  0B17  0828               	movf	?___fltol^(0+384),w
  1610  0B18  00ED               	movwf	_t^(0+384)
  1611                           
  1612                           ;main.c: 176:         if(RC1==0 && set_temp < 99)
  1613  0B19  1283               	bcf	3,5	;RP0=0, select bank0
  1614  0B1A  1303               	bcf	3,6	;RP1=0, select bank0
  1615  0B1B  1887               	btfsc	7,1	;volatile
  1616  0B1C  2B7E               	goto	l184
  1617  0B1D  3063               	movlw	99
  1618  0B1E  1683               	bsf	3,5	;RP0=1, select bank1
  1619  0B1F  1303               	bcf	3,6	;RP1=0, select bank1
  1620  0B20  026F               	subwf	Set_temp@set_temp^(0+128),w
  1621  0B21  1803               	skipnc
  1622  0B22  2B7E               	goto	l184
  1623                           
  1624                           ;main.c: 177:         {;main.c: 178:             _delay((unsigned long)((10)*(20000000/4
      +                          000.0)));
  1625  0B23  3041               	movlw	65
  1626  0B24  1683               	bsf	3,5	;RP0=1, select bank3
  1627  0B25  1703               	bsf	3,6	;RP1=1, select bank3
  1628  0B26  00C4               	movwf	(??_Set_temp^(0+384)+1)
  1629  0B27  30ED               	movlw	237
  1630  0B28  00C3               	movwf	??_Set_temp^(0+384)
  1631  0B29                     u6357:	
  1632  0B29  0BC3               	decfsz	??_Set_temp^(0+384),f
  1633  0B2A  2B29               	goto	u6357
  1634  0B2B  0BC4               	decfsz	(??_Set_temp^(0+384)+1),f
  1635  0B2C  2B29               	goto	u6357
  1636  0B2D  2B2E               	nop2
  1637                           
  1638                           ;main.c: 179:             if(RC1==0 && set_temp < 99)
  1639  0B2E  1283               	bcf	3,5	;RP0=0, select bank0
  1640  0B2F  1303               	bcf	3,6	;RP1=0, select bank0
  1641  0B30  1887               	btfsc	7,1	;volatile
  1642  0B31  2B7E               	goto	l184
  1643  0B32  3063               	movlw	99
  1644  0B33  1683               	bsf	3,5	;RP0=1, select bank1
  1645  0B34  1303               	bcf	3,6	;RP1=0, select bank1
  1646  0B35  026F               	subwf	Set_temp@set_temp^(0+128),w
  1647  0B36  1803               	skipnc
  1648  0B37  2B7E               	goto	l184
  1649                           
  1650                           ;main.c: 180:             {;main.c: 181:                 _delay((unsigned long)((10)*(20
      +                          000000/4000.0)));
  1651  0B38  3041               	movlw	65
  1652  0B39  1683               	bsf	3,5	;RP0=1, select bank3
  1653  0B3A  1703               	bsf	3,6	;RP1=1, select bank3
  1654  0B3B  00C4               	movwf	(??_Set_temp^(0+384)+1)
  1655  0B3C  30ED               	movlw	237
  1656  0B3D  00C3               	movwf	??_Set_temp^(0+384)
  1657  0B3E                     u6367:	
  1658  0B3E  0BC3               	decfsz	??_Set_temp^(0+384),f
  1659  0B3F  2B3E               	goto	u6367
  1660  0B40  0BC4               	decfsz	(??_Set_temp^(0+384)+1),f
  1661  0B41  2B3E               	goto	u6367
  1662  0B42  2B43               	nop2
  1663                           
  1664                           ;main.c: 182:                 if(RC1==0 && set_temp < 99)
  1665  0B43  1283               	bcf	3,5	;RP0=0, select bank0
  1666  0B44  1303               	bcf	3,6	;RP1=0, select bank0
  1667  0B45  1887               	btfsc	7,1	;volatile
  1668  0B46  2B7E               	goto	l184
  1669  0B47  3063               	movlw	99
  1670  0B48  1683               	bsf	3,5	;RP0=1, select bank1
  1671  0B49  1303               	bcf	3,6	;RP1=0, select bank1
  1672  0B4A  026F               	subwf	Set_temp@set_temp^(0+128),w
  1673  0B4B  1C03               	btfss	3,0
  1674  0B4C  2B74               	goto	l3468
  1675  0B4D  2B7E               	goto	l184
  1676  0B4E                     l3462:	
  1677                           
  1678                           ;main.c: 184:                     {;main.c: 185:                         set_temp++;
  1679  0B4E  3001               	movlw	1
  1680  0B4F  1683               	bsf	3,5	;RP0=1, select bank3
  1681  0B50  1703               	bsf	3,6	;RP1=1, select bank3
  1682  0B51  00C3               	movwf	??_Set_temp^(0+384)
  1683  0B52  0843               	movf	??_Set_temp^(0+384),w
  1684  0B53  1683               	bsf	3,5	;RP0=1, select bank1
  1685  0B54  1303               	bcf	3,6	;RP1=0, select bank1
  1686  0B55  07EF               	addwf	Set_temp@set_temp^(0+128),f
  1687                           
  1688                           ;main.c: 186:                         Display(t,set_temp);
  1689  0B56  086F               	movf	Set_temp@set_temp^(0+128),w
  1690  0B57  1683               	bsf	3,5	;RP0=1, select bank3
  1691  0B58  1703               	bsf	3,6	;RP1=1, select bank3
  1692  0B59  00C3               	movwf	??_Set_temp^(0+384)
  1693  0B5A  0843               	movf	??_Set_temp^(0+384),w
  1694  0B5B  1683               	bsf	3,5	;RP0=1, select bank1
  1695  0B5C  1303               	bcf	3,6	;RP1=0, select bank1
  1696  0B5D  00B0               	movwf	Display@set_temp^(0+128)
  1697  0B5E  1683               	bsf	3,5	;RP0=1, select bank3
  1698  0B5F  1703               	bsf	3,6	;RP1=1, select bank3
  1699  0B60  086D               	movf	_t^(0+384),w
  1700  0B61  160A  118A  215D  120A  158A  	fcall	_Display
  1701                           
  1702                           ;main.c: 187:                         _delay((unsigned long)((250)*(20000000/4000.0)));
  1703  0B66  3007               	movlw	7
  1704  0B67  1683               	bsf	3,5	;RP0=1, select bank3
  1705  0B68  1703               	bsf	3,6	;RP1=1, select bank3
  1706  0B69  00C5               	movwf	(??_Set_temp^(0+384)+2)
  1707  0B6A  3058               	movlw	88
  1708  0B6B  00C4               	movwf	(??_Set_temp^(0+384)+1)
  1709  0B6C  3059               	movlw	89
  1710  0B6D  00C3               	movwf	??_Set_temp^(0+384)
  1711  0B6E                     u6377:	
  1712  0B6E  0BC3               	decfsz	??_Set_temp^(0+384),f
  1713  0B6F  2B6E               	goto	u6377
  1714  0B70  0BC4               	decfsz	(??_Set_temp^(0+384)+1),f
  1715  0B71  2B6E               	goto	u6377
  1716  0B72  0BC5               	decfsz	(??_Set_temp^(0+384)+2),f
  1717  0B73  2B6E               	goto	u6377
  1718  0B74                     l3468:	
  1719                           
  1720                           ;main.c: 183:                     while(RC1==0 && set_temp < 99)
  1721  0B74  1283               	bcf	3,5	;RP0=0, select bank0
  1722  0B75  1303               	bcf	3,6	;RP1=0, select bank0
  1723  0B76  1887               	btfsc	7,1	;volatile
  1724  0B77  2B7E               	goto	l184
  1725  0B78  3063               	movlw	99
  1726  0B79  1683               	bsf	3,5	;RP0=1, select bank1
  1727  0B7A  1303               	bcf	3,6	;RP1=0, select bank1
  1728  0B7B  026F               	subwf	Set_temp@set_temp^(0+128),w
  1729  0B7C  1C03               	skipc
  1730  0B7D  2B4E               	goto	l3462
  1731  0B7E                     l184:	
  1732                           ;main.c: 190:         }
  1733                           
  1734                           ;main.c: 188:                     }
  1735                           
  1736                           
  1737                           ;main.c: 191:         if(RC2==0 && set_temp > 40)
  1738  0B7E  1283               	bcf	3,5	;RP0=0, select bank0
  1739  0B7F  1907               	btfsc	7,2	;volatile
  1740  0B80  2BDC               	goto	l192
  1741  0B81  3029               	movlw	41
  1742  0B82  1683               	bsf	3,5	;RP0=1, select bank1
  1743  0B83  1303               	bcf	3,6	;RP1=0, select bank1
  1744  0B84  026F               	subwf	Set_temp@set_temp^(0+128),w
  1745  0B85  1C03               	skipc
  1746  0B86  2BDC               	goto	l192
  1747                           
  1748                           ;main.c: 192:         {;main.c: 193:             _delay((unsigned long)((10)*(20000000/4
      +                          000.0)));
  1749  0B87  3041               	movlw	65
  1750  0B88  1683               	bsf	3,5	;RP0=1, select bank3
  1751  0B89  1703               	bsf	3,6	;RP1=1, select bank3
  1752  0B8A  00C4               	movwf	(??_Set_temp^(0+384)+1)
  1753  0B8B  30ED               	movlw	237
  1754  0B8C  00C3               	movwf	??_Set_temp^(0+384)
  1755  0B8D                     u6387:	
  1756  0B8D  0BC3               	decfsz	??_Set_temp^(0+384),f
  1757  0B8E  2B8D               	goto	u6387
  1758  0B8F  0BC4               	decfsz	(??_Set_temp^(0+384)+1),f
  1759  0B90  2B8D               	goto	u6387
  1760  0B91  2B92               	nop2
  1761                           
  1762                           ;main.c: 194:             if(RC2==0 && set_temp > 40)
  1763  0B92  1283               	bcf	3,5	;RP0=0, select bank0
  1764  0B93  1303               	bcf	3,6	;RP1=0, select bank0
  1765  0B94  1907               	btfsc	7,2	;volatile
  1766  0B95  2BDC               	goto	l192
  1767  0B96  3029               	movlw	41
  1768  0B97  1683               	bsf	3,5	;RP0=1, select bank1
  1769  0B98  1303               	bcf	3,6	;RP1=0, select bank1
  1770  0B99  026F               	subwf	Set_temp@set_temp^(0+128),w
  1771  0B9A  1C03               	skipc
  1772  0B9B  2BDC               	goto	l192
  1773                           
  1774                           ;main.c: 195:             {;main.c: 196:                 _delay((unsigned long)((10)*(20
      +                          000000/4000.0)));
  1775  0B9C  3041               	movlw	65
  1776  0B9D  1683               	bsf	3,5	;RP0=1, select bank3
  1777  0B9E  1703               	bsf	3,6	;RP1=1, select bank3
  1778  0B9F  00C4               	movwf	(??_Set_temp^(0+384)+1)
  1779  0BA0  30ED               	movlw	237
  1780  0BA1  00C3               	movwf	??_Set_temp^(0+384)
  1781  0BA2                     u6397:	
  1782  0BA2  0BC3               	decfsz	??_Set_temp^(0+384),f
  1783  0BA3  2BA2               	goto	u6397
  1784  0BA4  0BC4               	decfsz	(??_Set_temp^(0+384)+1),f
  1785  0BA5  2BA2               	goto	u6397
  1786  0BA6  2BA7               	nop2
  1787                           
  1788                           ;main.c: 197:                 if(RC2==0 && set_temp > 40)
  1789  0BA7  1283               	bcf	3,5	;RP0=0, select bank0
  1790  0BA8  1303               	bcf	3,6	;RP1=0, select bank0
  1791  0BA9  1907               	btfsc	7,2	;volatile
  1792  0BAA  2BDC               	goto	l192
  1793  0BAB  3029               	movlw	41
  1794  0BAC  1683               	bsf	3,5	;RP0=1, select bank1
  1795  0BAD  1303               	bcf	3,6	;RP1=0, select bank1
  1796  0BAE  026F               	subwf	Set_temp@set_temp^(0+128),w
  1797  0BAF  1803               	btfsc	3,0
  1798  0BB0  2BD2               	goto	l3494
  1799  0BB1  2BDC               	goto	l192
  1800  0BB2                     l3488:	
  1801                           
  1802                           ;main.c: 200:                     {;main.c: 201:                         set_temp--;
  1803  0BB2  3001               	movlw	1
  1804  0BB3  02EF               	subwf	Set_temp@set_temp^(0+128),f
  1805                           
  1806                           ;main.c: 202:                         Display(t,set_temp);
  1807  0BB4  086F               	movf	Set_temp@set_temp^(0+128),w
  1808  0BB5  1683               	bsf	3,5	;RP0=1, select bank3
  1809  0BB6  1703               	bsf	3,6	;RP1=1, select bank3
  1810  0BB7  00C3               	movwf	??_Set_temp^(0+384)
  1811  0BB8  0843               	movf	??_Set_temp^(0+384),w
  1812  0BB9  1683               	bsf	3,5	;RP0=1, select bank1
  1813  0BBA  1303               	bcf	3,6	;RP1=0, select bank1
  1814  0BBB  00B0               	movwf	Display@set_temp^(0+128)
  1815  0BBC  1683               	bsf	3,5	;RP0=1, select bank3
  1816  0BBD  1703               	bsf	3,6	;RP1=1, select bank3
  1817  0BBE  086D               	movf	_t^(0+384),w
  1818  0BBF  160A  118A  215D  120A  158A  	fcall	_Display
  1819                           
  1820                           ;main.c: 203:                         _delay((unsigned long)((250)*(20000000/4000.0)));
  1821  0BC4  3007               	movlw	7
  1822  0BC5  1683               	bsf	3,5	;RP0=1, select bank3
  1823  0BC6  1703               	bsf	3,6	;RP1=1, select bank3
  1824  0BC7  00C5               	movwf	(??_Set_temp^(0+384)+2)
  1825  0BC8  3058               	movlw	88
  1826  0BC9  00C4               	movwf	(??_Set_temp^(0+384)+1)
  1827  0BCA  3059               	movlw	89
  1828  0BCB  00C3               	movwf	??_Set_temp^(0+384)
  1829  0BCC                     u6407:	
  1830  0BCC  0BC3               	decfsz	??_Set_temp^(0+384),f
  1831  0BCD  2BCC               	goto	u6407
  1832  0BCE  0BC4               	decfsz	(??_Set_temp^(0+384)+1),f
  1833  0BCF  2BCC               	goto	u6407
  1834  0BD0  0BC5               	decfsz	(??_Set_temp^(0+384)+2),f
  1835  0BD1  2BCC               	goto	u6407
  1836  0BD2                     l3494:	
  1837                           
  1838                           ;main.c: 199:                     while(RC2==0 && set_temp > 40)
  1839  0BD2  1283               	bcf	3,5	;RP0=0, select bank0
  1840  0BD3  1303               	bcf	3,6	;RP1=0, select bank0
  1841  0BD4  1907               	btfsc	7,2	;volatile
  1842  0BD5  2BDC               	goto	l192
  1843  0BD6  3029               	movlw	41
  1844  0BD7  1683               	bsf	3,5	;RP0=1, select bank1
  1845  0BD8  1303               	bcf	3,6	;RP1=0, select bank1
  1846  0BD9  026F               	subwf	Set_temp@set_temp^(0+128),w
  1847  0BDA  1803               	skipnc
  1848  0BDB  2BB2               	goto	l3488
  1849  0BDC                     l192:	
  1850                           ;main.c: 207:         }
  1851                           
  1852                           ;main.c: 205:                 }
  1853                           
  1854                           
  1855                           ;main.c: 208:         if(RC0 == 0)
  1856  0BDC  1283               	bcf	3,5	;RP0=0, select bank0
  1857  0BDD  1807               	btfsc	7,0	;volatile
  1858  0BDE  2CF8               	goto	l3532
  1859                           
  1860                           ;main.c: 209:         {;main.c: 210:             _delay((unsigned long)((10)*(20000000/4
      +                          000.0)));
  1861  0BDF  3041               	movlw	65
  1862  0BE0  1683               	bsf	3,5	;RP0=1, select bank3
  1863  0BE1  1703               	bsf	3,6	;RP1=1, select bank3
  1864  0BE2  00C4               	movwf	(??_Set_temp^(0+384)+1)
  1865  0BE3  30ED               	movlw	237
  1866  0BE4  00C3               	movwf	??_Set_temp^(0+384)
  1867  0BE5                     u6417:	
  1868  0BE5  0BC3               	decfsz	??_Set_temp^(0+384),f
  1869  0BE6  2BE5               	goto	u6417
  1870  0BE7  0BC4               	decfsz	(??_Set_temp^(0+384)+1),f
  1871  0BE8  2BE5               	goto	u6417
  1872  0BE9  2BEA               	nop2
  1873                           
  1874                           ;main.c: 211:             if(RC0==0)
  1875  0BEA  1283               	bcf	3,5	;RP0=0, select bank0
  1876  0BEB  1303               	bcf	3,6	;RP1=0, select bank0
  1877  0BEC  1807               	btfsc	7,0	;volatile
  1878  0BED  2CF8               	goto	l3532
  1879                           
  1880                           ;main.c: 212:             {;main.c: 213:                 _delay((unsigned long)((10)*(20
      +                          000000/4000.0)));
  1881  0BEE  3041               	movlw	65
  1882  0BEF  1683               	bsf	3,5	;RP0=1, select bank3
  1883  0BF0  1703               	bsf	3,6	;RP1=1, select bank3
  1884  0BF1  00C4               	movwf	(??_Set_temp^(0+384)+1)
  1885  0BF2  30ED               	movlw	237
  1886  0BF3  00C3               	movwf	??_Set_temp^(0+384)
  1887  0BF4                     u6427:	
  1888  0BF4  0BC3               	decfsz	??_Set_temp^(0+384),f
  1889  0BF5  2BF4               	goto	u6427
  1890  0BF6  0BC4               	decfsz	(??_Set_temp^(0+384)+1),f
  1891  0BF7  2BF4               	goto	u6427
  1892  0BF8  2BF9               	nop2
  1893                           
  1894                           ;main.c: 214:                 if(RC0==0)
  1895  0BF9  1283               	bcf	3,5	;RP0=0, select bank0
  1896  0BFA  1303               	bcf	3,6	;RP1=0, select bank0
  1897  0BFB  1807               	btfsc	7,0	;volatile
  1898  0BFC  2CF8               	goto	l3532
  1899                           
  1900                           ;main.c: 215:                 {;main.c: 216:                     _delay((unsigned long)(
      +                          (10)*(20000000/4000.0)));
  1901  0BFD  3041               	movlw	65
  1902  0BFE  1683               	bsf	3,5	;RP0=1, select bank3
  1903  0BFF  1703               	bsf	3,6	;RP1=1, select bank3
  1904  0C00  00C4               	movwf	(??_Set_temp^(0+384)+1)
  1905  0C01  30ED               	movlw	237
  1906  0C02  00C3               	movwf	??_Set_temp^(0+384)
  1907  0C03                     u6437:	
  1908  0C03  0BC3               	decfsz	??_Set_temp^(0+384),f
  1909  0C04  2C03               	goto	u6437
  1910  0C05  0BC4               	decfsz	(??_Set_temp^(0+384)+1),f
  1911  0C06  2C03               	goto	u6437
  1912  0C07  2C08               	nop2
  1913                           
  1914                           ;main.c: 217:                     if(RC0==0)
  1915  0C08  1283               	bcf	3,5	;RP0=0, select bank0
  1916  0C09  1303               	bcf	3,6	;RP1=0, select bank0
  1917  0C0A  1807               	btfsc	7,0	;volatile
  1918  0C0B  2CF8               	goto	l3532
  1919  0C0C                     l204:	
  1920  0C0C  1C07               	btfss	7,0	;volatile
  1921  0C0D  2C0C               	goto	l204
  1922                           
  1923                           ;main.c: 220:                         RD6 = 1;
  1924  0C0E  1708               	bsf	8,6	;volatile
  1925                           
  1926                           ;main.c: 221:                         RD7 = 0;
  1927  0C0F  1388               	bcf	8,7	;volatile
  1928                           
  1929                           ;main.c: 222:                         INTE = 1;
  1930  0C10  160B               	bsf	11,4	;volatile
  1931                           
  1932                           ;main.c: 223:                         _delay((unsigned long)((10)*(20000000/4000.0)));
  1933  0C11  3041               	movlw	65
  1934  0C12  1683               	bsf	3,5	;RP0=1, select bank3
  1935  0C13  1703               	bsf	3,6	;RP1=1, select bank3
  1936  0C14  00C4               	movwf	(??_Set_temp^(0+384)+1)
  1937  0C15  30ED               	movlw	237
  1938  0C16  00C3               	movwf	??_Set_temp^(0+384)
  1939  0C17                     u6447:	
  1940  0C17  0BC3               	decfsz	??_Set_temp^(0+384),f
  1941  0C18  2C17               	goto	u6447
  1942  0C19  0BC4               	decfsz	(??_Set_temp^(0+384)+1),f
  1943  0C1A  2C17               	goto	u6447
  1944  0C1B  2C1C               	nop2
  1945  0C1C                     l3514:	
  1946                           
  1947                           ;main.c: 225:                         {;main.c: 226:                             t = Rea
      +                          d_ADC(0)*0.488f+0.5f;
  1948  0C1C  3000               	movlw	0
  1949  0C1D  160A  158A  2681  120A  158A  	fcall	_Read_ADC
  1950  0C22  1683               	bsf	3,5	;RP0=1, select bank1
  1951  0C23  1303               	bcf	3,6	;RP1=0, select bank1
  1952  0C24  0820               	movf	?_Read_ADC^(0+128),w
  1953  0C25  1683               	bsf	3,5	;RP0=1, select bank3
  1954  0C26  1703               	bsf	3,6	;RP1=1, select bank3
  1955  0C27  00C3               	movwf	??_Set_temp^(0+384)
  1956  0C28  1683               	bsf	3,5	;RP0=1, select bank1
  1957  0C29  1303               	bcf	3,6	;RP1=0, select bank1
  1958  0C2A  0821               	movf	(?_Read_ADC+1)^(0+128),w
  1959  0C2B  1683               	bsf	3,5	;RP0=1, select bank3
  1960  0C2C  1703               	bsf	3,6	;RP1=1, select bank3
  1961  0C2D  00C4               	movwf	(??_Set_temp^(0+384)+1)
  1962  0C2E  01C5               	clrf	(??_Set_temp^(0+384)+2)
  1963  0C2F  01C6               	clrf	(??_Set_temp^(0+384)+3)
  1964  0C30  0846               	movf	(??_Set_temp+3)^(0+384),w
  1965  0C31  1683               	bsf	3,5	;RP0=1, select bank1
  1966  0C32  1303               	bcf	3,6	;RP1=0, select bank1
  1967  0C33  00AC               	movwf	(___xxtofl@val+3)^(0+128)
  1968  0C34  1683               	bsf	3,5	;RP0=1, select bank3
  1969  0C35  1703               	bsf	3,6	;RP1=1, select bank3
  1970  0C36  0845               	movf	(??_Set_temp+2)^(0+384),w
  1971  0C37  1683               	bsf	3,5	;RP0=1, select bank1
  1972  0C38  1303               	bcf	3,6	;RP1=0, select bank1
  1973  0C39  00AB               	movwf	(___xxtofl@val+2)^(0+128)
  1974  0C3A  1683               	bsf	3,5	;RP0=1, select bank3
  1975  0C3B  1703               	bsf	3,6	;RP1=1, select bank3
  1976  0C3C  0844               	movf	(??_Set_temp+1)^(0+384),w
  1977  0C3D  1683               	bsf	3,5	;RP0=1, select bank1
  1978  0C3E  1303               	bcf	3,6	;RP1=0, select bank1
  1979  0C3F  00AA               	movwf	(___xxtofl@val+1)^(0+128)
  1980  0C40  1683               	bsf	3,5	;RP0=1, select bank3
  1981  0C41  1703               	bsf	3,6	;RP1=1, select bank3
  1982  0C42  0843               	movf	??_Set_temp^(0+384),w
  1983  0C43  1683               	bsf	3,5	;RP0=1, select bank1
  1984  0C44  1303               	bcf	3,6	;RP1=0, select bank1
  1985  0C45  00A9               	movwf	___xxtofl@val^(0+128)
  1986  0C46  3000               	movlw	0
  1987  0C47  160A  118A  2328  120A  158A  	fcall	___xxtofl
  1988  0C4C  1683               	bsf	3,5	;RP0=1, select bank1
  1989  0C4D  1303               	bcf	3,6	;RP1=0, select bank1
  1990  0C4E  082C               	movf	(?___xxtofl+3)^(0+128),w
  1991  0C4F  00BE               	movwf	(___flmul@a+3)^(0+128)
  1992  0C50  082B               	movf	(?___xxtofl+2)^(0+128),w
  1993  0C51  00BD               	movwf	(___flmul@a+2)^(0+128)
  1994  0C52  082A               	movf	(?___xxtofl+1)^(0+128),w
  1995  0C53  00BC               	movwf	(___flmul@a+1)^(0+128)
  1996  0C54  0829               	movf	?___xxtofl^(0+128),w
  1997  0C55  00BB               	movwf	___flmul@a^(0+128)
  1998  0C56  303E               	movlw	62
  1999  0C57  00BA               	movwf	(___flmul@b+3)^(0+128)
  2000  0C58  30F9               	movlw	249
  2001  0C59  00B9               	movwf	(___flmul@b+2)^(0+128)
  2002  0C5A  30DB               	movlw	219
  2003  0C5B  00B8               	movwf	(___flmul@b+1)^(0+128)
  2004  0C5C  3023               	movlw	35
  2005  0C5D  00B7               	movwf	___flmul@b^(0+128)
  2006  0C5E  120A  118A  248C  120A  158A  	fcall	___flmul
  2007  0C63  1683               	bsf	3,5	;RP0=1, select bank1
  2008  0C64  1303               	bcf	3,6	;RP1=0, select bank1
  2009  0C65  083A               	movf	(?___flmul+3)^(0+128),w
  2010  0C66  1683               	bsf	3,5	;RP0=1, select bank3
  2011  0C67  1703               	bsf	3,6	;RP1=1, select bank3
  2012  0C68  0097               	movwf	(___fladd@a+3)^(0+384)
  2013  0C69  1683               	bsf	3,5	;RP0=1, select bank1
  2014  0C6A  1303               	bcf	3,6	;RP1=0, select bank1
  2015  0C6B  0839               	movf	(?___flmul+2)^(0+128),w
  2016  0C6C  1683               	bsf	3,5	;RP0=1, select bank3
  2017  0C6D  1703               	bsf	3,6	;RP1=1, select bank3
  2018  0C6E  0096               	movwf	(___fladd@a+2)^(0+384)
  2019  0C6F  1683               	bsf	3,5	;RP0=1, select bank1
  2020  0C70  1303               	bcf	3,6	;RP1=0, select bank1
  2021  0C71  0838               	movf	(?___flmul+1)^(0+128),w
  2022  0C72  1683               	bsf	3,5	;RP0=1, select bank3
  2023  0C73  1703               	bsf	3,6	;RP1=1, select bank3
  2024  0C74  0095               	movwf	(___fladd@a+1)^(0+384)
  2025  0C75  1683               	bsf	3,5	;RP0=1, select bank1
  2026  0C76  1303               	bcf	3,6	;RP1=0, select bank1
  2027  0C77  0837               	movf	?___flmul^(0+128),w
  2028  0C78  1683               	bsf	3,5	;RP0=1, select bank3
  2029  0C79  1703               	bsf	3,6	;RP1=1, select bank3
  2030  0C7A  0094               	movwf	___fladd@a^(0+384)
  2031  0C7B  303F               	movlw	63
  2032  0C7C  0093               	movwf	(___fladd@b+3)^(0+384)
  2033  0C7D  3000               	movlw	0
  2034  0C7E  0092               	movwf	(___fladd@b+2)^(0+384)
  2035  0C7F  3000               	movlw	0
  2036  0C80  0091               	movwf	(___fladd@b+1)^(0+384)
  2037  0C81  3000               	movlw	0
  2038  0C82  0090               	movwf	___fladd@b^(0+384)
  2039  0C83  120A  158A  2516  120A  158A  	fcall	___fladd
  2040  0C88  1683               	bsf	3,5	;RP0=1, select bank3
  2041  0C89  1703               	bsf	3,6	;RP1=1, select bank3
  2042  0C8A  0813               	movf	(?___fladd+3)^(0+384),w
  2043  0C8B  00AB               	movwf	(___fltol@f1+3)^(0+384)
  2044  0C8C  0812               	movf	(?___fladd+2)^(0+384),w
  2045  0C8D  00AA               	movwf	(___fltol@f1+2)^(0+384)
  2046  0C8E  0811               	movf	(?___fladd+1)^(0+384),w
  2047  0C8F  00A9               	movwf	(___fltol@f1+1)^(0+384)
  2048  0C90  0810               	movf	?___fladd^(0+384),w
  2049  0C91  00A8               	movwf	___fltol@f1^(0+384)
  2050  0C92  160A  118A  20F0  120A  158A  	fcall	___fltol
  2051  0C97  1683               	bsf	3,5	;RP0=1, select bank3
  2052  0C98  1703               	bsf	3,6	;RP1=1, select bank3
  2053  0C99  0829               	movf	(?___fltol+1)^(0+384),w
  2054  0C9A  00EE               	movwf	(_t+1)^(0+384)
  2055  0C9B  0828               	movf	?___fltol^(0+384),w
  2056  0C9C  00ED               	movwf	_t^(0+384)
  2057                           
  2058                           ;main.c: 227:                             duty = PID_Init(t,set_temp);
  2059  0C9D  086E               	movf	(_t+1)^(0+384),w
  2060  0C9E  00B4               	movwf	(PID_Init@nhietdo+1)^(0+384)
  2061  0C9F  086D               	movf	_t^(0+384),w
  2062  0CA0  00B3               	movwf	PID_Init@nhietdo^(0+384)
  2063  0CA1  1683               	bsf	3,5	;RP0=1, select bank1
  2064  0CA2  1303               	bcf	3,6	;RP1=0, select bank1
  2065  0CA3  086F               	movf	Set_temp@set_temp^(0+128),w
  2066  0CA4  1683               	bsf	3,5	;RP0=1, select bank3
  2067  0CA5  1703               	bsf	3,6	;RP1=1, select bank3
  2068  0CA6  00C3               	movwf	??_Set_temp^(0+384)
  2069  0CA7  01C4               	clrf	(??_Set_temp^(0+384)+1)
  2070  0CA8  0843               	movf	??_Set_temp^(0+384),w
  2071  0CA9  00B5               	movwf	PID_Init@nhietdodat^(0+384)
  2072  0CAA  0844               	movf	(??_Set_temp+1)^(0+384),w
  2073  0CAB  00B6               	movwf	(PID_Init@nhietdodat+1)^(0+384)
  2074  0CAC  120A  118A  201F  120A  158A  	fcall	_PID_Init
  2075  0CB1  1683               	bsf	3,5	;RP0=1, select bank3
  2076  0CB2  1703               	bsf	3,6	;RP1=1, select bank3
  2077  0CB3  0834               	movf	(?_PID_Init+1)^(0+384),w
  2078  0CB4  1283               	bcf	3,5	;RP0=0, select bank0
  2079  0CB5  1303               	bcf	3,6	;RP1=0, select bank0
  2080  0CB6  00DD               	movwf	_duty+1
  2081  0CB7  1683               	bsf	3,5	;RP0=1, select bank3
  2082  0CB8  1703               	bsf	3,6	;RP1=1, select bank3
  2083  0CB9  0833               	movf	?_PID_Init^(0+384),w
  2084  0CBA  1283               	bcf	3,5	;RP0=0, select bank0
  2085  0CBB  1303               	bcf	3,6	;RP1=0, select bank0
  2086  0CBC  00DC               	movwf	_duty
  2087                           
  2088                           ;main.c: 228:                             if(RC0 == 0)
  2089  0CBD  1807               	btfsc	7,0	;volatile
  2090  0CBE  2CC2               	goto	l3522
  2091  0CBF                     l209:	
  2092  0CBF  1807               	btfsc	7,0	;volatile
  2093  0CC0  2A63               	goto	l182
  2094  0CC1  2CBF               	goto	l209
  2095  0CC2                     l3522:	
  2096                           
  2097                           ;main.c: 233:                             Display(t,set_temp);
  2098  0CC2  1683               	bsf	3,5	;RP0=1, select bank1
  2099  0CC3  1303               	bcf	3,6	;RP1=0, select bank1
  2100  0CC4  086F               	movf	Set_temp@set_temp^(0+128),w
  2101  0CC5  1683               	bsf	3,5	;RP0=1, select bank3
  2102  0CC6  1703               	bsf	3,6	;RP1=1, select bank3
  2103  0CC7  00C3               	movwf	??_Set_temp^(0+384)
  2104  0CC8  0843               	movf	??_Set_temp^(0+384),w
  2105  0CC9  1683               	bsf	3,5	;RP0=1, select bank1
  2106  0CCA  1303               	bcf	3,6	;RP1=0, select bank1
  2107  0CCB  00B0               	movwf	Display@set_temp^(0+128)
  2108  0CCC  1683               	bsf	3,5	;RP0=1, select bank3
  2109  0CCD  1703               	bsf	3,6	;RP1=1, select bank3
  2110  0CCE  086D               	movf	_t^(0+384),w
  2111  0CCF  160A  118A  215D  120A  158A  	fcall	_Display
  2112                           
  2113                           ;main.c: 234:                             _delay((unsigned long)((50)*(20000000/4000.0))
      +                          );
  2114  0CD4  3002               	movlw	2
  2115  0CD5  1683               	bsf	3,5	;RP0=1, select bank3
  2116  0CD6  1703               	bsf	3,6	;RP1=1, select bank3
  2117  0CD7  00C5               	movwf	(??_Set_temp^(0+384)+2)
  2118  0CD8  3045               	movlw	69
  2119  0CD9  00C4               	movwf	(??_Set_temp^(0+384)+1)
  2120  0CDA  30A9               	movlw	169
  2121  0CDB  00C3               	movwf	??_Set_temp^(0+384)
  2122  0CDC                     u6457:	
  2123  0CDC  0BC3               	decfsz	??_Set_temp^(0+384),f
  2124  0CDD  2CDC               	goto	u6457
  2125  0CDE  0BC4               	decfsz	(??_Set_temp^(0+384)+1),f
  2126  0CDF  2CDC               	goto	u6457
  2127  0CE0  0BC5               	decfsz	(??_Set_temp^(0+384)+2),f
  2128  0CE1  2CDC               	goto	u6457
  2129                           
  2130                           ;main.c: 235:                             if(RC0 == 0)
  2131  0CE2  1283               	bcf	3,5	;RP0=0, select bank0
  2132  0CE3  1303               	bcf	3,6	;RP1=0, select bank0
  2133  0CE4  1807               	btfsc	7,0	;volatile
  2134  0CE5  2CE9               	goto	l3530
  2135  0CE6                     l213:	
  2136  0CE6  1807               	btfsc	7,0	;volatile
  2137  0CE7  2A63               	goto	l182
  2138  0CE8  2CE6               	goto	l213
  2139  0CE9                     l3530:	
  2140                           
  2141                           ;main.c: 240:                             _delay((unsigned long)((50)*(20000000/4000.0))
      +                          );
  2142  0CE9  3002               	movlw	2
  2143  0CEA  1683               	bsf	3,5	;RP0=1, select bank3
  2144  0CEB  1703               	bsf	3,6	;RP1=1, select bank3
  2145  0CEC  00C5               	movwf	(??_Set_temp^(0+384)+2)
  2146  0CED  3045               	movlw	69
  2147  0CEE  00C4               	movwf	(??_Set_temp^(0+384)+1)
  2148  0CEF  30A9               	movlw	169
  2149  0CF0  00C3               	movwf	??_Set_temp^(0+384)
  2150  0CF1                     u6467:	
  2151  0CF1  0BC3               	decfsz	??_Set_temp^(0+384),f
  2152  0CF2  2CF1               	goto	u6467
  2153  0CF3  0BC4               	decfsz	(??_Set_temp^(0+384)+1),f
  2154  0CF4  2CF1               	goto	u6467
  2155  0CF5  0BC5               	decfsz	(??_Set_temp^(0+384)+2),f
  2156  0CF6  2CF1               	goto	u6467
  2157  0CF7  2C1C               	goto	l3514
  2158  0CF8                     l3532:	
  2159                           ;main.c: 244:             }
  2160                           
  2161                           
  2162                           ;main.c: 246:         Display(t,set_temp);
  2163  0CF8  1683               	bsf	3,5	;RP0=1, select bank1
  2164  0CF9  1303               	bcf	3,6	;RP1=0, select bank1
  2165  0CFA  086F               	movf	Set_temp@set_temp^(0+128),w
  2166  0CFB  1683               	bsf	3,5	;RP0=1, select bank3
  2167  0CFC  1703               	bsf	3,6	;RP1=1, select bank3
  2168  0CFD  00C3               	movwf	??_Set_temp^(0+384)
  2169  0CFE  0843               	movf	??_Set_temp^(0+384),w
  2170  0CFF  1683               	bsf	3,5	;RP0=1, select bank1
  2171  0D00  1303               	bcf	3,6	;RP1=0, select bank1
  2172  0D01  00B0               	movwf	Display@set_temp^(0+128)
  2173  0D02  1683               	bsf	3,5	;RP0=1, select bank3
  2174  0D03  1703               	bsf	3,6	;RP1=1, select bank3
  2175  0D04  086D               	movf	_t^(0+384),w
  2176  0D05  160A  118A  215D  120A  158A  	fcall	_Display
  2177                           
  2178                           ;main.c: 247:         _delay((unsigned long)((10)*(20000000/4000.0)));
  2179  0D0A  3041               	movlw	65
  2180  0D0B  1683               	bsf	3,5	;RP0=1, select bank3
  2181  0D0C  1703               	bsf	3,6	;RP1=1, select bank3
  2182  0D0D  00C4               	movwf	(??_Set_temp^(0+384)+1)
  2183  0D0E  30ED               	movlw	237
  2184  0D0F  00C3               	movwf	??_Set_temp^(0+384)
  2185  0D10                     u6477:	
  2186  0D10  0BC3               	decfsz	??_Set_temp^(0+384),f
  2187  0D11  2D10               	goto	u6477
  2188  0D12  0BC4               	decfsz	(??_Set_temp^(0+384)+1),f
  2189  0D13  2D10               	goto	u6477
  2190  0D14  2D15               	nop2
  2191  0D15  2A98               	goto	l3442
  2192  0D16                     __end_of_Set_temp:	
  2193                           
  2194                           	psect	text3
  2195  1E81                     __ptext3:	
  2196 ;; *************** function _Read_ADC *****************
  2197 ;; Defined at:
  2198 ;;		line 118 in file "main.c"
  2199 ;; Parameters:    Size  Location     Type
  2200 ;;  channel         1    wreg     unsigned char 
  2201 ;; Auto vars:     Size  Location     Type
  2202 ;;  channel         1    8[BANK1 ] unsigned char 
  2203 ;;  N               2    6[BANK1 ] unsigned int 
  2204 ;; Return value:  Size  Location     Type
  2205 ;;                  2    0[BANK1 ] unsigned int 
  2206 ;; Registers used:
  2207 ;;		wreg, status,2, status,0
  2208 ;; Tracked objects:
  2209 ;;		On entry : 0/0
  2210 ;;		On exit  : 0/0
  2211 ;;		Unchanged: 0/0
  2212 ;; Data sizes:     COMMON   BANK0   BANK1   BANK3   BANK2
  2213 ;;      Params:         0       0       2       0       0
  2214 ;;      Locals:         0       0       3       0       0
  2215 ;;      Temps:          0       0       4       0       0
  2216 ;;      Totals:         0       0       9       0       0
  2217 ;;Total ram usage:        9 bytes
  2218 ;; Hardware stack levels used:    1
  2219 ;; Hardware stack levels required when called:    3
  2220 ;; This function calls:
  2221 ;;		Nothing
  2222 ;; This function is called by:
  2223 ;;		_Set_temp
  2224 ;; This function uses a non-reentrant model
  2225 ;;
  2226                           
  2227                           
  2228                           ;psect for function _Read_ADC
  2229  1E81                     _Read_ADC:	
  2230                           
  2231                           ;incstack = 0
  2232                           ; Regs used in _Read_ADC: [wreg+status,2+status,0]
  2233                           ;Read_ADC@channel stored from wreg
  2234  1E81  1683               	bsf	3,5	;RP0=1, select bank1
  2235  1E82  1303               	bcf	3,6	;RP1=0, select bank1
  2236  1E83  00A8               	movwf	Read_ADC@channel^(0+128)
  2237                           
  2238                           ;main.c: 118: unsigned int Read_ADC(unsigned char channel);main.c: 119: {;main.c: 120:  
      +                             unsigned int N;;main.c: 121:     if(channel > 3) return 0;
  2239  1E84  3004               	movlw	4
  2240  1E85  0228               	subwf	Read_ADC@channel^(0+128),w
  2241  1E86  1C03               	skipc
  2242  1E87  2E8B               	goto	l3138
  2243  1E88  01A0               	clrf	?_Read_ADC^(0+128)
  2244  1E89  01A1               	clrf	(?_Read_ADC+1)^(0+128)
  2245  1E8A  0008               	return
  2246  1E8B                     l3138:	
  2247                           
  2248                           ;main.c: 122:     ADCON0 |= channel << 3;
  2249  1E8B  0828               	movf	Read_ADC@channel^(0+128),w	;volatile
  2250  1E8C  00A2               	movwf	??_Read_ADC^(0+128)
  2251  1E8D  3002               	movlw	2
  2252  1E8E                     u4935:	
  2253  1E8E  1003               	clrc
  2254  1E8F  0DA2               	rlf	??_Read_ADC^(0+128),f
  2255  1E90  3EFF               	addlw	-1
  2256  1E91  1D03               	skipz
  2257  1E92  2E8E               	goto	u4935
  2258  1E93  1003               	clrc
  2259  1E94  0D22               	rlf	??_Read_ADC^(0+128),w
  2260  1E95  00A3               	movwf	(??_Read_ADC+1)^(0+128)
  2261  1E96  0823               	movf	(??_Read_ADC+1)^(0+128),w
  2262  1E97  1283               	bcf	3,5	;RP0=0, select bank0
  2263  1E98  1303               	bcf	3,6	;RP1=0, select bank0
  2264  1E99  049F               	iorwf	31,f	;volatile
  2265                           
  2266                           ;main.c: 123:     _delay((unsigned long)((10)*(20000000/4000000.0)));
  2267  1E9A  300F               	movlw	15
  2268  1E9B  1683               	bsf	3,5	;RP0=1, select bank1
  2269  1E9C  1303               	bcf	3,6	;RP1=0, select bank1
  2270  1E9D  00A2               	movwf	??_Read_ADC^(0+128)
  2271  1E9E                     u6487:	
  2272  1E9E  0BA2               	decfsz	??_Read_ADC^(0+128),f
  2273  1E9F  2E9E               	goto	u6487
  2274  1EA0  2EA1               	nop2
  2275                           
  2276                           ;main.c: 124:     GO_nDONE = 1;
  2277  1EA1  1283               	bcf	3,5	;RP0=0, select bank0
  2278  1EA2  1303               	bcf	3,6	;RP1=0, select bank0
  2279  1EA3  151F               	bsf	31,2	;volatile
  2280  1EA4                     l165:	
  2281                           ;main.c: 125:     while(GO_nDONE);
  2282                           
  2283  1EA4  191F               	btfsc	31,2	;volatile
  2284  1EA5  2EA4               	goto	l165
  2285                           
  2286                           ;main.c: 126:     N = ADRESH;
  2287  1EA6  081E               	movf	30,w	;volatile
  2288  1EA7  1683               	bsf	3,5	;RP0=1, select bank1
  2289  1EA8  1303               	bcf	3,6	;RP1=0, select bank1
  2290  1EA9  00A2               	movwf	??_Read_ADC^(0+128)
  2291  1EAA  01A3               	clrf	(??_Read_ADC^(0+128)+1)
  2292  1EAB  0822               	movf	??_Read_ADC^(0+128),w
  2293  1EAC  00A6               	movwf	Read_ADC@N^(0+128)
  2294  1EAD  0823               	movf	(??_Read_ADC+1)^(0+128),w
  2295  1EAE  00A7               	movwf	(Read_ADC@N+1)^(0+128)
  2296                           
  2297                           ;main.c: 127:     return ((N<<8)+ADRESL);
  2298  1EAF  0826               	movf	Read_ADC@N^(0+128),w
  2299  1EB0  00A3               	movwf	(??_Read_ADC^(0+128)+1)
  2300  1EB1  01A2               	clrf	??_Read_ADC^(0+128)
  2301  1EB2  081E               	movf	30,w	;volatile
  2302  1EB3  0722               	addwf	??_Read_ADC^(0+128),w
  2303  1EB4  00A4               	movwf	(??_Read_ADC+2)^(0+128)
  2304  1EB5  3000               	movlw	0
  2305  1EB6  1803               	skipnc
  2306  1EB7  3001               	movlw	1
  2307  1EB8  0723               	addwf	(??_Read_ADC+1)^(0+128),w
  2308  1EB9  00A5               	movwf	(??_Read_ADC+3)^(0+128)
  2309  1EBA  0824               	movf	(??_Read_ADC+2)^(0+128),w
  2310  1EBB  00A0               	movwf	?_Read_ADC^(0+128)
  2311  1EBC  0825               	movf	(??_Read_ADC+3)^(0+128),w
  2312  1EBD  00A1               	movwf	(?_Read_ADC+1)^(0+128)
  2313  1EBE  0008               	return
  2314  1EBF                     __end_of_Read_ADC:	
  2315                           
  2316                           	psect	text4
  2317  001F                     __ptext4:	
  2318 ;; *************** function _PID_Init *****************
  2319 ;; Defined at:
  2320 ;;		line 142 in file "main.c"
  2321 ;; Parameters:    Size  Location     Type
  2322 ;;  nhietdo         2   35[BANK3 ] unsigned int 
  2323 ;;  nhietdodat      2   37[BANK3 ] unsigned int 
  2324 ;; Auto vars:     Size  Location     Type
  2325 ;;		None
  2326 ;; Return value:  Size  Location     Type
  2327 ;;                  2   35[BANK3 ] unsigned int 
  2328 ;; Registers used:
  2329 ;;		wreg, status,2, status,0, btemp+1, pclath, cstack
  2330 ;; Tracked objects:
  2331 ;;		On entry : 0/0
  2332 ;;		On exit  : 0/0
  2333 ;;		Unchanged: 0/0
  2334 ;; Data sizes:     COMMON   BANK0   BANK1   BANK3   BANK2
  2335 ;;      Params:         0       0       0       4       0
  2336 ;;      Locals:         0       0       0      12       0
  2337 ;;      Temps:          0       0       0       0       0
  2338 ;;      Totals:         0       0       0      16       0
  2339 ;;Total ram usage:       16 bytes
  2340 ;; Hardware stack levels used:    1
  2341 ;; Hardware stack levels required when called:    5
  2342 ;; This function calls:
  2343 ;;		___fladd
  2344 ;;		___fldiv
  2345 ;;		___flge
  2346 ;;		___flmul
  2347 ;;		___flsub
  2348 ;;		___fltol
  2349 ;;		___xxtofl
  2350 ;; This function is called by:
  2351 ;;		_Set_temp
  2352 ;; This function uses a non-reentrant model
  2353 ;;
  2354                           
  2355                           
  2356                           ;psect for function _PID_Init
  2357  001F                     _PID_Init:	
  2358                           
  2359                           ;main.c: 142: unsigned int PID_Init(unsigned int nhietdo, unsigned int nhietdodat);main.
      +                          c: 143: {;main.c: 144:  E = nhietdodat-nhietdo;
  2360                           
  2361                           ;incstack = 0
  2362                           ; Regs used in _PID_Init: [wreg+status,2+status,0+btemp+1+pclath+cstack]
  2363  001F  1683               	bsf	3,5	;RP0=1, select bank3
  2364  0020  1703               	bsf	3,6	;RP1=1, select bank3
  2365  0021  0833               	movf	PID_Init@nhietdo^(0+384),w
  2366  0022  0235               	subwf	PID_Init@nhietdodat^(0+384),w
  2367  0023  1683               	bsf	3,5	;RP0=1, select bank1
  2368  0024  1303               	bcf	3,6	;RP1=0, select bank1
  2369  0025  00A9               	movwf	___xxtofl@val^(0+128)
  2370  0026  1683               	bsf	3,5	;RP0=1, select bank3
  2371  0027  1703               	bsf	3,6	;RP1=1, select bank3
  2372  0028  0834               	movf	(PID_Init@nhietdo+1)^(0+384),w
  2373  0029  1C03               	skipc
  2374  002A  0A34               	incf	(PID_Init@nhietdo+1)^(0+384),w
  2375  002B  0236               	subwf	(PID_Init@nhietdodat+1)^(0+384),w
  2376  002C  1683               	bsf	3,5	;RP0=1, select bank1
  2377  002D  1303               	bcf	3,6	;RP1=0, select bank1
  2378  002E  00AA               	movwf	(___xxtofl@val+1)^(0+128)
  2379  002F  01AB               	clrf	(___xxtofl@val+2)^(0+128)
  2380  0030  01AC               	clrf	(___xxtofl@val+3)^(0+128)
  2381  0031  3000               	movlw	0
  2382  0032  160A  118A  2328  120A  118A  	fcall	___xxtofl
  2383  0037  1683               	bsf	3,5	;RP0=1, select bank1
  2384  0038  1303               	bcf	3,6	;RP1=0, select bank1
  2385  0039  082C               	movf	(?___xxtofl+3)^(0+128),w
  2386  003A  1683               	bsf	3,5	;RP0=1, select bank3
  2387  003B  1703               	bsf	3,6	;RP1=1, select bank3
  2388  003C  00EC               	movwf	(_E+3)^(0+384)
  2389  003D  1683               	bsf	3,5	;RP0=1, select bank1
  2390  003E  1303               	bcf	3,6	;RP1=0, select bank1
  2391  003F  082B               	movf	(?___xxtofl+2)^(0+128),w
  2392  0040  1683               	bsf	3,5	;RP0=1, select bank3
  2393  0041  1703               	bsf	3,6	;RP1=1, select bank3
  2394  0042  00EB               	movwf	(_E+2)^(0+384)
  2395  0043  1683               	bsf	3,5	;RP0=1, select bank1
  2396  0044  1303               	bcf	3,6	;RP1=0, select bank1
  2397  0045  082A               	movf	(?___xxtofl+1)^(0+128),w
  2398  0046  1683               	bsf	3,5	;RP0=1, select bank3
  2399  0047  1703               	bsf	3,6	;RP1=1, select bank3
  2400  0048  00EA               	movwf	(_E+1)^(0+384)
  2401  0049  1683               	bsf	3,5	;RP0=1, select bank1
  2402  004A  1303               	bcf	3,6	;RP1=0, select bank1
  2403  004B  0829               	movf	?___xxtofl^(0+128),w
  2404  004C  1683               	bsf	3,5	;RP0=1, select bank3
  2405  004D  1703               	bsf	3,6	;RP1=1, select bank3
  2406  004E  00E9               	movwf	_E^(0+384)
  2407                           
  2408                           ;main.c: 145:     if(E<0) return 8000;
  2409  004F  086C               	movf	(_E+3)^(0+384),w
  2410  0050  1683               	bsf	3,5	;RP0=1, select bank1
  2411  0051  1303               	bcf	3,6	;RP1=0, select bank1
  2412  0052  00A3               	movwf	(___flge@ff1+3)^(0+128)
  2413  0053  1683               	bsf	3,5	;RP0=1, select bank3
  2414  0054  1703               	bsf	3,6	;RP1=1, select bank3
  2415  0055  086B               	movf	(_E+2)^(0+384),w
  2416  0056  1683               	bsf	3,5	;RP0=1, select bank1
  2417  0057  1303               	bcf	3,6	;RP1=0, select bank1
  2418  0058  00A2               	movwf	(___flge@ff1+2)^(0+128)
  2419  0059  1683               	bsf	3,5	;RP0=1, select bank3
  2420  005A  1703               	bsf	3,6	;RP1=1, select bank3
  2421  005B  086A               	movf	(_E+1)^(0+384),w
  2422  005C  1683               	bsf	3,5	;RP0=1, select bank1
  2423  005D  1303               	bcf	3,6	;RP1=0, select bank1
  2424  005E  00A1               	movwf	(___flge@ff1+1)^(0+128)
  2425  005F  1683               	bsf	3,5	;RP0=1, select bank3
  2426  0060  1703               	bsf	3,6	;RP1=1, select bank3
  2427  0061  0869               	movf	_E^(0+384),w
  2428  0062  1683               	bsf	3,5	;RP0=1, select bank1
  2429  0063  1303               	bcf	3,6	;RP1=0, select bank1
  2430  0064  00A0               	movwf	___flge@ff1^(0+128)
  2431  0065  3000               	movlw	0
  2432  0066  00A7               	movwf	(___flge@ff2+3)^(0+128)
  2433  0067  3000               	movlw	0
  2434  0068  00A6               	movwf	(___flge@ff2+2)^(0+128)
  2435  0069  3000               	movlw	0
  2436  006A  00A5               	movwf	(___flge@ff2+1)^(0+128)
  2437  006B  3000               	movlw	0
  2438  006C  00A4               	movwf	___flge@ff2^(0+128)
  2439  006D  160A  118A  21F0  120A  118A  	fcall	___flge
  2440  0072  1803               	btfsc	3,0
  2441  0073  287B               	goto	l3156
  2442  0074  3040               	movlw	64
  2443  0075  1683               	bsf	3,5	;RP0=1, select bank3
  2444  0076  1703               	bsf	3,6	;RP1=1, select bank3
  2445  0077  00B3               	movwf	?_PID_Init^(0+384)
  2446  0078  301F               	movlw	31
  2447  0079  00B4               	movwf	(?_PID_Init^(0+384)+1)
  2448  007A  0008               	return
  2449  007B                     l3156:	
  2450                           
  2451                           ;main.c: 146:  a1 = Kp + (Ki*T)/2 + Kd/2;
  2452  007B  1683               	bsf	3,5	;RP0=1, select bank3
  2453  007C  1703               	bsf	3,6	;RP1=1, select bank3
  2454  007D  0858               	movf	(_Kp+3)^(0+384),w
  2455  007E  0093               	movwf	(___fladd@b+3)^(0+384)
  2456  007F  0857               	movf	(_Kp+2)^(0+384),w
  2457  0080  0092               	movwf	(___fladd@b+2)^(0+384)
  2458  0081  0856               	movf	(_Kp+1)^(0+384),w
  2459  0082  0091               	movwf	(___fladd@b+1)^(0+384)
  2460  0083  0855               	movf	_Kp^(0+384),w
  2461  0084  0090               	movwf	___fladd@b^(0+384)
  2462  0085  3040               	movlw	64
  2463  0086  1683               	bsf	3,5	;RP0=1, select bank1
  2464  0087  1303               	bcf	3,6	;RP1=0, select bank1
  2465  0088  00D4               	movwf	(___fldiv@a+3)^(0+128)
  2466  0089  3000               	movlw	0
  2467  008A  00D3               	movwf	(___fldiv@a+2)^(0+128)
  2468  008B  3000               	movlw	0
  2469  008C  00D2               	movwf	(___fldiv@a+1)^(0+128)
  2470  008D  3000               	movlw	0
  2471  008E  00D1               	movwf	___fldiv@a^(0+128)
  2472  008F  1683               	bsf	3,5	;RP0=1, select bank3
  2473  0090  1703               	bsf	3,6	;RP1=1, select bank3
  2474  0091  0860               	movf	(_T+3)^(0+384),w
  2475  0092  1683               	bsf	3,5	;RP0=1, select bank1
  2476  0093  1303               	bcf	3,6	;RP1=0, select bank1
  2477  0094  00BA               	movwf	(___flmul@b+3)^(0+128)
  2478  0095  1683               	bsf	3,5	;RP0=1, select bank3
  2479  0096  1703               	bsf	3,6	;RP1=1, select bank3
  2480  0097  085F               	movf	(_T+2)^(0+384),w
  2481  0098  1683               	bsf	3,5	;RP0=1, select bank1
  2482  0099  1303               	bcf	3,6	;RP1=0, select bank1
  2483  009A  00B9               	movwf	(___flmul@b+2)^(0+128)
  2484  009B  1683               	bsf	3,5	;RP0=1, select bank3
  2485  009C  1703               	bsf	3,6	;RP1=1, select bank3
  2486  009D  085E               	movf	(_T+1)^(0+384),w
  2487  009E  1683               	bsf	3,5	;RP0=1, select bank1
  2488  009F  1303               	bcf	3,6	;RP1=0, select bank1
  2489  00A0  00B8               	movwf	(___flmul@b+1)^(0+128)
  2490  00A1  1683               	bsf	3,5	;RP0=1, select bank3
  2491  00A2  1703               	bsf	3,6	;RP1=1, select bank3
  2492  00A3  085D               	movf	_T^(0+384),w
  2493  00A4  1683               	bsf	3,5	;RP0=1, select bank1
  2494  00A5  1303               	bcf	3,6	;RP1=0, select bank1
  2495  00A6  00B7               	movwf	___flmul@b^(0+128)
  2496  00A7  1683               	bsf	3,5	;RP0=1, select bank3
  2497  00A8  1703               	bsf	3,6	;RP1=1, select bank3
  2498  00A9  0854               	movf	(_Ki+3)^(0+384),w
  2499  00AA  1683               	bsf	3,5	;RP0=1, select bank1
  2500  00AB  1303               	bcf	3,6	;RP1=0, select bank1
  2501  00AC  00BE               	movwf	(___flmul@a+3)^(0+128)
  2502  00AD  1683               	bsf	3,5	;RP0=1, select bank3
  2503  00AE  1703               	bsf	3,6	;RP1=1, select bank3
  2504  00AF  0853               	movf	(_Ki+2)^(0+384),w
  2505  00B0  1683               	bsf	3,5	;RP0=1, select bank1
  2506  00B1  1303               	bcf	3,6	;RP1=0, select bank1
  2507  00B2  00BD               	movwf	(___flmul@a+2)^(0+128)
  2508  00B3  1683               	bsf	3,5	;RP0=1, select bank3
  2509  00B4  1703               	bsf	3,6	;RP1=1, select bank3
  2510  00B5  0852               	movf	(_Ki+1)^(0+384),w
  2511  00B6  1683               	bsf	3,5	;RP0=1, select bank1
  2512  00B7  1303               	bcf	3,6	;RP1=0, select bank1
  2513  00B8  00BC               	movwf	(___flmul@a+1)^(0+128)
  2514  00B9  1683               	bsf	3,5	;RP0=1, select bank3
  2515  00BA  1703               	bsf	3,6	;RP1=1, select bank3
  2516  00BB  0851               	movf	_Ki^(0+384),w
  2517  00BC  1683               	bsf	3,5	;RP0=1, select bank1
  2518  00BD  1303               	bcf	3,6	;RP1=0, select bank1
  2519  00BE  00BB               	movwf	___flmul@a^(0+128)
  2520  00BF  120A  118A  248C  120A  118A  	fcall	___flmul
  2521  00C4  1683               	bsf	3,5	;RP0=1, select bank1
  2522  00C5  1303               	bcf	3,6	;RP1=0, select bank1
  2523  00C6  083A               	movf	(?___flmul+3)^(0+128),w
  2524  00C7  00D8               	movwf	(___fldiv@b+3)^(0+128)
  2525  00C8  0839               	movf	(?___flmul+2)^(0+128),w
  2526  00C9  00D7               	movwf	(___fldiv@b+2)^(0+128)
  2527  00CA  0838               	movf	(?___flmul+1)^(0+128),w
  2528  00CB  00D6               	movwf	(___fldiv@b+1)^(0+128)
  2529  00CC  0837               	movf	?___flmul^(0+128),w
  2530  00CD  00D5               	movwf	___fldiv@b^(0+128)
  2531  00CE  160A  118A  265D  120A  118A  	fcall	___fldiv
  2532  00D3  1683               	bsf	3,5	;RP0=1, select bank1
  2533  00D4  1303               	bcf	3,6	;RP1=0, select bank1
  2534  00D5  0854               	movf	(?___fldiv+3)^(0+128),w
  2535  00D6  1683               	bsf	3,5	;RP0=1, select bank3
  2536  00D7  1703               	bsf	3,6	;RP1=1, select bank3
  2537  00D8  0097               	movwf	(___fladd@a+3)^(0+384)
  2538  00D9  1683               	bsf	3,5	;RP0=1, select bank1
  2539  00DA  1303               	bcf	3,6	;RP1=0, select bank1
  2540  00DB  0853               	movf	(?___fldiv+2)^(0+128),w
  2541  00DC  1683               	bsf	3,5	;RP0=1, select bank3
  2542  00DD  1703               	bsf	3,6	;RP1=1, select bank3
  2543  00DE  0096               	movwf	(___fladd@a+2)^(0+384)
  2544  00DF  1683               	bsf	3,5	;RP0=1, select bank1
  2545  00E0  1303               	bcf	3,6	;RP1=0, select bank1
  2546  00E1  0852               	movf	(?___fldiv+1)^(0+128),w
  2547  00E2  1683               	bsf	3,5	;RP0=1, select bank3
  2548  00E3  1703               	bsf	3,6	;RP1=1, select bank3
  2549  00E4  0095               	movwf	(___fladd@a+1)^(0+384)
  2550  00E5  1683               	bsf	3,5	;RP0=1, select bank1
  2551  00E6  1303               	bcf	3,6	;RP1=0, select bank1
  2552  00E7  0851               	movf	?___fldiv^(0+128),w
  2553  00E8  1683               	bsf	3,5	;RP0=1, select bank3
  2554  00E9  1703               	bsf	3,6	;RP1=1, select bank3
  2555  00EA  0094               	movwf	___fladd@a^(0+384)
  2556  00EB  120A  158A  2516  120A  118A  	fcall	___fladd
  2557  00F0  1683               	bsf	3,5	;RP0=1, select bank3
  2558  00F1  1703               	bsf	3,6	;RP1=1, select bank3
  2559  00F2  0813               	movf	(?___fladd+3)^(0+384),w
  2560  00F3  00C2               	movwf	(_PID_Init$825+3)^(0+384)
  2561  00F4  0812               	movf	(?___fladd+2)^(0+384),w
  2562  00F5  00C1               	movwf	(_PID_Init$825+2)^(0+384)
  2563  00F6  0811               	movf	(?___fladd+1)^(0+384),w
  2564  00F7  00C0               	movwf	(_PID_Init$825+1)^(0+384)
  2565  00F8  0810               	movf	?___fladd^(0+384),w
  2566  00F9  00BF               	movwf	_PID_Init$825^(0+384)
  2567                           
  2568                           ;main.c: 146:  a1 = Kp + (Ki*T)/2 + Kd/2;
  2569  00FA  3040               	movlw	64
  2570  00FB  1683               	bsf	3,5	;RP0=1, select bank1
  2571  00FC  1303               	bcf	3,6	;RP1=0, select bank1
  2572  00FD  00D4               	movwf	(___fldiv@a+3)^(0+128)
  2573  00FE  3000               	movlw	0
  2574  00FF  00D3               	movwf	(___fldiv@a+2)^(0+128)
  2575  0100  3000               	movlw	0
  2576  0101  00D2               	movwf	(___fldiv@a+1)^(0+128)
  2577  0102  3000               	movlw	0
  2578  0103  00D1               	movwf	___fldiv@a^(0+128)
  2579  0104  1683               	bsf	3,5	;RP0=1, select bank3
  2580  0105  1703               	bsf	3,6	;RP1=1, select bank3
  2581  0106  0850               	movf	(_Kd+3)^(0+384),w
  2582  0107  1683               	bsf	3,5	;RP0=1, select bank1
  2583  0108  1303               	bcf	3,6	;RP1=0, select bank1
  2584  0109  00D8               	movwf	(___fldiv@b+3)^(0+128)
  2585  010A  1683               	bsf	3,5	;RP0=1, select bank3
  2586  010B  1703               	bsf	3,6	;RP1=1, select bank3
  2587  010C  084F               	movf	(_Kd+2)^(0+384),w
  2588  010D  1683               	bsf	3,5	;RP0=1, select bank1
  2589  010E  1303               	bcf	3,6	;RP1=0, select bank1
  2590  010F  00D7               	movwf	(___fldiv@b+2)^(0+128)
  2591  0110  1683               	bsf	3,5	;RP0=1, select bank3
  2592  0111  1703               	bsf	3,6	;RP1=1, select bank3
  2593  0112  084E               	movf	(_Kd+1)^(0+384),w
  2594  0113  1683               	bsf	3,5	;RP0=1, select bank1
  2595  0114  1303               	bcf	3,6	;RP1=0, select bank1
  2596  0115  00D6               	movwf	(___fldiv@b+1)^(0+128)
  2597  0116  1683               	bsf	3,5	;RP0=1, select bank3
  2598  0117  1703               	bsf	3,6	;RP1=1, select bank3
  2599  0118  084D               	movf	_Kd^(0+384),w
  2600  0119  1683               	bsf	3,5	;RP0=1, select bank1
  2601  011A  1303               	bcf	3,6	;RP1=0, select bank1
  2602  011B  00D5               	movwf	___fldiv@b^(0+128)
  2603  011C  160A  118A  265D  120A  118A  	fcall	___fldiv
  2604  0121  1683               	bsf	3,5	;RP0=1, select bank1
  2605  0122  1303               	bcf	3,6	;RP1=0, select bank1
  2606  0123  0854               	movf	(?___fldiv+3)^(0+128),w
  2607  0124  1683               	bsf	3,5	;RP0=1, select bank3
  2608  0125  1703               	bsf	3,6	;RP1=1, select bank3
  2609  0126  0093               	movwf	(___fladd@b+3)^(0+384)
  2610  0127  1683               	bsf	3,5	;RP0=1, select bank1
  2611  0128  1303               	bcf	3,6	;RP1=0, select bank1
  2612  0129  0853               	movf	(?___fldiv+2)^(0+128),w
  2613  012A  1683               	bsf	3,5	;RP0=1, select bank3
  2614  012B  1703               	bsf	3,6	;RP1=1, select bank3
  2615  012C  0092               	movwf	(___fladd@b+2)^(0+384)
  2616  012D  1683               	bsf	3,5	;RP0=1, select bank1
  2617  012E  1303               	bcf	3,6	;RP1=0, select bank1
  2618  012F  0852               	movf	(?___fldiv+1)^(0+128),w
  2619  0130  1683               	bsf	3,5	;RP0=1, select bank3
  2620  0131  1703               	bsf	3,6	;RP1=1, select bank3
  2621  0132  0091               	movwf	(___fladd@b+1)^(0+384)
  2622  0133  1683               	bsf	3,5	;RP0=1, select bank1
  2623  0134  1303               	bcf	3,6	;RP1=0, select bank1
  2624  0135  0851               	movf	?___fldiv^(0+128),w
  2625  0136  1683               	bsf	3,5	;RP0=1, select bank3
  2626  0137  1703               	bsf	3,6	;RP1=1, select bank3
  2627  0138  0090               	movwf	___fladd@b^(0+384)
  2628  0139  0842               	movf	(_PID_Init$825+3)^(0+384),w
  2629  013A  0097               	movwf	(___fladd@a+3)^(0+384)
  2630  013B  0841               	movf	(_PID_Init$825+2)^(0+384),w
  2631  013C  0096               	movwf	(___fladd@a+2)^(0+384)
  2632  013D  0840               	movf	(_PID_Init$825+1)^(0+384),w
  2633  013E  0095               	movwf	(___fladd@a+1)^(0+384)
  2634  013F  083F               	movf	_PID_Init$825^(0+384),w
  2635  0140  0094               	movwf	___fladd@a^(0+384)
  2636  0141  120A  158A  2516  120A  118A  	fcall	___fladd
  2637  0146  1683               	bsf	3,5	;RP0=1, select bank3
  2638  0147  1703               	bsf	3,6	;RP1=1, select bank3
  2639  0148  0813               	movf	(?___fladd+3)^(0+384),w
  2640  0149  00DC               	movwf	(_a1+3)^(0+384)
  2641  014A  0812               	movf	(?___fladd+2)^(0+384),w
  2642  014B  00DB               	movwf	(_a1+2)^(0+384)
  2643  014C  0811               	movf	(?___fladd+1)^(0+384),w
  2644  014D  00DA               	movwf	(_a1+1)^(0+384)
  2645  014E  0810               	movf	?___fladd^(0+384),w
  2646  014F  00D9               	movwf	_a1^(0+384)
  2647                           
  2648                           ;main.c: 147:  a2 = -Kp + (Ki*T)/2 - 2*Kd/T;
  2649  0150  0858               	movf	(_Kp+3)^(0+384),w
  2650  0151  00A3               	movwf	(___flsub@a+3)^(0+384)
  2651  0152  0857               	movf	(_Kp+2)^(0+384),w
  2652  0153  00A2               	movwf	(___flsub@a+2)^(0+384)
  2653  0154  0856               	movf	(_Kp+1)^(0+384),w
  2654  0155  00A1               	movwf	(___flsub@a+1)^(0+384)
  2655  0156  0855               	movf	_Kp^(0+384),w
  2656  0157  00A0               	movwf	___flsub@a^(0+384)
  2657  0158  3040               	movlw	64
  2658  0159  1683               	bsf	3,5	;RP0=1, select bank1
  2659  015A  1303               	bcf	3,6	;RP1=0, select bank1
  2660  015B  00D4               	movwf	(___fldiv@a+3)^(0+128)
  2661  015C  3000               	movlw	0
  2662  015D  00D3               	movwf	(___fldiv@a+2)^(0+128)
  2663  015E  3000               	movlw	0
  2664  015F  00D2               	movwf	(___fldiv@a+1)^(0+128)
  2665  0160  3000               	movlw	0
  2666  0161  00D1               	movwf	___fldiv@a^(0+128)
  2667  0162  1683               	bsf	3,5	;RP0=1, select bank3
  2668  0163  1703               	bsf	3,6	;RP1=1, select bank3
  2669  0164  0860               	movf	(_T+3)^(0+384),w
  2670  0165  1683               	bsf	3,5	;RP0=1, select bank1
  2671  0166  1303               	bcf	3,6	;RP1=0, select bank1
  2672  0167  00BA               	movwf	(___flmul@b+3)^(0+128)
  2673  0168  1683               	bsf	3,5	;RP0=1, select bank3
  2674  0169  1703               	bsf	3,6	;RP1=1, select bank3
  2675  016A  085F               	movf	(_T+2)^(0+384),w
  2676  016B  1683               	bsf	3,5	;RP0=1, select bank1
  2677  016C  1303               	bcf	3,6	;RP1=0, select bank1
  2678  016D  00B9               	movwf	(___flmul@b+2)^(0+128)
  2679  016E  1683               	bsf	3,5	;RP0=1, select bank3
  2680  016F  1703               	bsf	3,6	;RP1=1, select bank3
  2681  0170  085E               	movf	(_T+1)^(0+384),w
  2682  0171  1683               	bsf	3,5	;RP0=1, select bank1
  2683  0172  1303               	bcf	3,6	;RP1=0, select bank1
  2684  0173  00B8               	movwf	(___flmul@b+1)^(0+128)
  2685  0174  1683               	bsf	3,5	;RP0=1, select bank3
  2686  0175  1703               	bsf	3,6	;RP1=1, select bank3
  2687  0176  085D               	movf	_T^(0+384),w
  2688  0177  1683               	bsf	3,5	;RP0=1, select bank1
  2689  0178  1303               	bcf	3,6	;RP1=0, select bank1
  2690  0179  00B7               	movwf	___flmul@b^(0+128)
  2691  017A  1683               	bsf	3,5	;RP0=1, select bank3
  2692  017B  1703               	bsf	3,6	;RP1=1, select bank3
  2693  017C  0854               	movf	(_Ki+3)^(0+384),w
  2694  017D  1683               	bsf	3,5	;RP0=1, select bank1
  2695  017E  1303               	bcf	3,6	;RP1=0, select bank1
  2696  017F  00BE               	movwf	(___flmul@a+3)^(0+128)
  2697  0180  1683               	bsf	3,5	;RP0=1, select bank3
  2698  0181  1703               	bsf	3,6	;RP1=1, select bank3
  2699  0182  0853               	movf	(_Ki+2)^(0+384),w
  2700  0183  1683               	bsf	3,5	;RP0=1, select bank1
  2701  0184  1303               	bcf	3,6	;RP1=0, select bank1
  2702  0185  00BD               	movwf	(___flmul@a+2)^(0+128)
  2703  0186  1683               	bsf	3,5	;RP0=1, select bank3
  2704  0187  1703               	bsf	3,6	;RP1=1, select bank3
  2705  0188  0852               	movf	(_Ki+1)^(0+384),w
  2706  0189  1683               	bsf	3,5	;RP0=1, select bank1
  2707  018A  1303               	bcf	3,6	;RP1=0, select bank1
  2708  018B  00BC               	movwf	(___flmul@a+1)^(0+128)
  2709  018C  1683               	bsf	3,5	;RP0=1, select bank3
  2710  018D  1703               	bsf	3,6	;RP1=1, select bank3
  2711  018E  0851               	movf	_Ki^(0+384),w
  2712  018F  1683               	bsf	3,5	;RP0=1, select bank1
  2713  0190  1303               	bcf	3,6	;RP1=0, select bank1
  2714  0191  00BB               	movwf	___flmul@a^(0+128)
  2715  0192  120A  118A  248C  120A  118A  	fcall	___flmul
  2716  0197  1683               	bsf	3,5	;RP0=1, select bank1
  2717  0198  1303               	bcf	3,6	;RP1=0, select bank1
  2718  0199  083A               	movf	(?___flmul+3)^(0+128),w
  2719  019A  00D8               	movwf	(___fldiv@b+3)^(0+128)
  2720  019B  0839               	movf	(?___flmul+2)^(0+128),w
  2721  019C  00D7               	movwf	(___fldiv@b+2)^(0+128)
  2722  019D  0838               	movf	(?___flmul+1)^(0+128),w
  2723  019E  00D6               	movwf	(___fldiv@b+1)^(0+128)
  2724  019F  0837               	movf	?___flmul^(0+128),w
  2725  01A0  00D5               	movwf	___fldiv@b^(0+128)
  2726  01A1  160A  118A  265D  120A  118A  	fcall	___fldiv
  2727  01A6  1683               	bsf	3,5	;RP0=1, select bank1
  2728  01A7  1303               	bcf	3,6	;RP1=0, select bank1
  2729  01A8  0854               	movf	(?___fldiv+3)^(0+128),w
  2730  01A9  1683               	bsf	3,5	;RP0=1, select bank3
  2731  01AA  1703               	bsf	3,6	;RP1=1, select bank3
  2732  01AB  00A7               	movwf	(___flsub@b+3)^(0+384)
  2733  01AC  1683               	bsf	3,5	;RP0=1, select bank1
  2734  01AD  1303               	bcf	3,6	;RP1=0, select bank1
  2735  01AE  0853               	movf	(?___fldiv+2)^(0+128),w
  2736  01AF  1683               	bsf	3,5	;RP0=1, select bank3
  2737  01B0  1703               	bsf	3,6	;RP1=1, select bank3
  2738  01B1  00A6               	movwf	(___flsub@b+2)^(0+384)
  2739  01B2  1683               	bsf	3,5	;RP0=1, select bank1
  2740  01B3  1303               	bcf	3,6	;RP1=0, select bank1
  2741  01B4  0852               	movf	(?___fldiv+1)^(0+128),w
  2742  01B5  1683               	bsf	3,5	;RP0=1, select bank3
  2743  01B6  1703               	bsf	3,6	;RP1=1, select bank3
  2744  01B7  00A5               	movwf	(___flsub@b+1)^(0+384)
  2745  01B8  1683               	bsf	3,5	;RP0=1, select bank1
  2746  01B9  1303               	bcf	3,6	;RP1=0, select bank1
  2747  01BA  0851               	movf	?___fldiv^(0+128),w
  2748  01BB  1683               	bsf	3,5	;RP0=1, select bank3
  2749  01BC  1703               	bsf	3,6	;RP1=1, select bank3
  2750  01BD  00A4               	movwf	___flsub@b^(0+384)
  2751  01BE  160A  158A  25E6  120A  118A  	fcall	___flsub
  2752  01C3  1683               	bsf	3,5	;RP0=1, select bank3
  2753  01C4  1703               	bsf	3,6	;RP1=1, select bank3
  2754  01C5  0823               	movf	(?___flsub+3)^(0+384),w
  2755  01C6  00BA               	movwf	(_PID_Init$826+3)^(0+384)
  2756  01C7  0822               	movf	(?___flsub+2)^(0+384),w
  2757  01C8  00B9               	movwf	(_PID_Init$826+2)^(0+384)
  2758  01C9  0821               	movf	(?___flsub+1)^(0+384),w
  2759  01CA  00B8               	movwf	(_PID_Init$826+1)^(0+384)
  2760  01CB  0820               	movf	?___flsub^(0+384),w
  2761  01CC  00B7               	movwf	_PID_Init$826^(0+384)
  2762                           
  2763                           ;main.c: 147:  a2 = -Kp + (Ki*T)/2 - 2*Kd/T;
  2764  01CD  0860               	movf	(_T+3)^(0+384),w
  2765  01CE  1683               	bsf	3,5	;RP0=1, select bank1
  2766  01CF  1303               	bcf	3,6	;RP1=0, select bank1
  2767  01D0  00D4               	movwf	(___fldiv@a+3)^(0+128)
  2768  01D1  1683               	bsf	3,5	;RP0=1, select bank3
  2769  01D2  1703               	bsf	3,6	;RP1=1, select bank3
  2770  01D3  085F               	movf	(_T+2)^(0+384),w
  2771  01D4  1683               	bsf	3,5	;RP0=1, select bank1
  2772  01D5  1303               	bcf	3,6	;RP1=0, select bank1
  2773  01D6  00D3               	movwf	(___fldiv@a+2)^(0+128)
  2774  01D7  1683               	bsf	3,5	;RP0=1, select bank3
  2775  01D8  1703               	bsf	3,6	;RP1=1, select bank3
  2776  01D9  085E               	movf	(_T+1)^(0+384),w
  2777  01DA  1683               	bsf	3,5	;RP0=1, select bank1
  2778  01DB  1303               	bcf	3,6	;RP1=0, select bank1
  2779  01DC  00D2               	movwf	(___fldiv@a+1)^(0+128)
  2780  01DD  1683               	bsf	3,5	;RP0=1, select bank3
  2781  01DE  1703               	bsf	3,6	;RP1=1, select bank3
  2782  01DF  085D               	movf	_T^(0+384),w
  2783  01E0  1683               	bsf	3,5	;RP0=1, select bank1
  2784  01E1  1303               	bcf	3,6	;RP1=0, select bank1
  2785  01E2  00D1               	movwf	___fldiv@a^(0+128)
  2786  01E3  3040               	movlw	64
  2787  01E4  00BA               	movwf	(___flmul@b+3)^(0+128)
  2788  01E5  3000               	movlw	0
  2789  01E6  00B9               	movwf	(___flmul@b+2)^(0+128)
  2790  01E7  3000               	movlw	0
  2791  01E8  00B8               	movwf	(___flmul@b+1)^(0+128)
  2792  01E9  3000               	movlw	0
  2793  01EA  00B7               	movwf	___flmul@b^(0+128)
  2794  01EB  1683               	bsf	3,5	;RP0=1, select bank3
  2795  01EC  1703               	bsf	3,6	;RP1=1, select bank3
  2796  01ED  0850               	movf	(_Kd+3)^(0+384),w
  2797  01EE  1683               	bsf	3,5	;RP0=1, select bank1
  2798  01EF  1303               	bcf	3,6	;RP1=0, select bank1
  2799  01F0  00BE               	movwf	(___flmul@a+3)^(0+128)
  2800  01F1  1683               	bsf	3,5	;RP0=1, select bank3
  2801  01F2  1703               	bsf	3,6	;RP1=1, select bank3
  2802  01F3  084F               	movf	(_Kd+2)^(0+384),w
  2803  01F4  1683               	bsf	3,5	;RP0=1, select bank1
  2804  01F5  1303               	bcf	3,6	;RP1=0, select bank1
  2805  01F6  00BD               	movwf	(___flmul@a+2)^(0+128)
  2806  01F7  1683               	bsf	3,5	;RP0=1, select bank3
  2807  01F8  1703               	bsf	3,6	;RP1=1, select bank3
  2808  01F9  084E               	movf	(_Kd+1)^(0+384),w
  2809  01FA  1683               	bsf	3,5	;RP0=1, select bank1
  2810  01FB  1303               	bcf	3,6	;RP1=0, select bank1
  2811  01FC  00BC               	movwf	(___flmul@a+1)^(0+128)
  2812  01FD  1683               	bsf	3,5	;RP0=1, select bank3
  2813  01FE  1703               	bsf	3,6	;RP1=1, select bank3
  2814  01FF  084D               	movf	_Kd^(0+384),w
  2815  0200  1683               	bsf	3,5	;RP0=1, select bank1
  2816  0201  1303               	bcf	3,6	;RP1=0, select bank1
  2817  0202  00BB               	movwf	___flmul@a^(0+128)
  2818  0203  120A  118A  248C  120A  118A  	fcall	___flmul
  2819  0208  1683               	bsf	3,5	;RP0=1, select bank1
  2820  0209  1303               	bcf	3,6	;RP1=0, select bank1
  2821  020A  083A               	movf	(?___flmul+3)^(0+128),w
  2822  020B  00D8               	movwf	(___fldiv@b+3)^(0+128)
  2823  020C  0839               	movf	(?___flmul+2)^(0+128),w
  2824  020D  00D7               	movwf	(___fldiv@b+2)^(0+128)
  2825  020E  0838               	movf	(?___flmul+1)^(0+128),w
  2826  020F  00D6               	movwf	(___fldiv@b+1)^(0+128)
  2827  0210  0837               	movf	?___flmul^(0+128),w
  2828  0211  00D5               	movwf	___fldiv@b^(0+128)
  2829  0212  160A  118A  265D  120A  118A  	fcall	___fldiv
  2830  0217  1683               	bsf	3,5	;RP0=1, select bank1
  2831  0218  1303               	bcf	3,6	;RP1=0, select bank1
  2832  0219  0854               	movf	(?___fldiv+3)^(0+128),w
  2833  021A  1683               	bsf	3,5	;RP0=1, select bank3
  2834  021B  1703               	bsf	3,6	;RP1=1, select bank3
  2835  021C  00A3               	movwf	(___flsub@a+3)^(0+384)
  2836  021D  1683               	bsf	3,5	;RP0=1, select bank1
  2837  021E  1303               	bcf	3,6	;RP1=0, select bank1
  2838  021F  0853               	movf	(?___fldiv+2)^(0+128),w
  2839  0220  1683               	bsf	3,5	;RP0=1, select bank3
  2840  0221  1703               	bsf	3,6	;RP1=1, select bank3
  2841  0222  00A2               	movwf	(___flsub@a+2)^(0+384)
  2842  0223  1683               	bsf	3,5	;RP0=1, select bank1
  2843  0224  1303               	bcf	3,6	;RP1=0, select bank1
  2844  0225  0852               	movf	(?___fldiv+1)^(0+128),w
  2845  0226  1683               	bsf	3,5	;RP0=1, select bank3
  2846  0227  1703               	bsf	3,6	;RP1=1, select bank3
  2847  0228  00A1               	movwf	(___flsub@a+1)^(0+384)
  2848  0229  1683               	bsf	3,5	;RP0=1, select bank1
  2849  022A  1303               	bcf	3,6	;RP1=0, select bank1
  2850  022B  0851               	movf	?___fldiv^(0+128),w
  2851  022C  1683               	bsf	3,5	;RP0=1, select bank3
  2852  022D  1703               	bsf	3,6	;RP1=1, select bank3
  2853  022E  00A0               	movwf	___flsub@a^(0+384)
  2854  022F  083A               	movf	(_PID_Init$826+3)^(0+384),w
  2855  0230  00A7               	movwf	(___flsub@b+3)^(0+384)
  2856  0231  0839               	movf	(_PID_Init$826+2)^(0+384),w
  2857  0232  00A6               	movwf	(___flsub@b+2)^(0+384)
  2858  0233  0838               	movf	(_PID_Init$826+1)^(0+384),w
  2859  0234  00A5               	movwf	(___flsub@b+1)^(0+384)
  2860  0235  0837               	movf	_PID_Init$826^(0+384),w
  2861  0236  00A4               	movwf	___flsub@b^(0+384)
  2862  0237  160A  158A  25E6  120A  118A  	fcall	___flsub
  2863  023C  1683               	bsf	3,5	;RP0=1, select bank3
  2864  023D  1703               	bsf	3,6	;RP1=1, select bank3
  2865  023E  0823               	movf	(?___flsub+3)^(0+384),w
  2866  023F  1283               	bcf	3,5	;RP0=0, select bank0
  2867  0240  1303               	bcf	3,6	;RP1=0, select bank0
  2868  0241  00DB               	movwf	_a2+3
  2869  0242  1683               	bsf	3,5	;RP0=1, select bank3
  2870  0243  1703               	bsf	3,6	;RP1=1, select bank3
  2871  0244  0822               	movf	(?___flsub+2)^(0+384),w
  2872  0245  1283               	bcf	3,5	;RP0=0, select bank0
  2873  0246  1303               	bcf	3,6	;RP1=0, select bank0
  2874  0247  00DA               	movwf	_a2+2
  2875  0248  1683               	bsf	3,5	;RP0=1, select bank3
  2876  0249  1703               	bsf	3,6	;RP1=1, select bank3
  2877  024A  0821               	movf	(?___flsub+1)^(0+384),w
  2878  024B  1283               	bcf	3,5	;RP0=0, select bank0
  2879  024C  1303               	bcf	3,6	;RP1=0, select bank0
  2880  024D  00D9               	movwf	_a2+1
  2881  024E  1683               	bsf	3,5	;RP0=1, select bank3
  2882  024F  1703               	bsf	3,6	;RP1=1, select bank3
  2883  0250  0820               	movf	?___flsub^(0+384),w
  2884  0251  1283               	bcf	3,5	;RP0=0, select bank0
  2885  0252  1303               	bcf	3,6	;RP1=0, select bank0
  2886  0253  00D8               	movwf	_a2
  2887                           
  2888                           ;main.c: 148:  a3 = Kd/T;
  2889  0254  1683               	bsf	3,5	;RP0=1, select bank3
  2890  0255  1703               	bsf	3,6	;RP1=1, select bank3
  2891  0256  0860               	movf	(_T+3)^(0+384),w
  2892  0257  1683               	bsf	3,5	;RP0=1, select bank1
  2893  0258  1303               	bcf	3,6	;RP1=0, select bank1
  2894  0259  00D4               	movwf	(___fldiv@a+3)^(0+128)
  2895  025A  1683               	bsf	3,5	;RP0=1, select bank3
  2896  025B  1703               	bsf	3,6	;RP1=1, select bank3
  2897  025C  085F               	movf	(_T+2)^(0+384),w
  2898  025D  1683               	bsf	3,5	;RP0=1, select bank1
  2899  025E  1303               	bcf	3,6	;RP1=0, select bank1
  2900  025F  00D3               	movwf	(___fldiv@a+2)^(0+128)
  2901  0260  1683               	bsf	3,5	;RP0=1, select bank3
  2902  0261  1703               	bsf	3,6	;RP1=1, select bank3
  2903  0262  085E               	movf	(_T+1)^(0+384),w
  2904  0263  1683               	bsf	3,5	;RP0=1, select bank1
  2905  0264  1303               	bcf	3,6	;RP1=0, select bank1
  2906  0265  00D2               	movwf	(___fldiv@a+1)^(0+128)
  2907  0266  1683               	bsf	3,5	;RP0=1, select bank3
  2908  0267  1703               	bsf	3,6	;RP1=1, select bank3
  2909  0268  085D               	movf	_T^(0+384),w
  2910  0269  1683               	bsf	3,5	;RP0=1, select bank1
  2911  026A  1303               	bcf	3,6	;RP1=0, select bank1
  2912  026B  00D1               	movwf	___fldiv@a^(0+128)
  2913  026C  1683               	bsf	3,5	;RP0=1, select bank3
  2914  026D  1703               	bsf	3,6	;RP1=1, select bank3
  2915  026E  0850               	movf	(_Kd+3)^(0+384),w
  2916  026F  1683               	bsf	3,5	;RP0=1, select bank1
  2917  0270  1303               	bcf	3,6	;RP1=0, select bank1
  2918  0271  00D8               	movwf	(___fldiv@b+3)^(0+128)
  2919  0272  1683               	bsf	3,5	;RP0=1, select bank3
  2920  0273  1703               	bsf	3,6	;RP1=1, select bank3
  2921  0274  084F               	movf	(_Kd+2)^(0+384),w
  2922  0275  1683               	bsf	3,5	;RP0=1, select bank1
  2923  0276  1303               	bcf	3,6	;RP1=0, select bank1
  2924  0277  00D7               	movwf	(___fldiv@b+2)^(0+128)
  2925  0278  1683               	bsf	3,5	;RP0=1, select bank3
  2926  0279  1703               	bsf	3,6	;RP1=1, select bank3
  2927  027A  084E               	movf	(_Kd+1)^(0+384),w
  2928  027B  1683               	bsf	3,5	;RP0=1, select bank1
  2929  027C  1303               	bcf	3,6	;RP1=0, select bank1
  2930  027D  00D6               	movwf	(___fldiv@b+1)^(0+128)
  2931  027E  1683               	bsf	3,5	;RP0=1, select bank3
  2932  027F  1703               	bsf	3,6	;RP1=1, select bank3
  2933  0280  084D               	movf	_Kd^(0+384),w
  2934  0281  1683               	bsf	3,5	;RP0=1, select bank1
  2935  0282  1303               	bcf	3,6	;RP1=0, select bank1
  2936  0283  00D5               	movwf	___fldiv@b^(0+128)
  2937  0284  160A  118A  265D  120A  118A  	fcall	___fldiv
  2938  0289  1683               	bsf	3,5	;RP0=1, select bank1
  2939  028A  1303               	bcf	3,6	;RP1=0, select bank1
  2940  028B  0854               	movf	(?___fldiv+3)^(0+128),w
  2941  028C  1283               	bcf	3,5	;RP0=0, select bank0
  2942  028D  1303               	bcf	3,6	;RP1=0, select bank0
  2943  028E  00D7               	movwf	_a3+3
  2944  028F  1683               	bsf	3,5	;RP0=1, select bank1
  2945  0290  1303               	bcf	3,6	;RP1=0, select bank1
  2946  0291  0853               	movf	(?___fldiv+2)^(0+128),w
  2947  0292  1283               	bcf	3,5	;RP0=0, select bank0
  2948  0293  1303               	bcf	3,6	;RP1=0, select bank0
  2949  0294  00D6               	movwf	_a3+2
  2950  0295  1683               	bsf	3,5	;RP0=1, select bank1
  2951  0296  1303               	bcf	3,6	;RP1=0, select bank1
  2952  0297  0852               	movf	(?___fldiv+1)^(0+128),w
  2953  0298  1283               	bcf	3,5	;RP0=0, select bank0
  2954  0299  1303               	bcf	3,6	;RP1=0, select bank0
  2955  029A  00D5               	movwf	_a3+1
  2956  029B  1683               	bsf	3,5	;RP0=1, select bank1
  2957  029C  1303               	bcf	3,6	;RP1=0, select bank1
  2958  029D  0851               	movf	?___fldiv^(0+128),w
  2959  029E  1283               	bcf	3,5	;RP0=0, select bank0
  2960  029F  1303               	bcf	3,6	;RP1=0, select bank0
  2961  02A0  00D4               	movwf	_a3
  2962                           
  2963                           ;main.c: 149:  out = pre_out + E*a1 + E1*a2 + E2*a3;
  2964  02A1  0853               	movf	_pre_out+3,w
  2965  02A2  1683               	bsf	3,5	;RP0=1, select bank3
  2966  02A3  1703               	bsf	3,6	;RP1=1, select bank3
  2967  02A4  0093               	movwf	(___fladd@b+3)^(0+384)
  2968  02A5  1283               	bcf	3,5	;RP0=0, select bank0
  2969  02A6  1303               	bcf	3,6	;RP1=0, select bank0
  2970  02A7  0852               	movf	_pre_out+2,w
  2971  02A8  1683               	bsf	3,5	;RP0=1, select bank3
  2972  02A9  1703               	bsf	3,6	;RP1=1, select bank3
  2973  02AA  0092               	movwf	(___fladd@b+2)^(0+384)
  2974  02AB  1283               	bcf	3,5	;RP0=0, select bank0
  2975  02AC  1303               	bcf	3,6	;RP1=0, select bank0
  2976  02AD  0851               	movf	_pre_out+1,w
  2977  02AE  1683               	bsf	3,5	;RP0=1, select bank3
  2978  02AF  1703               	bsf	3,6	;RP1=1, select bank3
  2979  02B0  0091               	movwf	(___fladd@b+1)^(0+384)
  2980  02B1  1283               	bcf	3,5	;RP0=0, select bank0
  2981  02B2  1303               	bcf	3,6	;RP1=0, select bank0
  2982  02B3  0850               	movf	_pre_out,w
  2983  02B4  1683               	bsf	3,5	;RP0=1, select bank3
  2984  02B5  1703               	bsf	3,6	;RP1=1, select bank3
  2985  02B6  0090               	movwf	___fladd@b^(0+384)
  2986  02B7  085C               	movf	(_a1+3)^(0+384),w
  2987  02B8  1683               	bsf	3,5	;RP0=1, select bank1
  2988  02B9  1303               	bcf	3,6	;RP1=0, select bank1
  2989  02BA  00BA               	movwf	(___flmul@b+3)^(0+128)
  2990  02BB  1683               	bsf	3,5	;RP0=1, select bank3
  2991  02BC  1703               	bsf	3,6	;RP1=1, select bank3
  2992  02BD  085B               	movf	(_a1+2)^(0+384),w
  2993  02BE  1683               	bsf	3,5	;RP0=1, select bank1
  2994  02BF  1303               	bcf	3,6	;RP1=0, select bank1
  2995  02C0  00B9               	movwf	(___flmul@b+2)^(0+128)
  2996  02C1  1683               	bsf	3,5	;RP0=1, select bank3
  2997  02C2  1703               	bsf	3,6	;RP1=1, select bank3
  2998  02C3  085A               	movf	(_a1+1)^(0+384),w
  2999  02C4  1683               	bsf	3,5	;RP0=1, select bank1
  3000  02C5  1303               	bcf	3,6	;RP1=0, select bank1
  3001  02C6  00B8               	movwf	(___flmul@b+1)^(0+128)
  3002  02C7  1683               	bsf	3,5	;RP0=1, select bank3
  3003  02C8  1703               	bsf	3,6	;RP1=1, select bank3
  3004  02C9  0859               	movf	_a1^(0+384),w
  3005  02CA  1683               	bsf	3,5	;RP0=1, select bank1
  3006  02CB  1303               	bcf	3,6	;RP1=0, select bank1
  3007  02CC  00B7               	movwf	___flmul@b^(0+128)
  3008  02CD  1683               	bsf	3,5	;RP0=1, select bank3
  3009  02CE  1703               	bsf	3,6	;RP1=1, select bank3
  3010  02CF  086C               	movf	(_E+3)^(0+384),w
  3011  02D0  1683               	bsf	3,5	;RP0=1, select bank1
  3012  02D1  1303               	bcf	3,6	;RP1=0, select bank1
  3013  02D2  00BE               	movwf	(___flmul@a+3)^(0+128)
  3014  02D3  1683               	bsf	3,5	;RP0=1, select bank3
  3015  02D4  1703               	bsf	3,6	;RP1=1, select bank3
  3016  02D5  086B               	movf	(_E+2)^(0+384),w
  3017  02D6  1683               	bsf	3,5	;RP0=1, select bank1
  3018  02D7  1303               	bcf	3,6	;RP1=0, select bank1
  3019  02D8  00BD               	movwf	(___flmul@a+2)^(0+128)
  3020  02D9  1683               	bsf	3,5	;RP0=1, select bank3
  3021  02DA  1703               	bsf	3,6	;RP1=1, select bank3
  3022  02DB  086A               	movf	(_E+1)^(0+384),w
  3023  02DC  1683               	bsf	3,5	;RP0=1, select bank1
  3024  02DD  1303               	bcf	3,6	;RP1=0, select bank1
  3025  02DE  00BC               	movwf	(___flmul@a+1)^(0+128)
  3026  02DF  1683               	bsf	3,5	;RP0=1, select bank3
  3027  02E0  1703               	bsf	3,6	;RP1=1, select bank3
  3028  02E1  0869               	movf	_E^(0+384),w
  3029  02E2  1683               	bsf	3,5	;RP0=1, select bank1
  3030  02E3  1303               	bcf	3,6	;RP1=0, select bank1
  3031  02E4  00BB               	movwf	___flmul@a^(0+128)
  3032  02E5  120A  118A  248C  120A  118A  	fcall	___flmul
  3033  02EA  1683               	bsf	3,5	;RP0=1, select bank1
  3034  02EB  1303               	bcf	3,6	;RP1=0, select bank1
  3035  02EC  083A               	movf	(?___flmul+3)^(0+128),w
  3036  02ED  1683               	bsf	3,5	;RP0=1, select bank3
  3037  02EE  1703               	bsf	3,6	;RP1=1, select bank3
  3038  02EF  0097               	movwf	(___fladd@a+3)^(0+384)
  3039  02F0  1683               	bsf	3,5	;RP0=1, select bank1
  3040  02F1  1303               	bcf	3,6	;RP1=0, select bank1
  3041  02F2  0839               	movf	(?___flmul+2)^(0+128),w
  3042  02F3  1683               	bsf	3,5	;RP0=1, select bank3
  3043  02F4  1703               	bsf	3,6	;RP1=1, select bank3
  3044  02F5  0096               	movwf	(___fladd@a+2)^(0+384)
  3045  02F6  1683               	bsf	3,5	;RP0=1, select bank1
  3046  02F7  1303               	bcf	3,6	;RP1=0, select bank1
  3047  02F8  0838               	movf	(?___flmul+1)^(0+128),w
  3048  02F9  1683               	bsf	3,5	;RP0=1, select bank3
  3049  02FA  1703               	bsf	3,6	;RP1=1, select bank3
  3050  02FB  0095               	movwf	(___fladd@a+1)^(0+384)
  3051  02FC  1683               	bsf	3,5	;RP0=1, select bank1
  3052  02FD  1303               	bcf	3,6	;RP1=0, select bank1
  3053  02FE  0837               	movf	?___flmul^(0+128),w
  3054  02FF  1683               	bsf	3,5	;RP0=1, select bank3
  3055  0300  1703               	bsf	3,6	;RP1=1, select bank3
  3056  0301  0094               	movwf	___fladd@a^(0+384)
  3057  0302  120A  158A  2516  120A  118A  	fcall	___fladd
  3058  0307  1683               	bsf	3,5	;RP0=1, select bank3
  3059  0308  1703               	bsf	3,6	;RP1=1, select bank3
  3060  0309  0813               	movf	(?___fladd+3)^(0+384),w
  3061  030A  00C2               	movwf	(_PID_Init$825+3)^(0+384)
  3062  030B  0812               	movf	(?___fladd+2)^(0+384),w
  3063  030C  00C1               	movwf	(_PID_Init$825+2)^(0+384)
  3064  030D  0811               	movf	(?___fladd+1)^(0+384),w
  3065  030E  00C0               	movwf	(_PID_Init$825+1)^(0+384)
  3066  030F  0810               	movf	?___fladd^(0+384),w
  3067  0310  00BF               	movwf	_PID_Init$825^(0+384)
  3068                           
  3069                           ;main.c: 149:  out = pre_out + E*a1 + E1*a2 + E2*a3;
  3070  0311  1283               	bcf	3,5	;RP0=0, select bank0
  3071  0312  1303               	bcf	3,6	;RP1=0, select bank0
  3072  0313  085B               	movf	_a2+3,w
  3073  0314  1683               	bsf	3,5	;RP0=1, select bank1
  3074  0315  1303               	bcf	3,6	;RP1=0, select bank1
  3075  0316  00BA               	movwf	(___flmul@b+3)^(0+128)
  3076  0317  1283               	bcf	3,5	;RP0=0, select bank0
  3077  0318  1303               	bcf	3,6	;RP1=0, select bank0
  3078  0319  085A               	movf	_a2+2,w
  3079  031A  1683               	bsf	3,5	;RP0=1, select bank1
  3080  031B  1303               	bcf	3,6	;RP1=0, select bank1
  3081  031C  00B9               	movwf	(___flmul@b+2)^(0+128)
  3082  031D  1283               	bcf	3,5	;RP0=0, select bank0
  3083  031E  1303               	bcf	3,6	;RP1=0, select bank0
  3084  031F  0859               	movf	_a2+1,w
  3085  0320  1683               	bsf	3,5	;RP0=1, select bank1
  3086  0321  1303               	bcf	3,6	;RP1=0, select bank1
  3087  0322  00B8               	movwf	(___flmul@b+1)^(0+128)
  3088  0323  1283               	bcf	3,5	;RP0=0, select bank0
  3089  0324  1303               	bcf	3,6	;RP1=0, select bank0
  3090  0325  0858               	movf	_a2,w
  3091  0326  1683               	bsf	3,5	;RP0=1, select bank1
  3092  0327  1303               	bcf	3,6	;RP1=0, select bank1
  3093  0328  00B7               	movwf	___flmul@b^(0+128)
  3094  0329  1683               	bsf	3,5	;RP0=1, select bank3
  3095  032A  1703               	bsf	3,6	;RP1=1, select bank3
  3096  032B  0868               	movf	(_E1+3)^(0+384),w
  3097  032C  1683               	bsf	3,5	;RP0=1, select bank1
  3098  032D  1303               	bcf	3,6	;RP1=0, select bank1
  3099  032E  00BE               	movwf	(___flmul@a+3)^(0+128)
  3100  032F  1683               	bsf	3,5	;RP0=1, select bank3
  3101  0330  1703               	bsf	3,6	;RP1=1, select bank3
  3102  0331  0867               	movf	(_E1+2)^(0+384),w
  3103  0332  1683               	bsf	3,5	;RP0=1, select bank1
  3104  0333  1303               	bcf	3,6	;RP1=0, select bank1
  3105  0334  00BD               	movwf	(___flmul@a+2)^(0+128)
  3106  0335  1683               	bsf	3,5	;RP0=1, select bank3
  3107  0336  1703               	bsf	3,6	;RP1=1, select bank3
  3108  0337  0866               	movf	(_E1+1)^(0+384),w
  3109  0338  1683               	bsf	3,5	;RP0=1, select bank1
  3110  0339  1303               	bcf	3,6	;RP1=0, select bank1
  3111  033A  00BC               	movwf	(___flmul@a+1)^(0+128)
  3112  033B  1683               	bsf	3,5	;RP0=1, select bank3
  3113  033C  1703               	bsf	3,6	;RP1=1, select bank3
  3114  033D  0865               	movf	_E1^(0+384),w
  3115  033E  1683               	bsf	3,5	;RP0=1, select bank1
  3116  033F  1303               	bcf	3,6	;RP1=0, select bank1
  3117  0340  00BB               	movwf	___flmul@a^(0+128)
  3118  0341  120A  118A  248C  120A  118A  	fcall	___flmul
  3119  0346  1683               	bsf	3,5	;RP0=1, select bank1
  3120  0347  1303               	bcf	3,6	;RP1=0, select bank1
  3121  0348  083A               	movf	(?___flmul+3)^(0+128),w
  3122  0349  1683               	bsf	3,5	;RP0=1, select bank3
  3123  034A  1703               	bsf	3,6	;RP1=1, select bank3
  3124  034B  0093               	movwf	(___fladd@b+3)^(0+384)
  3125  034C  1683               	bsf	3,5	;RP0=1, select bank1
  3126  034D  1303               	bcf	3,6	;RP1=0, select bank1
  3127  034E  0839               	movf	(?___flmul+2)^(0+128),w
  3128  034F  1683               	bsf	3,5	;RP0=1, select bank3
  3129  0350  1703               	bsf	3,6	;RP1=1, select bank3
  3130  0351  0092               	movwf	(___fladd@b+2)^(0+384)
  3131  0352  1683               	bsf	3,5	;RP0=1, select bank1
  3132  0353  1303               	bcf	3,6	;RP1=0, select bank1
  3133  0354  0838               	movf	(?___flmul+1)^(0+128),w
  3134  0355  1683               	bsf	3,5	;RP0=1, select bank3
  3135  0356  1703               	bsf	3,6	;RP1=1, select bank3
  3136  0357  0091               	movwf	(___fladd@b+1)^(0+384)
  3137  0358  1683               	bsf	3,5	;RP0=1, select bank1
  3138  0359  1303               	bcf	3,6	;RP1=0, select bank1
  3139  035A  0837               	movf	?___flmul^(0+128),w
  3140  035B  1683               	bsf	3,5	;RP0=1, select bank3
  3141  035C  1703               	bsf	3,6	;RP1=1, select bank3
  3142  035D  0090               	movwf	___fladd@b^(0+384)
  3143  035E  0842               	movf	(_PID_Init$825+3)^(0+384),w
  3144  035F  0097               	movwf	(___fladd@a+3)^(0+384)
  3145  0360  0841               	movf	(_PID_Init$825+2)^(0+384),w
  3146  0361  0096               	movwf	(___fladd@a+2)^(0+384)
  3147  0362  0840               	movf	(_PID_Init$825+1)^(0+384),w
  3148  0363  0095               	movwf	(___fladd@a+1)^(0+384)
  3149  0364  083F               	movf	_PID_Init$825^(0+384),w
  3150  0365  0094               	movwf	___fladd@a^(0+384)
  3151  0366  120A  158A  2516  120A  118A  	fcall	___fladd
  3152  036B  1683               	bsf	3,5	;RP0=1, select bank3
  3153  036C  1703               	bsf	3,6	;RP1=1, select bank3
  3154  036D  0813               	movf	(?___fladd+3)^(0+384),w
  3155  036E  00BE               	movwf	(_PID_Init$827+3)^(0+384)
  3156  036F  0812               	movf	(?___fladd+2)^(0+384),w
  3157  0370  00BD               	movwf	(_PID_Init$827+2)^(0+384)
  3158  0371  0811               	movf	(?___fladd+1)^(0+384),w
  3159  0372  00BC               	movwf	(_PID_Init$827+1)^(0+384)
  3160  0373  0810               	movf	?___fladd^(0+384),w
  3161  0374  00BB               	movwf	_PID_Init$827^(0+384)
  3162                           
  3163                           ;main.c: 149:  out = pre_out + E*a1 + E1*a2 + E2*a3;
  3164  0375  1283               	bcf	3,5	;RP0=0, select bank0
  3165  0376  1303               	bcf	3,6	;RP1=0, select bank0
  3166  0377  0857               	movf	_a3+3,w
  3167  0378  1683               	bsf	3,5	;RP0=1, select bank1
  3168  0379  1303               	bcf	3,6	;RP1=0, select bank1
  3169  037A  00BA               	movwf	(___flmul@b+3)^(0+128)
  3170  037B  1283               	bcf	3,5	;RP0=0, select bank0
  3171  037C  1303               	bcf	3,6	;RP1=0, select bank0
  3172  037D  0856               	movf	_a3+2,w
  3173  037E  1683               	bsf	3,5	;RP0=1, select bank1
  3174  037F  1303               	bcf	3,6	;RP1=0, select bank1
  3175  0380  00B9               	movwf	(___flmul@b+2)^(0+128)
  3176  0381  1283               	bcf	3,5	;RP0=0, select bank0
  3177  0382  1303               	bcf	3,6	;RP1=0, select bank0
  3178  0383  0855               	movf	_a3+1,w
  3179  0384  1683               	bsf	3,5	;RP0=1, select bank1
  3180  0385  1303               	bcf	3,6	;RP1=0, select bank1
  3181  0386  00B8               	movwf	(___flmul@b+1)^(0+128)
  3182  0387  1283               	bcf	3,5	;RP0=0, select bank0
  3183  0388  1303               	bcf	3,6	;RP1=0, select bank0
  3184  0389  0854               	movf	_a3,w
  3185  038A  1683               	bsf	3,5	;RP0=1, select bank1
  3186  038B  1303               	bcf	3,6	;RP1=0, select bank1
  3187  038C  00B7               	movwf	___flmul@b^(0+128)
  3188  038D  1683               	bsf	3,5	;RP0=1, select bank3
  3189  038E  1703               	bsf	3,6	;RP1=1, select bank3
  3190  038F  0864               	movf	(_E2+3)^(0+384),w
  3191  0390  1683               	bsf	3,5	;RP0=1, select bank1
  3192  0391  1303               	bcf	3,6	;RP1=0, select bank1
  3193  0392  00BE               	movwf	(___flmul@a+3)^(0+128)
  3194  0393  1683               	bsf	3,5	;RP0=1, select bank3
  3195  0394  1703               	bsf	3,6	;RP1=1, select bank3
  3196  0395  0863               	movf	(_E2+2)^(0+384),w
  3197  0396  1683               	bsf	3,5	;RP0=1, select bank1
  3198  0397  1303               	bcf	3,6	;RP1=0, select bank1
  3199  0398  00BD               	movwf	(___flmul@a+2)^(0+128)
  3200  0399  1683               	bsf	3,5	;RP0=1, select bank3
  3201  039A  1703               	bsf	3,6	;RP1=1, select bank3
  3202  039B  0862               	movf	(_E2+1)^(0+384),w
  3203  039C  1683               	bsf	3,5	;RP0=1, select bank1
  3204  039D  1303               	bcf	3,6	;RP1=0, select bank1
  3205  039E  00BC               	movwf	(___flmul@a+1)^(0+128)
  3206  039F  1683               	bsf	3,5	;RP0=1, select bank3
  3207  03A0  1703               	bsf	3,6	;RP1=1, select bank3
  3208  03A1  0861               	movf	_E2^(0+384),w
  3209  03A2  1683               	bsf	3,5	;RP0=1, select bank1
  3210  03A3  1303               	bcf	3,6	;RP1=0, select bank1
  3211  03A4  00BB               	movwf	___flmul@a^(0+128)
  3212  03A5  120A  118A  248C  120A  118A  	fcall	___flmul
  3213  03AA  1683               	bsf	3,5	;RP0=1, select bank1
  3214  03AB  1303               	bcf	3,6	;RP1=0, select bank1
  3215  03AC  083A               	movf	(?___flmul+3)^(0+128),w
  3216  03AD  1683               	bsf	3,5	;RP0=1, select bank3
  3217  03AE  1703               	bsf	3,6	;RP1=1, select bank3
  3218  03AF  0093               	movwf	(___fladd@b+3)^(0+384)
  3219  03B0  1683               	bsf	3,5	;RP0=1, select bank1
  3220  03B1  1303               	bcf	3,6	;RP1=0, select bank1
  3221  03B2  0839               	movf	(?___flmul+2)^(0+128),w
  3222  03B3  1683               	bsf	3,5	;RP0=1, select bank3
  3223  03B4  1703               	bsf	3,6	;RP1=1, select bank3
  3224  03B5  0092               	movwf	(___fladd@b+2)^(0+384)
  3225  03B6  1683               	bsf	3,5	;RP0=1, select bank1
  3226  03B7  1303               	bcf	3,6	;RP1=0, select bank1
  3227  03B8  0838               	movf	(?___flmul+1)^(0+128),w
  3228  03B9  1683               	bsf	3,5	;RP0=1, select bank3
  3229  03BA  1703               	bsf	3,6	;RP1=1, select bank3
  3230  03BB  0091               	movwf	(___fladd@b+1)^(0+384)
  3231  03BC  1683               	bsf	3,5	;RP0=1, select bank1
  3232  03BD  1303               	bcf	3,6	;RP1=0, select bank1
  3233  03BE  0837               	movf	?___flmul^(0+128),w
  3234  03BF  1683               	bsf	3,5	;RP0=1, select bank3
  3235  03C0  1703               	bsf	3,6	;RP1=1, select bank3
  3236  03C1  0090               	movwf	___fladd@b^(0+384)
  3237  03C2  083E               	movf	(_PID_Init$827+3)^(0+384),w
  3238  03C3  0097               	movwf	(___fladd@a+3)^(0+384)
  3239  03C4  083D               	movf	(_PID_Init$827+2)^(0+384),w
  3240  03C5  0096               	movwf	(___fladd@a+2)^(0+384)
  3241  03C6  083C               	movf	(_PID_Init$827+1)^(0+384),w
  3242  03C7  0095               	movwf	(___fladd@a+1)^(0+384)
  3243  03C8  083B               	movf	_PID_Init$827^(0+384),w
  3244  03C9  0094               	movwf	___fladd@a^(0+384)
  3245  03CA  120A  158A  2516  120A  118A  	fcall	___fladd
  3246  03CF  1683               	bsf	3,5	;RP0=1, select bank3
  3247  03D0  1703               	bsf	3,6	;RP1=1, select bank3
  3248  03D1  0813               	movf	(?___fladd+3)^(0+384),w
  3249  03D2  00CC               	movwf	(_out+3)^(0+384)
  3250  03D3  0812               	movf	(?___fladd+2)^(0+384),w
  3251  03D4  00CB               	movwf	(_out+2)^(0+384)
  3252  03D5  0811               	movf	(?___fladd+1)^(0+384),w
  3253  03D6  00CA               	movwf	(_out+1)^(0+384)
  3254  03D7  0810               	movf	?___fladd^(0+384),w
  3255  03D8  00C9               	movwf	_out^(0+384)
  3256                           
  3257                           ;main.c: 150:  pre_out = out;
  3258  03D9  084C               	movf	(_out+3)^(0+384),w
  3259  03DA  1283               	bcf	3,5	;RP0=0, select bank0
  3260  03DB  1303               	bcf	3,6	;RP1=0, select bank0
  3261  03DC  00D3               	movwf	_pre_out+3
  3262  03DD  1683               	bsf	3,5	;RP0=1, select bank3
  3263  03DE  1703               	bsf	3,6	;RP1=1, select bank3
  3264  03DF  084B               	movf	(_out+2)^(0+384),w
  3265  03E0  1283               	bcf	3,5	;RP0=0, select bank0
  3266  03E1  1303               	bcf	3,6	;RP1=0, select bank0
  3267  03E2  00D2               	movwf	_pre_out+2
  3268  03E3  1683               	bsf	3,5	;RP0=1, select bank3
  3269  03E4  1703               	bsf	3,6	;RP1=1, select bank3
  3270  03E5  084A               	movf	(_out+1)^(0+384),w
  3271  03E6  1283               	bcf	3,5	;RP0=0, select bank0
  3272  03E7  1303               	bcf	3,6	;RP1=0, select bank0
  3273  03E8  00D1               	movwf	_pre_out+1
  3274  03E9  1683               	bsf	3,5	;RP0=1, select bank3
  3275  03EA  1703               	bsf	3,6	;RP1=1, select bank3
  3276  03EB  0849               	movf	_out^(0+384),w
  3277  03EC  1283               	bcf	3,5	;RP0=0, select bank0
  3278  03ED  1303               	bcf	3,6	;RP1=0, select bank0
  3279  03EE  00D0               	movwf	_pre_out
  3280                           
  3281                           ;main.c: 151:  E2 = E1;
  3282  03EF  1683               	bsf	3,5	;RP0=1, select bank3
  3283  03F0  1703               	bsf	3,6	;RP1=1, select bank3
  3284  03F1  0868               	movf	(_E1+3)^(0+384),w
  3285  03F2  00E4               	movwf	(_E2+3)^(0+384)
  3286  03F3  0867               	movf	(_E1+2)^(0+384),w
  3287  03F4  00E3               	movwf	(_E2+2)^(0+384)
  3288  03F5  0866               	movf	(_E1+1)^(0+384),w
  3289  03F6  00E2               	movwf	(_E2+1)^(0+384)
  3290  03F7  0865               	movf	_E1^(0+384),w
  3291  03F8  00E1               	movwf	_E2^(0+384)
  3292                           
  3293                           ;main.c: 152:  E1 = E;
  3294  03F9  086C               	movf	(_E+3)^(0+384),w
  3295  03FA  00E8               	movwf	(_E1+3)^(0+384)
  3296  03FB  086B               	movf	(_E+2)^(0+384),w
  3297  03FC  00E7               	movwf	(_E1+2)^(0+384)
  3298  03FD  086A               	movf	(_E+1)^(0+384),w
  3299  03FE  00E6               	movwf	(_E1+1)^(0+384)
  3300  03FF  0869               	movf	_E^(0+384),w
  3301  0400  00E5               	movwf	_E1^(0+384)
  3302                           
  3303                           ;main.c: 153:  if(out<0) out = 0;
  3304  0401  084C               	movf	(_out+3)^(0+384),w
  3305  0402  1683               	bsf	3,5	;RP0=1, select bank1
  3306  0403  1303               	bcf	3,6	;RP1=0, select bank1
  3307  0404  00A3               	movwf	(___flge@ff1+3)^(0+128)
  3308  0405  1683               	bsf	3,5	;RP0=1, select bank3
  3309  0406  1703               	bsf	3,6	;RP1=1, select bank3
  3310  0407  084B               	movf	(_out+2)^(0+384),w
  3311  0408  1683               	bsf	3,5	;RP0=1, select bank1
  3312  0409  1303               	bcf	3,6	;RP1=0, select bank1
  3313  040A  00A2               	movwf	(___flge@ff1+2)^(0+128)
  3314  040B  1683               	bsf	3,5	;RP0=1, select bank3
  3315  040C  1703               	bsf	3,6	;RP1=1, select bank3
  3316  040D  084A               	movf	(_out+1)^(0+384),w
  3317  040E  1683               	bsf	3,5	;RP0=1, select bank1
  3318  040F  1303               	bcf	3,6	;RP1=0, select bank1
  3319  0410  00A1               	movwf	(___flge@ff1+1)^(0+128)
  3320  0411  1683               	bsf	3,5	;RP0=1, select bank3
  3321  0412  1703               	bsf	3,6	;RP1=1, select bank3
  3322  0413  0849               	movf	_out^(0+384),w
  3323  0414  1683               	bsf	3,5	;RP0=1, select bank1
  3324  0415  1303               	bcf	3,6	;RP1=0, select bank1
  3325  0416  00A0               	movwf	___flge@ff1^(0+128)
  3326  0417  3000               	movlw	0
  3327  0418  00A7               	movwf	(___flge@ff2+3)^(0+128)
  3328  0419  3000               	movlw	0
  3329  041A  00A6               	movwf	(___flge@ff2+2)^(0+128)
  3330  041B  3000               	movlw	0
  3331  041C  00A5               	movwf	(___flge@ff2+1)^(0+128)
  3332  041D  3000               	movlw	0
  3333  041E  00A4               	movwf	___flge@ff2^(0+128)
  3334  041F  160A  118A  21F0  120A  118A  	fcall	___flge
  3335  0424  1803               	btfsc	3,0
  3336  0425  2C30               	goto	l3168
  3337  0426  3000               	movlw	0
  3338  0427  1683               	bsf	3,5	;RP0=1, select bank3
  3339  0428  1703               	bsf	3,6	;RP1=1, select bank3
  3340  0429  00CC               	movwf	(_out+3)^(0+384)
  3341  042A  3000               	movlw	0
  3342  042B  00CB               	movwf	(_out+2)^(0+384)
  3343  042C  3000               	movlw	0
  3344  042D  00CA               	movwf	(_out+1)^(0+384)
  3345  042E  3000               	movlw	0
  3346  042F  00C9               	movwf	_out^(0+384)
  3347  0430                     l3168:	
  3348                           
  3349                           ;main.c: 154:     if(out>=8000) out = 8000;
  3350  0430  1683               	bsf	3,5	;RP0=1, select bank3
  3351  0431  1703               	bsf	3,6	;RP1=1, select bank3
  3352  0432  084C               	movf	(_out+3)^(0+384),w
  3353  0433  1683               	bsf	3,5	;RP0=1, select bank1
  3354  0434  1303               	bcf	3,6	;RP1=0, select bank1
  3355  0435  00A3               	movwf	(___flge@ff1+3)^(0+128)
  3356  0436  1683               	bsf	3,5	;RP0=1, select bank3
  3357  0437  1703               	bsf	3,6	;RP1=1, select bank3
  3358  0438  084B               	movf	(_out+2)^(0+384),w
  3359  0439  1683               	bsf	3,5	;RP0=1, select bank1
  3360  043A  1303               	bcf	3,6	;RP1=0, select bank1
  3361  043B  00A2               	movwf	(___flge@ff1+2)^(0+128)
  3362  043C  1683               	bsf	3,5	;RP0=1, select bank3
  3363  043D  1703               	bsf	3,6	;RP1=1, select bank3
  3364  043E  084A               	movf	(_out+1)^(0+384),w
  3365  043F  1683               	bsf	3,5	;RP0=1, select bank1
  3366  0440  1303               	bcf	3,6	;RP1=0, select bank1
  3367  0441  00A1               	movwf	(___flge@ff1+1)^(0+128)
  3368  0442  1683               	bsf	3,5	;RP0=1, select bank3
  3369  0443  1703               	bsf	3,6	;RP1=1, select bank3
  3370  0444  0849               	movf	_out^(0+384),w
  3371  0445  1683               	bsf	3,5	;RP0=1, select bank1
  3372  0446  1303               	bcf	3,6	;RP1=0, select bank1
  3373  0447  00A0               	movwf	___flge@ff1^(0+128)
  3374  0448  3045               	movlw	69
  3375  0449  00A7               	movwf	(___flge@ff2+3)^(0+128)
  3376  044A  30FA               	movlw	250
  3377  044B  00A6               	movwf	(___flge@ff2+2)^(0+128)
  3378  044C  3000               	movlw	0
  3379  044D  00A5               	movwf	(___flge@ff2+1)^(0+128)
  3380  044E  3000               	movlw	0
  3381  044F  00A4               	movwf	___flge@ff2^(0+128)
  3382  0450  160A  118A  21F0  120A  118A  	fcall	___flge
  3383  0455  1C03               	btfss	3,0
  3384  0456  2C61               	goto	l3172
  3385  0457  3045               	movlw	69
  3386  0458  1683               	bsf	3,5	;RP0=1, select bank3
  3387  0459  1703               	bsf	3,6	;RP1=1, select bank3
  3388  045A  00CC               	movwf	(_out+3)^(0+384)
  3389  045B  30FA               	movlw	250
  3390  045C  00CB               	movwf	(_out+2)^(0+384)
  3391  045D  3000               	movlw	0
  3392  045E  00CA               	movwf	(_out+1)^(0+384)
  3393  045F  3000               	movlw	0
  3394  0460  00C9               	movwf	_out^(0+384)
  3395  0461                     l3172:	
  3396                           
  3397                           ;main.c: 155:  return 8000-out;
  3398  0461  3045               	movlw	69
  3399  0462  1683               	bsf	3,5	;RP0=1, select bank3
  3400  0463  1703               	bsf	3,6	;RP1=1, select bank3
  3401  0464  00A7               	movwf	(___flsub@b+3)^(0+384)
  3402  0465  30FA               	movlw	250
  3403  0466  00A6               	movwf	(___flsub@b+2)^(0+384)
  3404  0467  3000               	movlw	0
  3405  0468  00A5               	movwf	(___flsub@b+1)^(0+384)
  3406  0469  3000               	movlw	0
  3407  046A  00A4               	movwf	___flsub@b^(0+384)
  3408  046B  084C               	movf	(_out+3)^(0+384),w
  3409  046C  00A3               	movwf	(___flsub@a+3)^(0+384)
  3410  046D  084B               	movf	(_out+2)^(0+384),w
  3411  046E  00A2               	movwf	(___flsub@a+2)^(0+384)
  3412  046F  084A               	movf	(_out+1)^(0+384),w
  3413  0470  00A1               	movwf	(___flsub@a+1)^(0+384)
  3414  0471  0849               	movf	_out^(0+384),w
  3415  0472  00A0               	movwf	___flsub@a^(0+384)
  3416  0473  160A  158A  25E6  120A  118A  	fcall	___flsub
  3417  0478  1683               	bsf	3,5	;RP0=1, select bank3
  3418  0479  1703               	bsf	3,6	;RP1=1, select bank3
  3419  047A  0823               	movf	(?___flsub+3)^(0+384),w
  3420  047B  00AB               	movwf	(___fltol@f1+3)^(0+384)
  3421  047C  0822               	movf	(?___flsub+2)^(0+384),w
  3422  047D  00AA               	movwf	(___fltol@f1+2)^(0+384)
  3423  047E  0821               	movf	(?___flsub+1)^(0+384),w
  3424  047F  00A9               	movwf	(___fltol@f1+1)^(0+384)
  3425  0480  0820               	movf	?___flsub^(0+384),w
  3426  0481  00A8               	movwf	___fltol@f1^(0+384)
  3427  0482  160A  118A  20F0   	fcall	___fltol
  3428  0485  1683               	bsf	3,5	;RP0=1, select bank3
  3429  0486  1703               	bsf	3,6	;RP1=1, select bank3
  3430  0487  0829               	movf	(?___fltol+1)^(0+384),w
  3431  0488  00B4               	movwf	(?_PID_Init+1)^(0+384)
  3432  0489  0828               	movf	?___fltol^(0+384),w
  3433  048A  00B3               	movwf	?_PID_Init^(0+384)
  3434  048B  0008               	return
  3435  048C                     __end_of_PID_Init:	
  3436                           
  3437                           	psect	text5
  3438  1328                     __ptext5:	
  3439 ;; *************** function ___xxtofl *****************
  3440 ;; Defined at:
  3441 ;;		line 10 in file "D:\PROGRAM\MPLABX v5.20\XC8 v2.05\pic\sources\c90\common\xxtofl.c"
  3442 ;; Parameters:    Size  Location     Type
  3443 ;;  sign            1    wreg     unsigned char 
  3444 ;;  val             4    9[BANK1 ] long 
  3445 ;; Auto vars:     Size  Location     Type
  3446 ;;  sign            1   17[BANK1 ] unsigned char 
  3447 ;;  arg             4   19[BANK1 ] unsigned long 
  3448 ;;  exp             1   18[BANK1 ] unsigned char 
  3449 ;; Return value:  Size  Location     Type
  3450 ;;                  4    9[BANK1 ] unsigned char 
  3451 ;; Registers used:
  3452 ;;		wreg, status,2, status,0
  3453 ;; Tracked objects:
  3454 ;;		On entry : 0/0
  3455 ;;		On exit  : 0/0
  3456 ;;		Unchanged: 0/0
  3457 ;; Data sizes:     COMMON   BANK0   BANK1   BANK3   BANK2
  3458 ;;      Params:         0       0       4       0       0
  3459 ;;      Locals:         0       0       6       0       0
  3460 ;;      Temps:          0       0       4       0       0
  3461 ;;      Totals:         0       0      14       0       0
  3462 ;;Total ram usage:       14 bytes
  3463 ;; Hardware stack levels used:    1
  3464 ;; Hardware stack levels required when called:    3
  3465 ;; This function calls:
  3466 ;;		Nothing
  3467 ;; This function is called by:
  3468 ;;		_PID_Init
  3469 ;;		_Set_temp
  3470 ;; This function uses a non-reentrant model
  3471 ;;
  3472                           
  3473                           
  3474                           ;psect for function ___xxtofl
  3475  1328                     ___xxtofl:	
  3476                           
  3477                           ;incstack = 0
  3478                           ; Regs used in ___xxtofl: [wreg+status,2+status,0]
  3479                           ;___xxtofl@sign stored from wreg
  3480  1328  1683               	bsf	3,5	;RP0=1, select bank1
  3481  1329  1303               	bcf	3,6	;RP1=0, select bank1
  3482  132A  00B1               	movwf	___xxtofl@sign^(0+128)
  3483  132B  0831               	movf	___xxtofl@sign^(0+128),w
  3484  132C  1D03               	btfss	3,2
  3485  132D  1FAC               	btfss	(___xxtofl@val+3)^(0+128),7
  3486  132E  2B3F               	goto	l3084
  3487  132F  0929               	comf	___xxtofl@val^(0+128),w
  3488  1330  00B3               	movwf	___xxtofl@arg^(0+128)
  3489  1331  092A               	comf	(___xxtofl@val^(0+128)+1),w
  3490  1332  00B4               	movwf	(___xxtofl@arg+1)^(0+128)
  3491  1333  092B               	comf	(___xxtofl@val^(0+128)+2),w
  3492  1334  00B5               	movwf	(___xxtofl@arg+2)^(0+128)
  3493  1335  092C               	comf	(___xxtofl@val^(0+128)+3),w
  3494  1336  00B6               	movwf	(___xxtofl@arg+3)^(0+128)
  3495  1337  0AB3               	incf	___xxtofl@arg^(0+128),f
  3496  1338  1903               	skipnz
  3497  1339  0AB4               	incf	(___xxtofl@arg+1)^(0+128),f
  3498  133A  1903               	skipnz
  3499  133B  0AB5               	incf	(___xxtofl@arg+2)^(0+128),f
  3500  133C  1903               	skipnz
  3501  133D  0AB6               	incf	(___xxtofl@arg+3)^(0+128),f
  3502  133E  2B47               	goto	l815
  3503  133F                     l3084:	
  3504  133F  082C               	movf	(___xxtofl@val+3)^(0+128),w
  3505  1340  00B6               	movwf	(___xxtofl@arg+3)^(0+128)
  3506  1341  082B               	movf	(___xxtofl@val+2)^(0+128),w
  3507  1342  00B5               	movwf	(___xxtofl@arg+2)^(0+128)
  3508  1343  082A               	movf	(___xxtofl@val+1)^(0+128),w
  3509  1344  00B4               	movwf	(___xxtofl@arg+1)^(0+128)
  3510  1345  0829               	movf	___xxtofl@val^(0+128),w
  3511  1346  00B3               	movwf	___xxtofl@arg^(0+128)
  3512  1347                     l815:	
  3513  1347  082C               	movf	(___xxtofl@val+3)^(0+128),w
  3514  1348  042B               	iorwf	(___xxtofl@val+2)^(0+128),w
  3515  1349  042A               	iorwf	(___xxtofl@val+1)^(0+128),w
  3516  134A  0429               	iorwf	___xxtofl@val^(0+128),w
  3517  134B  1D03               	skipz
  3518  134C  2B56               	goto	l3090
  3519  134D  3000               	movlw	0
  3520  134E  00AC               	movwf	(?___xxtofl+3)^(0+128)
  3521  134F  3000               	movlw	0
  3522  1350  00AB               	movwf	(?___xxtofl+2)^(0+128)
  3523  1351  3000               	movlw	0
  3524  1352  00AA               	movwf	(?___xxtofl+1)^(0+128)
  3525  1353  3000               	movlw	0
  3526  1354  00A9               	movwf	?___xxtofl^(0+128)
  3527  1355  0008               	return
  3528  1356                     l3090:	
  3529  1356  3096               	movlw	150
  3530  1357  00AD               	movwf	??___xxtofl^(0+128)
  3531  1358  082D               	movf	??___xxtofl^(0+128),w
  3532  1359  00B2               	movwf	___xxtofl@exp^(0+128)
  3533  135A                     l3094:	
  3534  135A  30FE               	movlw	254
  3535  135B  0536               	andwf	(___xxtofl@arg+3)^(0+128),w
  3536  135C  1903               	btfsc	3,2
  3537  135D  2B87               	goto	l821
  3538  135E  3001               	movlw	1
  3539  135F  00AD               	movwf	??___xxtofl^(0+128)
  3540  1360  082D               	movf	??___xxtofl^(0+128),w
  3541  1361  07B2               	addwf	___xxtofl@exp^(0+128),f
  3542  1362  3001               	movlw	1
  3543  1363                     u4805:	
  3544  1363  1003               	clrc
  3545  1364  0CB6               	rrf	(___xxtofl@arg+3)^(0+128),f
  3546  1365  0CB5               	rrf	(___xxtofl@arg+2)^(0+128),f
  3547  1366  0CB4               	rrf	(___xxtofl@arg+1)^(0+128),f
  3548  1367  0CB3               	rrf	___xxtofl@arg^(0+128),f
  3549  1368  3EFF               	addlw	-1
  3550  1369  1D03               	skipz
  3551  136A  2B63               	goto	u4805
  3552  136B  2B5A               	goto	l3094
  3553  136C                     l3096:	
  3554  136C  3001               	movlw	1
  3555  136D  00AD               	movwf	??___xxtofl^(0+128)
  3556  136E  082D               	movf	??___xxtofl^(0+128),w
  3557  136F  07B2               	addwf	___xxtofl@exp^(0+128),f
  3558  1370  3001               	movlw	1
  3559  1371  07B3               	addwf	___xxtofl@arg^(0+128),f
  3560  1372  3000               	movlw	0
  3561  1373  1803               	skipnc
  3562  1374  3001               	movlw	1
  3563  1375  07B4               	addwf	(___xxtofl@arg+1)^(0+128),f
  3564  1376  3000               	movlw	0
  3565  1377  1803               	skipnc
  3566  1378  3001               	movlw	1
  3567  1379  07B5               	addwf	(___xxtofl@arg+2)^(0+128),f
  3568  137A  3000               	movlw	0
  3569  137B  1803               	skipnc
  3570  137C  3001               	movlw	1
  3571  137D  07B6               	addwf	(___xxtofl@arg+3)^(0+128),f
  3572  137E  3001               	movlw	1
  3573  137F                     u4825:	
  3574  137F  1003               	clrc
  3575  1380  0CB6               	rrf	(___xxtofl@arg+3)^(0+128),f
  3576  1381  0CB5               	rrf	(___xxtofl@arg+2)^(0+128),f
  3577  1382  0CB4               	rrf	(___xxtofl@arg+1)^(0+128),f
  3578  1383  0CB3               	rrf	___xxtofl@arg^(0+128),f
  3579  1384  3EFF               	addlw	-1
  3580  1385  1D03               	skipz
  3581  1386  2B7F               	goto	u4825
  3582  1387                     l821:	
  3583  1387  30FF               	movlw	255
  3584  1388  0536               	andwf	(___xxtofl@arg+3)^(0+128),w
  3585  1389  1903               	btfsc	3,2
  3586  138A  2B9B               	goto	l3104
  3587  138B  2B6C               	goto	l3096
  3588  138C                     l3106:	
  3589  138C  3002               	movlw	2
  3590  138D  0232               	subwf	___xxtofl@exp^(0+128),w
  3591  138E  1C03               	btfss	3,0
  3592  138F  2B9D               	goto	l828
  3593  1390  3001               	movlw	1
  3594  1391  02B2               	subwf	___xxtofl@exp^(0+128),f
  3595  1392  3001               	movlw	1
  3596  1393  00AD               	movwf	??___xxtofl^(0+128)
  3597  1394                     u4845:	
  3598  1394  1003               	clrc
  3599  1395  0DB3               	rlf	___xxtofl@arg^(0+128),f
  3600  1396  0DB4               	rlf	(___xxtofl@arg+1)^(0+128),f
  3601  1397  0DB5               	rlf	(___xxtofl@arg+2)^(0+128),f
  3602  1398  0DB6               	rlf	(___xxtofl@arg+3)^(0+128),f
  3603  1399  0BAD               	decfsz	??___xxtofl^(0+128),f
  3604  139A  2B94               	goto	u4845
  3605  139B                     l3104:	
  3606  139B  1FB5               	btfss	(___xxtofl@arg+2)^(0+128),7
  3607  139C  2B8C               	goto	l3106
  3608  139D                     l828:	
  3609  139D  1832               	btfsc	___xxtofl@exp^(0+128),0
  3610  139E  2BA7               	goto	l829
  3611  139F  30FF               	movlw	255
  3612  13A0  05B3               	andwf	___xxtofl@arg^(0+128),f
  3613  13A1  30FF               	movlw	255
  3614  13A2  05B4               	andwf	(___xxtofl@arg+1)^(0+128),f
  3615  13A3  307F               	movlw	127
  3616  13A4  05B5               	andwf	(___xxtofl@arg+2)^(0+128),f
  3617  13A5  30FF               	movlw	255
  3618  13A6  05B6               	andwf	(___xxtofl@arg+3)^(0+128),f
  3619  13A7                     l829:	
  3620  13A7  1003               	clrc
  3621  13A8  0CB2               	rrf	___xxtofl@exp^(0+128),f
  3622  13A9  0832               	movf	___xxtofl@exp^(0+128),w
  3623  13AA  00AD               	movwf	??___xxtofl^(0+128)
  3624  13AB  01AE               	clrf	(??___xxtofl^(0+128)+1)
  3625  13AC  01AF               	clrf	(??___xxtofl^(0+128)+2)
  3626  13AD  01B0               	clrf	(??___xxtofl^(0+128)+3)
  3627  13AE  3018               	movlw	24
  3628  13AF                     u4885:	
  3629  13AF  1003               	clrc
  3630  13B0  0DAD               	rlf	??___xxtofl^(0+128),f
  3631  13B1  0DAE               	rlf	(??___xxtofl^(0+128)+1),f
  3632  13B2  0DAF               	rlf	(??___xxtofl^(0+128)+2),f
  3633  13B3  0DB0               	rlf	(??___xxtofl^(0+128)+3),f
  3634  13B4  3EFF               	addlw	-1
  3635  13B5  1D03               	skipz
  3636  13B6  2BAF               	goto	u4885
  3637  13B7  082D               	movf	??___xxtofl^(0+128),w
  3638  13B8  04B3               	iorwf	___xxtofl@arg^(0+128),f
  3639  13B9  082E               	movf	(??___xxtofl+1)^(0+128),w
  3640  13BA  04B4               	iorwf	(___xxtofl@arg+1)^(0+128),f
  3641  13BB  082F               	movf	(??___xxtofl+2)^(0+128),w
  3642  13BC  04B5               	iorwf	(___xxtofl@arg+2)^(0+128),f
  3643  13BD  0830               	movf	(??___xxtofl+3)^(0+128),w
  3644  13BE  04B6               	iorwf	(___xxtofl@arg+3)^(0+128),f
  3645  13BF  0831               	movf	___xxtofl@sign^(0+128),w
  3646  13C0  1D03               	btfss	3,2
  3647  13C1  1FAC               	btfss	(___xxtofl@val+3)^(0+128),7
  3648  13C2  2BC4               	goto	l3118
  3649  13C3  17B6               	bsf	(___xxtofl@arg^(0+128)+3),7
  3650  13C4                     l3118:	
  3651  13C4  0836               	movf	(___xxtofl@arg+3)^(0+128),w
  3652  13C5  00AC               	movwf	(?___xxtofl+3)^(0+128)
  3653  13C6  0835               	movf	(___xxtofl@arg+2)^(0+128),w
  3654  13C7  00AB               	movwf	(?___xxtofl+2)^(0+128)
  3655  13C8  0834               	movf	(___xxtofl@arg+1)^(0+128),w
  3656  13C9  00AA               	movwf	(?___xxtofl+1)^(0+128)
  3657  13CA  0833               	movf	___xxtofl@arg^(0+128),w
  3658  13CB  00A9               	movwf	?___xxtofl^(0+128)
  3659  13CC  0008               	return
  3660  13CD                     __end_of___xxtofl:	
  3661                           
  3662                           	psect	text6
  3663  10F0                     __ptext6:	
  3664 ;; *************** function ___fltol *****************
  3665 ;; Defined at:
  3666 ;;		line 43 in file "D:\PROGRAM\MPLABX v5.20\XC8 v2.05\pic\sources\c90\common\fltol.c"
  3667 ;; Parameters:    Size  Location     Type
  3668 ;;  f1              4   24[BANK3 ] unsigned char 
  3669 ;; Auto vars:     Size  Location     Type
  3670 ;;  exp1            1   34[BANK3 ] unsigned char 
  3671 ;;  sign1           1   33[BANK3 ] unsigned char 
  3672 ;; Return value:  Size  Location     Type
  3673 ;;                  4   24[BANK3 ] long 
  3674 ;; Registers used:
  3675 ;;		wreg, status,2, status,0
  3676 ;; Tracked objects:
  3677 ;;		On entry : 0/0
  3678 ;;		On exit  : 0/0
  3679 ;;		Unchanged: 0/0
  3680 ;; Data sizes:     COMMON   BANK0   BANK1   BANK3   BANK2
  3681 ;;      Params:         0       0       0       4       0
  3682 ;;      Locals:         0       0       0       2       0
  3683 ;;      Temps:          0       0       0       5       0
  3684 ;;      Totals:         0       0       0      11       0
  3685 ;;Total ram usage:       11 bytes
  3686 ;; Hardware stack levels used:    1
  3687 ;; Hardware stack levels required when called:    3
  3688 ;; This function calls:
  3689 ;;		Nothing
  3690 ;; This function is called by:
  3691 ;;		_PID_Init
  3692 ;;		_Set_temp
  3693 ;; This function uses a non-reentrant model
  3694 ;;
  3695                           
  3696                           
  3697                           ;psect for function ___fltol
  3698  10F0                     ___fltol:	
  3699                           
  3700                           ;incstack = 0
  3701                           ; Regs used in ___fltol: [wreg+status,2+status,0]
  3702  10F0  1003               	clrc
  3703  10F1  1683               	bsf	3,5	;RP0=1, select bank3
  3704  10F2  1703               	bsf	3,6	;RP1=1, select bank3
  3705  10F3  0D2A               	rlf	(___fltol@f1+2)^(0+384),w
  3706  10F4  0D2B               	rlf	(___fltol@f1+3)^(0+384),w
  3707  10F5  00AC               	movwf	??___fltol^(0+384)
  3708  10F6  082C               	movf	??___fltol^(0+384),w
  3709  10F7  00B2               	movwf	___fltol@exp1^(0+384)
  3710  10F8  0832               	movf	___fltol@exp1^(0+384),w
  3711  10F9  1D03               	btfss	3,2
  3712  10FA  2904               	goto	l2760
  3713  10FB                     l2756:	
  3714  10FB  3000               	movlw	0
  3715  10FC  00AB               	movwf	(?___fltol+3)^(0+384)
  3716  10FD  3000               	movlw	0
  3717  10FE  00AA               	movwf	(?___fltol+2)^(0+384)
  3718  10FF  3000               	movlw	0
  3719  1100  00A9               	movwf	(?___fltol+1)^(0+384)
  3720  1101  3000               	movlw	0
  3721  1102  00A8               	movwf	?___fltol^(0+384)
  3722  1103  0008               	return
  3723  1104                     l2760:	
  3724  1104  0828               	movf	___fltol@f1^(0+384),w
  3725  1105  00AC               	movwf	??___fltol^(0+384)
  3726  1106  0829               	movf	(___fltol@f1+1)^(0+384),w
  3727  1107  00AD               	movwf	(??___fltol^(0+384)+1)
  3728  1108  082A               	movf	(___fltol@f1+2)^(0+384),w
  3729  1109  00AE               	movwf	(??___fltol^(0+384)+2)
  3730  110A  082B               	movf	(___fltol@f1+3)^(0+384),w
  3731  110B  00AF               	movwf	(??___fltol^(0+384)+3)
  3732  110C  301F               	movlw	31
  3733  110D                     u4025:	
  3734  110D  1003               	clrc
  3735  110E  0CAF               	rrf	(??___fltol^(0+384)+3),f
  3736  110F  0CAE               	rrf	(??___fltol^(0+384)+2),f
  3737  1110  0CAD               	rrf	(??___fltol^(0+384)+1),f
  3738  1111  0CAC               	rrf	??___fltol^(0+384),f
  3739  1112  3EFF               	addlw	-1
  3740  1113  1D03               	skipz
  3741  1114  290D               	goto	u4025
  3742  1115  082C               	movf	??___fltol^(0+384),w
  3743  1116  00B0               	movwf	(??___fltol+4)^(0+384)
  3744  1117  0830               	movf	(??___fltol+4)^(0+384),w
  3745  1118  00B1               	movwf	___fltol@sign1^(0+384)
  3746  1119  17AA               	bsf	(___fltol@f1^(0+384)+2),7
  3747  111A  30FF               	movlw	255
  3748  111B  05A8               	andwf	___fltol@f1^(0+384),f
  3749  111C  30FF               	movlw	255
  3750  111D  05A9               	andwf	(___fltol@f1+1)^(0+384),f
  3751  111E  30FF               	movlw	255
  3752  111F  05AA               	andwf	(___fltol@f1+2)^(0+384),f
  3753  1120  3000               	movlw	0
  3754  1121  05AB               	andwf	(___fltol@f1+3)^(0+384),f
  3755  1122  3096               	movlw	150
  3756  1123  02B2               	subwf	___fltol@exp1^(0+384),f
  3757  1124  1FB2               	btfss	___fltol@exp1^(0+384),7
  3758  1125  293B               	goto	l2778
  3759  1126  0832               	movf	___fltol@exp1^(0+384),w
  3760  1127  3A80               	xorlw	128
  3761  1128  3E97               	addlw	151
  3762  1129  1C03               	btfss	3,0
  3763  112A  28FB               	goto	l2756
  3764  112B                     l2776:	
  3765  112B  3001               	movlw	1
  3766  112C                     u4055:	
  3767  112C  1003               	clrc
  3768  112D  0CAB               	rrf	(___fltol@f1+3)^(0+384),f
  3769  112E  0CAA               	rrf	(___fltol@f1+2)^(0+384),f
  3770  112F  0CA9               	rrf	(___fltol@f1+1)^(0+384),f
  3771  1130  0CA8               	rrf	___fltol@f1^(0+384),f
  3772  1131  3EFF               	addlw	-1
  3773  1132  1D03               	skipz
  3774  1133  292C               	goto	u4055
  3775  1134  3001               	movlw	1
  3776  1135  00AC               	movwf	??___fltol^(0+384)
  3777  1136  082C               	movf	??___fltol^(0+384),w
  3778  1137  07B2               	addwf	___fltol@exp1^(0+384),f
  3779  1138  1903               	btfsc	3,2
  3780  1139  294E               	goto	l2786
  3781  113A  292B               	goto	l2776
  3782  113B                     l2778:	
  3783  113B  3020               	movlw	32
  3784  113C  0232               	subwf	___fltol@exp1^(0+384),w
  3785  113D  1803               	btfsc	3,0
  3786  113E  28FB               	goto	l2756
  3787  113F                     l581:	
  3788  113F  0832               	movf	___fltol@exp1^(0+384),w
  3789  1140  1903               	btfsc	3,2
  3790  1141  294E               	goto	l2786
  3791  1142  3001               	movlw	1
  3792  1143  00AC               	movwf	??___fltol^(0+384)
  3793  1144                     u4085:	
  3794  1144  1003               	clrc
  3795  1145  0DA8               	rlf	___fltol@f1^(0+384),f
  3796  1146  0DA9               	rlf	(___fltol@f1+1)^(0+384),f
  3797  1147  0DAA               	rlf	(___fltol@f1+2)^(0+384),f
  3798  1148  0DAB               	rlf	(___fltol@f1+3)^(0+384),f
  3799  1149  0BAC               	decfsz	??___fltol^(0+384),f
  3800  114A  2944               	goto	u4085
  3801  114B  3001               	movlw	1
  3802  114C  02B2               	subwf	___fltol@exp1^(0+384),f
  3803  114D  293F               	goto	l581
  3804  114E                     l2786:	
  3805  114E  0831               	movf	___fltol@sign1^(0+384),w
  3806  114F  1903               	btfsc	3,2
  3807  1150  0008               	return
  3808  1151  09A8               	comf	___fltol@f1^(0+384),f
  3809  1152  09A9               	comf	(___fltol@f1+1)^(0+384),f
  3810  1153  09AA               	comf	(___fltol@f1+2)^(0+384),f
  3811  1154  09AB               	comf	(___fltol@f1+3)^(0+384),f
  3812  1155  0AA8               	incf	___fltol@f1^(0+384),f
  3813  1156  1903               	skipnz
  3814  1157  0AA9               	incf	(___fltol@f1+1)^(0+384),f
  3815  1158  1903               	skipnz
  3816  1159  0AAA               	incf	(___fltol@f1+2)^(0+384),f
  3817  115A  1903               	skipnz
  3818  115B  0AAB               	incf	(___fltol@f1+3)^(0+384),f
  3819  115C  0008               	return
  3820  115D                     __end_of___fltol:	
  3821                           
  3822                           	psect	text7
  3823  1DE6                     __ptext7:	
  3824 ;; *************** function ___flsub *****************
  3825 ;; Defined at:
  3826 ;;		line 242 in file "D:\PROGRAM\MPLABX v5.20\XC8 v2.05\pic\sources\c90\common\sprcadd.c"
  3827 ;; Parameters:    Size  Location     Type
  3828 ;;  a               4   16[BANK3 ] long 
  3829 ;;  b               4   20[BANK3 ] long 
  3830 ;; Auto vars:     Size  Location     Type
  3831 ;;		None
  3832 ;; Return value:  Size  Location     Type
  3833 ;;                  4   16[BANK3 ] long 
  3834 ;; Registers used:
  3835 ;;		wreg, status,2, status,0, btemp+1, pclath, cstack
  3836 ;; Tracked objects:
  3837 ;;		On entry : 0/0
  3838 ;;		On exit  : 0/0
  3839 ;;		Unchanged: 0/0
  3840 ;; Data sizes:     COMMON   BANK0   BANK1   BANK3   BANK2
  3841 ;;      Params:         0       0       0       8       0
  3842 ;;      Locals:         0       0       0       0       0
  3843 ;;      Temps:          0       0       0       0       0
  3844 ;;      Totals:         0       0       0       8       0
  3845 ;;Total ram usage:        8 bytes
  3846 ;; Hardware stack levels used:    1
  3847 ;; Hardware stack levels required when called:    4
  3848 ;; This function calls:
  3849 ;;		___fladd
  3850 ;; This function is called by:
  3851 ;;		_PID_Init
  3852 ;; This function uses a non-reentrant model
  3853 ;;
  3854                           
  3855                           
  3856                           ;psect for function ___flsub
  3857  1DE6                     ___flsub:	
  3858                           
  3859                           ;incstack = 0
  3860                           ; Regs used in ___flsub: [wreg+status,2+status,0+btemp+1+pclath+cstack]
  3861  1DE6  3080               	movlw	128
  3862  1DE7  1683               	bsf	3,5	;RP0=1, select bank3
  3863  1DE8  1703               	bsf	3,6	;RP1=1, select bank3
  3864  1DE9  06A3               	xorwf	(___flsub@a+3)^(0+384),f
  3865  1DEA  0827               	movf	(___flsub@b+3)^(0+384),w
  3866  1DEB  0093               	movwf	(___fladd@b+3)^(0+384)
  3867  1DEC  0826               	movf	(___flsub@b+2)^(0+384),w
  3868  1DED  0092               	movwf	(___fladd@b+2)^(0+384)
  3869  1DEE  0825               	movf	(___flsub@b+1)^(0+384),w
  3870  1DEF  0091               	movwf	(___fladd@b+1)^(0+384)
  3871  1DF0  0824               	movf	___flsub@b^(0+384),w
  3872  1DF1  0090               	movwf	___fladd@b^(0+384)
  3873  1DF2  0823               	movf	(___flsub@a+3)^(0+384),w
  3874  1DF3  0097               	movwf	(___fladd@a+3)^(0+384)
  3875  1DF4  0822               	movf	(___flsub@a+2)^(0+384),w
  3876  1DF5  0096               	movwf	(___fladd@a+2)^(0+384)
  3877  1DF6  0821               	movf	(___flsub@a+1)^(0+384),w
  3878  1DF7  0095               	movwf	(___fladd@a+1)^(0+384)
  3879  1DF8  0820               	movf	___flsub@a^(0+384),w
  3880  1DF9  0094               	movwf	___fladd@a^(0+384)
  3881  1DFA  120A  158A  2516   	fcall	___fladd
  3882  1DFD  1683               	bsf	3,5	;RP0=1, select bank3
  3883  1DFE  1703               	bsf	3,6	;RP1=1, select bank3
  3884  1DFF  0813               	movf	(?___fladd+3)^(0+384),w
  3885  1E00  00A3               	movwf	(?___flsub+3)^(0+384)
  3886  1E01  0812               	movf	(?___fladd+2)^(0+384),w
  3887  1E02  00A2               	movwf	(?___flsub+2)^(0+384)
  3888  1E03  0811               	movf	(?___fladd+1)^(0+384),w
  3889  1E04  00A1               	movwf	(?___flsub+1)^(0+384)
  3890  1E05  0810               	movf	?___fladd^(0+384),w
  3891  1E06  00A0               	movwf	?___flsub^(0+384)
  3892  1E07  0008               	return
  3893  1E08                     __end_of___flsub:	
  3894                           
  3895                           	psect	text8
  3896  0D16                     __ptext8:	
  3897 ;; *************** function ___fladd *****************
  3898 ;; Defined at:
  3899 ;;		line 10 in file "D:\PROGRAM\MPLABX v5.20\XC8 v2.05\pic\sources\c90\common\sprcadd.c"
  3900 ;; Parameters:    Size  Location     Type
  3901 ;;  b               4    0[BANK3 ] long 
  3902 ;;  a               4    4[BANK3 ] long 
  3903 ;; Auto vars:     Size  Location     Type
  3904 ;;  grs             1   78[BANK1 ] unsigned char 
  3905 ;;  bexp            1   77[BANK1 ] unsigned char 
  3906 ;;  aexp            1   76[BANK1 ] unsigned char 
  3907 ;;  signs           1   75[BANK1 ] unsigned char 
  3908 ;; Return value:  Size  Location     Type
  3909 ;;                  4    0[BANK3 ] unsigned char 
  3910 ;; Registers used:
  3911 ;;		wreg, status,2, status,0, btemp+1
  3912 ;; Tracked objects:
  3913 ;;		On entry : 0/0
  3914 ;;		On exit  : 0/0
  3915 ;;		Unchanged: 0/0
  3916 ;; Data sizes:     COMMON   BANK0   BANK1   BANK3   BANK2
  3917 ;;      Params:         0       0       0       8       0
  3918 ;;      Locals:         0       0       4       0       0
  3919 ;;      Temps:          0       0       0       8       0
  3920 ;;      Totals:         0       0       4      16       0
  3921 ;;Total ram usage:       20 bytes
  3922 ;; Hardware stack levels used:    1
  3923 ;; Hardware stack levels required when called:    3
  3924 ;; This function calls:
  3925 ;;		Nothing
  3926 ;; This function is called by:
  3927 ;;		_PID_Init
  3928 ;;		_Set_temp
  3929 ;;		___flsub
  3930 ;; This function uses a non-reentrant model
  3931 ;;
  3932                           
  3933                           
  3934                           ;psect for function ___fladd
  3935  0D16                     ___fladd:	
  3936                           
  3937                           ;incstack = 0
  3938                           ; Regs used in ___fladd: [wreg+status,2+status,0+btemp+1]
  3939  0D16  1683               	bsf	3,5	;RP0=1, select bank3
  3940  0D17  1703               	bsf	3,6	;RP1=1, select bank3
  3941  0D18  0813               	movf	(___fladd@b^(0+384)+3),w
  3942  0D19  3980               	andlw	128
  3943  0D1A  0098               	movwf	??___fladd^(0+384)
  3944  0D1B  0818               	movf	??___fladd^(0+384),w
  3945  0D1C  1683               	bsf	3,5	;RP0=1, select bank1
  3946  0D1D  1303               	bcf	3,6	;RP1=0, select bank1
  3947  0D1E  00EB               	movwf	___fladd@signs^(0+128)
  3948  0D1F  1683               	bsf	3,5	;RP0=1, select bank3
  3949  0D20  1703               	bsf	3,6	;RP1=1, select bank3
  3950  0D21  0813               	movf	(___fladd@b^(0+384)+3),w
  3951  0D22  0098               	movwf	??___fladd^(0+384)
  3952  0D23  0718               	addwf	??___fladd^(0+384),w
  3953  0D24  0099               	movwf	(??___fladd+1)^(0+384)
  3954  0D25  0819               	movf	(??___fladd+1)^(0+384),w
  3955  0D26  1683               	bsf	3,5	;RP0=1, select bank1
  3956  0D27  1303               	bcf	3,6	;RP1=0, select bank1
  3957  0D28  00ED               	movwf	___fladd@bexp^(0+128)
  3958  0D29  1683               	bsf	3,5	;RP0=1, select bank3
  3959  0D2A  1703               	bsf	3,6	;RP1=1, select bank3
  3960  0D2B  1F92               	btfss	(___fladd@b^(0+384)+2),7
  3961  0D2C  2D30               	goto	l2412
  3962  0D2D  1683               	bsf	3,5	;RP0=1, select bank1
  3963  0D2E  1303               	bcf	3,6	;RP1=0, select bank1
  3964  0D2F  146D               	bsf	___fladd@bexp^(0+128),0
  3965  0D30                     l2412:	
  3966  0D30  1303               	bcf	3,6	;RP1=0, select bank1
  3967  0D31  086D               	movf	___fladd@bexp^(0+128),w
  3968  0D32  1903               	btfsc	3,2
  3969  0D33  2D46               	goto	l2422
  3970  0D34  0A6D               	incf	___fladd@bexp^(0+128),w
  3971  0D35  1D03               	btfss	3,2
  3972  0D36  2D41               	goto	l2418
  3973  0D37  3000               	movlw	0
  3974  0D38  1683               	bsf	3,5	;RP0=1, select bank3
  3975  0D39  1703               	bsf	3,6	;RP1=1, select bank3
  3976  0D3A  0093               	movwf	(___fladd@b+3)^(0+384)
  3977  0D3B  3000               	movlw	0
  3978  0D3C  0092               	movwf	(___fladd@b+2)^(0+384)
  3979  0D3D  3000               	movlw	0
  3980  0D3E  0091               	movwf	(___fladd@b+1)^(0+384)
  3981  0D3F  3000               	movlw	0
  3982  0D40  0090               	movwf	___fladd@b^(0+384)
  3983  0D41                     l2418:	
  3984  0D41  1683               	bsf	3,5	;RP0=1, select bank3
  3985  0D42  1703               	bsf	3,6	;RP1=1, select bank3
  3986  0D43  1792               	bsf	(___fladd@b^(0+384)+2),7
  3987  0D44  0193               	clrf	(___fladd@b^(0+384)+3)
  3988  0D45  2D50               	goto	l2424
  3989  0D46                     l2422:	
  3990  0D46  3000               	movlw	0
  3991  0D47  1683               	bsf	3,5	;RP0=1, select bank3
  3992  0D48  1703               	bsf	3,6	;RP1=1, select bank3
  3993  0D49  0093               	movwf	(___fladd@b+3)^(0+384)
  3994  0D4A  3000               	movlw	0
  3995  0D4B  0092               	movwf	(___fladd@b+2)^(0+384)
  3996  0D4C  3000               	movlw	0
  3997  0D4D  0091               	movwf	(___fladd@b+1)^(0+384)
  3998  0D4E  3000               	movlw	0
  3999  0D4F  0090               	movwf	___fladd@b^(0+384)
  4000  0D50                     l2424:	
  4001  0D50  0817               	movf	(___fladd@a^(0+384)+3),w
  4002  0D51  3980               	andlw	128
  4003  0D52  0098               	movwf	??___fladd^(0+384)
  4004  0D53  0818               	movf	??___fladd^(0+384),w
  4005  0D54  1683               	bsf	3,5	;RP0=1, select bank1
  4006  0D55  1303               	bcf	3,6	;RP1=0, select bank1
  4007  0D56  00EC               	movwf	___fladd@aexp^(0+128)
  4008  0D57  086C               	movf	___fladd@aexp^(0+128),w
  4009  0D58  066B               	xorwf	___fladd@signs^(0+128),w
  4010  0D59  1D03               	btfss	3,2
  4011  0D5A  176B               	bsf	___fladd@signs^(0+128),6
  4012  0D5B  1683               	bsf	3,5	;RP0=1, select bank3
  4013  0D5C  1703               	bsf	3,6	;RP1=1, select bank3
  4014  0D5D  0817               	movf	(___fladd@a^(0+384)+3),w
  4015  0D5E  0098               	movwf	??___fladd^(0+384)
  4016  0D5F  0718               	addwf	??___fladd^(0+384),w
  4017  0D60  0099               	movwf	(??___fladd+1)^(0+384)
  4018  0D61  0819               	movf	(??___fladd+1)^(0+384),w
  4019  0D62  1683               	bsf	3,5	;RP0=1, select bank1
  4020  0D63  1303               	bcf	3,6	;RP1=0, select bank1
  4021  0D64  00EC               	movwf	___fladd@aexp^(0+128)
  4022  0D65  1683               	bsf	3,5	;RP0=1, select bank3
  4023  0D66  1703               	bsf	3,6	;RP1=1, select bank3
  4024  0D67  1F96               	btfss	(___fladd@a^(0+384)+2),7
  4025  0D68  2D6C               	goto	l2436
  4026  0D69  1683               	bsf	3,5	;RP0=1, select bank1
  4027  0D6A  1303               	bcf	3,6	;RP1=0, select bank1
  4028  0D6B  146C               	bsf	___fladd@aexp^(0+128),0
  4029  0D6C                     l2436:	
  4030  0D6C  1303               	bcf	3,6	;RP1=0, select bank1
  4031  0D6D  086C               	movf	___fladd@aexp^(0+128),w
  4032  0D6E  1903               	btfsc	3,2
  4033  0D6F  2D82               	goto	l2446
  4034  0D70  0A6C               	incf	___fladd@aexp^(0+128),w
  4035  0D71  1D03               	btfss	3,2
  4036  0D72  2D7D               	goto	l2442
  4037  0D73  3000               	movlw	0
  4038  0D74  1683               	bsf	3,5	;RP0=1, select bank3
  4039  0D75  1703               	bsf	3,6	;RP1=1, select bank3
  4040  0D76  0097               	movwf	(___fladd@a+3)^(0+384)
  4041  0D77  3000               	movlw	0
  4042  0D78  0096               	movwf	(___fladd@a+2)^(0+384)
  4043  0D79  3000               	movlw	0
  4044  0D7A  0095               	movwf	(___fladd@a+1)^(0+384)
  4045  0D7B  3000               	movlw	0
  4046  0D7C  0094               	movwf	___fladd@a^(0+384)
  4047  0D7D                     l2442:	
  4048  0D7D  1683               	bsf	3,5	;RP0=1, select bank3
  4049  0D7E  1703               	bsf	3,6	;RP1=1, select bank3
  4050  0D7F  1796               	bsf	(___fladd@a^(0+384)+2),7
  4051  0D80  0197               	clrf	(___fladd@a^(0+384)+3)
  4052  0D81  2D8C               	goto	l681
  4053  0D82                     l2446:	
  4054  0D82  3000               	movlw	0
  4055  0D83  1683               	bsf	3,5	;RP0=1, select bank3
  4056  0D84  1703               	bsf	3,6	;RP1=1, select bank3
  4057  0D85  0097               	movwf	(___fladd@a+3)^(0+384)
  4058  0D86  3000               	movlw	0
  4059  0D87  0096               	movwf	(___fladd@a+2)^(0+384)
  4060  0D88  3000               	movlw	0
  4061  0D89  0095               	movwf	(___fladd@a+1)^(0+384)
  4062  0D8A  3000               	movlw	0
  4063  0D8B  0094               	movwf	___fladd@a^(0+384)
  4064  0D8C                     l681:	
  4065  0D8C  1683               	bsf	3,5	;RP0=1, select bank1
  4066  0D8D  1303               	bcf	3,6	;RP1=0, select bank1
  4067  0D8E  086D               	movf	___fladd@bexp^(0+128),w
  4068  0D8F  026C               	subwf	___fladd@aexp^(0+128),w
  4069  0D90  1803               	skipnc
  4070  0D91  2E06               	goto	l2482
  4071  0D92  1F6B               	btfss	___fladd@signs^(0+128),6
  4072  0D93  2D9C               	goto	l2452
  4073  0D94  3080               	movlw	128
  4074  0D95  1683               	bsf	3,5	;RP0=1, select bank3
  4075  0D96  1703               	bsf	3,6	;RP1=1, select bank3
  4076  0D97  0098               	movwf	??___fladd^(0+384)
  4077  0D98  0818               	movf	??___fladd^(0+384),w
  4078  0D99  1683               	bsf	3,5	;RP0=1, select bank1
  4079  0D9A  1303               	bcf	3,6	;RP1=0, select bank1
  4080  0D9B  06EB               	xorwf	___fladd@signs^(0+128),f
  4081  0D9C                     l2452:	
  4082  0D9C  086D               	movf	___fladd@bexp^(0+128),w
  4083  0D9D  1683               	bsf	3,5	;RP0=1, select bank3
  4084  0D9E  1703               	bsf	3,6	;RP1=1, select bank3
  4085  0D9F  0098               	movwf	??___fladd^(0+384)
  4086  0DA0  0818               	movf	??___fladd^(0+384),w
  4087  0DA1  1683               	bsf	3,5	;RP0=1, select bank1
  4088  0DA2  1303               	bcf	3,6	;RP1=0, select bank1
  4089  0DA3  00EE               	movwf	___fladd@grs^(0+128)
  4090  0DA4  086C               	movf	___fladd@aexp^(0+128),w
  4091  0DA5  1683               	bsf	3,5	;RP0=1, select bank3
  4092  0DA6  1703               	bsf	3,6	;RP1=1, select bank3
  4093  0DA7  0098               	movwf	??___fladd^(0+384)
  4094  0DA8  0818               	movf	??___fladd^(0+384),w
  4095  0DA9  1683               	bsf	3,5	;RP0=1, select bank1
  4096  0DAA  1303               	bcf	3,6	;RP1=0, select bank1
  4097  0DAB  00ED               	movwf	___fladd@bexp^(0+128)
  4098  0DAC  086E               	movf	___fladd@grs^(0+128),w
  4099  0DAD  1683               	bsf	3,5	;RP0=1, select bank3
  4100  0DAE  1703               	bsf	3,6	;RP1=1, select bank3
  4101  0DAF  0098               	movwf	??___fladd^(0+384)
  4102  0DB0  0818               	movf	??___fladd^(0+384),w
  4103  0DB1  1683               	bsf	3,5	;RP0=1, select bank1
  4104  0DB2  1303               	bcf	3,6	;RP1=0, select bank1
  4105  0DB3  00EC               	movwf	___fladd@aexp^(0+128)
  4106  0DB4  1683               	bsf	3,5	;RP0=1, select bank3
  4107  0DB5  1703               	bsf	3,6	;RP1=1, select bank3
  4108  0DB6  0810               	movf	___fladd@b^(0+384),w
  4109  0DB7  0098               	movwf	??___fladd^(0+384)
  4110  0DB8  0818               	movf	??___fladd^(0+384),w
  4111  0DB9  1683               	bsf	3,5	;RP0=1, select bank1
  4112  0DBA  1303               	bcf	3,6	;RP1=0, select bank1
  4113  0DBB  00EE               	movwf	___fladd@grs^(0+128)
  4114  0DBC  1683               	bsf	3,5	;RP0=1, select bank3
  4115  0DBD  1703               	bsf	3,6	;RP1=1, select bank3
  4116  0DBE  0814               	movf	___fladd@a^(0+384),w
  4117  0DBF  0098               	movwf	??___fladd^(0+384)
  4118  0DC0  0818               	movf	??___fladd^(0+384),w
  4119  0DC1  0090               	movwf	___fladd@b^(0+384)
  4120  0DC2  1683               	bsf	3,5	;RP0=1, select bank1
  4121  0DC3  1303               	bcf	3,6	;RP1=0, select bank1
  4122  0DC4  086E               	movf	___fladd@grs^(0+128),w
  4123  0DC5  1683               	bsf	3,5	;RP0=1, select bank3
  4124  0DC6  1703               	bsf	3,6	;RP1=1, select bank3
  4125  0DC7  0098               	movwf	??___fladd^(0+384)
  4126  0DC8  0818               	movf	??___fladd^(0+384),w
  4127  0DC9  0094               	movwf	___fladd@a^(0+384)
  4128  0DCA  0811               	movf	(___fladd@b^(0+384)+1),w
  4129  0DCB  0098               	movwf	??___fladd^(0+384)
  4130  0DCC  0818               	movf	??___fladd^(0+384),w
  4131  0DCD  1683               	bsf	3,5	;RP0=1, select bank1
  4132  0DCE  1303               	bcf	3,6	;RP1=0, select bank1
  4133  0DCF  00EE               	movwf	___fladd@grs^(0+128)
  4134  0DD0  1683               	bsf	3,5	;RP0=1, select bank3
  4135  0DD1  1703               	bsf	3,6	;RP1=1, select bank3
  4136  0DD2  0815               	movf	(___fladd@a^(0+384)+1),w
  4137  0DD3  0098               	movwf	??___fladd^(0+384)
  4138  0DD4  0818               	movf	??___fladd^(0+384),w
  4139  0DD5  0091               	movwf	(___fladd@b^(0+384)+1)
  4140  0DD6  1683               	bsf	3,5	;RP0=1, select bank1
  4141  0DD7  1303               	bcf	3,6	;RP1=0, select bank1
  4142  0DD8  086E               	movf	___fladd@grs^(0+128),w
  4143  0DD9  1683               	bsf	3,5	;RP0=1, select bank3
  4144  0DDA  1703               	bsf	3,6	;RP1=1, select bank3
  4145  0DDB  0098               	movwf	??___fladd^(0+384)
  4146  0DDC  0818               	movf	??___fladd^(0+384),w
  4147  0DDD  0095               	movwf	(___fladd@a^(0+384)+1)
  4148  0DDE  0812               	movf	(___fladd@b^(0+384)+2),w
  4149  0DDF  0098               	movwf	??___fladd^(0+384)
  4150  0DE0  0818               	movf	??___fladd^(0+384),w
  4151  0DE1  1683               	bsf	3,5	;RP0=1, select bank1
  4152  0DE2  1303               	bcf	3,6	;RP1=0, select bank1
  4153  0DE3  00EE               	movwf	___fladd@grs^(0+128)
  4154  0DE4  1683               	bsf	3,5	;RP0=1, select bank3
  4155  0DE5  1703               	bsf	3,6	;RP1=1, select bank3
  4156  0DE6  0816               	movf	(___fladd@a^(0+384)+2),w
  4157  0DE7  0098               	movwf	??___fladd^(0+384)
  4158  0DE8  0818               	movf	??___fladd^(0+384),w
  4159  0DE9  0092               	movwf	(___fladd@b^(0+384)+2)
  4160  0DEA  1683               	bsf	3,5	;RP0=1, select bank1
  4161  0DEB  1303               	bcf	3,6	;RP1=0, select bank1
  4162  0DEC  086E               	movf	___fladd@grs^(0+128),w
  4163  0DED  1683               	bsf	3,5	;RP0=1, select bank3
  4164  0DEE  1703               	bsf	3,6	;RP1=1, select bank3
  4165  0DEF  0098               	movwf	??___fladd^(0+384)
  4166  0DF0  0818               	movf	??___fladd^(0+384),w
  4167  0DF1  0096               	movwf	(___fladd@a^(0+384)+2)
  4168  0DF2  0813               	movf	(___fladd@b^(0+384)+3),w
  4169  0DF3  0098               	movwf	??___fladd^(0+384)
  4170  0DF4  0818               	movf	??___fladd^(0+384),w
  4171  0DF5  1683               	bsf	3,5	;RP0=1, select bank1
  4172  0DF6  1303               	bcf	3,6	;RP1=0, select bank1
  4173  0DF7  00EE               	movwf	___fladd@grs^(0+128)
  4174  0DF8  1683               	bsf	3,5	;RP0=1, select bank3
  4175  0DF9  1703               	bsf	3,6	;RP1=1, select bank3
  4176  0DFA  0817               	movf	(___fladd@a^(0+384)+3),w
  4177  0DFB  0098               	movwf	??___fladd^(0+384)
  4178  0DFC  0818               	movf	??___fladd^(0+384),w
  4179  0DFD  0093               	movwf	(___fladd@b^(0+384)+3)
  4180  0DFE  1683               	bsf	3,5	;RP0=1, select bank1
  4181  0DFF  1303               	bcf	3,6	;RP1=0, select bank1
  4182  0E00  086E               	movf	___fladd@grs^(0+128),w
  4183  0E01  1683               	bsf	3,5	;RP0=1, select bank3
  4184  0E02  1703               	bsf	3,6	;RP1=1, select bank3
  4185  0E03  0098               	movwf	??___fladd^(0+384)
  4186  0E04  0818               	movf	??___fladd^(0+384),w
  4187  0E05  0097               	movwf	(___fladd@a^(0+384)+3)
  4188  0E06                     l2482:	
  4189  0E06  1303               	bcf	3,6	;RP1=0, select bank1
  4190  0E07  01EE               	clrf	___fladd@grs^(0+128)
  4191  0E08  086C               	movf	___fladd@aexp^(0+128),w
  4192  0E09  1683               	bsf	3,5	;RP0=1, select bank3
  4193  0E0A  1703               	bsf	3,6	;RP1=1, select bank3
  4194  0E0B  0098               	movwf	??___fladd^(0+384)
  4195  0E0C  0199               	clrf	(??___fladd^(0+384)+1)
  4196  0E0D  0819               	movf	(??___fladd+1)^(0+384),w
  4197  0E0E  009B               	movwf	((??___fladd+2)^(0+384)+1)
  4198  0E0F  1683               	bsf	3,5	;RP0=1, select bank1
  4199  0E10  1303               	bcf	3,6	;RP1=0, select bank1
  4200  0E11  086D               	movf	___fladd@bexp^(0+128),w
  4201  0E12  1683               	bsf	3,5	;RP0=1, select bank3
  4202  0E13  1703               	bsf	3,6	;RP1=1, select bank3
  4203  0E14  0218               	subwf	??___fladd^(0+384),w
  4204  0E15  009A               	movwf	(??___fladd+2)^(0+384)
  4205  0E16  1C03               	skipc
  4206  0E17  039B               	decf	((??___fladd+2)^(0+384)+1),f
  4207  0E18  081B               	movf	(??___fladd+3)^(0+384),w
  4208  0E19  3A80               	xorlw	128
  4209  0E1A  00FF               	movwf	127
  4210  0E1B  3080               	movlw	128
  4211  0E1C  027F               	subwf	127,w
  4212  0E1D  1D03               	skipz
  4213  0E1E  2E21               	goto	u3305
  4214  0E1F  301A               	movlw	26
  4215  0E20  021A               	subwf	(??___fladd+2)^(0+384),w
  4216  0E21                     u3305:	
  4217  0E21  1C03               	skipc
  4218  0E22  2E71               	goto	l2500
  4219  0E23  1683               	bsf	3,5	;RP0=1, select bank3
  4220  0E24  1703               	bsf	3,6	;RP1=1, select bank3
  4221  0E25  0813               	movf	(___fladd@b+3)^(0+384),w
  4222  0E26  0412               	iorwf	(___fladd@b+2)^(0+384),w
  4223  0E27  0411               	iorwf	(___fladd@b+1)^(0+384),w
  4224  0E28  0410               	iorwf	___fladd@b^(0+384),w
  4225  0E29  1903               	btfsc	3,2
  4226  0E2A  2E2D               	goto	u3310
  4227  0E2B  3001               	movlw	1
  4228  0E2C  2E2E               	goto	u3320
  4229  0E2D                     u3310:	
  4230  0E2D  3000               	movlw	0
  4231  0E2E                     u3320:	
  4232  0E2E  0098               	movwf	??___fladd^(0+384)
  4233  0E2F  0818               	movf	??___fladd^(0+384),w
  4234  0E30  1683               	bsf	3,5	;RP0=1, select bank1
  4235  0E31  1303               	bcf	3,6	;RP1=0, select bank1
  4236  0E32  00EE               	movwf	___fladd@grs^(0+128)
  4237  0E33  3000               	movlw	0
  4238  0E34  1683               	bsf	3,5	;RP0=1, select bank3
  4239  0E35  1703               	bsf	3,6	;RP1=1, select bank3
  4240  0E36  0093               	movwf	(___fladd@b+3)^(0+384)
  4241  0E37  3000               	movlw	0
  4242  0E38  0092               	movwf	(___fladd@b+2)^(0+384)
  4243  0E39  3000               	movlw	0
  4244  0E3A  0091               	movwf	(___fladd@b+1)^(0+384)
  4245  0E3B  3000               	movlw	0
  4246  0E3C  0090               	movwf	___fladd@b^(0+384)
  4247  0E3D  1683               	bsf	3,5	;RP0=1, select bank1
  4248  0E3E  1303               	bcf	3,6	;RP1=0, select bank1
  4249  0E3F  086C               	movf	___fladd@aexp^(0+128),w
  4250  0E40  1683               	bsf	3,5	;RP0=1, select bank3
  4251  0E41  1703               	bsf	3,6	;RP1=1, select bank3
  4252  0E42  0098               	movwf	??___fladd^(0+384)
  4253  0E43  0818               	movf	??___fladd^(0+384),w
  4254  0E44  1683               	bsf	3,5	;RP0=1, select bank1
  4255  0E45  1303               	bcf	3,6	;RP1=0, select bank1
  4256  0E46  00ED               	movwf	___fladd@bexp^(0+128)
  4257  0E47  2E77               	goto	l685
  4258  0E48                     l687:	
  4259  0E48  1C6E               	btfss	___fladd@grs^(0+128),0
  4260  0E49  2E57               	goto	l2490
  4261  0E4A  086E               	movf	___fladd@grs^(0+128),w
  4262  0E4B  1683               	bsf	3,5	;RP0=1, select bank3
  4263  0E4C  1703               	bsf	3,6	;RP1=1, select bank3
  4264  0E4D  0098               	movwf	??___fladd^(0+384)
  4265  0E4E  1003               	clrc
  4266  0E4F  0C18               	rrf	??___fladd^(0+384),w
  4267  0E50  3801               	iorlw	1
  4268  0E51  0099               	movwf	(??___fladd+1)^(0+384)
  4269  0E52  0819               	movf	(??___fladd+1)^(0+384),w
  4270  0E53  1683               	bsf	3,5	;RP0=1, select bank1
  4271  0E54  1303               	bcf	3,6	;RP1=0, select bank1
  4272  0E55  00EE               	movwf	___fladd@grs^(0+128)
  4273  0E56  2E59               	goto	l2492
  4274  0E57                     l2490:	
  4275  0E57  1003               	clrc
  4276  0E58  0CEE               	rrf	___fladd@grs^(0+128),f
  4277  0E59                     l2492:	
  4278  0E59  1683               	bsf	3,5	;RP0=1, select bank3
  4279  0E5A  1703               	bsf	3,6	;RP1=1, select bank3
  4280  0E5B  1C10               	btfss	___fladd@b^(0+384),0
  4281  0E5C  2E60               	goto	l2496
  4282  0E5D  1683               	bsf	3,5	;RP0=1, select bank1
  4283  0E5E  1303               	bcf	3,6	;RP1=0, select bank1
  4284  0E5F  17EE               	bsf	___fladd@grs^(0+128),7
  4285  0E60                     l2496:	
  4286  0E60  3001               	movlw	1
  4287  0E61  1683               	bsf	3,5	;RP0=1, select bank3
  4288  0E62  1703               	bsf	3,6	;RP1=1, select bank3
  4289  0E63  0098               	movwf	??___fladd^(0+384)
  4290  0E64                     u3355:	
  4291  0E64  0D13               	rlf	(___fladd@b+3)^(0+384),w
  4292  0E65  0C93               	rrf	(___fladd@b+3)^(0+384),f
  4293  0E66  0C92               	rrf	(___fladd@b+2)^(0+384),f
  4294  0E67  0C91               	rrf	(___fladd@b+1)^(0+384),f
  4295  0E68  0C90               	rrf	___fladd@b^(0+384),f
  4296  0E69  0B98               	decfsz	(??___fladd^(0+384))& (0+127),f
  4297  0E6A  2E64               	goto	u3355
  4298  0E6B  3001               	movlw	1
  4299  0E6C  0098               	movwf	??___fladd^(0+384)
  4300  0E6D  0818               	movf	??___fladd^(0+384),w
  4301  0E6E  1683               	bsf	3,5	;RP0=1, select bank1
  4302  0E6F  1303               	bcf	3,6	;RP1=0, select bank1
  4303  0E70  07ED               	addwf	___fladd@bexp^(0+128),f
  4304  0E71                     l2500:	
  4305  0E71  1683               	bsf	3,5	;RP0=1, select bank1
  4306  0E72  1303               	bcf	3,6	;RP1=0, select bank1
  4307  0E73  086C               	movf	___fladd@aexp^(0+128),w
  4308  0E74  026D               	subwf	___fladd@bexp^(0+128),w
  4309  0E75  1C03               	skipc
  4310  0E76  2E48               	goto	l687
  4311  0E77                     l685:	
  4312  0E77  1B6B               	btfsc	___fladd@signs^(0+128),6
  4313  0E78  2ECB               	goto	l2526
  4314  0E79  086D               	movf	___fladd@bexp^(0+128),w
  4315  0E7A  1D03               	btfss	3,2
  4316  0E7B  2E87               	goto	l2508
  4317  0E7C  3000               	movlw	0
  4318  0E7D  1683               	bsf	3,5	;RP0=1, select bank3
  4319  0E7E  1703               	bsf	3,6	;RP1=1, select bank3
  4320  0E7F  0093               	movwf	(?___fladd+3)^(0+384)
  4321  0E80  3000               	movlw	0
  4322  0E81  0092               	movwf	(?___fladd+2)^(0+384)
  4323  0E82  3000               	movlw	0
  4324  0E83  0091               	movwf	(?___fladd+1)^(0+384)
  4325  0E84  3000               	movlw	0
  4326  0E85  0090               	movwf	?___fladd^(0+384)
  4327  0E86  0008               	return
  4328  0E87                     l2508:	
  4329  0E87  1683               	bsf	3,5	;RP0=1, select bank3
  4330  0E88  1703               	bsf	3,6	;RP1=1, select bank3
  4331  0E89  0814               	movf	___fladd@a^(0+384),w
  4332  0E8A  0790               	addwf	___fladd@b^(0+384),f
  4333  0E8B  0815               	movf	(___fladd@a+1)^(0+384),w
  4334  0E8C  1103               	clrz
  4335  0E8D  1803               	skipnc
  4336  0E8E  3E01               	addlw	1
  4337  0E8F  1D03               	btfss	3,2
  4338  0E90  0791               	addwf	(___fladd@b+1)^(0+384),f
  4339  0E91  0816               	movf	(___fladd@a+2)^(0+384),w
  4340  0E92  1103               	clrz
  4341  0E93  1803               	skipnc
  4342  0E94  3E01               	addlw	1
  4343  0E95  1D03               	btfss	3,2
  4344  0E96  0792               	addwf	(___fladd@b+2)^(0+384),f
  4345  0E97  0817               	movf	(___fladd@a+3)^(0+384),w
  4346  0E98  1103               	clrz
  4347  0E99  1803               	skipnc
  4348  0E9A  3E01               	addlw	1
  4349  0E9B  1D03               	btfss	3,2
  4350  0E9C  0793               	addwf	(___fladd@b+3)^(0+384),f
  4351  0E9D  1C13               	btfss	(___fladd@b+3)^(0+384),0
  4352  0E9E  2F81               	goto	l2560
  4353  0E9F  1683               	bsf	3,5	;RP0=1, select bank1
  4354  0EA0  1303               	bcf	3,6	;RP1=0, select bank1
  4355  0EA1  1C6E               	btfss	___fladd@grs^(0+128),0
  4356  0EA2  2EB0               	goto	l2516
  4357  0EA3  086E               	movf	___fladd@grs^(0+128),w
  4358  0EA4  1683               	bsf	3,5	;RP0=1, select bank3
  4359  0EA5  1703               	bsf	3,6	;RP1=1, select bank3
  4360  0EA6  0098               	movwf	??___fladd^(0+384)
  4361  0EA7  1003               	clrc
  4362  0EA8  0C18               	rrf	??___fladd^(0+384),w
  4363  0EA9  3801               	iorlw	1
  4364  0EAA  0099               	movwf	(??___fladd+1)^(0+384)
  4365  0EAB  0819               	movf	(??___fladd+1)^(0+384),w
  4366  0EAC  1683               	bsf	3,5	;RP0=1, select bank1
  4367  0EAD  1303               	bcf	3,6	;RP1=0, select bank1
  4368  0EAE  00EE               	movwf	___fladd@grs^(0+128)
  4369  0EAF  2EB2               	goto	l2518
  4370  0EB0                     l2516:	
  4371  0EB0  1003               	clrc
  4372  0EB1  0CEE               	rrf	___fladd@grs^(0+128),f
  4373  0EB2                     l2518:	
  4374  0EB2  1683               	bsf	3,5	;RP0=1, select bank3
  4375  0EB3  1703               	bsf	3,6	;RP1=1, select bank3
  4376  0EB4  1C10               	btfss	___fladd@b^(0+384),0
  4377  0EB5  2EB9               	goto	l2522
  4378  0EB6  1683               	bsf	3,5	;RP0=1, select bank1
  4379  0EB7  1303               	bcf	3,6	;RP1=0, select bank1
  4380  0EB8  17EE               	bsf	___fladd@grs^(0+128),7
  4381  0EB9                     l2522:	
  4382  0EB9  3001               	movlw	1
  4383  0EBA  1683               	bsf	3,5	;RP0=1, select bank3
  4384  0EBB  1703               	bsf	3,6	;RP1=1, select bank3
  4385  0EBC  0098               	movwf	??___fladd^(0+384)
  4386  0EBD                     u3435:	
  4387  0EBD  0D13               	rlf	(___fladd@b+3)^(0+384),w
  4388  0EBE  0C93               	rrf	(___fladd@b+3)^(0+384),f
  4389  0EBF  0C92               	rrf	(___fladd@b+2)^(0+384),f
  4390  0EC0  0C91               	rrf	(___fladd@b+1)^(0+384),f
  4391  0EC1  0C90               	rrf	___fladd@b^(0+384),f
  4392  0EC2  0B98               	decfsz	(??___fladd^(0+384))& (0+127),f
  4393  0EC3  2EBD               	goto	u3435
  4394  0EC4  3001               	movlw	1
  4395  0EC5  0098               	movwf	??___fladd^(0+384)
  4396  0EC6  0818               	movf	??___fladd^(0+384),w
  4397  0EC7  1683               	bsf	3,5	;RP0=1, select bank1
  4398  0EC8  1303               	bcf	3,6	;RP1=0, select bank1
  4399  0EC9  07ED               	addwf	___fladd@bexp^(0+128),f
  4400  0ECA  2F81               	goto	l2560
  4401  0ECB                     l2526:	
  4402  0ECB  1683               	bsf	3,5	;RP0=1, select bank3
  4403  0ECC  1703               	bsf	3,6	;RP1=1, select bank3
  4404  0ECD  0813               	movf	(___fladd@b+3)^(0+384),w
  4405  0ECE  3A80               	xorlw	128
  4406  0ECF  00FF               	movwf	127
  4407  0ED0  0817               	movf	(___fladd@a+3)^(0+384),w
  4408  0ED1  3A80               	xorlw	128
  4409  0ED2  027F               	subwf	127,w
  4410  0ED3  1D03               	skipz
  4411  0ED4  2EDF               	goto	u3443
  4412  0ED5  0816               	movf	(___fladd@a+2)^(0+384),w
  4413  0ED6  0212               	subwf	(___fladd@b+2)^(0+384),w
  4414  0ED7  1D03               	skipz
  4415  0ED8  2EDF               	goto	u3443
  4416  0ED9  0815               	movf	(___fladd@a+1)^(0+384),w
  4417  0EDA  0211               	subwf	(___fladd@b+1)^(0+384),w
  4418  0EDB  1D03               	skipz
  4419  0EDC  2EDF               	goto	u3443
  4420  0EDD  0814               	movf	___fladd@a^(0+384),w
  4421  0EDE  0210               	subwf	___fladd@b^(0+384),w
  4422  0EDF                     u3443:	
  4423  0EDF  1803               	skipnc
  4424  0EE0  2F3B               	goto	l2536
  4425  0EE1  30FF               	movlw	255
  4426  0EE2  0098               	movwf	??___fladd^(0+384)
  4427  0EE3  30FF               	movlw	255
  4428  0EE4  0099               	movwf	(??___fladd^(0+384)+1)
  4429  0EE5  30FF               	movlw	255
  4430  0EE6  009A               	movwf	(??___fladd^(0+384)+2)
  4431  0EE7  30FF               	movlw	255
  4432  0EE8  009B               	movwf	(??___fladd^(0+384)+3)
  4433  0EE9  0814               	movf	___fladd@a^(0+384),w
  4434  0EEA  009C               	movwf	(??___fladd+4)^(0+384)
  4435  0EEB  0815               	movf	(___fladd@a+1)^(0+384),w
  4436  0EEC  009D               	movwf	((??___fladd+4)^(0+384)+1)
  4437  0EED  0816               	movf	(___fladd@a+2)^(0+384),w
  4438  0EEE  009E               	movwf	((??___fladd+4)^(0+384)+2)
  4439  0EEF  0817               	movf	(___fladd@a+3)^(0+384),w
  4440  0EF0  009F               	movwf	((??___fladd+4)^(0+384)+3)
  4441  0EF1  0810               	movf	___fladd@b^(0+384),w
  4442  0EF2  029C               	subwf	(??___fladd+4)^(0+384),f
  4443  0EF3  0811               	movf	(___fladd@b+1)^(0+384),w
  4444  0EF4  1C03               	skipc
  4445  0EF5  0F11               	incfsz	(___fladd@b+1)^(0+384),w
  4446  0EF6  2EF8               	goto	u3451
  4447  0EF7  2EF9               	goto	u3452
  4448  0EF8                     u3451:	
  4449  0EF8  029D               	subwf	((??___fladd+4)^(0+384)+1),f
  4450  0EF9                     u3452:	
  4451  0EF9  0812               	movf	(___fladd@b+2)^(0+384),w
  4452  0EFA  1C03               	skipc
  4453  0EFB  0F12               	incfsz	(___fladd@b+2)^(0+384),w
  4454  0EFC  2EFE               	goto	u3453
  4455  0EFD  2EFF               	goto	u3454
  4456  0EFE                     u3453:	
  4457  0EFE  029E               	subwf	((??___fladd+4)^(0+384)+2),f
  4458  0EFF                     u3454:	
  4459  0EFF  0813               	movf	(___fladd@b+3)^(0+384),w
  4460  0F00  1C03               	skipc
  4461  0F01  0F13               	incfsz	(___fladd@b+3)^(0+384),w
  4462  0F02  2F04               	goto	u3455
  4463  0F03  2F05               	goto	u3456
  4464  0F04                     u3455:	
  4465  0F04  029F               	subwf	((??___fladd+4)^(0+384)+3),f
  4466  0F05                     u3456:	
  4467  0F05  081C               	movf	(??___fladd+4)^(0+384),w
  4468  0F06  0798               	addwf	??___fladd^(0+384),f
  4469  0F07  081D               	movf	(??___fladd+5)^(0+384),w
  4470  0F08  1803               	skipnc
  4471  0F09  0F1D               	incfsz	(??___fladd+5)^(0+384),w
  4472  0F0A  2F0C               	goto	u3460
  4473  0F0B  2F0D               	goto	u3461
  4474  0F0C                     u3460:	
  4475  0F0C  0799               	addwf	(??___fladd^(0+384)+1),f
  4476  0F0D                     u3461:	
  4477  0F0D  081E               	movf	(??___fladd+6)^(0+384),w
  4478  0F0E  1803               	skipnc
  4479  0F0F  0F1E               	incfsz	(??___fladd+6)^(0+384),w
  4480  0F10  2F12               	goto	u3462
  4481  0F11  2F13               	goto	u3463
  4482  0F12                     u3462:	
  4483  0F12  079A               	addwf	(??___fladd^(0+384)+2),f
  4484  0F13                     u3463:	
  4485  0F13  081F               	movf	(??___fladd+7)^(0+384),w
  4486  0F14  1803               	skipnc
  4487  0F15  0A1F               	incf	(??___fladd+7)^(0+384),w
  4488  0F16  079B               	addwf	(??___fladd^(0+384)+3),f
  4489  0F17  081B               	movf	(??___fladd+3)^(0+384),w
  4490  0F18  0093               	movwf	(___fladd@b+3)^(0+384)
  4491  0F19  081A               	movf	(??___fladd+2)^(0+384),w
  4492  0F1A  0092               	movwf	(___fladd@b+2)^(0+384)
  4493  0F1B  0819               	movf	(??___fladd+1)^(0+384),w
  4494  0F1C  0091               	movwf	(___fladd@b+1)^(0+384)
  4495  0F1D  0818               	movf	??___fladd^(0+384),w
  4496  0F1E  0090               	movwf	___fladd@b^(0+384)
  4497  0F1F  3080               	movlw	128
  4498  0F20  0098               	movwf	??___fladd^(0+384)
  4499  0F21  0818               	movf	??___fladd^(0+384),w
  4500  0F22  1683               	bsf	3,5	;RP0=1, select bank1
  4501  0F23  1303               	bcf	3,6	;RP1=0, select bank1
  4502  0F24  06EB               	xorwf	___fladd@signs^(0+128),f
  4503  0F25  09EE               	comf	___fladd@grs^(0+128),f
  4504  0F26  0AEE               	incf	___fladd@grs^(0+128),f
  4505  0F27  086E               	movf	___fladd@grs^(0+128),w
  4506  0F28  1D03               	btfss	3,2
  4507  0F29  2F49               	goto	l702
  4508  0F2A  3001               	movlw	1
  4509  0F2B  1683               	bsf	3,5	;RP0=1, select bank3
  4510  0F2C  1703               	bsf	3,6	;RP1=1, select bank3
  4511  0F2D  0790               	addwf	___fladd@b^(0+384),f
  4512  0F2E  3000               	movlw	0
  4513  0F2F  1803               	skipnc
  4514  0F30  3001               	movlw	1
  4515  0F31  0791               	addwf	(___fladd@b+1)^(0+384),f
  4516  0F32  3000               	movlw	0
  4517  0F33  1803               	skipnc
  4518  0F34  3001               	movlw	1
  4519  0F35  0792               	addwf	(___fladd@b+2)^(0+384),f
  4520  0F36  3000               	movlw	0
  4521  0F37  1803               	skipnc
  4522  0F38  3001               	movlw	1
  4523  0F39  0793               	addwf	(___fladd@b+3)^(0+384),f
  4524  0F3A  2F49               	goto	l702
  4525  0F3B                     l2536:	
  4526  0F3B  0814               	movf	___fladd@a^(0+384),w
  4527  0F3C  0290               	subwf	___fladd@b^(0+384),f
  4528  0F3D  0815               	movf	(___fladd@a+1)^(0+384),w
  4529  0F3E  1C03               	skipc
  4530  0F3F  0F15               	incfsz	(___fladd@a+1)^(0+384),w
  4531  0F40  0291               	subwf	(___fladd@b+1)^(0+384),f
  4532  0F41  0816               	movf	(___fladd@a+2)^(0+384),w
  4533  0F42  1C03               	skipc
  4534  0F43  0F16               	incfsz	(___fladd@a+2)^(0+384),w
  4535  0F44  0292               	subwf	(___fladd@b+2)^(0+384),f
  4536  0F45  0817               	movf	(___fladd@a+3)^(0+384),w
  4537  0F46  1C03               	skipc
  4538  0F47  0F17               	incfsz	(___fladd@a+3)^(0+384),w
  4539  0F48  0293               	subwf	(___fladd@b+3)^(0+384),f
  4540  0F49                     l702:	
  4541  0F49  1683               	bsf	3,5	;RP0=1, select bank3
  4542  0F4A  1703               	bsf	3,6	;RP1=1, select bank3
  4543  0F4B  0813               	movf	(___fladd@b+3)^(0+384),w
  4544  0F4C  0412               	iorwf	(___fladd@b+2)^(0+384),w
  4545  0F4D  0411               	iorwf	(___fladd@b+1)^(0+384),w
  4546  0F4E  0410               	iorwf	___fladd@b^(0+384),w
  4547  0F4F  1D03               	skipz
  4548  0F50  2F7D               	goto	l2558
  4549  0F51  1683               	bsf	3,5	;RP0=1, select bank1
  4550  0F52  1303               	bcf	3,6	;RP1=0, select bank1
  4551  0F53  086E               	movf	___fladd@grs^(0+128),w
  4552  0F54  1D03               	btfss	3,2
  4553  0F55  2F7D               	goto	l2558
  4554  0F56  3000               	movlw	0
  4555  0F57  1683               	bsf	3,5	;RP0=1, select bank3
  4556  0F58  1703               	bsf	3,6	;RP1=1, select bank3
  4557  0F59  0093               	movwf	(?___fladd+3)^(0+384)
  4558  0F5A  3000               	movlw	0
  4559  0F5B  0092               	movwf	(?___fladd+2)^(0+384)
  4560  0F5C  3000               	movlw	0
  4561  0F5D  0091               	movwf	(?___fladd+1)^(0+384)
  4562  0F5E  3000               	movlw	0
  4563  0F5F  0090               	movwf	?___fladd^(0+384)
  4564  0F60  0008               	return
  4565  0F61                     l2544:	
  4566  0F61  3001               	movlw	1
  4567  0F62  0098               	movwf	??___fladd^(0+384)
  4568  0F63                     u3505:	
  4569  0F63  1003               	clrc
  4570  0F64  0D90               	rlf	___fladd@b^(0+384),f
  4571  0F65  0D91               	rlf	(___fladd@b+1)^(0+384),f
  4572  0F66  0D92               	rlf	(___fladd@b+2)^(0+384),f
  4573  0F67  0D93               	rlf	(___fladd@b+3)^(0+384),f
  4574  0F68  0B98               	decfsz	??___fladd^(0+384),f
  4575  0F69  2F63               	goto	u3505
  4576  0F6A  1683               	bsf	3,5	;RP0=1, select bank1
  4577  0F6B  1303               	bcf	3,6	;RP1=0, select bank1
  4578  0F6C  1FEE               	btfss	___fladd@grs^(0+128),7
  4579  0F6D  2F71               	goto	l706
  4580  0F6E  1683               	bsf	3,5	;RP0=1, select bank3
  4581  0F6F  1703               	bsf	3,6	;RP1=1, select bank3
  4582  0F70  1410               	bsf	___fladd@b^(0+384),0
  4583  0F71                     l706:	
  4584  0F71  1303               	bcf	3,6	;RP1=0, select bank1
  4585  0F72  1C6E               	btfss	___fladd@grs^(0+128),0
  4586  0F73  2F76               	goto	l2552
  4587  0F74  1403               	setc
  4588  0F75  2F77               	goto	L1
  4589  0F76                     l2552:	
  4590  0F76  1003               	clrc
  4591  0F77                     L1:	
  4592  0F77  0DEE               	rlf	___fladd@grs^(0+128),f
  4593  0F78  086D               	movf	___fladd@bexp^(0+128),w
  4594  0F79  1903               	btfsc	3,2
  4595  0F7A  2F7D               	goto	l2558
  4596  0F7B  3001               	movlw	1
  4597  0F7C  02ED               	subwf	___fladd@bexp^(0+128),f
  4598  0F7D                     l2558:	
  4599  0F7D  1683               	bsf	3,5	;RP0=1, select bank3
  4600  0F7E  1703               	bsf	3,6	;RP1=1, select bank3
  4601  0F7F  1F92               	btfss	(___fladd@b+2)^(0+384),7
  4602  0F80  2F61               	goto	l2544
  4603  0F81                     l2560:	
  4604  0F81  1303               	bcf	3,6	;RP1=0, select bank1
  4605  0F82  01EC               	clrf	___fladd@aexp^(0+128)
  4606  0F83  1FEE               	btfss	___fladd@grs^(0+128),7
  4607  0F84  2F90               	goto	l2570
  4608  0F85  086E               	movf	___fladd@grs^(0+128),w
  4609  0F86  397F               	andlw	127
  4610  0F87  1D03               	btfss	3,2
  4611  0F88  2F8D               	goto	l2566
  4612  0F89  1683               	bsf	3,5	;RP0=1, select bank3
  4613  0F8A  1703               	bsf	3,6	;RP1=1, select bank3
  4614  0F8B  1C10               	btfss	___fladd@b^(0+384),0
  4615  0F8C  2F90               	goto	l2570
  4616  0F8D                     l2566:	
  4617  0F8D  1303               	bcf	3,6	;RP1=0, select bank1
  4618  0F8E  01EC               	clrf	___fladd@aexp^(0+128)
  4619  0F8F  0AEC               	incf	___fladd@aexp^(0+128),f
  4620  0F90                     l2570:	
  4621  0F90  1303               	bcf	3,6	;RP1=0, select bank1
  4622  0F91  086C               	movf	___fladd@aexp^(0+128),w
  4623  0F92  1903               	btfsc	3,2
  4624  0F93  2FCC               	goto	l715
  4625  0F94  3001               	movlw	1
  4626  0F95  1683               	bsf	3,5	;RP0=1, select bank3
  4627  0F96  1703               	bsf	3,6	;RP1=1, select bank3
  4628  0F97  0790               	addwf	___fladd@b^(0+384),f
  4629  0F98  3000               	movlw	0
  4630  0F99  1803               	skipnc
  4631  0F9A  3001               	movlw	1
  4632  0F9B  0791               	addwf	(___fladd@b+1)^(0+384),f
  4633  0F9C  3000               	movlw	0
  4634  0F9D  1803               	skipnc
  4635  0F9E  3001               	movlw	1
  4636  0F9F  0792               	addwf	(___fladd@b+2)^(0+384),f
  4637  0FA0  3000               	movlw	0
  4638  0FA1  1803               	skipnc
  4639  0FA2  3001               	movlw	1
  4640  0FA3  0793               	addwf	(___fladd@b+3)^(0+384),f
  4641  0FA4  1C13               	btfss	(___fladd@b+3)^(0+384),0
  4642  0FA5  2FCC               	goto	l715
  4643  0FA6  0810               	movf	___fladd@b^(0+384),w
  4644  0FA7  0098               	movwf	??___fladd^(0+384)
  4645  0FA8  0811               	movf	(___fladd@b+1)^(0+384),w
  4646  0FA9  0099               	movwf	(??___fladd^(0+384)+1)
  4647  0FAA  0812               	movf	(___fladd@b+2)^(0+384),w
  4648  0FAB  009A               	movwf	(??___fladd^(0+384)+2)
  4649  0FAC  0813               	movf	(___fladd@b+3)^(0+384),w
  4650  0FAD  009B               	movwf	(??___fladd^(0+384)+3)
  4651  0FAE  3001               	movlw	1
  4652  0FAF  009C               	movwf	(??___fladd+4)^(0+384)
  4653  0FB0                     u3605:	
  4654  0FB0  0D1B               	rlf	(??___fladd^(0+384)+3),w
  4655  0FB1  0C9B               	rrf	(??___fladd^(0+384)+3),f
  4656  0FB2  0C9A               	rrf	(??___fladd^(0+384)+2),f
  4657  0FB3  0C99               	rrf	(??___fladd^(0+384)+1),f
  4658  0FB4  0C98               	rrf	??___fladd^(0+384),f
  4659  0FB5  0B9C               	decfsz	(??___fladd+4)^(0+384),f
  4660  0FB6  2FB0               	goto	u3605
  4661  0FB7  081B               	movf	(??___fladd+3)^(0+384),w
  4662  0FB8  0093               	movwf	(___fladd@b+3)^(0+384)
  4663  0FB9  081A               	movf	(??___fladd+2)^(0+384),w
  4664  0FBA  0092               	movwf	(___fladd@b+2)^(0+384)
  4665  0FBB  0819               	movf	(??___fladd+1)^(0+384),w
  4666  0FBC  0091               	movwf	(___fladd@b+1)^(0+384)
  4667  0FBD  0818               	movf	??___fladd^(0+384),w
  4668  0FBE  0090               	movwf	___fladd@b^(0+384)
  4669  0FBF  1683               	bsf	3,5	;RP0=1, select bank1
  4670  0FC0  1303               	bcf	3,6	;RP1=0, select bank1
  4671  0FC1  0A6D               	incf	___fladd@bexp^(0+128),w
  4672  0FC2  1903               	btfsc	3,2
  4673  0FC3  2FCC               	goto	l715
  4674  0FC4  3001               	movlw	1
  4675  0FC5  1683               	bsf	3,5	;RP0=1, select bank3
  4676  0FC6  1703               	bsf	3,6	;RP1=1, select bank3
  4677  0FC7  0098               	movwf	??___fladd^(0+384)
  4678  0FC8  0818               	movf	??___fladd^(0+384),w
  4679  0FC9  1683               	bsf	3,5	;RP0=1, select bank1
  4680  0FCA  1303               	bcf	3,6	;RP1=0, select bank1
  4681  0FCB  07ED               	addwf	___fladd@bexp^(0+128),f
  4682  0FCC                     l715:	
  4683  0FCC  1303               	bcf	3,6	;RP1=0, select bank1
  4684  0FCD  0A6D               	incf	___fladd@bexp^(0+128),w
  4685  0FCE  1D03               	btfss	3,2
  4686  0FCF  086D               	movf	___fladd@bexp^(0+128),w
  4687  0FD0  1D03               	btfss	3,2
  4688  0FD1  2FE1               	goto	l2588
  4689  0FD2  3000               	movlw	0
  4690  0FD3  1683               	bsf	3,5	;RP0=1, select bank3
  4691  0FD4  1703               	bsf	3,6	;RP1=1, select bank3
  4692  0FD5  0093               	movwf	(___fladd@b+3)^(0+384)
  4693  0FD6  3000               	movlw	0
  4694  0FD7  0092               	movwf	(___fladd@b+2)^(0+384)
  4695  0FD8  3000               	movlw	0
  4696  0FD9  0091               	movwf	(___fladd@b+1)^(0+384)
  4697  0FDA  3000               	movlw	0
  4698  0FDB  0090               	movwf	___fladd@b^(0+384)
  4699  0FDC  1683               	bsf	3,5	;RP0=1, select bank1
  4700  0FDD  1303               	bcf	3,6	;RP1=0, select bank1
  4701  0FDE  086D               	movf	___fladd@bexp^(0+128),w
  4702  0FDF  1903               	btfsc	3,2
  4703  0FE0  01EB               	clrf	___fladd@signs^(0+128)
  4704  0FE1                     l2588:	
  4705  0FE1  1C6D               	btfss	___fladd@bexp^(0+128),0
  4706  0FE2  2FE7               	goto	l2592
  4707  0FE3  1683               	bsf	3,5	;RP0=1, select bank3
  4708  0FE4  1703               	bsf	3,6	;RP1=1, select bank3
  4709  0FE5  1792               	bsf	(___fladd@b^(0+384)+2),7
  4710  0FE6  2FED               	goto	l723
  4711  0FE7                     l2592:	
  4712  0FE7  307F               	movlw	127
  4713  0FE8  1683               	bsf	3,5	;RP0=1, select bank3
  4714  0FE9  1703               	bsf	3,6	;RP1=1, select bank3
  4715  0FEA  0098               	movwf	??___fladd^(0+384)
  4716  0FEB  0818               	movf	??___fladd^(0+384),w
  4717  0FEC  0592               	andwf	(___fladd@b^(0+384)+2),f
  4718  0FED                     l723:	
  4719  0FED  1683               	bsf	3,5	;RP0=1, select bank1
  4720  0FEE  1303               	bcf	3,6	;RP1=0, select bank1
  4721  0FEF  086D               	movf	___fladd@bexp^(0+128),w
  4722  0FF0  1683               	bsf	3,5	;RP0=1, select bank3
  4723  0FF1  1703               	bsf	3,6	;RP1=1, select bank3
  4724  0FF2  0098               	movwf	??___fladd^(0+384)
  4725  0FF3  1003               	clrc
  4726  0FF4  0C18               	rrf	??___fladd^(0+384),w
  4727  0FF5  0099               	movwf	(??___fladd+1)^(0+384)
  4728  0FF6  0819               	movf	(??___fladd+1)^(0+384),w
  4729  0FF7  0093               	movwf	(___fladd@b^(0+384)+3)
  4730  0FF8  1683               	bsf	3,5	;RP0=1, select bank1
  4731  0FF9  1303               	bcf	3,6	;RP1=0, select bank1
  4732  0FFA  1FEB               	btfss	___fladd@signs^(0+128),7
  4733  0FFB  0008               	return
  4734  0FFC  1683               	bsf	3,5	;RP0=1, select bank3
  4735  0FFD  1703               	bsf	3,6	;RP1=1, select bank3
  4736  0FFE  1793               	bsf	(___fladd@b^(0+384)+3),7
  4737  0FFF  0008               	return
  4738  1000                     __end_of___fladd:	
  4739                           
  4740                           	psect	text9
  4741  048C                     __ptext9:	
  4742 ;; *************** function ___flmul *****************
  4743 ;; Defined at:
  4744 ;;		line 8 in file "D:\PROGRAM\MPLABX v5.20\XC8 v2.05\pic\sources\c90\common\sprcmul.c"
  4745 ;; Parameters:    Size  Location     Type
  4746 ;;  b               4   23[BANK1 ] unsigned char 
  4747 ;;  a               4   27[BANK1 ] unsigned char 
  4748 ;; Auto vars:     Size  Location     Type
  4749 ;;  prod            4   43[BANK1 ] struct .
  4750 ;;  grs             4   37[BANK1 ] unsigned long 
  4751 ;;  temp            2   47[BANK1 ] struct .
  4752 ;;  bexp            1   42[BANK1 ] unsigned char 
  4753 ;;  aexp            1   41[BANK1 ] unsigned char 
  4754 ;;  sign            1   36[BANK1 ] unsigned char 
  4755 ;; Return value:  Size  Location     Type
  4756 ;;                  4   23[BANK1 ] unsigned char 
  4757 ;; Registers used:
  4758 ;;		wreg, status,2, status,0, btemp+1, pclath, cstack
  4759 ;; Tracked objects:
  4760 ;;		On entry : 0/0
  4761 ;;		On exit  : 0/0
  4762 ;;		Unchanged: 0/0
  4763 ;; Data sizes:     COMMON   BANK0   BANK1   BANK3   BANK2
  4764 ;;      Params:         0       0       8       0       0
  4765 ;;      Locals:         0       0      13       0       0
  4766 ;;      Temps:          0       0       5       0       0
  4767 ;;      Totals:         0       0      26       0       0
  4768 ;;Total ram usage:       26 bytes
  4769 ;; Hardware stack levels used:    1
  4770 ;; Hardware stack levels required when called:    4
  4771 ;; This function calls:
  4772 ;;		__Umul8_16
  4773 ;; This function is called by:
  4774 ;;		_PID_Init
  4775 ;;		_Set_temp
  4776 ;; This function uses a non-reentrant model
  4777 ;;
  4778                           
  4779                           
  4780                           ;psect for function ___flmul
  4781  048C                     ___flmul:	
  4782                           
  4783                           ;incstack = 0
  4784                           ; Regs used in ___flmul: [wreg+status,2+status,0+btemp+1+pclath+cstack]
  4785  048C  1683               	bsf	3,5	;RP0=1, select bank1
  4786  048D  1303               	bcf	3,6	;RP1=0, select bank1
  4787  048E  083A               	movf	(___flmul@b^(0+128)+3),w
  4788  048F  3980               	andlw	128
  4789  0490  00BF               	movwf	??___flmul^(0+128)
  4790  0491  083F               	movf	??___flmul^(0+128),w
  4791  0492  00C4               	movwf	___flmul@sign^(0+128)
  4792  0493  083A               	movf	(___flmul@b^(0+128)+3),w
  4793  0494  00BF               	movwf	??___flmul^(0+128)
  4794  0495  073F               	addwf	??___flmul^(0+128),w
  4795  0496  00C0               	movwf	(??___flmul+1)^(0+128)
  4796  0497  0840               	movf	(??___flmul+1)^(0+128),w
  4797  0498  00CA               	movwf	___flmul@bexp^(0+128)
  4798  0499  1BB9               	btfsc	(___flmul@b^(0+128)+2),7
  4799  049A  144A               	bsf	___flmul@bexp^(0+128),0
  4800  049B  084A               	movf	___flmul@bexp^(0+128),w
  4801  049C  1903               	btfsc	3,2
  4802  049D  2CAB               	goto	l2954
  4803  049E  0A4A               	incf	___flmul@bexp^(0+128),w
  4804  049F  1D03               	btfss	3,2
  4805  04A0  2CA9               	goto	l2952
  4806  04A1  3000               	movlw	0
  4807  04A2  00BA               	movwf	(___flmul@b+3)^(0+128)
  4808  04A3  3000               	movlw	0
  4809  04A4  00B9               	movwf	(___flmul@b+2)^(0+128)
  4810  04A5  3000               	movlw	0
  4811  04A6  00B8               	movwf	(___flmul@b+1)^(0+128)
  4812  04A7  3000               	movlw	0
  4813  04A8  00B7               	movwf	___flmul@b^(0+128)
  4814  04A9                     l2952:	
  4815  04A9  17B9               	bsf	(___flmul@b^(0+128)+2),7
  4816  04AA  2CB3               	goto	l2956
  4817  04AB                     l2954:	
  4818  04AB  3000               	movlw	0
  4819  04AC  00BA               	movwf	(___flmul@b+3)^(0+128)
  4820  04AD  3000               	movlw	0
  4821  04AE  00B9               	movwf	(___flmul@b+2)^(0+128)
  4822  04AF  3000               	movlw	0
  4823  04B0  00B8               	movwf	(___flmul@b+1)^(0+128)
  4824  04B1  3000               	movlw	0
  4825  04B2  00B7               	movwf	___flmul@b^(0+128)
  4826  04B3                     l2956:	
  4827  04B3  083E               	movf	(___flmul@a^(0+128)+3),w
  4828  04B4  3980               	andlw	128
  4829  04B5  00BF               	movwf	??___flmul^(0+128)
  4830  04B6  083F               	movf	??___flmul^(0+128),w
  4831  04B7  06C4               	xorwf	___flmul@sign^(0+128),f
  4832  04B8  083E               	movf	(___flmul@a^(0+128)+3),w
  4833  04B9  00BF               	movwf	??___flmul^(0+128)
  4834  04BA  073F               	addwf	??___flmul^(0+128),w
  4835  04BB  00C0               	movwf	(??___flmul+1)^(0+128)
  4836  04BC  0840               	movf	(??___flmul+1)^(0+128),w
  4837  04BD  00C9               	movwf	___flmul@aexp^(0+128)
  4838  04BE  1BBD               	btfsc	(___flmul@a^(0+128)+2),7
  4839  04BF  1449               	bsf	___flmul@aexp^(0+128),0
  4840  04C0  0849               	movf	___flmul@aexp^(0+128),w
  4841  04C1  1903               	btfsc	3,2
  4842  04C2  2CD0               	goto	l2972
  4843  04C3  0A49               	incf	___flmul@aexp^(0+128),w
  4844  04C4  1D03               	btfss	3,2
  4845  04C5  2CCE               	goto	l2970
  4846  04C6  3000               	movlw	0
  4847  04C7  00BE               	movwf	(___flmul@a+3)^(0+128)
  4848  04C8  3000               	movlw	0
  4849  04C9  00BD               	movwf	(___flmul@a+2)^(0+128)
  4850  04CA  3000               	movlw	0
  4851  04CB  00BC               	movwf	(___flmul@a+1)^(0+128)
  4852  04CC  3000               	movlw	0
  4853  04CD  00BB               	movwf	___flmul@a^(0+128)
  4854  04CE                     l2970:	
  4855  04CE  17BD               	bsf	(___flmul@a^(0+128)+2),7
  4856  04CF  2CD8               	goto	l2974
  4857  04D0                     l2972:	
  4858  04D0  3000               	movlw	0
  4859  04D1  00BE               	movwf	(___flmul@a+3)^(0+128)
  4860  04D2  3000               	movlw	0
  4861  04D3  00BD               	movwf	(___flmul@a+2)^(0+128)
  4862  04D4  3000               	movlw	0
  4863  04D5  00BC               	movwf	(___flmul@a+1)^(0+128)
  4864  04D6  3000               	movlw	0
  4865  04D7  00BB               	movwf	___flmul@a^(0+128)
  4866  04D8                     l2974:	
  4867  04D8  0849               	movf	___flmul@aexp^(0+128),w
  4868  04D9  1D03               	btfss	3,2
  4869  04DA  084A               	movf	___flmul@bexp^(0+128),w
  4870  04DB  1D03               	btfss	3,2
  4871  04DC  2CE6               	goto	l2982
  4872  04DD  3000               	movlw	0
  4873  04DE  00BA               	movwf	(?___flmul+3)^(0+128)
  4874  04DF  3000               	movlw	0
  4875  04E0  00B9               	movwf	(?___flmul+2)^(0+128)
  4876  04E1  3000               	movlw	0
  4877  04E2  00B8               	movwf	(?___flmul+1)^(0+128)
  4878  04E3  3000               	movlw	0
  4879  04E4  00B7               	movwf	?___flmul^(0+128)
  4880  04E5  0008               	return
  4881  04E6                     l2982:	
  4882  04E6  0837               	movf	___flmul@b^(0+128),w
  4883  04E7  00BF               	movwf	??___flmul^(0+128)
  4884  04E8  083F               	movf	??___flmul^(0+128),w
  4885  04E9  00A0               	movwf	__Umul8_16@multiplicand^(0+128)
  4886  04EA  083D               	movf	(___flmul@a^(0+128)+2),w
  4887  04EB  160A  158A  2608  120A  118A  	fcall	__Umul8_16
  4888  04F0  1683               	bsf	3,5	;RP0=1, select bank1
  4889  04F1  1303               	bcf	3,6	;RP1=0, select bank1
  4890  04F2  0821               	movf	(?__Umul8_16+1)^(0+128),w
  4891  04F3  00D0               	movwf	(___flmul@temp+1)^(0+128)
  4892  04F4  0820               	movf	?__Umul8_16^(0+128),w
  4893  04F5  00CF               	movwf	___flmul@temp^(0+128)
  4894  04F6  084F               	movf	___flmul@temp^(0+128),w
  4895  04F7  00BF               	movwf	??___flmul^(0+128)
  4896  04F8  01C0               	clrf	(??___flmul^(0+128)+1)
  4897  04F9  01C1               	clrf	(??___flmul^(0+128)+2)
  4898  04FA  01C2               	clrf	(??___flmul^(0+128)+3)
  4899  04FB  0842               	movf	(??___flmul+3)^(0+128),w
  4900  04FC  00C8               	movwf	(___flmul@grs+3)^(0+128)
  4901  04FD  0841               	movf	(??___flmul+2)^(0+128),w
  4902  04FE  00C7               	movwf	(___flmul@grs+2)^(0+128)
  4903  04FF  0840               	movf	(??___flmul+1)^(0+128),w
  4904  0500  00C6               	movwf	(___flmul@grs+1)^(0+128)
  4905  0501  083F               	movf	??___flmul^(0+128),w
  4906  0502  00C5               	movwf	___flmul@grs^(0+128)
  4907  0503  0850               	movf	(___flmul@temp^(0+128)+1),w
  4908  0504  00BF               	movwf	??___flmul^(0+128)
  4909  0505  01C0               	clrf	(??___flmul^(0+128)+1)
  4910  0506  01C1               	clrf	(??___flmul^(0+128)+2)
  4911  0507  01C2               	clrf	(??___flmul^(0+128)+3)
  4912  0508  0842               	movf	(??___flmul+3)^(0+128),w
  4913  0509  00CE               	movwf	(___flmul@prod+3)^(0+128)
  4914  050A  0841               	movf	(??___flmul+2)^(0+128),w
  4915  050B  00CD               	movwf	(___flmul@prod+2)^(0+128)
  4916  050C  0840               	movf	(??___flmul+1)^(0+128),w
  4917  050D  00CC               	movwf	(___flmul@prod+1)^(0+128)
  4918  050E  083F               	movf	??___flmul^(0+128),w
  4919  050F  00CB               	movwf	___flmul@prod^(0+128)
  4920  0510  0838               	movf	(___flmul@b^(0+128)+1),w
  4921  0511  00BF               	movwf	??___flmul^(0+128)
  4922  0512  083F               	movf	??___flmul^(0+128),w
  4923  0513  00A0               	movwf	__Umul8_16@multiplicand^(0+128)
  4924  0514  083C               	movf	(___flmul@a^(0+128)+1),w
  4925  0515  160A  158A  2608  120A  118A  	fcall	__Umul8_16
  4926  051A  1683               	bsf	3,5	;RP0=1, select bank1
  4927  051B  1303               	bcf	3,6	;RP1=0, select bank1
  4928  051C  0821               	movf	(?__Umul8_16+1)^(0+128),w
  4929  051D  00D0               	movwf	(___flmul@temp+1)^(0+128)
  4930  051E  0820               	movf	?__Umul8_16^(0+128),w
  4931  051F  00CF               	movwf	___flmul@temp^(0+128)
  4932  0520  084F               	movf	___flmul@temp^(0+128),w
  4933  0521  00BF               	movwf	??___flmul^(0+128)
  4934  0522  01C0               	clrf	(??___flmul^(0+128)+1)
  4935  0523  01C1               	clrf	(??___flmul^(0+128)+2)
  4936  0524  01C2               	clrf	(??___flmul^(0+128)+3)
  4937  0525  083F               	movf	??___flmul^(0+128),w
  4938  0526  07C5               	addwf	___flmul@grs^(0+128),f
  4939  0527  0840               	movf	(??___flmul+1)^(0+128),w
  4940  0528  1103               	clrz
  4941  0529  1803               	skipnc
  4942  052A  3E01               	addlw	1
  4943  052B  1D03               	btfss	3,2
  4944  052C  07C6               	addwf	(___flmul@grs+1)^(0+128),f
  4945  052D  0841               	movf	(??___flmul+2)^(0+128),w
  4946  052E  1103               	clrz
  4947  052F  1803               	skipnc
  4948  0530  3E01               	addlw	1
  4949  0531  1D03               	btfss	3,2
  4950  0532  07C7               	addwf	(___flmul@grs+2)^(0+128),f
  4951  0533  0842               	movf	(??___flmul+3)^(0+128),w
  4952  0534  1103               	clrz
  4953  0535  1803               	skipnc
  4954  0536  3E01               	addlw	1
  4955  0537  1D03               	btfss	3,2
  4956  0538  07C8               	addwf	(___flmul@grs+3)^(0+128),f
  4957  0539  0850               	movf	(___flmul@temp^(0+128)+1),w
  4958  053A  00BF               	movwf	??___flmul^(0+128)
  4959  053B  01C0               	clrf	(??___flmul^(0+128)+1)
  4960  053C  01C1               	clrf	(??___flmul^(0+128)+2)
  4961  053D  01C2               	clrf	(??___flmul^(0+128)+3)
  4962  053E  083F               	movf	??___flmul^(0+128),w
  4963  053F  07CB               	addwf	___flmul@prod^(0+128),f
  4964  0540  0840               	movf	(??___flmul+1)^(0+128),w
  4965  0541  1103               	clrz
  4966  0542  1803               	skipnc
  4967  0543  3E01               	addlw	1
  4968  0544  1D03               	btfss	3,2
  4969  0545  07CC               	addwf	(___flmul@prod+1)^(0+128),f
  4970  0546  0841               	movf	(??___flmul+2)^(0+128),w
  4971  0547  1103               	clrz
  4972  0548  1803               	skipnc
  4973  0549  3E01               	addlw	1
  4974  054A  1D03               	btfss	3,2
  4975  054B  07CD               	addwf	(___flmul@prod+2)^(0+128),f
  4976  054C  0842               	movf	(??___flmul+3)^(0+128),w
  4977  054D  1103               	clrz
  4978  054E  1803               	skipnc
  4979  054F  3E01               	addlw	1
  4980  0550  1D03               	btfss	3,2
  4981  0551  07CE               	addwf	(___flmul@prod+3)^(0+128),f
  4982  0552  0839               	movf	(___flmul@b^(0+128)+2),w
  4983  0553  00BF               	movwf	??___flmul^(0+128)
  4984  0554  083F               	movf	??___flmul^(0+128),w
  4985  0555  00A0               	movwf	__Umul8_16@multiplicand^(0+128)
  4986  0556  083B               	movf	___flmul@a^(0+128),w
  4987  0557  160A  158A  2608  120A  118A  	fcall	__Umul8_16
  4988  055C  1683               	bsf	3,5	;RP0=1, select bank1
  4989  055D  1303               	bcf	3,6	;RP1=0, select bank1
  4990  055E  0821               	movf	(?__Umul8_16+1)^(0+128),w
  4991  055F  00D0               	movwf	(___flmul@temp+1)^(0+128)
  4992  0560  0820               	movf	?__Umul8_16^(0+128),w
  4993  0561  00CF               	movwf	___flmul@temp^(0+128)
  4994  0562  084F               	movf	___flmul@temp^(0+128),w
  4995  0563  00BF               	movwf	??___flmul^(0+128)
  4996  0564  01C0               	clrf	(??___flmul^(0+128)+1)
  4997  0565  01C1               	clrf	(??___flmul^(0+128)+2)
  4998  0566  01C2               	clrf	(??___flmul^(0+128)+3)
  4999  0567  083F               	movf	??___flmul^(0+128),w
  5000  0568  07C5               	addwf	___flmul@grs^(0+128),f
  5001  0569  0840               	movf	(??___flmul+1)^(0+128),w
  5002  056A  1103               	clrz
  5003  056B  1803               	skipnc
  5004  056C  3E01               	addlw	1
  5005  056D  1D03               	btfss	3,2
  5006  056E  07C6               	addwf	(___flmul@grs+1)^(0+128),f
  5007  056F  0841               	movf	(??___flmul+2)^(0+128),w
  5008  0570  1103               	clrz
  5009  0571  1803               	skipnc
  5010  0572  3E01               	addlw	1
  5011  0573  1D03               	btfss	3,2
  5012  0574  07C7               	addwf	(___flmul@grs+2)^(0+128),f
  5013  0575  0842               	movf	(??___flmul+3)^(0+128),w
  5014  0576  1103               	clrz
  5015  0577  1803               	skipnc
  5016  0578  3E01               	addlw	1
  5017  0579  1D03               	btfss	3,2
  5018  057A  07C8               	addwf	(___flmul@grs+3)^(0+128),f
  5019  057B  0850               	movf	(___flmul@temp^(0+128)+1),w
  5020  057C  00BF               	movwf	??___flmul^(0+128)
  5021  057D  01C0               	clrf	(??___flmul^(0+128)+1)
  5022  057E  01C1               	clrf	(??___flmul^(0+128)+2)
  5023  057F  01C2               	clrf	(??___flmul^(0+128)+3)
  5024  0580  083F               	movf	??___flmul^(0+128),w
  5025  0581  07CB               	addwf	___flmul@prod^(0+128),f
  5026  0582  0840               	movf	(??___flmul+1)^(0+128),w
  5027  0583  1103               	clrz
  5028  0584  1803               	skipnc
  5029  0585  3E01               	addlw	1
  5030  0586  1D03               	btfss	3,2
  5031  0587  07CC               	addwf	(___flmul@prod+1)^(0+128),f
  5032  0588  0841               	movf	(??___flmul+2)^(0+128),w
  5033  0589  1103               	clrz
  5034  058A  1803               	skipnc
  5035  058B  3E01               	addlw	1
  5036  058C  1D03               	btfss	3,2
  5037  058D  07CD               	addwf	(___flmul@prod+2)^(0+128),f
  5038  058E  0842               	movf	(??___flmul+3)^(0+128),w
  5039  058F  1103               	clrz
  5040  0590  1803               	skipnc
  5041  0591  3E01               	addlw	1
  5042  0592  1D03               	btfss	3,2
  5043  0593  07CE               	addwf	(___flmul@prod+3)^(0+128),f
  5044  0594  3008               	movlw	8
  5045  0595  00BF               	movwf	??___flmul^(0+128)
  5046  0596                     u4525:	
  5047  0596  1003               	clrc
  5048  0597  0DC5               	rlf	___flmul@grs^(0+128),f
  5049  0598  0DC6               	rlf	(___flmul@grs+1)^(0+128),f
  5050  0599  0DC7               	rlf	(___flmul@grs+2)^(0+128),f
  5051  059A  0DC8               	rlf	(___flmul@grs+3)^(0+128),f
  5052  059B  0BBF               	decfsz	??___flmul^(0+128),f
  5053  059C  2D96               	goto	u4525
  5054  059D  0838               	movf	(___flmul@b^(0+128)+1),w
  5055  059E  00BF               	movwf	??___flmul^(0+128)
  5056  059F  083F               	movf	??___flmul^(0+128),w
  5057  05A0  00A0               	movwf	__Umul8_16@multiplicand^(0+128)
  5058  05A1  083B               	movf	___flmul@a^(0+128),w
  5059  05A2  160A  158A  2608  120A  118A  	fcall	__Umul8_16
  5060  05A7  1683               	bsf	3,5	;RP0=1, select bank1
  5061  05A8  1303               	bcf	3,6	;RP1=0, select bank1
  5062  05A9  0821               	movf	(?__Umul8_16+1)^(0+128),w
  5063  05AA  00D0               	movwf	(___flmul@temp+1)^(0+128)
  5064  05AB  0820               	movf	?__Umul8_16^(0+128),w
  5065  05AC  00CF               	movwf	___flmul@temp^(0+128)
  5066  05AD  084F               	movf	___flmul@temp^(0+128),w
  5067  05AE  00BF               	movwf	??___flmul^(0+128)
  5068  05AF  0850               	movf	(___flmul@temp+1)^(0+128),w
  5069  05B0  00C0               	movwf	(??___flmul^(0+128)+1)
  5070  05B1  01C1               	clrf	(??___flmul^(0+128)+2)
  5071  05B2  01C2               	clrf	(??___flmul^(0+128)+3)
  5072  05B3  083F               	movf	??___flmul^(0+128),w
  5073  05B4  07C5               	addwf	___flmul@grs^(0+128),f
  5074  05B5  0840               	movf	(??___flmul+1)^(0+128),w
  5075  05B6  1103               	clrz
  5076  05B7  1803               	skipnc
  5077  05B8  3E01               	addlw	1
  5078  05B9  1D03               	btfss	3,2
  5079  05BA  07C6               	addwf	(___flmul@grs+1)^(0+128),f
  5080  05BB  0841               	movf	(??___flmul+2)^(0+128),w
  5081  05BC  1103               	clrz
  5082  05BD  1803               	skipnc
  5083  05BE  3E01               	addlw	1
  5084  05BF  1D03               	btfss	3,2
  5085  05C0  07C7               	addwf	(___flmul@grs+2)^(0+128),f
  5086  05C1  0842               	movf	(??___flmul+3)^(0+128),w
  5087  05C2  1103               	clrz
  5088  05C3  1803               	skipnc
  5089  05C4  3E01               	addlw	1
  5090  05C5  1D03               	btfss	3,2
  5091  05C6  07C8               	addwf	(___flmul@grs+3)^(0+128),f
  5092  05C7  0837               	movf	___flmul@b^(0+128),w
  5093  05C8  00BF               	movwf	??___flmul^(0+128)
  5094  05C9  083F               	movf	??___flmul^(0+128),w
  5095  05CA  00A0               	movwf	__Umul8_16@multiplicand^(0+128)
  5096  05CB  083C               	movf	(___flmul@a^(0+128)+1),w
  5097  05CC  160A  158A  2608  120A  118A  	fcall	__Umul8_16
  5098  05D1  1683               	bsf	3,5	;RP0=1, select bank1
  5099  05D2  1303               	bcf	3,6	;RP1=0, select bank1
  5100  05D3  0821               	movf	(?__Umul8_16+1)^(0+128),w
  5101  05D4  00D0               	movwf	(___flmul@temp+1)^(0+128)
  5102  05D5  0820               	movf	?__Umul8_16^(0+128),w
  5103  05D6  00CF               	movwf	___flmul@temp^(0+128)
  5104  05D7  084F               	movf	___flmul@temp^(0+128),w
  5105  05D8  00BF               	movwf	??___flmul^(0+128)
  5106  05D9  0850               	movf	(___flmul@temp+1)^(0+128),w
  5107  05DA  00C0               	movwf	(??___flmul^(0+128)+1)
  5108  05DB  01C1               	clrf	(??___flmul^(0+128)+2)
  5109  05DC  01C2               	clrf	(??___flmul^(0+128)+3)
  5110  05DD  083F               	movf	??___flmul^(0+128),w
  5111  05DE  07C5               	addwf	___flmul@grs^(0+128),f
  5112  05DF  0840               	movf	(??___flmul+1)^(0+128),w
  5113  05E0  1103               	clrz
  5114  05E1  1803               	skipnc
  5115  05E2  3E01               	addlw	1
  5116  05E3  1D03               	btfss	3,2
  5117  05E4  07C6               	addwf	(___flmul@grs+1)^(0+128),f
  5118  05E5  0841               	movf	(??___flmul+2)^(0+128),w
  5119  05E6  1103               	clrz
  5120  05E7  1803               	skipnc
  5121  05E8  3E01               	addlw	1
  5122  05E9  1D03               	btfss	3,2
  5123  05EA  07C7               	addwf	(___flmul@grs+2)^(0+128),f
  5124  05EB  0842               	movf	(??___flmul+3)^(0+128),w
  5125  05EC  1103               	clrz
  5126  05ED  1803               	skipnc
  5127  05EE  3E01               	addlw	1
  5128  05EF  1D03               	btfss	3,2
  5129  05F0  07C8               	addwf	(___flmul@grs+3)^(0+128),f
  5130  05F1  3008               	movlw	8
  5131  05F2  00BF               	movwf	??___flmul^(0+128)
  5132  05F3                     u4555:	
  5133  05F3  1003               	clrc
  5134  05F4  0DC5               	rlf	___flmul@grs^(0+128),f
  5135  05F5  0DC6               	rlf	(___flmul@grs+1)^(0+128),f
  5136  05F6  0DC7               	rlf	(___flmul@grs+2)^(0+128),f
  5137  05F7  0DC8               	rlf	(___flmul@grs+3)^(0+128),f
  5138  05F8  0BBF               	decfsz	??___flmul^(0+128),f
  5139  05F9  2DF3               	goto	u4555
  5140  05FA  0837               	movf	___flmul@b^(0+128),w
  5141  05FB  00BF               	movwf	??___flmul^(0+128)
  5142  05FC  083F               	movf	??___flmul^(0+128),w
  5143  05FD  00A0               	movwf	__Umul8_16@multiplicand^(0+128)
  5144  05FE  083B               	movf	___flmul@a^(0+128),w
  5145  05FF  160A  158A  2608  120A  118A  	fcall	__Umul8_16
  5146  0604  1683               	bsf	3,5	;RP0=1, select bank1
  5147  0605  1303               	bcf	3,6	;RP1=0, select bank1
  5148  0606  0821               	movf	(?__Umul8_16+1)^(0+128),w
  5149  0607  00D0               	movwf	(___flmul@temp+1)^(0+128)
  5150  0608  0820               	movf	?__Umul8_16^(0+128),w
  5151  0609  00CF               	movwf	___flmul@temp^(0+128)
  5152  060A  084F               	movf	___flmul@temp^(0+128),w
  5153  060B  00BF               	movwf	??___flmul^(0+128)
  5154  060C  0850               	movf	(___flmul@temp+1)^(0+128),w
  5155  060D  00C0               	movwf	(??___flmul^(0+128)+1)
  5156  060E  01C1               	clrf	(??___flmul^(0+128)+2)
  5157  060F  01C2               	clrf	(??___flmul^(0+128)+3)
  5158  0610  083F               	movf	??___flmul^(0+128),w
  5159  0611  07C5               	addwf	___flmul@grs^(0+128),f
  5160  0612  0840               	movf	(??___flmul+1)^(0+128),w
  5161  0613  1103               	clrz
  5162  0614  1803               	skipnc
  5163  0615  3E01               	addlw	1
  5164  0616  1D03               	btfss	3,2
  5165  0617  07C6               	addwf	(___flmul@grs+1)^(0+128),f
  5166  0618  0841               	movf	(??___flmul+2)^(0+128),w
  5167  0619  1103               	clrz
  5168  061A  1803               	skipnc
  5169  061B  3E01               	addlw	1
  5170  061C  1D03               	btfss	3,2
  5171  061D  07C7               	addwf	(___flmul@grs+2)^(0+128),f
  5172  061E  0842               	movf	(??___flmul+3)^(0+128),w
  5173  061F  1103               	clrz
  5174  0620  1803               	skipnc
  5175  0621  3E01               	addlw	1
  5176  0622  1D03               	btfss	3,2
  5177  0623  07C8               	addwf	(___flmul@grs+3)^(0+128),f
  5178  0624  0838               	movf	(___flmul@b^(0+128)+1),w
  5179  0625  00BF               	movwf	??___flmul^(0+128)
  5180  0626  083F               	movf	??___flmul^(0+128),w
  5181  0627  00A0               	movwf	__Umul8_16@multiplicand^(0+128)
  5182  0628  083D               	movf	(___flmul@a^(0+128)+2),w
  5183  0629  160A  158A  2608  120A  118A  	fcall	__Umul8_16
  5184  062E  1683               	bsf	3,5	;RP0=1, select bank1
  5185  062F  1303               	bcf	3,6	;RP1=0, select bank1
  5186  0630  0821               	movf	(?__Umul8_16+1)^(0+128),w
  5187  0631  00D0               	movwf	(___flmul@temp+1)^(0+128)
  5188  0632  0820               	movf	?__Umul8_16^(0+128),w
  5189  0633  00CF               	movwf	___flmul@temp^(0+128)
  5190  0634  084F               	movf	___flmul@temp^(0+128),w
  5191  0635  00BF               	movwf	??___flmul^(0+128)
  5192  0636  0850               	movf	(___flmul@temp+1)^(0+128),w
  5193  0637  00C0               	movwf	(??___flmul^(0+128)+1)
  5194  0638  01C1               	clrf	(??___flmul^(0+128)+2)
  5195  0639  01C2               	clrf	(??___flmul^(0+128)+3)
  5196  063A  083F               	movf	??___flmul^(0+128),w
  5197  063B  07CB               	addwf	___flmul@prod^(0+128),f
  5198  063C  0840               	movf	(??___flmul+1)^(0+128),w
  5199  063D  1103               	clrz
  5200  063E  1803               	skipnc
  5201  063F  3E01               	addlw	1
  5202  0640  1D03               	btfss	3,2
  5203  0641  07CC               	addwf	(___flmul@prod+1)^(0+128),f
  5204  0642  0841               	movf	(??___flmul+2)^(0+128),w
  5205  0643  1103               	clrz
  5206  0644  1803               	skipnc
  5207  0645  3E01               	addlw	1
  5208  0646  1D03               	btfss	3,2
  5209  0647  07CD               	addwf	(___flmul@prod+2)^(0+128),f
  5210  0648  0842               	movf	(??___flmul+3)^(0+128),w
  5211  0649  1103               	clrz
  5212  064A  1803               	skipnc
  5213  064B  3E01               	addlw	1
  5214  064C  1D03               	btfss	3,2
  5215  064D  07CE               	addwf	(___flmul@prod+3)^(0+128),f
  5216  064E  0839               	movf	(___flmul@b^(0+128)+2),w
  5217  064F  00BF               	movwf	??___flmul^(0+128)
  5218  0650  083F               	movf	??___flmul^(0+128),w
  5219  0651  00A0               	movwf	__Umul8_16@multiplicand^(0+128)
  5220  0652  083C               	movf	(___flmul@a^(0+128)+1),w
  5221  0653  160A  158A  2608  120A  118A  	fcall	__Umul8_16
  5222  0658  1683               	bsf	3,5	;RP0=1, select bank1
  5223  0659  1303               	bcf	3,6	;RP1=0, select bank1
  5224  065A  0821               	movf	(?__Umul8_16+1)^(0+128),w
  5225  065B  00D0               	movwf	(___flmul@temp+1)^(0+128)
  5226  065C  0820               	movf	?__Umul8_16^(0+128),w
  5227  065D  00CF               	movwf	___flmul@temp^(0+128)
  5228  065E  084F               	movf	___flmul@temp^(0+128),w
  5229  065F  00BF               	movwf	??___flmul^(0+128)
  5230  0660  0850               	movf	(___flmul@temp+1)^(0+128),w
  5231  0661  00C0               	movwf	(??___flmul^(0+128)+1)
  5232  0662  01C1               	clrf	(??___flmul^(0+128)+2)
  5233  0663  01C2               	clrf	(??___flmul^(0+128)+3)
  5234  0664  083F               	movf	??___flmul^(0+128),w
  5235  0665  07CB               	addwf	___flmul@prod^(0+128),f
  5236  0666  0840               	movf	(??___flmul+1)^(0+128),w
  5237  0667  1103               	clrz
  5238  0668  1803               	skipnc
  5239  0669  3E01               	addlw	1
  5240  066A  1D03               	btfss	3,2
  5241  066B  07CC               	addwf	(___flmul@prod+1)^(0+128),f
  5242  066C  0841               	movf	(??___flmul+2)^(0+128),w
  5243  066D  1103               	clrz
  5244  066E  1803               	skipnc
  5245  066F  3E01               	addlw	1
  5246  0670  1D03               	btfss	3,2
  5247  0671  07CD               	addwf	(___flmul@prod+2)^(0+128),f
  5248  0672  0842               	movf	(??___flmul+3)^(0+128),w
  5249  0673  1103               	clrz
  5250  0674  1803               	skipnc
  5251  0675  3E01               	addlw	1
  5252  0676  1D03               	btfss	3,2
  5253  0677  07CE               	addwf	(___flmul@prod+3)^(0+128),f
  5254  0678  0839               	movf	(___flmul@b^(0+128)+2),w
  5255  0679  00BF               	movwf	??___flmul^(0+128)
  5256  067A  083F               	movf	??___flmul^(0+128),w
  5257  067B  00A0               	movwf	__Umul8_16@multiplicand^(0+128)
  5258  067C  083D               	movf	(___flmul@a^(0+128)+2),w
  5259  067D  160A  158A  2608  120A  118A  	fcall	__Umul8_16
  5260  0682  1683               	bsf	3,5	;RP0=1, select bank1
  5261  0683  1303               	bcf	3,6	;RP1=0, select bank1
  5262  0684  0821               	movf	(?__Umul8_16+1)^(0+128),w
  5263  0685  00D0               	movwf	(___flmul@temp+1)^(0+128)
  5264  0686  0820               	movf	?__Umul8_16^(0+128),w
  5265  0687  00CF               	movwf	___flmul@temp^(0+128)
  5266  0688  084F               	movf	___flmul@temp^(0+128),w
  5267  0689  00BF               	movwf	??___flmul^(0+128)
  5268  068A  0850               	movf	(___flmul@temp+1)^(0+128),w
  5269  068B  00C0               	movwf	(??___flmul^(0+128)+1)
  5270  068C  01C1               	clrf	(??___flmul^(0+128)+2)
  5271  068D  01C2               	clrf	(??___flmul^(0+128)+3)
  5272  068E  3008               	movlw	8
  5273  068F                     u4595:	
  5274  068F  1003               	clrc
  5275  0690  0DBF               	rlf	??___flmul^(0+128),f
  5276  0691  0DC0               	rlf	(??___flmul^(0+128)+1),f
  5277  0692  0DC1               	rlf	(??___flmul^(0+128)+2),f
  5278  0693  0DC2               	rlf	(??___flmul^(0+128)+3),f
  5279  0694  3EFF               	addlw	-1
  5280  0695  1D03               	skipz
  5281  0696  2E8F               	goto	u4595
  5282  0697  083F               	movf	??___flmul^(0+128),w
  5283  0698  07CB               	addwf	___flmul@prod^(0+128),f
  5284  0699  0840               	movf	(??___flmul+1)^(0+128),w
  5285  069A  1103               	clrz
  5286  069B  1803               	skipnc
  5287  069C  3E01               	addlw	1
  5288  069D  1D03               	btfss	3,2
  5289  069E  07CC               	addwf	(___flmul@prod+1)^(0+128),f
  5290  069F  0841               	movf	(??___flmul+2)^(0+128),w
  5291  06A0  1103               	clrz
  5292  06A1  1803               	skipnc
  5293  06A2  3E01               	addlw	1
  5294  06A3  1D03               	btfss	3,2
  5295  06A4  07CD               	addwf	(___flmul@prod+2)^(0+128),f
  5296  06A5  0842               	movf	(??___flmul+3)^(0+128),w
  5297  06A6  1103               	clrz
  5298  06A7  1803               	skipnc
  5299  06A8  3E01               	addlw	1
  5300  06A9  1D03               	btfss	3,2
  5301  06AA  07CE               	addwf	(___flmul@prod+3)^(0+128),f
  5302  06AB  0845               	movf	___flmul@grs^(0+128),w
  5303  06AC  00BF               	movwf	??___flmul^(0+128)
  5304  06AD  0846               	movf	(___flmul@grs+1)^(0+128),w
  5305  06AE  00C0               	movwf	(??___flmul^(0+128)+1)
  5306  06AF  0847               	movf	(___flmul@grs+2)^(0+128),w
  5307  06B0  00C1               	movwf	(??___flmul^(0+128)+2)
  5308  06B1  0848               	movf	(___flmul@grs+3)^(0+128),w
  5309  06B2  00C2               	movwf	(??___flmul^(0+128)+3)
  5310  06B3  3018               	movlw	24
  5311  06B4                     u4615:	
  5312  06B4  1003               	clrc
  5313  06B5  0CC2               	rrf	(??___flmul^(0+128)+3),f
  5314  06B6  0CC1               	rrf	(??___flmul^(0+128)+2),f
  5315  06B7  0CC0               	rrf	(??___flmul^(0+128)+1),f
  5316  06B8  0CBF               	rrf	??___flmul^(0+128),f
  5317  06B9  3EFF               	addlw	-1
  5318  06BA  1D03               	skipz
  5319  06BB  2EB4               	goto	u4615
  5320  06BC  083F               	movf	??___flmul^(0+128),w
  5321  06BD  07CB               	addwf	___flmul@prod^(0+128),f
  5322  06BE  0840               	movf	(??___flmul+1)^(0+128),w
  5323  06BF  1103               	clrz
  5324  06C0  1803               	skipnc
  5325  06C1  3E01               	addlw	1
  5326  06C2  1D03               	btfss	3,2
  5327  06C3  07CC               	addwf	(___flmul@prod+1)^(0+128),f
  5328  06C4  0841               	movf	(??___flmul+2)^(0+128),w
  5329  06C5  1103               	clrz
  5330  06C6  1803               	skipnc
  5331  06C7  3E01               	addlw	1
  5332  06C8  1D03               	btfss	3,2
  5333  06C9  07CD               	addwf	(___flmul@prod+2)^(0+128),f
  5334  06CA  0842               	movf	(??___flmul+3)^(0+128),w
  5335  06CB  1103               	clrz
  5336  06CC  1803               	skipnc
  5337  06CD  3E01               	addlw	1
  5338  06CE  1D03               	btfss	3,2
  5339  06CF  07CE               	addwf	(___flmul@prod+3)^(0+128),f
  5340  06D0  3008               	movlw	8
  5341  06D1  00BF               	movwf	??___flmul^(0+128)
  5342  06D2                     u4635:	
  5343  06D2  1003               	clrc
  5344  06D3  0DC5               	rlf	___flmul@grs^(0+128),f
  5345  06D4  0DC6               	rlf	(___flmul@grs+1)^(0+128),f
  5346  06D5  0DC7               	rlf	(___flmul@grs+2)^(0+128),f
  5347  06D6  0DC8               	rlf	(___flmul@grs+3)^(0+128),f
  5348  06D7  0BBF               	decfsz	??___flmul^(0+128),f
  5349  06D8  2ED2               	goto	u4635
  5350  06D9  084A               	movf	___flmul@bexp^(0+128),w
  5351  06DA  0749               	addwf	___flmul@aexp^(0+128),w
  5352  06DB  00BF               	movwf	??___flmul^(0+128)
  5353  06DC  01C0               	clrf	(??___flmul^(0+128)+1)
  5354  06DD  0DC0               	rlf	(??___flmul+1)^(0+128),f
  5355  06DE  083F               	movf	??___flmul^(0+128),w
  5356  06DF  3E82               	addlw	130
  5357  06E0  00CF               	movwf	___flmul@temp^(0+128)
  5358  06E1  0840               	movf	(??___flmul+1)^(0+128),w
  5359  06E2  1803               	skipnc
  5360  06E3  3E01               	addlw	1
  5361  06E4  3EFF               	addlw	255
  5362  06E5  00D0               	movwf	(___flmul@temp+1)^(0+128)
  5363  06E6                     l3034:	
  5364  06E6  1BCD               	btfsc	(___flmul@prod+2)^(0+128),7
  5365  06E7  2F03               	goto	l3036
  5366  06E8  3001               	movlw	1
  5367  06E9  00BF               	movwf	??___flmul^(0+128)
  5368  06EA                     u4645:	
  5369  06EA  1003               	clrc
  5370  06EB  0DCB               	rlf	___flmul@prod^(0+128),f
  5371  06EC  0DCC               	rlf	(___flmul@prod+1)^(0+128),f
  5372  06ED  0DCD               	rlf	(___flmul@prod+2)^(0+128),f
  5373  06EE  0DCE               	rlf	(___flmul@prod+3)^(0+128),f
  5374  06EF  0BBF               	decfsz	??___flmul^(0+128),f
  5375  06F0  2EEA               	goto	u4645
  5376  06F1  1BC8               	btfsc	(___flmul@grs+3)^(0+128),7
  5377  06F2  144B               	bsf	___flmul@prod^(0+128),0
  5378  06F3  3001               	movlw	1
  5379  06F4  00BF               	movwf	??___flmul^(0+128)
  5380  06F5                     u4665:	
  5381  06F5  1003               	clrc
  5382  06F6  0DC5               	rlf	___flmul@grs^(0+128),f
  5383  06F7  0DC6               	rlf	(___flmul@grs+1)^(0+128),f
  5384  06F8  0DC7               	rlf	(___flmul@grs+2)^(0+128),f
  5385  06F9  0DC8               	rlf	(___flmul@grs+3)^(0+128),f
  5386  06FA  0BBF               	decfsz	??___flmul^(0+128),f
  5387  06FB  2EF5               	goto	u4665
  5388  06FC  30FF               	movlw	255
  5389  06FD  07CF               	addwf	___flmul@temp^(0+128),f
  5390  06FE  1803               	skipnc
  5391  06FF  0AD0               	incf	(___flmul@temp+1)^(0+128),f
  5392  0700  30FF               	movlw	255
  5393  0701  07D0               	addwf	(___flmul@temp+1)^(0+128),f
  5394  0702  2EE6               	goto	l3034
  5395  0703                     l3036:	
  5396  0703  01C9               	clrf	___flmul@aexp^(0+128)
  5397  0704  1FC8               	btfss	(___flmul@grs+3)^(0+128),7
  5398  0705  2F1C               	goto	l3046
  5399  0706  30FF               	movlw	255
  5400  0707  0545               	andwf	___flmul@grs^(0+128),w
  5401  0708  00BF               	movwf	??___flmul^(0+128)
  5402  0709  30FF               	movlw	255
  5403  070A  0546               	andwf	(___flmul@grs+1)^(0+128),w
  5404  070B  00C0               	movwf	(??___flmul^(0+128)+1)
  5405  070C  30FF               	movlw	255
  5406  070D  0547               	andwf	(___flmul@grs+2)^(0+128),w
  5407  070E  00C1               	movwf	(??___flmul^(0+128)+2)
  5408  070F  307F               	movlw	127
  5409  0710  0548               	andwf	(___flmul@grs+3)^(0+128),w
  5410  0711  00C2               	movwf	(??___flmul^(0+128)+3)
  5411  0712  0842               	movf	(??___flmul+3)^(0+128),w
  5412  0713  0441               	iorwf	(??___flmul+2)^(0+128),w
  5413  0714  0440               	iorwf	(??___flmul+1)^(0+128),w
  5414  0715  043F               	iorwf	??___flmul^(0+128),w
  5415  0716  1903               	skipnz
  5416  0717  184B               	btfsc	___flmul@prod^(0+128),0
  5417  0718  2F1A               	goto	l3042
  5418  0719  2F1C               	goto	l3046
  5419  071A                     l3042:	
  5420  071A  01C9               	clrf	___flmul@aexp^(0+128)
  5421  071B  0AC9               	incf	___flmul@aexp^(0+128),f
  5422  071C                     l3046:	
  5423  071C  0849               	movf	___flmul@aexp^(0+128),w
  5424  071D  1903               	btfsc	3,2
  5425  071E  2F4E               	goto	l3056
  5426  071F  3001               	movlw	1
  5427  0720  07CB               	addwf	___flmul@prod^(0+128),f
  5428  0721  3000               	movlw	0
  5429  0722  1803               	skipnc
  5430  0723  3001               	movlw	1
  5431  0724  07CC               	addwf	(___flmul@prod+1)^(0+128),f
  5432  0725  3000               	movlw	0
  5433  0726  1803               	skipnc
  5434  0727  3001               	movlw	1
  5435  0728  07CD               	addwf	(___flmul@prod+2)^(0+128),f
  5436  0729  3000               	movlw	0
  5437  072A  1803               	skipnc
  5438  072B  3001               	movlw	1
  5439  072C  07CE               	addwf	(___flmul@prod+3)^(0+128),f
  5440  072D  1C4E               	btfss	(___flmul@prod+3)^(0+128),0
  5441  072E  2F4E               	goto	l3056
  5442  072F  084B               	movf	___flmul@prod^(0+128),w
  5443  0730  00BF               	movwf	??___flmul^(0+128)
  5444  0731  084C               	movf	(___flmul@prod+1)^(0+128),w
  5445  0732  00C0               	movwf	(??___flmul^(0+128)+1)
  5446  0733  084D               	movf	(___flmul@prod+2)^(0+128),w
  5447  0734  00C1               	movwf	(??___flmul^(0+128)+2)
  5448  0735  084E               	movf	(___flmul@prod+3)^(0+128),w
  5449  0736  00C2               	movwf	(??___flmul^(0+128)+3)
  5450  0737  3001               	movlw	1
  5451  0738  00C3               	movwf	(??___flmul+4)^(0+128)
  5452  0739                     u4735:	
  5453  0739  0D42               	rlf	(??___flmul^(0+128)+3),w
  5454  073A  0CC2               	rrf	(??___flmul^(0+128)+3),f
  5455  073B  0CC1               	rrf	(??___flmul^(0+128)+2),f
  5456  073C  0CC0               	rrf	(??___flmul^(0+128)+1),f
  5457  073D  0CBF               	rrf	??___flmul^(0+128),f
  5458  073E  0BC3               	decfsz	(??___flmul+4)^(0+128),f
  5459  073F  2F39               	goto	u4735
  5460  0740  0842               	movf	(??___flmul+3)^(0+128),w
  5461  0741  00CE               	movwf	(___flmul@prod+3)^(0+128)
  5462  0742  0841               	movf	(??___flmul+2)^(0+128),w
  5463  0743  00CD               	movwf	(___flmul@prod+2)^(0+128)
  5464  0744  0840               	movf	(??___flmul+1)^(0+128),w
  5465  0745  00CC               	movwf	(___flmul@prod+1)^(0+128)
  5466  0746  083F               	movf	??___flmul^(0+128),w
  5467  0747  00CB               	movwf	___flmul@prod^(0+128)
  5468  0748  3001               	movlw	1
  5469  0749  07CF               	addwf	___flmul@temp^(0+128),f
  5470  074A  1803               	skipnc
  5471  074B  0AD0               	incf	(___flmul@temp+1)^(0+128),f
  5472  074C  3000               	movlw	0
  5473  074D  07D0               	addwf	(___flmul@temp+1)^(0+128),f
  5474  074E                     l3056:	
  5475  074E  0850               	movf	(___flmul@temp+1)^(0+128),w
  5476  074F  3A80               	xorlw	128
  5477  0750  00FF               	movwf	127
  5478  0751  3080               	movlw	128
  5479  0752  027F               	subwf	127,w
  5480  0753  1D03               	skipz
  5481  0754  2F57               	goto	u4745
  5482  0755  30FF               	movlw	255
  5483  0756  024F               	subwf	___flmul@temp^(0+128),w
  5484  0757                     u4745:	
  5485  0757  1C03               	skipc
  5486  0758  2F64               	goto	l3060
  5487  0759  307F               	movlw	127
  5488  075A  1683               	bsf	3,5	;RP0=1, select bank1
  5489  075B  1303               	bcf	3,6	;RP1=0, select bank1
  5490  075C  00CE               	movwf	(___flmul@prod+3)^(0+128)
  5491  075D  3080               	movlw	128
  5492  075E  00CD               	movwf	(___flmul@prod+2)^(0+128)
  5493  075F  3000               	movlw	0
  5494  0760  00CC               	movwf	(___flmul@prod+1)^(0+128)
  5495  0761  3000               	movlw	0
  5496  0762  00CB               	movwf	___flmul@prod^(0+128)
  5497  0763  2F94               	goto	l789
  5498  0764                     l3060:	
  5499  0764  1683               	bsf	3,5	;RP0=1, select bank1
  5500  0765  1303               	bcf	3,6	;RP1=0, select bank1
  5501  0766  0850               	movf	(___flmul@temp+1)^(0+128),w
  5502  0767  3A80               	xorlw	128
  5503  0768  00FF               	movwf	127
  5504  0769  3080               	movlw	128
  5505  076A  027F               	subwf	127,w
  5506  076B  1D03               	skipz
  5507  076C  2F6F               	goto	u4755
  5508  076D  3001               	movlw	1
  5509  076E  024F               	subwf	___flmul@temp^(0+128),w
  5510  076F                     u4755:	
  5511  076F  1803               	skipnc
  5512  0770  2F7D               	goto	l3066
  5513  0771  3000               	movlw	0
  5514  0772  1683               	bsf	3,5	;RP0=1, select bank1
  5515  0773  1303               	bcf	3,6	;RP1=0, select bank1
  5516  0774  00CE               	movwf	(___flmul@prod+3)^(0+128)
  5517  0775  3000               	movlw	0
  5518  0776  00CD               	movwf	(___flmul@prod+2)^(0+128)
  5519  0777  3000               	movlw	0
  5520  0778  00CC               	movwf	(___flmul@prod+1)^(0+128)
  5521  0779  3000               	movlw	0
  5522  077A  00CB               	movwf	___flmul@prod^(0+128)
  5523  077B  01C4               	clrf	___flmul@sign^(0+128)
  5524  077C  2F94               	goto	l789
  5525  077D                     l3066:	
  5526  077D  1683               	bsf	3,5	;RP0=1, select bank1
  5527  077E  1303               	bcf	3,6	;RP1=0, select bank1
  5528  077F  084F               	movf	___flmul@temp^(0+128),w
  5529  0780  00BF               	movwf	??___flmul^(0+128)
  5530  0781  083F               	movf	??___flmul^(0+128),w
  5531  0782  00CA               	movwf	___flmul@bexp^(0+128)
  5532  0783  30FF               	movlw	255
  5533  0784  05CB               	andwf	___flmul@prod^(0+128),f
  5534  0785  30FF               	movlw	255
  5535  0786  05CC               	andwf	(___flmul@prod+1)^(0+128),f
  5536  0787  307F               	movlw	127
  5537  0788  05CD               	andwf	(___flmul@prod+2)^(0+128),f
  5538  0789  3000               	movlw	0
  5539  078A  05CE               	andwf	(___flmul@prod+3)^(0+128),f
  5540  078B  184A               	btfsc	___flmul@bexp^(0+128),0
  5541  078C  17CD               	bsf	(___flmul@prod^(0+128)+2),7
  5542  078D  084A               	movf	___flmul@bexp^(0+128),w
  5543  078E  00BF               	movwf	??___flmul^(0+128)
  5544  078F  1003               	clrc
  5545  0790  0C3F               	rrf	??___flmul^(0+128),w
  5546  0791  00C0               	movwf	(??___flmul+1)^(0+128)
  5547  0792  0840               	movf	(??___flmul+1)^(0+128),w
  5548  0793  00CE               	movwf	(___flmul@prod^(0+128)+3)
  5549  0794                     l789:	
  5550  0794  0844               	movf	___flmul@sign^(0+128),w
  5551  0795  00BF               	movwf	??___flmul^(0+128)
  5552  0796  083F               	movf	??___flmul^(0+128),w
  5553  0797  04CE               	iorwf	(___flmul@prod^(0+128)+3),f
  5554  0798  084E               	movf	(___flmul@prod+3)^(0+128),w
  5555  0799  00BA               	movwf	(?___flmul+3)^(0+128)
  5556  079A  084D               	movf	(___flmul@prod+2)^(0+128),w
  5557  079B  00B9               	movwf	(?___flmul+2)^(0+128)
  5558  079C  084C               	movf	(___flmul@prod+1)^(0+128),w
  5559  079D  00B8               	movwf	(?___flmul+1)^(0+128)
  5560  079E  084B               	movf	___flmul@prod^(0+128),w
  5561  079F  00B7               	movwf	?___flmul^(0+128)
  5562  07A0  0008               	return
  5563  07A1                     __end_of___flmul:	
  5564                           
  5565                           	psect	text10
  5566  1E08                     __ptext10:	
  5567 ;; *************** function __Umul8_16 *****************
  5568 ;; Defined at:
  5569 ;;		line 4 in file "D:\PROGRAM\MPLABX v5.20\XC8 v2.05\pic\sources\c90\common\Umul8_16.c"
  5570 ;; Parameters:    Size  Location     Type
  5571 ;;  multiplier      1    wreg     unsigned char 
  5572 ;;  multiplicand    1    0[BANK1 ] unsigned char 
  5573 ;; Auto vars:     Size  Location     Type
  5574 ;;  multiplier      1    8[BANK1 ] unsigned char 
  5575 ;;  word_mpld       2    6[BANK1 ] unsigned int 
  5576 ;;  product         2    4[BANK1 ] unsigned int 
  5577 ;; Return value:  Size  Location     Type
  5578 ;;                  2    0[BANK1 ] unsigned int 
  5579 ;; Registers used:
  5580 ;;		wreg, status,2, status,0
  5581 ;; Tracked objects:
  5582 ;;		On entry : 0/0
  5583 ;;		On exit  : 0/0
  5584 ;;		Unchanged: 0/0
  5585 ;; Data sizes:     COMMON   BANK0   BANK1   BANK3   BANK2
  5586 ;;      Params:         0       0       2       0       0
  5587 ;;      Locals:         0       0       5       0       0
  5588 ;;      Temps:          0       0       2       0       0
  5589 ;;      Totals:         0       0       9       0       0
  5590 ;;Total ram usage:        9 bytes
  5591 ;; Hardware stack levels used:    1
  5592 ;; Hardware stack levels required when called:    3
  5593 ;; This function calls:
  5594 ;;		Nothing
  5595 ;; This function is called by:
  5596 ;;		___flmul
  5597 ;; This function uses a non-reentrant model
  5598 ;;
  5599                           
  5600                           
  5601                           ;psect for function __Umul8_16
  5602  1E08                     __Umul8_16:	
  5603                           
  5604                           ;incstack = 0
  5605                           ; Regs used in __Umul8_16: [wreg+status,2+status,0]
  5606                           ;__Umul8_16@multiplier stored from wreg
  5607  1E08  1683               	bsf	3,5	;RP0=1, select bank1
  5608  1E09  1303               	bcf	3,6	;RP1=0, select bank1
  5609  1E0A  00A8               	movwf	__Umul8_16@multiplier^(0+128)
  5610  1E0B  01A4               	clrf	__Umul8_16@product^(0+128)
  5611  1E0C  01A5               	clrf	(__Umul8_16@product+1)^(0+128)
  5612  1E0D  0820               	movf	__Umul8_16@multiplicand^(0+128),w
  5613  1E0E  00A2               	movwf	??__Umul8_16^(0+128)
  5614  1E0F  01A3               	clrf	(??__Umul8_16^(0+128)+1)
  5615  1E10  0822               	movf	??__Umul8_16^(0+128),w
  5616  1E11  00A6               	movwf	__Umul8_16@word_mpld^(0+128)
  5617  1E12  0823               	movf	(??__Umul8_16+1)^(0+128),w
  5618  1E13  00A7               	movwf	(__Umul8_16@word_mpld+1)^(0+128)
  5619  1E14                     l2602:	
  5620  1E14  1C28               	btfss	__Umul8_16@multiplier^(0+128),0
  5621  1E15  2E1C               	goto	l834
  5622  1E16  0826               	movf	__Umul8_16@word_mpld^(0+128),w
  5623  1E17  07A4               	addwf	__Umul8_16@product^(0+128),f
  5624  1E18  1803               	skipnc
  5625  1E19  0AA5               	incf	(__Umul8_16@product+1)^(0+128),f
  5626  1E1A  0827               	movf	(__Umul8_16@word_mpld+1)^(0+128),w
  5627  1E1B  07A5               	addwf	(__Umul8_16@product+1)^(0+128),f
  5628  1E1C                     l834:	
  5629  1E1C  3001               	movlw	1
  5630  1E1D                     u3685:	
  5631  1E1D  1003               	clrc
  5632  1E1E  0DA6               	rlf	__Umul8_16@word_mpld^(0+128),f
  5633  1E1F  0DA7               	rlf	(__Umul8_16@word_mpld+1)^(0+128),f
  5634  1E20  3EFF               	addlw	-1
  5635  1E21  1D03               	skipz
  5636  1E22  2E1D               	goto	u3685
  5637  1E23  1003               	clrc
  5638  1E24  0CA8               	rrf	__Umul8_16@multiplier^(0+128),f
  5639  1E25  0828               	movf	__Umul8_16@multiplier^(0+128),w
  5640  1E26  1D03               	btfss	3,2
  5641  1E27  2E14               	goto	l2602
  5642  1E28  0825               	movf	(__Umul8_16@product+1)^(0+128),w
  5643  1E29  00A1               	movwf	(?__Umul8_16+1)^(0+128)
  5644  1E2A  0824               	movf	__Umul8_16@product^(0+128),w
  5645  1E2B  00A0               	movwf	?__Umul8_16^(0+128)
  5646  1E2C  0008               	return
  5647  1E2D                     __end_of__Umul8_16:	
  5648                           
  5649                           	psect	text11
  5650  11F0                     __ptext11:	
  5651 ;; *************** function ___flge *****************
  5652 ;; Defined at:
  5653 ;;		line 4 in file "D:\PROGRAM\MPLABX v5.20\XC8 v2.05\pic\sources\c90\common\flge.c"
  5654 ;; Parameters:    Size  Location     Type
  5655 ;;  ff1             4    0[BANK1 ] unsigned int 
  5656 ;;  ff2             4    4[BANK1 ] unsigned int 
  5657 ;; Auto vars:     Size  Location     Type
  5658 ;;		None
  5659 ;; Return value:  Size  Location     Type
  5660 ;;		None               void
  5661 ;; Registers used:
  5662 ;;		wreg, status,2, status,0
  5663 ;; Tracked objects:
  5664 ;;		On entry : 0/0
  5665 ;;		On exit  : 0/0
  5666 ;;		Unchanged: 0/0
  5667 ;; Data sizes:     COMMON   BANK0   BANK1   BANK3   BANK2
  5668 ;;      Params:         0       0       8       0       0
  5669 ;;      Locals:         0       0       0       0       0
  5670 ;;      Temps:          0       0       4       0       0
  5671 ;;      Totals:         0       0      12       0       0
  5672 ;;Total ram usage:       12 bytes
  5673 ;; Hardware stack levels used:    1
  5674 ;; Hardware stack levels required when called:    3
  5675 ;; This function calls:
  5676 ;;		Nothing
  5677 ;; This function is called by:
  5678 ;;		_PID_Init
  5679 ;; This function uses a non-reentrant model
  5680 ;;
  5681                           
  5682                           
  5683                           ;psect for function ___flge
  5684  11F0                     ___flge:	
  5685                           
  5686                           ;incstack = 0
  5687                           ; Regs used in ___flge: [wreg+status,2+status,0]
  5688  11F0  3000               	movlw	0
  5689  11F1  1683               	bsf	3,5	;RP0=1, select bank1
  5690  11F2  1303               	bcf	3,6	;RP1=0, select bank1
  5691  11F3  0520               	andwf	___flge@ff1^(0+128),w
  5692  11F4  00A8               	movwf	??___flge^(0+128)
  5693  11F5  3000               	movlw	0
  5694  11F6  0521               	andwf	(___flge@ff1+1)^(0+128),w
  5695  11F7  00A9               	movwf	(??___flge^(0+128)+1)
  5696  11F8  3080               	movlw	128
  5697  11F9  0522               	andwf	(___flge@ff1+2)^(0+128),w
  5698  11FA  00AA               	movwf	(??___flge^(0+128)+2)
  5699  11FB  307F               	movlw	127
  5700  11FC  0523               	andwf	(___flge@ff1+3)^(0+128),w
  5701  11FD  00AB               	movwf	(??___flge^(0+128)+3)
  5702  11FE  082B               	movf	(??___flge+3)^(0+128),w
  5703  11FF  042A               	iorwf	(??___flge+2)^(0+128),w
  5704  1200  0429               	iorwf	(??___flge+1)^(0+128),w
  5705  1201  0428               	iorwf	??___flge^(0+128),w
  5706  1202  1D03               	skipz
  5707  1203  2A0C               	goto	l562
  5708  1204  3000               	movlw	0
  5709  1205  00A3               	movwf	(___flge@ff1+3)^(0+128)
  5710  1206  3000               	movlw	0
  5711  1207  00A2               	movwf	(___flge@ff1+2)^(0+128)
  5712  1208  3000               	movlw	0
  5713  1209  00A1               	movwf	(___flge@ff1+1)^(0+128)
  5714  120A  3000               	movlw	0
  5715  120B  00A0               	movwf	___flge@ff1^(0+128)
  5716  120C                     l562:	
  5717  120C  3000               	movlw	0
  5718  120D  0524               	andwf	___flge@ff2^(0+128),w
  5719  120E  00A8               	movwf	??___flge^(0+128)
  5720  120F  3000               	movlw	0
  5721  1210  0525               	andwf	(___flge@ff2+1)^(0+128),w
  5722  1211  00A9               	movwf	(??___flge^(0+128)+1)
  5723  1212  3080               	movlw	128
  5724  1213  0526               	andwf	(___flge@ff2+2)^(0+128),w
  5725  1214  00AA               	movwf	(??___flge^(0+128)+2)
  5726  1215  307F               	movlw	127
  5727  1216  0527               	andwf	(___flge@ff2+3)^(0+128),w
  5728  1217  00AB               	movwf	(??___flge^(0+128)+3)
  5729  1218  082B               	movf	(??___flge+3)^(0+128),w
  5730  1219  042A               	iorwf	(??___flge+2)^(0+128),w
  5731  121A  0429               	iorwf	(??___flge+1)^(0+128),w
  5732  121B  0428               	iorwf	??___flge^(0+128),w
  5733  121C  1D03               	skipz
  5734  121D  2A26               	goto	l2740
  5735  121E  3000               	movlw	0
  5736  121F  00A7               	movwf	(___flge@ff2+3)^(0+128)
  5737  1220  3000               	movlw	0
  5738  1221  00A6               	movwf	(___flge@ff2+2)^(0+128)
  5739  1222  3000               	movlw	0
  5740  1223  00A5               	movwf	(___flge@ff2+1)^(0+128)
  5741  1224  3000               	movlw	0
  5742  1225  00A4               	movwf	___flge@ff2^(0+128)
  5743  1226                     l2740:	
  5744  1226  1FA3               	btfss	(___flge@ff1+3)^(0+128),7
  5745  1227  2A4C               	goto	l2744
  5746  1228  3000               	movlw	0
  5747  1229  00A8               	movwf	??___flge^(0+128)
  5748  122A  3000               	movlw	0
  5749  122B  00A9               	movwf	(??___flge^(0+128)+1)
  5750  122C  3000               	movlw	0
  5751  122D  00AA               	movwf	(??___flge^(0+128)+2)
  5752  122E  3080               	movlw	128
  5753  122F  00AB               	movwf	(??___flge^(0+128)+3)
  5754  1230  0820               	movf	___flge@ff1^(0+128),w
  5755  1231  02A8               	subwf	??___flge^(0+128),f
  5756  1232  0821               	movf	(___flge@ff1+1)^(0+128),w
  5757  1233  1C03               	skipc
  5758  1234  0F21               	incfsz	(___flge@ff1+1)^(0+128),w
  5759  1235  2A37               	goto	u3971
  5760  1236  2A38               	goto	u3972
  5761  1237                     u3971:	
  5762  1237  02A9               	subwf	(??___flge^(0+128)+1),f
  5763  1238                     u3972:	
  5764  1238  0822               	movf	(___flge@ff1+2)^(0+128),w
  5765  1239  1C03               	skipc
  5766  123A  0F22               	incfsz	(___flge@ff1+2)^(0+128),w
  5767  123B  2A3D               	goto	u3973
  5768  123C  2A3E               	goto	u3974
  5769  123D                     u3973:	
  5770  123D  02AA               	subwf	(??___flge^(0+128)+2),f
  5771  123E                     u3974:	
  5772  123E  0823               	movf	(___flge@ff1+3)^(0+128),w
  5773  123F  1C03               	skipc
  5774  1240  0F23               	incfsz	(___flge@ff1+3)^(0+128),w
  5775  1241  2A43               	goto	u3975
  5776  1242  2A44               	goto	u3976
  5777  1243                     u3975:	
  5778  1243  02AB               	subwf	(??___flge^(0+128)+3),f
  5779  1244                     u3976:	
  5780  1244  082B               	movf	(??___flge+3)^(0+128),w
  5781  1245  00A3               	movwf	(___flge@ff1+3)^(0+128)
  5782  1246  082A               	movf	(??___flge+2)^(0+128),w
  5783  1247  00A2               	movwf	(___flge@ff1+2)^(0+128)
  5784  1248  0829               	movf	(??___flge+1)^(0+128),w
  5785  1249  00A1               	movwf	(___flge@ff1+1)^(0+128)
  5786  124A  0828               	movf	??___flge^(0+128),w
  5787  124B  00A0               	movwf	___flge@ff1^(0+128)
  5788  124C                     l2744:	
  5789  124C  1FA7               	btfss	(___flge@ff2+3)^(0+128),7
  5790  124D  2A72               	goto	l565
  5791  124E  3000               	movlw	0
  5792  124F  00A8               	movwf	??___flge^(0+128)
  5793  1250  3000               	movlw	0
  5794  1251  00A9               	movwf	(??___flge^(0+128)+1)
  5795  1252  3000               	movlw	0
  5796  1253  00AA               	movwf	(??___flge^(0+128)+2)
  5797  1254  3080               	movlw	128
  5798  1255  00AB               	movwf	(??___flge^(0+128)+3)
  5799  1256  0824               	movf	___flge@ff2^(0+128),w
  5800  1257  02A8               	subwf	??___flge^(0+128),f
  5801  1258  0825               	movf	(___flge@ff2+1)^(0+128),w
  5802  1259  1C03               	skipc
  5803  125A  0F25               	incfsz	(___flge@ff2+1)^(0+128),w
  5804  125B  2A5D               	goto	u3991
  5805  125C  2A5E               	goto	u3992
  5806  125D                     u3991:	
  5807  125D  02A9               	subwf	(??___flge^(0+128)+1),f
  5808  125E                     u3992:	
  5809  125E  0826               	movf	(___flge@ff2+2)^(0+128),w
  5810  125F  1C03               	skipc
  5811  1260  0F26               	incfsz	(___flge@ff2+2)^(0+128),w
  5812  1261  2A63               	goto	u3993
  5813  1262  2A64               	goto	u3994
  5814  1263                     u3993:	
  5815  1263  02AA               	subwf	(??___flge^(0+128)+2),f
  5816  1264                     u3994:	
  5817  1264  0827               	movf	(___flge@ff2+3)^(0+128),w
  5818  1265  1C03               	skipc
  5819  1266  0F27               	incfsz	(___flge@ff2+3)^(0+128),w
  5820  1267  2A69               	goto	u3995
  5821  1268  2A6A               	goto	u3996
  5822  1269                     u3995:	
  5823  1269  02AB               	subwf	(??___flge^(0+128)+3),f
  5824  126A                     u3996:	
  5825  126A  082B               	movf	(??___flge+3)^(0+128),w
  5826  126B  00A7               	movwf	(___flge@ff2+3)^(0+128)
  5827  126C  082A               	movf	(??___flge+2)^(0+128),w
  5828  126D  00A6               	movwf	(___flge@ff2+2)^(0+128)
  5829  126E  0829               	movf	(??___flge+1)^(0+128),w
  5830  126F  00A5               	movwf	(___flge@ff2+1)^(0+128)
  5831  1270  0828               	movf	??___flge^(0+128),w
  5832  1271  00A4               	movwf	___flge@ff2^(0+128)
  5833  1272                     l565:	
  5834  1272  3080               	movlw	128
  5835  1273  06A3               	xorwf	(___flge@ff1+3)^(0+128),f
  5836  1274  3080               	movlw	128
  5837  1275  06A7               	xorwf	(___flge@ff2+3)^(0+128),f
  5838  1276  0827               	movf	(___flge@ff2+3)^(0+128),w
  5839  1277  0223               	subwf	(___flge@ff1+3)^(0+128),w
  5840  1278  1D03               	skipz
  5841  1279  0008               	return
  5842  127A  0826               	movf	(___flge@ff2+2)^(0+128),w
  5843  127B  0222               	subwf	(___flge@ff1+2)^(0+128),w
  5844  127C  1D03               	skipz
  5845  127D  0008               	return
  5846  127E  0825               	movf	(___flge@ff2+1)^(0+128),w
  5847  127F  0221               	subwf	(___flge@ff1+1)^(0+128),w
  5848  1280  1D03               	skipz
  5849  1281  0008               	return
  5850  1282  0824               	movf	___flge@ff2^(0+128),w
  5851  1283  0220               	subwf	___flge@ff1^(0+128),w
  5852  1284  0008               	return
  5853  1285                     __end_of___flge:	
  5854                           
  5855                           	psect	text12
  5856  165D                     __ptext12:	
  5857 ;; *************** function ___fldiv *****************
  5858 ;; Defined at:
  5859 ;;		line 8 in file "D:\PROGRAM\MPLABX v5.20\XC8 v2.05\pic\sources\c90\common\sprcdiv.c"
  5860 ;; Parameters:    Size  Location     Type
  5861 ;;  a               4   49[BANK1 ] unsigned int 
  5862 ;;  b               4   53[BANK1 ] unsigned int 
  5863 ;; Auto vars:     Size  Location     Type
  5864 ;;  grs             4   69[BANK1 ] unsigned long 
  5865 ;;  rem             4   62[BANK1 ] unsigned long 
  5866 ;;  new_exp         2   67[BANK1 ] int 
  5867 ;;  aexp            1   74[BANK1 ] unsigned char 
  5868 ;;  bexp            1   73[BANK1 ] unsigned char 
  5869 ;;  sign            1   66[BANK1 ] unsigned char 
  5870 ;; Return value:  Size  Location     Type
  5871 ;;                  4   49[BANK1 ] unsigned char 
  5872 ;; Registers used:
  5873 ;;		wreg, status,2, status,0, btemp+1
  5874 ;; Tracked objects:
  5875 ;;		On entry : 0/0
  5876 ;;		On exit  : 0/0
  5877 ;;		Unchanged: 0/0
  5878 ;; Data sizes:     COMMON   BANK0   BANK1   BANK3   BANK2
  5879 ;;      Params:         0       0       8       0       0
  5880 ;;      Locals:         0       0      13       0       0
  5881 ;;      Temps:          0       0       5       0       0
  5882 ;;      Totals:         0       0      26       0       0
  5883 ;;Total ram usage:       26 bytes
  5884 ;; Hardware stack levels used:    1
  5885 ;; Hardware stack levels required when called:    3
  5886 ;; This function calls:
  5887 ;;		Nothing
  5888 ;; This function is called by:
  5889 ;;		_PID_Init
  5890 ;; This function uses a non-reentrant model
  5891 ;;
  5892                           
  5893                           
  5894                           ;psect for function ___fldiv
  5895  165D                     ___fldiv:	
  5896                           
  5897                           ;incstack = 0
  5898                           ; Regs used in ___fldiv: [wreg+status,2+status,0+btemp+1]
  5899  165D  1683               	bsf	3,5	;RP0=1, select bank1
  5900  165E  1303               	bcf	3,6	;RP1=0, select bank1
  5901  165F  0858               	movf	(___fldiv@b^(0+128)+3),w
  5902  1660  3980               	andlw	128
  5903  1661  00D9               	movwf	??___fldiv^(0+128)
  5904  1662  0859               	movf	??___fldiv^(0+128),w
  5905  1663  00E2               	movwf	___fldiv@sign^(0+128)
  5906  1664  0858               	movf	(___fldiv@b^(0+128)+3),w
  5907  1665  00D9               	movwf	??___fldiv^(0+128)
  5908  1666  0759               	addwf	??___fldiv^(0+128),w
  5909  1667  00DA               	movwf	(??___fldiv+1)^(0+128)
  5910  1668  085A               	movf	(??___fldiv+1)^(0+128),w
  5911  1669  00E9               	movwf	___fldiv@bexp^(0+128)
  5912  166A  1BD7               	btfsc	(___fldiv@b^(0+128)+2),7
  5913  166B  1469               	bsf	___fldiv@bexp^(0+128),0
  5914  166C  0869               	movf	___fldiv@bexp^(0+128),w
  5915  166D  1903               	btfsc	3,2
  5916  166E  2E7D               	goto	l2814
  5917  166F  0A69               	incf	___fldiv@bexp^(0+128),w
  5918  1670  1D03               	btfss	3,2
  5919  1671  2E7A               	goto	l2810
  5920  1672  3000               	movlw	0
  5921  1673  00D8               	movwf	(___fldiv@b+3)^(0+128)
  5922  1674  3000               	movlw	0
  5923  1675  00D7               	movwf	(___fldiv@b+2)^(0+128)
  5924  1676  3000               	movlw	0
  5925  1677  00D6               	movwf	(___fldiv@b+1)^(0+128)
  5926  1678  3000               	movlw	0
  5927  1679  00D5               	movwf	___fldiv@b^(0+128)
  5928  167A                     l2810:	
  5929  167A  17D7               	bsf	(___fldiv@b^(0+128)+2),7
  5930  167B  01D8               	clrf	(___fldiv@b^(0+128)+3)
  5931  167C  2E85               	goto	l2816
  5932  167D                     l2814:	
  5933  167D  3000               	movlw	0
  5934  167E  00D8               	movwf	(___fldiv@b+3)^(0+128)
  5935  167F  3000               	movlw	0
  5936  1680  00D7               	movwf	(___fldiv@b+2)^(0+128)
  5937  1681  3000               	movlw	0
  5938  1682  00D6               	movwf	(___fldiv@b+1)^(0+128)
  5939  1683  3000               	movlw	0
  5940  1684  00D5               	movwf	___fldiv@b^(0+128)
  5941  1685                     l2816:	
  5942  1685  0854               	movf	(___fldiv@a^(0+128)+3),w
  5943  1686  3980               	andlw	128
  5944  1687  00D9               	movwf	??___fldiv^(0+128)
  5945  1688  0859               	movf	??___fldiv^(0+128),w
  5946  1689  06E2               	xorwf	___fldiv@sign^(0+128),f
  5947  168A  0854               	movf	(___fldiv@a^(0+128)+3),w
  5948  168B  00D9               	movwf	??___fldiv^(0+128)
  5949  168C  0759               	addwf	??___fldiv^(0+128),w
  5950  168D  00DA               	movwf	(??___fldiv+1)^(0+128)
  5951  168E  085A               	movf	(??___fldiv+1)^(0+128),w
  5952  168F  00EA               	movwf	___fldiv@aexp^(0+128)
  5953  1690  1BD3               	btfsc	(___fldiv@a^(0+128)+2),7
  5954  1691  146A               	bsf	___fldiv@aexp^(0+128),0
  5955  1692  086A               	movf	___fldiv@aexp^(0+128),w
  5956  1693  1903               	btfsc	3,2
  5957  1694  2EA3               	goto	l2834
  5958  1695  0A6A               	incf	___fldiv@aexp^(0+128),w
  5959  1696  1D03               	btfss	3,2
  5960  1697  2EA0               	goto	l2830
  5961  1698  3000               	movlw	0
  5962  1699  00D4               	movwf	(___fldiv@a+3)^(0+128)
  5963  169A  3000               	movlw	0
  5964  169B  00D3               	movwf	(___fldiv@a+2)^(0+128)
  5965  169C  3000               	movlw	0
  5966  169D  00D2               	movwf	(___fldiv@a+1)^(0+128)
  5967  169E  3000               	movlw	0
  5968  169F  00D1               	movwf	___fldiv@a^(0+128)
  5969  16A0                     l2830:	
  5970  16A0  17D3               	bsf	(___fldiv@a^(0+128)+2),7
  5971  16A1  01D4               	clrf	(___fldiv@a^(0+128)+3)
  5972  16A2  2EAB               	goto	l737
  5973  16A3                     l2834:	
  5974  16A3  3000               	movlw	0
  5975  16A4  00D4               	movwf	(___fldiv@a+3)^(0+128)
  5976  16A5  3000               	movlw	0
  5977  16A6  00D3               	movwf	(___fldiv@a+2)^(0+128)
  5978  16A7  3000               	movlw	0
  5979  16A8  00D2               	movwf	(___fldiv@a+1)^(0+128)
  5980  16A9  3000               	movlw	0
  5981  16AA  00D1               	movwf	___fldiv@a^(0+128)
  5982  16AB                     l737:	
  5983  16AB  0854               	movf	(___fldiv@a+3)^(0+128),w
  5984  16AC  0453               	iorwf	(___fldiv@a+2)^(0+128),w
  5985  16AD  0452               	iorwf	(___fldiv@a+1)^(0+128),w
  5986  16AE  0451               	iorwf	___fldiv@a^(0+128),w
  5987  16AF  1D03               	skipz
  5988  16B0  2ECA               	goto	l2844
  5989  16B1  3000               	movlw	0
  5990  16B2  00D8               	movwf	(___fldiv@b+3)^(0+128)
  5991  16B3  3000               	movlw	0
  5992  16B4  00D7               	movwf	(___fldiv@b+2)^(0+128)
  5993  16B5  3000               	movlw	0
  5994  16B6  00D6               	movwf	(___fldiv@b+1)^(0+128)
  5995  16B7  3000               	movlw	0
  5996  16B8  00D5               	movwf	___fldiv@b^(0+128)
  5997  16B9  3080               	movlw	128
  5998  16BA  04D7               	iorwf	(___fldiv@b^(0+128)+2),f
  5999  16BB  307F               	movlw	127
  6000  16BC  04D8               	iorwf	((___fldiv@b+1)^(0+128)+2),f
  6001  16BD                     L3:	
  6002  16BD  0862               	movf	___fldiv@sign^(0+128),w
  6003  16BE  00D9               	movwf	??___fldiv^(0+128)
  6004  16BF  0859               	movf	??___fldiv^(0+128),w
  6005  16C0  04D8               	iorwf	(___fldiv@b^(0+128)+3),f
  6006  16C1  0858               	movf	(___fldiv@b+3)^(0+128),w
  6007  16C2  00D4               	movwf	(?___fldiv+3)^(0+128)
  6008  16C3  0857               	movf	(___fldiv@b+2)^(0+128),w
  6009  16C4  00D3               	movwf	(?___fldiv+2)^(0+128)
  6010  16C5  0856               	movf	(___fldiv@b+1)^(0+128),w
  6011  16C6  00D2               	movwf	(?___fldiv+1)^(0+128)
  6012  16C7  0855               	movf	___fldiv@b^(0+128),w
  6013  16C8  00D1               	movwf	?___fldiv^(0+128)
  6014  16C9  0008               	return
  6015  16CA                     l2844:	
  6016  16CA  0869               	movf	___fldiv@bexp^(0+128),w
  6017  16CB  1D03               	btfss	3,2
  6018  16CC  2ED6               	goto	l2850
  6019  16CD  3000               	movlw	0
  6020  16CE  00D4               	movwf	(?___fldiv+3)^(0+128)
  6021  16CF  3000               	movlw	0
  6022  16D0  00D3               	movwf	(?___fldiv+2)^(0+128)
  6023  16D1  3000               	movlw	0
  6024  16D2  00D2               	movwf	(?___fldiv+1)^(0+128)
  6025  16D3  3000               	movlw	0
  6026  16D4  00D1               	movwf	?___fldiv^(0+128)
  6027  16D5  0008               	return
  6028  16D6                     l2850:	
  6029  16D6  0869               	movf	___fldiv@bexp^(0+128),w
  6030  16D7  00D9               	movwf	??___fldiv^(0+128)
  6031  16D8  01DA               	clrf	(??___fldiv^(0+128)+1)
  6032  16D9  085A               	movf	(??___fldiv+1)^(0+128),w
  6033  16DA  00DC               	movwf	((??___fldiv+2)^(0+128)+1)
  6034  16DB  086A               	movf	___fldiv@aexp^(0+128),w
  6035  16DC  0259               	subwf	??___fldiv^(0+128),w
  6036  16DD  00DB               	movwf	(??___fldiv+2)^(0+128)
  6037  16DE  1C03               	skipc
  6038  16DF  03DC               	decf	((??___fldiv+2)^(0+128)+1),f
  6039  16E0  085B               	movf	(??___fldiv+2)^(0+128),w
  6040  16E1  3E7F               	addlw	127
  6041  16E2  00E3               	movwf	___fldiv@new_exp^(0+128)
  6042  16E3  085C               	movf	(??___fldiv+3)^(0+128),w
  6043  16E4  1803               	skipnc
  6044  16E5  3E01               	addlw	1
  6045  16E6  3E00               	addlw	0
  6046  16E7  00E4               	movwf	(___fldiv@new_exp+1)^(0+128)
  6047  16E8  0858               	movf	(___fldiv@b+3)^(0+128),w
  6048  16E9  00E1               	movwf	(___fldiv@rem+3)^(0+128)
  6049  16EA  0857               	movf	(___fldiv@b+2)^(0+128),w
  6050  16EB  00E0               	movwf	(___fldiv@rem+2)^(0+128)
  6051  16EC  0856               	movf	(___fldiv@b+1)^(0+128),w
  6052  16ED  00DF               	movwf	(___fldiv@rem+1)^(0+128)
  6053  16EE  0855               	movf	___fldiv@b^(0+128),w
  6054  16EF  00DE               	movwf	___fldiv@rem^(0+128)
  6055  16F0  3000               	movlw	0
  6056  16F1  00D8               	movwf	(___fldiv@b+3)^(0+128)
  6057  16F2  3000               	movlw	0
  6058  16F3  00D7               	movwf	(___fldiv@b+2)^(0+128)
  6059  16F4  3000               	movlw	0
  6060  16F5  00D6               	movwf	(___fldiv@b+1)^(0+128)
  6061  16F6  3000               	movlw	0
  6062  16F7  00D5               	movwf	___fldiv@b^(0+128)
  6063  16F8  3000               	movlw	0
  6064  16F9  00E8               	movwf	(___fldiv@grs+3)^(0+128)
  6065  16FA  3000               	movlw	0
  6066  16FB  00E7               	movwf	(___fldiv@grs+2)^(0+128)
  6067  16FC  3000               	movlw	0
  6068  16FD  00E6               	movwf	(___fldiv@grs+1)^(0+128)
  6069  16FE  3000               	movlw	0
  6070  16FF  00E5               	movwf	___fldiv@grs^(0+128)
  6071  1700  01EA               	clrf	___fldiv@aexp^(0+128)
  6072  1701                     l2878:	
  6073  1701  301A               	movlw	26
  6074  1702  026A               	subwf	___fldiv@aexp^(0+128),w
  6075  1703  1803               	btfsc	3,0
  6076  1704  2F49               	goto	l2880
  6077  1705  086A               	movf	___fldiv@aexp^(0+128),w
  6078  1706  1903               	btfsc	3,2
  6079  1707  2F25               	goto	l2870
  6080  1708  3001               	movlw	1
  6081  1709  00D9               	movwf	??___fldiv^(0+128)
  6082  170A                     u4205:	
  6083  170A  1003               	clrc
  6084  170B  0DDE               	rlf	___fldiv@rem^(0+128),f
  6085  170C  0DDF               	rlf	(___fldiv@rem+1)^(0+128),f
  6086  170D  0DE0               	rlf	(___fldiv@rem+2)^(0+128),f
  6087  170E  0DE1               	rlf	(___fldiv@rem+3)^(0+128),f
  6088  170F  0BD9               	decfsz	??___fldiv^(0+128),f
  6089  1710  2F0A               	goto	u4205
  6090  1711  3001               	movlw	1
  6091  1712  00D9               	movwf	??___fldiv^(0+128)
  6092  1713                     u4215:	
  6093  1713  1003               	clrc
  6094  1714  0DD5               	rlf	___fldiv@b^(0+128),f
  6095  1715  0DD6               	rlf	(___fldiv@b+1)^(0+128),f
  6096  1716  0DD7               	rlf	(___fldiv@b+2)^(0+128),f
  6097  1717  0DD8               	rlf	(___fldiv@b+3)^(0+128),f
  6098  1718  0BD9               	decfsz	??___fldiv^(0+128),f
  6099  1719  2F13               	goto	u4215
  6100  171A  1BE8               	btfsc	(___fldiv@grs+3)^(0+128),7
  6101  171B  1455               	bsf	___fldiv@b^(0+128),0
  6102  171C  3001               	movlw	1
  6103  171D  00D9               	movwf	??___fldiv^(0+128)
  6104  171E                     u4235:	
  6105  171E  1003               	clrc
  6106  171F  0DE5               	rlf	___fldiv@grs^(0+128),f
  6107  1720  0DE6               	rlf	(___fldiv@grs+1)^(0+128),f
  6108  1721  0DE7               	rlf	(___fldiv@grs+2)^(0+128),f
  6109  1722  0DE8               	rlf	(___fldiv@grs+3)^(0+128),f
  6110  1723  0BD9               	decfsz	??___fldiv^(0+128),f
  6111  1724  2F1E               	goto	u4235
  6112  1725                     l2870:	
  6113  1725  0854               	movf	(___fldiv@a+3)^(0+128),w
  6114  1726  0261               	subwf	(___fldiv@rem+3)^(0+128),w
  6115  1727  1D03               	skipz
  6116  1728  2F33               	goto	u4245
  6117  1729  0853               	movf	(___fldiv@a+2)^(0+128),w
  6118  172A  0260               	subwf	(___fldiv@rem+2)^(0+128),w
  6119  172B  1D03               	skipz
  6120  172C  2F33               	goto	u4245
  6121  172D  0852               	movf	(___fldiv@a+1)^(0+128),w
  6122  172E  025F               	subwf	(___fldiv@rem+1)^(0+128),w
  6123  172F  1D03               	skipz
  6124  1730  2F33               	goto	u4245
  6125  1731  0851               	movf	___fldiv@a^(0+128),w
  6126  1732  025E               	subwf	___fldiv@rem^(0+128),w
  6127  1733                     u4245:	
  6128  1733  1C03               	skipc
  6129  1734  2F44               	goto	l2876
  6130  1735  1768               	bsf	(___fldiv@grs^(0+128)+3),6
  6131  1736  0851               	movf	___fldiv@a^(0+128),w
  6132  1737  02DE               	subwf	___fldiv@rem^(0+128),f
  6133  1738  0852               	movf	(___fldiv@a+1)^(0+128),w
  6134  1739  1C03               	skipc
  6135  173A  0F52               	incfsz	(___fldiv@a+1)^(0+128),w
  6136  173B  02DF               	subwf	(___fldiv@rem+1)^(0+128),f
  6137  173C  0853               	movf	(___fldiv@a+2)^(0+128),w
  6138  173D  1C03               	skipc
  6139  173E  0F53               	incfsz	(___fldiv@a+2)^(0+128),w
  6140  173F  02E0               	subwf	(___fldiv@rem+2)^(0+128),f
  6141  1740  0854               	movf	(___fldiv@a+3)^(0+128),w
  6142  1741  1C03               	skipc
  6143  1742  0F54               	incfsz	(___fldiv@a+3)^(0+128),w
  6144  1743  02E1               	subwf	(___fldiv@rem+3)^(0+128),f
  6145  1744                     l2876:	
  6146  1744  3001               	movlw	1
  6147  1745  00D9               	movwf	??___fldiv^(0+128)
  6148  1746  0859               	movf	??___fldiv^(0+128),w
  6149  1747  07EA               	addwf	___fldiv@aexp^(0+128),f
  6150  1748  2F01               	goto	l2878
  6151  1749                     l2880:	
  6152  1749  0861               	movf	(___fldiv@rem+3)^(0+128),w
  6153  174A  0460               	iorwf	(___fldiv@rem+2)^(0+128),w
  6154  174B  045F               	iorwf	(___fldiv@rem+1)^(0+128),w
  6155  174C  045E               	iorwf	___fldiv@rem^(0+128),w
  6156  174D  1D03               	btfss	3,2
  6157  174E  1465               	bsf	___fldiv@grs^(0+128),0
  6158  174F                     l2894:	
  6159  174F  1BD7               	btfsc	(___fldiv@b+2)^(0+128),7
  6160  1750  2F6C               	goto	l2896
  6161  1751  3001               	movlw	1
  6162  1752  00D9               	movwf	??___fldiv^(0+128)
  6163  1753                     u4275:	
  6164  1753  1003               	clrc
  6165  1754  0DD5               	rlf	___fldiv@b^(0+128),f
  6166  1755  0DD6               	rlf	(___fldiv@b+1)^(0+128),f
  6167  1756  0DD7               	rlf	(___fldiv@b+2)^(0+128),f
  6168  1757  0DD8               	rlf	(___fldiv@b+3)^(0+128),f
  6169  1758  0BD9               	decfsz	??___fldiv^(0+128),f
  6170  1759  2F53               	goto	u4275
  6171  175A  1BE8               	btfsc	(___fldiv@grs+3)^(0+128),7
  6172  175B  1455               	bsf	___fldiv@b^(0+128),0
  6173  175C  3001               	movlw	1
  6174  175D  00D9               	movwf	??___fldiv^(0+128)
  6175  175E                     u4295:	
  6176  175E  1003               	clrc
  6177  175F  0DE5               	rlf	___fldiv@grs^(0+128),f
  6178  1760  0DE6               	rlf	(___fldiv@grs+1)^(0+128),f
  6179  1761  0DE7               	rlf	(___fldiv@grs+2)^(0+128),f
  6180  1762  0DE8               	rlf	(___fldiv@grs+3)^(0+128),f
  6181  1763  0BD9               	decfsz	??___fldiv^(0+128),f
  6182  1764  2F5E               	goto	u4295
  6183  1765  30FF               	movlw	255
  6184  1766  07E3               	addwf	___fldiv@new_exp^(0+128),f
  6185  1767  1803               	skipnc
  6186  1768  0AE4               	incf	(___fldiv@new_exp+1)^(0+128),f
  6187  1769  30FF               	movlw	255
  6188  176A  07E4               	addwf	(___fldiv@new_exp+1)^(0+128),f
  6189  176B  2F4F               	goto	l2894
  6190  176C                     l2896:	
  6191  176C  01EA               	clrf	___fldiv@aexp^(0+128)
  6192  176D  1FE8               	btfss	(___fldiv@grs+3)^(0+128),7
  6193  176E  2F85               	goto	l2906
  6194  176F  30FF               	movlw	255
  6195  1770  0565               	andwf	___fldiv@grs^(0+128),w
  6196  1771  00D9               	movwf	??___fldiv^(0+128)
  6197  1772  30FF               	movlw	255
  6198  1773  0566               	andwf	(___fldiv@grs+1)^(0+128),w
  6199  1774  00DA               	movwf	(??___fldiv^(0+128)+1)
  6200  1775  30FF               	movlw	255
  6201  1776  0567               	andwf	(___fldiv@grs+2)^(0+128),w
  6202  1777  00DB               	movwf	(??___fldiv^(0+128)+2)
  6203  1778  307F               	movlw	127
  6204  1779  0568               	andwf	(___fldiv@grs+3)^(0+128),w
  6205  177A  00DC               	movwf	(??___fldiv^(0+128)+3)
  6206  177B  085C               	movf	(??___fldiv+3)^(0+128),w
  6207  177C  045B               	iorwf	(??___fldiv+2)^(0+128),w
  6208  177D  045A               	iorwf	(??___fldiv+1)^(0+128),w
  6209  177E  0459               	iorwf	??___fldiv^(0+128),w
  6210  177F  1903               	skipnz
  6211  1780  1855               	btfsc	___fldiv@b^(0+128),0
  6212  1781  2F83               	goto	l2902
  6213  1782  2F85               	goto	l2906
  6214  1783                     l2902:	
  6215  1783  01EA               	clrf	___fldiv@aexp^(0+128)
  6216  1784  0AEA               	incf	___fldiv@aexp^(0+128),f
  6217  1785                     l2906:	
  6218  1785  086A               	movf	___fldiv@aexp^(0+128),w
  6219  1786  1903               	btfsc	3,2
  6220  1787  2FB7               	goto	l2916
  6221  1788  3001               	movlw	1
  6222  1789  07D5               	addwf	___fldiv@b^(0+128),f
  6223  178A  3000               	movlw	0
  6224  178B  1803               	skipnc
  6225  178C  3001               	movlw	1
  6226  178D  07D6               	addwf	(___fldiv@b+1)^(0+128),f
  6227  178E  3000               	movlw	0
  6228  178F  1803               	skipnc
  6229  1790  3001               	movlw	1
  6230  1791  07D7               	addwf	(___fldiv@b+2)^(0+128),f
  6231  1792  3000               	movlw	0
  6232  1793  1803               	skipnc
  6233  1794  3001               	movlw	1
  6234  1795  07D8               	addwf	(___fldiv@b+3)^(0+128),f
  6235  1796  1C58               	btfss	(___fldiv@b+3)^(0+128),0
  6236  1797  2FB7               	goto	l2916
  6237  1798  0855               	movf	___fldiv@b^(0+128),w
  6238  1799  00D9               	movwf	??___fldiv^(0+128)
  6239  179A  0856               	movf	(___fldiv@b+1)^(0+128),w
  6240  179B  00DA               	movwf	(??___fldiv^(0+128)+1)
  6241  179C  0857               	movf	(___fldiv@b+2)^(0+128),w
  6242  179D  00DB               	movwf	(??___fldiv^(0+128)+2)
  6243  179E  0858               	movf	(___fldiv@b+3)^(0+128),w
  6244  179F  00DC               	movwf	(??___fldiv^(0+128)+3)
  6245  17A0  3001               	movlw	1
  6246  17A1  00DD               	movwf	(??___fldiv+4)^(0+128)
  6247  17A2                     u4365:	
  6248  17A2  0D5C               	rlf	(??___fldiv^(0+128)+3),w
  6249  17A3  0CDC               	rrf	(??___fldiv^(0+128)+3),f
  6250  17A4  0CDB               	rrf	(??___fldiv^(0+128)+2),f
  6251  17A5  0CDA               	rrf	(??___fldiv^(0+128)+1),f
  6252  17A6  0CD9               	rrf	??___fldiv^(0+128),f
  6253  17A7  0BDD               	decfsz	(??___fldiv+4)^(0+128),f
  6254  17A8  2FA2               	goto	u4365
  6255  17A9  085C               	movf	(??___fldiv+3)^(0+128),w
  6256  17AA  00D8               	movwf	(___fldiv@b+3)^(0+128)
  6257  17AB  085B               	movf	(??___fldiv+2)^(0+128),w
  6258  17AC  00D7               	movwf	(___fldiv@b+2)^(0+128)
  6259  17AD  085A               	movf	(??___fldiv+1)^(0+128),w
  6260  17AE  00D6               	movwf	(___fldiv@b+1)^(0+128)
  6261  17AF  0859               	movf	??___fldiv^(0+128),w
  6262  17B0  00D5               	movwf	___fldiv@b^(0+128)
  6263  17B1  3001               	movlw	1
  6264  17B2  07E3               	addwf	___fldiv@new_exp^(0+128),f
  6265  17B3  1803               	skipnc
  6266  17B4  0AE4               	incf	(___fldiv@new_exp+1)^(0+128),f
  6267  17B5  3000               	movlw	0
  6268  17B6  07E4               	addwf	(___fldiv@new_exp+1)^(0+128),f
  6269  17B7                     l2916:	
  6270  17B7  0864               	movf	(___fldiv@new_exp+1)^(0+128),w
  6271  17B8  3A80               	xorlw	128
  6272  17B9  00FF               	movwf	127
  6273  17BA  3080               	movlw	128
  6274  17BB  027F               	subwf	127,w
  6275  17BC  1D03               	skipz
  6276  17BD  2FC0               	goto	u4375
  6277  17BE  30FF               	movlw	255
  6278  17BF  0263               	subwf	___fldiv@new_exp^(0+128),w
  6279  17C0                     u4375:	
  6280  17C0  1C03               	skipc
  6281  17C1  2FD0               	goto	l2920
  6282  17C2  30FF               	movlw	255
  6283  17C3  1683               	bsf	3,5	;RP0=1, select bank1
  6284  17C4  1303               	bcf	3,6	;RP1=0, select bank1
  6285  17C5  00E3               	movwf	___fldiv@new_exp^(0+128)
  6286  17C6  3000               	movlw	0
  6287  17C7  00E4               	movwf	(___fldiv@new_exp^(0+128)+1)
  6288  17C8  3000               	movlw	0
  6289  17C9  00D8               	movwf	(___fldiv@b+3)^(0+128)
  6290  17CA  3000               	movlw	0
  6291  17CB  00D7               	movwf	(___fldiv@b+2)^(0+128)
  6292  17CC  3000               	movlw	0
  6293  17CD  00D6               	movwf	(___fldiv@b+1)^(0+128)
  6294  17CE  3000               	movlw	0
  6295  17CF  00D5               	movwf	___fldiv@b^(0+128)
  6296  17D0                     l2920:	
  6297  17D0  1683               	bsf	3,5	;RP0=1, select bank1
  6298  17D1  1303               	bcf	3,6	;RP1=0, select bank1
  6299  17D2  0864               	movf	(___fldiv@new_exp+1)^(0+128),w
  6300  17D3  3A80               	xorlw	128
  6301  17D4  00FF               	movwf	127
  6302  17D5  3080               	movlw	128
  6303  17D6  027F               	subwf	127,w
  6304  17D7  1D03               	skipz
  6305  17D8  2FDB               	goto	u4385
  6306  17D9  3001               	movlw	1
  6307  17DA  0263               	subwf	___fldiv@new_exp^(0+128),w
  6308  17DB                     u4385:	
  6309  17DB  1803               	skipnc
  6310  17DC  2FEA               	goto	l759
  6311  17DD  1683               	bsf	3,5	;RP0=1, select bank1
  6312  17DE  1303               	bcf	3,6	;RP1=0, select bank1
  6313  17DF  01E3               	clrf	___fldiv@new_exp^(0+128)
  6314  17E0  01E4               	clrf	(___fldiv@new_exp+1)^(0+128)
  6315  17E1  3000               	movlw	0
  6316  17E2  00D8               	movwf	(___fldiv@b+3)^(0+128)
  6317  17E3  3000               	movlw	0
  6318  17E4  00D7               	movwf	(___fldiv@b+2)^(0+128)
  6319  17E5  3000               	movlw	0
  6320  17E6  00D6               	movwf	(___fldiv@b+1)^(0+128)
  6321  17E7  3000               	movlw	0
  6322  17E8  00D5               	movwf	___fldiv@b^(0+128)
  6323  17E9  01E2               	clrf	___fldiv@sign^(0+128)
  6324  17EA                     l759:	
  6325  17EA  1683               	bsf	3,5	;RP0=1, select bank1
  6326  17EB  1303               	bcf	3,6	;RP1=0, select bank1
  6327  17EC  0863               	movf	___fldiv@new_exp^(0+128),w
  6328  17ED  00D9               	movwf	??___fldiv^(0+128)
  6329  17EE  0859               	movf	??___fldiv^(0+128),w
  6330  17EF  00E9               	movwf	___fldiv@bexp^(0+128)
  6331  17F0  1C69               	btfss	___fldiv@bexp^(0+128),0
  6332  17F1  2FF4               	goto	l2932
  6333  17F2  17D7               	bsf	(___fldiv@b^(0+128)+2),7
  6334  17F3  2FF8               	goto	l761
  6335  17F4                     l2932:	
  6336  17F4  307F               	movlw	127
  6337  17F5  00D9               	movwf	??___fldiv^(0+128)
  6338  17F6  0859               	movf	??___fldiv^(0+128),w
  6339  17F7  05D7               	andwf	(___fldiv@b^(0+128)+2),f
  6340  17F8                     l761:	
  6341  17F8  0869               	movf	___fldiv@bexp^(0+128),w
  6342  17F9  00D9               	movwf	??___fldiv^(0+128)
  6343  17FA  1003               	clrc
  6344  17FB  0C59               	rrf	??___fldiv^(0+128),w
  6345  17FC  00DA               	movwf	(??___fldiv+1)^(0+128)
  6346  17FD  085A               	movf	(??___fldiv+1)^(0+128),w
  6347  17FE  00D8               	movwf	(___fldiv@b^(0+128)+3)
  6348  17FF  2EBD               	goto	L3
  6349  1800                     __end_of___fldiv:	
  6350                           
  6351                           	psect	text13
  6352  1E2D                     __ptext13:	
  6353 ;; *************** function _Lcd_Write_String *****************
  6354 ;; Defined at:
  6355 ;;		line 99 in file "lcd4.c"
  6356 ;; Parameters:    Size  Location     Type
  6357 ;;  a               1    wreg     PTR unsigned char 
  6358 ;;		 -> STR_3(16), STR_2(11), STR_1(10), 
  6359 ;; Auto vars:     Size  Location     Type
  6360 ;;  a               1    7[BANK1 ] PTR unsigned char 
  6361 ;;		 -> STR_3(16), STR_2(11), STR_1(10), 
  6362 ;;  i               2    5[BANK1 ] int 
  6363 ;; Return value:  Size  Location     Type
  6364 ;;                  1    wreg      void 
  6365 ;; Registers used:
  6366 ;;		wreg, fsr0l, fsr0h, status,2, status,0, pclath, cstack
  6367 ;; Tracked objects:
  6368 ;;		On entry : 0/0
  6369 ;;		On exit  : 0/0
  6370 ;;		Unchanged: 0/0
  6371 ;; Data sizes:     COMMON   BANK0   BANK1   BANK3   BANK2
  6372 ;;      Params:         0       0       0       0       0
  6373 ;;      Locals:         0       0       3       0       0
  6374 ;;      Temps:          0       0       0       0       0
  6375 ;;      Totals:         0       0       3       0       0
  6376 ;;Total ram usage:        3 bytes
  6377 ;; Hardware stack levels used:    1
  6378 ;; Hardware stack levels required when called:    5
  6379 ;; This function calls:
  6380 ;;		_Lcd_Write_Char
  6381 ;; This function is called by:
  6382 ;;		_main
  6383 ;;		_Set_temp
  6384 ;; This function uses a non-reentrant model
  6385 ;;
  6386                           
  6387                           
  6388                           ;psect for function _Lcd_Write_String
  6389  1E2D                     _Lcd_Write_String:	
  6390                           
  6391                           ;incstack = 0
  6392                           ; Regs used in _Lcd_Write_String: [wreg-fsr0h+status,2+status,0+pclath+cstack]
  6393                           ;Lcd_Write_String@a stored from wreg
  6394  1E2D  1683               	bsf	3,5	;RP0=1, select bank1
  6395  1E2E  1303               	bcf	3,6	;RP1=0, select bank1
  6396  1E2F  00A7               	movwf	Lcd_Write_String@a^(0+128)
  6397                           
  6398                           ;lcd4.c: 99: void Lcd_Write_String(char *a);lcd4.c: 100: {;lcd4.c: 101:  int i;;lcd4.c: 
      +                          102:  for(i=0;a[i]!='\0';i++)
  6399  1E30  01A5               	clrf	Lcd_Write_String@i^(0+128)
  6400  1E31  01A6               	clrf	(Lcd_Write_String@i+1)^(0+128)
  6401  1E32                     l3128:	
  6402  1E32  0825               	movf	Lcd_Write_String@i^(0+128),w
  6403  1E33  0727               	addwf	Lcd_Write_String@a^(0+128),w
  6404  1E34  0084               	movwf	4
  6405  1E35  160A  158A  2000  160A  158A  	fcall	stringdir
  6406  1E3A  3A00               	xorlw	0
  6407  1E3B  1903               	btfsc	3,2
  6408  1E3C  0008               	return
  6409                           
  6410                           ;lcd4.c: 103:     Lcd_Write_Char(a[i]);
  6411  1E3D  0825               	movf	Lcd_Write_String@i^(0+128),w
  6412  1E3E  0727               	addwf	Lcd_Write_String@a^(0+128),w
  6413  1E3F  0084               	movwf	4
  6414  1E40  160A  158A  2000  160A  158A  	fcall	stringdir
  6415  1E45  160A  158A  26BF  160A  158A  	fcall	_Lcd_Write_Char
  6416  1E4A  3001               	movlw	1
  6417  1E4B  1683               	bsf	3,5	;RP0=1, select bank1
  6418  1E4C  1303               	bcf	3,6	;RP1=0, select bank1
  6419  1E4D  07A5               	addwf	Lcd_Write_String@i^(0+128),f
  6420  1E4E  1803               	skipnc
  6421  1E4F  0AA6               	incf	(Lcd_Write_String@i+1)^(0+128),f
  6422  1E50  3000               	movlw	0
  6423  1E51  07A6               	addwf	(Lcd_Write_String@i+1)^(0+128),f
  6424  1E52  2E32               	goto	l3128
  6425  1E53                     __end_of_Lcd_Write_String:	
  6426                           
  6427                           	psect	text14
  6428  1D8D                     __ptext14:	
  6429 ;; *************** function _Lcd_Clear *****************
  6430 ;; Defined at:
  6431 ;;		line 36 in file "lcd4.c"
  6432 ;; Parameters:    Size  Location     Type
  6433 ;;		None
  6434 ;; Auto vars:     Size  Location     Type
  6435 ;;		None
  6436 ;; Return value:  Size  Location     Type
  6437 ;;                  1    wreg      void 
  6438 ;; Registers used:
  6439 ;;		wreg, status,2, status,0, pclath, cstack
  6440 ;; Tracked objects:
  6441 ;;		On entry : 0/0
  6442 ;;		On exit  : 0/0
  6443 ;;		Unchanged: 0/0
  6444 ;; Data sizes:     COMMON   BANK0   BANK1   BANK3   BANK2
  6445 ;;      Params:         0       0       0       0       0
  6446 ;;      Locals:         0       0       0       0       0
  6447 ;;      Temps:          0       0       2       0       0
  6448 ;;      Totals:         0       0       2       0       0
  6449 ;;Total ram usage:        2 bytes
  6450 ;; Hardware stack levels used:    1
  6451 ;; Hardware stack levels required when called:    5
  6452 ;; This function calls:
  6453 ;;		_Lcd_Cmd
  6454 ;; This function is called by:
  6455 ;;		_Set_temp
  6456 ;; This function uses a non-reentrant model
  6457 ;;
  6458                           
  6459                           
  6460                           ;psect for function _Lcd_Clear
  6461  1D8D                     _Lcd_Clear:	
  6462                           
  6463                           ;lcd4.c: 38:  Lcd_Cmd(0);
  6464                           
  6465                           ;incstack = 0
  6466                           ; Regs used in _Lcd_Clear: [wreg+status,2+status,0+pclath+cstack]
  6467  1D8D  3000               	movlw	0
  6468  1D8E  160A  158A  25A4  160A  158A  	fcall	_Lcd_Cmd
  6469                           
  6470                           ;lcd4.c: 39:  Lcd_Cmd(1);
  6471  1D93  3001               	movlw	1
  6472  1D94  160A  158A  25A4  160A  158A  	fcall	_Lcd_Cmd
  6473                           
  6474                           ;lcd4.c: 40:     _delay((unsigned long)((2)*(20000000/4000.0)));
  6475  1D99  300D               	movlw	13
  6476  1D9A  1683               	bsf	3,5	;RP0=1, select bank1
  6477  1D9B  1303               	bcf	3,6	;RP1=0, select bank1
  6478  1D9C  00A5               	movwf	(??_Lcd_Clear^(0+128)+1)
  6479  1D9D  30FB               	movlw	251
  6480  1D9E  00A4               	movwf	??_Lcd_Clear^(0+128)
  6481  1D9F                     u6497:	
  6482  1D9F  0BA4               	decfsz	??_Lcd_Clear^(0+128),f
  6483  1DA0  2D9F               	goto	u6497
  6484  1DA1  0BA5               	decfsz	(??_Lcd_Clear^(0+128)+1),f
  6485  1DA2  2D9F               	goto	u6497
  6486  1DA3  0008               	return
  6487  1DA4                     __end_of_Lcd_Clear:	
  6488                           
  6489                           	psect	text15
  6490  115D                     __ptext15:	
  6491 ;; *************** function _Display *****************
  6492 ;; Defined at:
  6493 ;;		line 88 in file "main.c"
  6494 ;; Parameters:    Size  Location     Type
  6495 ;;  temp            1    wreg     unsigned char 
  6496 ;;  set_temp        1   16[BANK1 ] unsigned char 
  6497 ;; Auto vars:     Size  Location     Type
  6498 ;;  temp            1   19[BANK1 ] unsigned char 
  6499 ;; Return value:  Size  Location     Type
  6500 ;;                  1    wreg      void 
  6501 ;; Registers used:
  6502 ;;		wreg, status,2, status,0, pclath, cstack
  6503 ;; Tracked objects:
  6504 ;;		On entry : 0/0
  6505 ;;		On exit  : 0/0
  6506 ;;		Unchanged: 0/0
  6507 ;; Data sizes:     COMMON   BANK0   BANK1   BANK3   BANK2
  6508 ;;      Params:         0       0       1       0       0
  6509 ;;      Locals:         0       0       1       0       0
  6510 ;;      Temps:          0       0       2       0       0
  6511 ;;      Totals:         0       0       4       0       0
  6512 ;;Total ram usage:        4 bytes
  6513 ;; Hardware stack levels used:    1
  6514 ;; Hardware stack levels required when called:    6
  6515 ;; This function calls:
  6516 ;;		_Lcd_Set_Cursor
  6517 ;;		_Lcd_Write_Char
  6518 ;;		___awdiv
  6519 ;;		___awmod
  6520 ;; This function is called by:
  6521 ;;		_Set_temp
  6522 ;; This function uses a non-reentrant model
  6523 ;;
  6524                           
  6525                           
  6526                           ;psect for function _Display
  6527  115D                     _Display:	
  6528                           
  6529                           ;incstack = 0
  6530                           ; Regs used in _Display: [wreg+status,2+status,0+pclath+cstack]
  6531                           ;Display@temp stored from wreg
  6532  115D  1683               	bsf	3,5	;RP0=1, select bank1
  6533  115E  1303               	bcf	3,6	;RP1=0, select bank1
  6534  115F  00B3               	movwf	Display@temp^(0+128)
  6535                           
  6536                           ;main.c: 88: void Display(unsigned char temp, unsigned char set_temp);main.c: 89: {;main
      +                          .c: 90:     Lcd_Set_Cursor(1,11);
  6537  1160  300B               	movlw	11
  6538  1161  00B1               	movwf	??_Display^(0+128)
  6539  1162  0831               	movf	??_Display^(0+128),w
  6540  1163  00A4               	movwf	Lcd_Set_Cursor@b^(0+128)
  6541  1164  3001               	movlw	1
  6542  1165  160A  158A  274F  160A  118A  	fcall	_Lcd_Set_Cursor
  6543                           
  6544                           ;main.c: 92:     Lcd_Write_Char(temp/10+48);
  6545  116A  300A               	movlw	10
  6546  116B  1683               	bsf	3,5	;RP0=1, select bank1
  6547  116C  1303               	bcf	3,6	;RP1=0, select bank1
  6548  116D  00A7               	movwf	___awdiv@divisor^(0+128)
  6549  116E  3000               	movlw	0
  6550  116F  00A8               	movwf	(___awdiv@divisor^(0+128)+1)
  6551  1170  0833               	movf	Display@temp^(0+128),w
  6552  1171  00B1               	movwf	??_Display^(0+128)
  6553  1172  01B2               	clrf	(??_Display^(0+128)+1)
  6554  1173  0831               	movf	??_Display^(0+128),w
  6555  1174  00A9               	movwf	___awdiv@dividend^(0+128)
  6556  1175  0832               	movf	(??_Display+1)^(0+128),w
  6557  1176  00AA               	movwf	(___awdiv@dividend+1)^(0+128)
  6558  1177  120A  118A  27A1  160A  118A  	fcall	___awdiv
  6559  117C  1683               	bsf	3,5	;RP0=1, select bank1
  6560  117D  1303               	bcf	3,6	;RP1=0, select bank1
  6561  117E  0827               	movf	?___awdiv^(0+128),w
  6562  117F  3E30               	addlw	48
  6563  1180  160A  158A  26BF  160A  118A  	fcall	_Lcd_Write_Char
  6564                           
  6565                           ;main.c: 93:     Lcd_Write_Char(temp%10+48);
  6566  1185  300A               	movlw	10
  6567  1186  1683               	bsf	3,5	;RP0=1, select bank1
  6568  1187  1303               	bcf	3,6	;RP1=0, select bank1
  6569  1188  00A0               	movwf	___awmod@divisor^(0+128)
  6570  1189  3000               	movlw	0
  6571  118A  00A1               	movwf	(___awmod@divisor^(0+128)+1)
  6572  118B  0833               	movf	Display@temp^(0+128),w
  6573  118C  00B1               	movwf	??_Display^(0+128)
  6574  118D  01B2               	clrf	(??_Display^(0+128)+1)
  6575  118E  0831               	movf	??_Display^(0+128),w
  6576  118F  00A2               	movwf	___awmod@dividend^(0+128)
  6577  1190  0832               	movf	(??_Display+1)^(0+128),w
  6578  1191  00A3               	movwf	(___awmod@dividend+1)^(0+128)
  6579  1192  160A  158A  2702  160A  118A  	fcall	___awmod
  6580  1197  1683               	bsf	3,5	;RP0=1, select bank1
  6581  1198  1303               	bcf	3,6	;RP1=0, select bank1
  6582  1199  0820               	movf	?___awmod^(0+128),w
  6583  119A  3E30               	addlw	48
  6584  119B  160A  158A  26BF  160A  118A  	fcall	_Lcd_Write_Char
  6585                           
  6586                           ;main.c: 95:     Lcd_Set_Cursor(2,15);
  6587  11A0  300F               	movlw	15
  6588  11A1  1683               	bsf	3,5	;RP0=1, select bank1
  6589  11A2  1303               	bcf	3,6	;RP1=0, select bank1
  6590  11A3  00B1               	movwf	??_Display^(0+128)
  6591  11A4  0831               	movf	??_Display^(0+128),w
  6592  11A5  00A4               	movwf	Lcd_Set_Cursor@b^(0+128)
  6593  11A6  3002               	movlw	2
  6594  11A7  160A  158A  274F  160A  118A  	fcall	_Lcd_Set_Cursor
  6595                           
  6596                           ;main.c: 96:     Lcd_Write_Char(set_temp%100/10+48);
  6597  11AC  300A               	movlw	10
  6598  11AD  1683               	bsf	3,5	;RP0=1, select bank1
  6599  11AE  1303               	bcf	3,6	;RP1=0, select bank1
  6600  11AF  00A7               	movwf	___awdiv@divisor^(0+128)
  6601  11B0  3000               	movlw	0
  6602  11B1  00A8               	movwf	(___awdiv@divisor^(0+128)+1)
  6603  11B2  0830               	movf	Display@set_temp^(0+128),w
  6604  11B3  00B1               	movwf	??_Display^(0+128)
  6605  11B4  01B2               	clrf	(??_Display^(0+128)+1)
  6606  11B5  0831               	movf	??_Display^(0+128),w
  6607  11B6  00A2               	movwf	___awmod@dividend^(0+128)
  6608  11B7  0832               	movf	(??_Display+1)^(0+128),w
  6609  11B8  00A3               	movwf	(___awmod@dividend+1)^(0+128)
  6610  11B9  3064               	movlw	100
  6611  11BA  00A0               	movwf	___awmod@divisor^(0+128)
  6612  11BB  3000               	movlw	0
  6613  11BC  00A1               	movwf	(___awmod@divisor^(0+128)+1)
  6614  11BD  160A  158A  2702  160A  118A  	fcall	___awmod
  6615  11C2  1683               	bsf	3,5	;RP0=1, select bank1
  6616  11C3  1303               	bcf	3,6	;RP1=0, select bank1
  6617  11C4  0821               	movf	(?___awmod+1)^(0+128),w
  6618  11C5  00AA               	movwf	(___awdiv@dividend+1)^(0+128)
  6619  11C6  0820               	movf	?___awmod^(0+128),w
  6620  11C7  00A9               	movwf	___awdiv@dividend^(0+128)
  6621  11C8  120A  118A  27A1  160A  118A  	fcall	___awdiv
  6622  11CD  1683               	bsf	3,5	;RP0=1, select bank1
  6623  11CE  1303               	bcf	3,6	;RP1=0, select bank1
  6624  11CF  0827               	movf	?___awdiv^(0+128),w
  6625  11D0  3E30               	addlw	48
  6626  11D1  160A  158A  26BF  160A  118A  	fcall	_Lcd_Write_Char
  6627                           
  6628                           ;main.c: 97:     Lcd_Write_Char(set_temp%10+48);
  6629  11D6  300A               	movlw	10
  6630  11D7  1683               	bsf	3,5	;RP0=1, select bank1
  6631  11D8  1303               	bcf	3,6	;RP1=0, select bank1
  6632  11D9  00A0               	movwf	___awmod@divisor^(0+128)
  6633  11DA  3000               	movlw	0
  6634  11DB  00A1               	movwf	(___awmod@divisor^(0+128)+1)
  6635  11DC  0830               	movf	Display@set_temp^(0+128),w
  6636  11DD  00B1               	movwf	??_Display^(0+128)
  6637  11DE  01B2               	clrf	(??_Display^(0+128)+1)
  6638  11DF  0831               	movf	??_Display^(0+128),w
  6639  11E0  00A2               	movwf	___awmod@dividend^(0+128)
  6640  11E1  0832               	movf	(??_Display+1)^(0+128),w
  6641  11E2  00A3               	movwf	(___awmod@dividend+1)^(0+128)
  6642  11E3  160A  158A  2702  160A  118A  	fcall	___awmod
  6643  11E8  1683               	bsf	3,5	;RP0=1, select bank1
  6644  11E9  1303               	bcf	3,6	;RP1=0, select bank1
  6645  11EA  0820               	movf	?___awmod^(0+128),w
  6646  11EB  3E30               	addlw	48
  6647  11EC  160A  158A  26BF   	fcall	_Lcd_Write_Char
  6648  11EF  0008               	return
  6649  11F0                     __end_of_Display:	
  6650                           
  6651                           	psect	text16
  6652  1F02                     __ptext16:	
  6653 ;; *************** function ___awmod *****************
  6654 ;; Defined at:
  6655 ;;		line 5 in file "D:\PROGRAM\MPLABX v5.20\XC8 v2.05\pic\sources\c90\common\awmod.c"
  6656 ;; Parameters:    Size  Location     Type
  6657 ;;  divisor         2    0[BANK1 ] int 
  6658 ;;  dividend        2    2[BANK1 ] int 
  6659 ;; Auto vars:     Size  Location     Type
  6660 ;;  sign            1    6[BANK1 ] unsigned char 
  6661 ;;  counter         1    5[BANK1 ] unsigned char 
  6662 ;; Return value:  Size  Location     Type
  6663 ;;                  2    0[BANK1 ] int 
  6664 ;; Registers used:
  6665 ;;		wreg, status,2, status,0
  6666 ;; Tracked objects:
  6667 ;;		On entry : 0/0
  6668 ;;		On exit  : 0/0
  6669 ;;		Unchanged: 0/0
  6670 ;; Data sizes:     COMMON   BANK0   BANK1   BANK3   BANK2
  6671 ;;      Params:         0       0       4       0       0
  6672 ;;      Locals:         0       0       2       0       0
  6673 ;;      Temps:          0       0       1       0       0
  6674 ;;      Totals:         0       0       7       0       0
  6675 ;;Total ram usage:        7 bytes
  6676 ;; Hardware stack levels used:    1
  6677 ;; Hardware stack levels required when called:    3
  6678 ;; This function calls:
  6679 ;;		Nothing
  6680 ;; This function is called by:
  6681 ;;		_Display
  6682 ;; This function uses a non-reentrant model
  6683 ;;
  6684                           
  6685                           
  6686                           ;psect for function ___awmod
  6687  1F02                     ___awmod:	
  6688                           
  6689                           ;incstack = 0
  6690                           ; Regs used in ___awmod: [wreg+status,2+status,0]
  6691  1F02  1683               	bsf	3,5	;RP0=1, select bank1
  6692  1F03  1303               	bcf	3,6	;RP1=0, select bank1
  6693  1F04  01A6               	clrf	___awmod@sign^(0+128)
  6694  1F05  1FA3               	btfss	(___awmod@dividend+1)^(0+128),7
  6695  1F06  2F0E               	goto	l2704
  6696  1F07  09A2               	comf	___awmod@dividend^(0+128),f
  6697  1F08  09A3               	comf	(___awmod@dividend+1)^(0+128),f
  6698  1F09  0AA2               	incf	___awmod@dividend^(0+128),f
  6699  1F0A  1903               	skipnz
  6700  1F0B  0AA3               	incf	(___awmod@dividend+1)^(0+128),f
  6701  1F0C  01A6               	clrf	___awmod@sign^(0+128)
  6702  1F0D  0AA6               	incf	___awmod@sign^(0+128),f
  6703  1F0E                     l2704:	
  6704  1F0E  1FA1               	btfss	(___awmod@divisor+1)^(0+128),7
  6705  1F0F  2F15               	goto	l2708
  6706  1F10  09A0               	comf	___awmod@divisor^(0+128),f
  6707  1F11  09A1               	comf	(___awmod@divisor+1)^(0+128),f
  6708  1F12  0AA0               	incf	___awmod@divisor^(0+128),f
  6709  1F13  1903               	skipnz
  6710  1F14  0AA1               	incf	(___awmod@divisor+1)^(0+128),f
  6711  1F15                     l2708:	
  6712  1F15  0820               	movf	___awmod@divisor^(0+128),w
  6713  1F16  0421               	iorwf	(___awmod@divisor+1)^(0+128),w
  6714  1F17  1903               	btfsc	3,2
  6715  1F18  2F42               	goto	l2726
  6716  1F19  01A5               	clrf	___awmod@counter^(0+128)
  6717  1F1A  0AA5               	incf	___awmod@counter^(0+128),f
  6718  1F1B                     l2716:	
  6719  1F1B  1BA1               	btfsc	(___awmod@divisor+1)^(0+128),7
  6720  1F1C  2F29               	goto	l2718
  6721  1F1D  3001               	movlw	1
  6722  1F1E                     u3885:	
  6723  1F1E  1003               	clrc
  6724  1F1F  0DA0               	rlf	___awmod@divisor^(0+128),f
  6725  1F20  0DA1               	rlf	(___awmod@divisor+1)^(0+128),f
  6726  1F21  3EFF               	addlw	-1
  6727  1F22  1D03               	skipz
  6728  1F23  2F1E               	goto	u3885
  6729  1F24  3001               	movlw	1
  6730  1F25  00A4               	movwf	??___awmod^(0+128)
  6731  1F26  0824               	movf	??___awmod^(0+128),w
  6732  1F27  07A5               	addwf	___awmod@counter^(0+128),f
  6733  1F28  2F1B               	goto	l2716
  6734  1F29                     l2718:	
  6735  1F29  0821               	movf	(___awmod@divisor+1)^(0+128),w
  6736  1F2A  0223               	subwf	(___awmod@dividend+1)^(0+128),w
  6737  1F2B  1D03               	skipz
  6738  1F2C  2F2F               	goto	u3905
  6739  1F2D  0820               	movf	___awmod@divisor^(0+128),w
  6740  1F2E  0222               	subwf	___awmod@dividend^(0+128),w
  6741  1F2F                     u3905:	
  6742  1F2F  1C03               	skipc
  6743  1F30  2F37               	goto	l2722
  6744  1F31  0820               	movf	___awmod@divisor^(0+128),w
  6745  1F32  02A2               	subwf	___awmod@dividend^(0+128),f
  6746  1F33  0821               	movf	(___awmod@divisor+1)^(0+128),w
  6747  1F34  1C03               	skipc
  6748  1F35  03A3               	decf	(___awmod@dividend+1)^(0+128),f
  6749  1F36  02A3               	subwf	(___awmod@dividend+1)^(0+128),f
  6750  1F37                     l2722:	
  6751  1F37  3001               	movlw	1
  6752  1F38                     u3915:	
  6753  1F38  1003               	clrc
  6754  1F39  0CA1               	rrf	(___awmod@divisor+1)^(0+128),f
  6755  1F3A  0CA0               	rrf	___awmod@divisor^(0+128),f
  6756  1F3B  3EFF               	addlw	-1
  6757  1F3C  1D03               	skipz
  6758  1F3D  2F38               	goto	u3915
  6759  1F3E  3001               	movlw	1
  6760  1F3F  02A5               	subwf	___awmod@counter^(0+128),f
  6761  1F40  1D03               	btfss	3,2
  6762  1F41  2F29               	goto	l2718
  6763  1F42                     l2726:	
  6764  1F42  0826               	movf	___awmod@sign^(0+128),w
  6765  1F43  1903               	btfsc	3,2
  6766  1F44  2F4A               	goto	l2730
  6767  1F45  09A2               	comf	___awmod@dividend^(0+128),f
  6768  1F46  09A3               	comf	(___awmod@dividend+1)^(0+128),f
  6769  1F47  0AA2               	incf	___awmod@dividend^(0+128),f
  6770  1F48  1903               	skipnz
  6771  1F49  0AA3               	incf	(___awmod@dividend+1)^(0+128),f
  6772  1F4A                     l2730:	
  6773  1F4A  0823               	movf	(___awmod@dividend+1)^(0+128),w
  6774  1F4B  00A1               	movwf	(?___awmod+1)^(0+128)
  6775  1F4C  0822               	movf	___awmod@dividend^(0+128),w
  6776  1F4D  00A0               	movwf	?___awmod^(0+128)
  6777  1F4E  0008               	return
  6778  1F4F                     __end_of___awmod:	
  6779                           
  6780                           	psect	text17
  6781  07A1                     __ptext17:	
  6782 ;; *************** function ___awdiv *****************
  6783 ;; Defined at:
  6784 ;;		line 5 in file "D:\PROGRAM\MPLABX v5.20\XC8 v2.05\pic\sources\c90\common\awdiv.c"
  6785 ;; Parameters:    Size  Location     Type
  6786 ;;  divisor         2    7[BANK1 ] int 
  6787 ;;  dividend        2    9[BANK1 ] int 
  6788 ;; Auto vars:     Size  Location     Type
  6789 ;;  quotient        2   14[BANK1 ] int 
  6790 ;;  sign            1   13[BANK1 ] unsigned char 
  6791 ;;  counter         1   12[BANK1 ] unsigned char 
  6792 ;; Return value:  Size  Location     Type
  6793 ;;                  2    7[BANK1 ] int 
  6794 ;; Registers used:
  6795 ;;		wreg, status,2, status,0
  6796 ;; Tracked objects:
  6797 ;;		On entry : 0/0
  6798 ;;		On exit  : 0/0
  6799 ;;		Unchanged: 0/0
  6800 ;; Data sizes:     COMMON   BANK0   BANK1   BANK3   BANK2
  6801 ;;      Params:         0       0       4       0       0
  6802 ;;      Locals:         0       0       4       0       0
  6803 ;;      Temps:          0       0       1       0       0
  6804 ;;      Totals:         0       0       9       0       0
  6805 ;;Total ram usage:        9 bytes
  6806 ;; Hardware stack levels used:    1
  6807 ;; Hardware stack levels required when called:    3
  6808 ;; This function calls:
  6809 ;;		Nothing
  6810 ;; This function is called by:
  6811 ;;		_Display
  6812 ;; This function uses a non-reentrant model
  6813 ;;
  6814                           
  6815                           
  6816                           ;psect for function ___awdiv
  6817  07A1                     ___awdiv:	
  6818                           
  6819                           ;incstack = 0
  6820                           ; Regs used in ___awdiv: [wreg+status,2+status,0]
  6821  07A1  1683               	bsf	3,5	;RP0=1, select bank1
  6822  07A2  1303               	bcf	3,6	;RP1=0, select bank1
  6823  07A3  01AD               	clrf	___awdiv@sign^(0+128)
  6824  07A4  1FA8               	btfss	(___awdiv@divisor+1)^(0+128),7
  6825  07A5  2FAD               	goto	l2660
  6826  07A6  09A7               	comf	___awdiv@divisor^(0+128),f
  6827  07A7  09A8               	comf	(___awdiv@divisor+1)^(0+128),f
  6828  07A8  0AA7               	incf	___awdiv@divisor^(0+128),f
  6829  07A9  1903               	skipnz
  6830  07AA  0AA8               	incf	(___awdiv@divisor+1)^(0+128),f
  6831  07AB  01AD               	clrf	___awdiv@sign^(0+128)
  6832  07AC  0AAD               	incf	___awdiv@sign^(0+128),f
  6833  07AD                     l2660:	
  6834  07AD  1FAA               	btfss	(___awdiv@dividend+1)^(0+128),7
  6835  07AE  2FB8               	goto	l2666
  6836  07AF  09A9               	comf	___awdiv@dividend^(0+128),f
  6837  07B0  09AA               	comf	(___awdiv@dividend+1)^(0+128),f
  6838  07B1  0AA9               	incf	___awdiv@dividend^(0+128),f
  6839  07B2  1903               	skipnz
  6840  07B3  0AAA               	incf	(___awdiv@dividend+1)^(0+128),f
  6841  07B4  3001               	movlw	1
  6842  07B5  00AB               	movwf	??___awdiv^(0+128)
  6843  07B6  082B               	movf	??___awdiv^(0+128),w
  6844  07B7  06AD               	xorwf	___awdiv@sign^(0+128),f
  6845  07B8                     l2666:	
  6846  07B8  01AE               	clrf	___awdiv@quotient^(0+128)
  6847  07B9  01AF               	clrf	(___awdiv@quotient+1)^(0+128)
  6848  07BA  0827               	movf	___awdiv@divisor^(0+128),w
  6849  07BB  0428               	iorwf	(___awdiv@divisor+1)^(0+128),w
  6850  07BC  1903               	btfsc	3,2
  6851  07BD  2FEF               	goto	l2688
  6852  07BE  01AC               	clrf	___awdiv@counter^(0+128)
  6853  07BF  0AAC               	incf	___awdiv@counter^(0+128),f
  6854  07C0                     l2676:	
  6855  07C0  1BA8               	btfsc	(___awdiv@divisor+1)^(0+128),7
  6856  07C1  2FCE               	goto	l2678
  6857  07C2  3001               	movlw	1
  6858  07C3                     u3785:	
  6859  07C3  1003               	clrc
  6860  07C4  0DA7               	rlf	___awdiv@divisor^(0+128),f
  6861  07C5  0DA8               	rlf	(___awdiv@divisor+1)^(0+128),f
  6862  07C6  3EFF               	addlw	-1
  6863  07C7  1D03               	skipz
  6864  07C8  2FC3               	goto	u3785
  6865  07C9  3001               	movlw	1
  6866  07CA  00AB               	movwf	??___awdiv^(0+128)
  6867  07CB  082B               	movf	??___awdiv^(0+128),w
  6868  07CC  07AC               	addwf	___awdiv@counter^(0+128),f
  6869  07CD  2FC0               	goto	l2676
  6870  07CE                     l2678:	
  6871  07CE  3001               	movlw	1
  6872  07CF                     u3805:	
  6873  07CF  1003               	clrc
  6874  07D0  0DAE               	rlf	___awdiv@quotient^(0+128),f
  6875  07D1  0DAF               	rlf	(___awdiv@quotient+1)^(0+128),f
  6876  07D2  3EFF               	addlw	-1
  6877  07D3  1D03               	skipz
  6878  07D4  2FCF               	goto	u3805
  6879  07D5  0828               	movf	(___awdiv@divisor+1)^(0+128),w
  6880  07D6  022A               	subwf	(___awdiv@dividend+1)^(0+128),w
  6881  07D7  1D03               	skipz
  6882  07D8  2FDB               	goto	u3815
  6883  07D9  0827               	movf	___awdiv@divisor^(0+128),w
  6884  07DA  0229               	subwf	___awdiv@dividend^(0+128),w
  6885  07DB                     u3815:	
  6886  07DB  1C03               	skipc
  6887  07DC  2FE4               	goto	l2684
  6888  07DD  0827               	movf	___awdiv@divisor^(0+128),w
  6889  07DE  02A9               	subwf	___awdiv@dividend^(0+128),f
  6890  07DF  0828               	movf	(___awdiv@divisor+1)^(0+128),w
  6891  07E0  1C03               	skipc
  6892  07E1  03AA               	decf	(___awdiv@dividend+1)^(0+128),f
  6893  07E2  02AA               	subwf	(___awdiv@dividend+1)^(0+128),f
  6894  07E3  142E               	bsf	___awdiv@quotient^(0+128),0
  6895  07E4                     l2684:	
  6896  07E4  3001               	movlw	1
  6897  07E5                     u3825:	
  6898  07E5  1003               	clrc
  6899  07E6  0CA8               	rrf	(___awdiv@divisor+1)^(0+128),f
  6900  07E7  0CA7               	rrf	___awdiv@divisor^(0+128),f
  6901  07E8  3EFF               	addlw	-1
  6902  07E9  1D03               	skipz
  6903  07EA  2FE5               	goto	u3825
  6904  07EB  3001               	movlw	1
  6905  07EC  02AC               	subwf	___awdiv@counter^(0+128),f
  6906  07ED  1D03               	btfss	3,2
  6907  07EE  2FCE               	goto	l2678
  6908  07EF                     l2688:	
  6909  07EF  082D               	movf	___awdiv@sign^(0+128),w
  6910  07F0  1903               	btfsc	3,2
  6911  07F1  2FF7               	goto	l2692
  6912  07F2  09AE               	comf	___awdiv@quotient^(0+128),f
  6913  07F3  09AF               	comf	(___awdiv@quotient+1)^(0+128),f
  6914  07F4  0AAE               	incf	___awdiv@quotient^(0+128),f
  6915  07F5  1903               	skipnz
  6916  07F6  0AAF               	incf	(___awdiv@quotient+1)^(0+128),f
  6917  07F7                     l2692:	
  6918  07F7  082F               	movf	(___awdiv@quotient+1)^(0+128),w
  6919  07F8  00A8               	movwf	(?___awdiv+1)^(0+128)
  6920  07F9  082E               	movf	___awdiv@quotient^(0+128),w
  6921  07FA  00A7               	movwf	?___awdiv^(0+128)
  6922  07FB  0008               	return
  6923  07FC                     __end_of___awdiv:	
  6924                           
  6925                           	psect	text18
  6926  1EBF                     __ptext18:	
  6927 ;; *************** function _Lcd_Write_Char *****************
  6928 ;; Defined at:
  6929 ;;		line 83 in file "lcd4.c"
  6930 ;; Parameters:    Size  Location     Type
  6931 ;;  a               1    wreg     unsigned char 
  6932 ;; Auto vars:     Size  Location     Type
  6933 ;;  a               1    4[BANK1 ] unsigned char 
  6934 ;;  y               1    3[BANK1 ] unsigned char 
  6935 ;;  temp            1    2[BANK1 ] unsigned char 
  6936 ;; Return value:  Size  Location     Type
  6937 ;;                  1    wreg      void 
  6938 ;; Registers used:
  6939 ;;		wreg, status,2, status,0, pclath, cstack
  6940 ;; Tracked objects:
  6941 ;;		On entry : 0/0
  6942 ;;		On exit  : 0/0
  6943 ;;		Unchanged: 0/0
  6944 ;; Data sizes:     COMMON   BANK0   BANK1   BANK3   BANK2
  6945 ;;      Params:         0       0       0       0       0
  6946 ;;      Locals:         0       0       3       0       0
  6947 ;;      Temps:          0       0       1       0       0
  6948 ;;      Totals:         0       0       4       0       0
  6949 ;;Total ram usage:        4 bytes
  6950 ;; Hardware stack levels used:    1
  6951 ;; Hardware stack levels required when called:    4
  6952 ;; This function calls:
  6953 ;;		_Lcd_Port
  6954 ;; This function is called by:
  6955 ;;		_Display
  6956 ;;		_Lcd_Write_String
  6957 ;; This function uses a non-reentrant model
  6958 ;;
  6959                           
  6960                           
  6961                           ;psect for function _Lcd_Write_Char
  6962  1EBF                     _Lcd_Write_Char:	
  6963                           
  6964                           ;incstack = 0
  6965                           ; Regs used in _Lcd_Write_Char: [wreg+status,2+status,0+pclath+cstack]
  6966                           ;Lcd_Write_Char@a stored from wreg
  6967  1EBF  1683               	bsf	3,5	;RP0=1, select bank1
  6968  1EC0  1303               	bcf	3,6	;RP1=0, select bank1
  6969  1EC1  00A4               	movwf	Lcd_Write_Char@a^(0+128)
  6970                           
  6971                           ;lcd4.c: 83: void Lcd_Write_Char(char a);lcd4.c: 84: {;lcd4.c: 85:    char temp,y;;lcd4.
      +                          c: 86:    temp = a&0x0F;
  6972  1EC2  0824               	movf	Lcd_Write_Char@a^(0+128),w
  6973  1EC3  390F               	andlw	15
  6974  1EC4  00A1               	movwf	??_Lcd_Write_Char^(0+128)
  6975  1EC5  0821               	movf	??_Lcd_Write_Char^(0+128),w
  6976  1EC6  00A2               	movwf	Lcd_Write_Char@temp^(0+128)
  6977                           
  6978                           ;lcd4.c: 87:    y = a&0xF0;
  6979  1EC7  0824               	movf	Lcd_Write_Char@a^(0+128),w
  6980  1EC8  39F0               	andlw	240
  6981  1EC9  00A1               	movwf	??_Lcd_Write_Char^(0+128)
  6982  1ECA  0821               	movf	??_Lcd_Write_Char^(0+128),w
  6983  1ECB  00A3               	movwf	Lcd_Write_Char@y^(0+128)
  6984                           
  6985                           ;lcd4.c: 88:    RD0 = 1;
  6986  1ECC  1283               	bcf	3,5	;RP0=0, select bank0
  6987  1ECD  1303               	bcf	3,6	;RP1=0, select bank0
  6988  1ECE  1408               	bsf	8,0	;volatile
  6989                           
  6990                           ;lcd4.c: 89:    Lcd_Port(y>>4);
  6991  1ECF  1683               	bsf	3,5	;RP0=1, select bank1
  6992  1ED0  1303               	bcf	3,6	;RP1=0, select bank1
  6993  1ED1  0823               	movf	Lcd_Write_Char@y^(0+128),w
  6994  1ED2  00A1               	movwf	??_Lcd_Write_Char^(0+128)
  6995  1ED3  3004               	movlw	4
  6996  1ED4                     u3745:	
  6997  1ED4  1003               	clrc
  6998  1ED5  0CA1               	rrf	??_Lcd_Write_Char^(0+128),f
  6999  1ED6  3EFF               	addlw	-1
  7000  1ED7  1D03               	skipz
  7001  1ED8  2ED4               	goto	u3745
  7002  1ED9  0821               	movf	??_Lcd_Write_Char^(0+128),w
  7003  1EDA  160A  158A  2653  160A  158A  	fcall	_Lcd_Port
  7004                           
  7005                           ;lcd4.c: 90:    RD1 = 1;
  7006  1EDF  1283               	bcf	3,5	;RP0=0, select bank0
  7007  1EE0  1303               	bcf	3,6	;RP1=0, select bank0
  7008  1EE1  1488               	bsf	8,1	;volatile
  7009                           
  7010                           ;lcd4.c: 91:    _delay((unsigned long)((40)*(20000000/4000000.0)));
  7011  1EE2  3041               	movlw	65
  7012  1EE3  1683               	bsf	3,5	;RP0=1, select bank1
  7013  1EE4  1303               	bcf	3,6	;RP1=0, select bank1
  7014  1EE5  00A1               	movwf	??_Lcd_Write_Char^(0+128)
  7015  1EE6                     u6507:	
  7016  1EE6  0BA1               	decfsz	??_Lcd_Write_Char^(0+128),f
  7017  1EE7  2EE6               	goto	u6507
  7018  1EE8  2EE9               	nop2
  7019                           
  7020                           ;lcd4.c: 92:    RD1 = 0;
  7021  1EE9  1283               	bcf	3,5	;RP0=0, select bank0
  7022  1EEA  1303               	bcf	3,6	;RP1=0, select bank0
  7023  1EEB  1088               	bcf	8,1	;volatile
  7024                           
  7025                           ;lcd4.c: 93:    Lcd_Port(temp);
  7026  1EEC  1683               	bsf	3,5	;RP0=1, select bank1
  7027  1EED  1303               	bcf	3,6	;RP1=0, select bank1
  7028  1EEE  0822               	movf	Lcd_Write_Char@temp^(0+128),w
  7029  1EEF  160A  158A  2653  160A  158A  	fcall	_Lcd_Port
  7030                           
  7031                           ;lcd4.c: 94:    RD1 = 1;
  7032  1EF4  1283               	bcf	3,5	;RP0=0, select bank0
  7033  1EF5  1303               	bcf	3,6	;RP1=0, select bank0
  7034  1EF6  1488               	bsf	8,1	;volatile
  7035                           
  7036                           ;lcd4.c: 95:    _delay((unsigned long)((40)*(20000000/4000000.0)));
  7037  1EF7  3041               	movlw	65
  7038  1EF8  1683               	bsf	3,5	;RP0=1, select bank1
  7039  1EF9  1303               	bcf	3,6	;RP1=0, select bank1
  7040  1EFA  00A1               	movwf	??_Lcd_Write_Char^(0+128)
  7041  1EFB                     u6517:	
  7042  1EFB  0BA1               	decfsz	??_Lcd_Write_Char^(0+128),f
  7043  1EFC  2EFB               	goto	u6517
  7044  1EFD  2EFE               	nop2
  7045                           
  7046                           ;lcd4.c: 96:    RD1 = 0;
  7047  1EFE  1283               	bcf	3,5	;RP0=0, select bank0
  7048  1EFF  1303               	bcf	3,6	;RP1=0, select bank0
  7049  1F00  1088               	bcf	8,1	;volatile
  7050  1F01  0008               	return
  7051  1F02                     __end_of_Lcd_Write_Char:	
  7052                           
  7053                           	psect	text19
  7054  1F4F                     __ptext19:	
  7055 ;; *************** function _Lcd_Set_Cursor *****************
  7056 ;; Defined at:
  7057 ;;		line 43 in file "lcd4.c"
  7058 ;; Parameters:    Size  Location     Type
  7059 ;;  a               1    wreg     unsigned char 
  7060 ;;  b               1    4[BANK1 ] unsigned char 
  7061 ;; Auto vars:     Size  Location     Type
  7062 ;;  a               1    7[BANK1 ] unsigned char 
  7063 ;;  temp            1   10[BANK1 ] unsigned char 
  7064 ;;  y               1    9[BANK1 ] unsigned char 
  7065 ;;  z               1    8[BANK1 ] unsigned char 
  7066 ;; Return value:  Size  Location     Type
  7067 ;;                  1    wreg      void 
  7068 ;; Registers used:
  7069 ;;		wreg, status,2, status,0, pclath, cstack
  7070 ;; Tracked objects:
  7071 ;;		On entry : 0/0
  7072 ;;		On exit  : 0/0
  7073 ;;		Unchanged: 0/0
  7074 ;; Data sizes:     COMMON   BANK0   BANK1   BANK3   BANK2
  7075 ;;      Params:         0       0       1       0       0
  7076 ;;      Locals:         0       0       4       0       0
  7077 ;;      Temps:          0       0       2       0       0
  7078 ;;      Totals:         0       0       7       0       0
  7079 ;;Total ram usage:        7 bytes
  7080 ;; Hardware stack levels used:    1
  7081 ;; Hardware stack levels required when called:    5
  7082 ;; This function calls:
  7083 ;;		_Lcd_Cmd
  7084 ;; This function is called by:
  7085 ;;		_Display
  7086 ;;		_Set_temp
  7087 ;; This function uses a non-reentrant model
  7088 ;;
  7089                           
  7090                           
  7091                           ;psect for function _Lcd_Set_Cursor
  7092  1F4F                     _Lcd_Set_Cursor:	
  7093                           
  7094                           ;incstack = 0
  7095                           ; Regs used in _Lcd_Set_Cursor: [wreg+status,2+status,0+pclath+cstack]
  7096                           ;Lcd_Set_Cursor@a stored from wreg
  7097  1F4F  1683               	bsf	3,5	;RP0=1, select bank1
  7098  1F50  1303               	bcf	3,6	;RP1=0, select bank1
  7099  1F51  00A7               	movwf	Lcd_Set_Cursor@a^(0+128)
  7100                           
  7101                           ;lcd4.c: 43: void Lcd_Set_Cursor(char a, char b);lcd4.c: 44: {;lcd4.c: 45:  char temp,z,
      +                          y;;lcd4.c: 46:  if(a == 1)
  7102  1F52  0327               	decf	Lcd_Set_Cursor@a^(0+128),w
  7103  1F53  1D03               	btfss	3,2
  7104  1F54  2F78               	goto	l2622
  7105                           
  7106                           ;lcd4.c: 47:  {;lcd4.c: 48:    temp = 0x80 + b - 1;
  7107  1F55  0824               	movf	Lcd_Set_Cursor@b^(0+128),w
  7108  1F56  3E7F               	addlw	127
  7109  1F57  00A5               	movwf	??_Lcd_Set_Cursor^(0+128)
  7110  1F58  0825               	movf	??_Lcd_Set_Cursor^(0+128),w
  7111  1F59  00AA               	movwf	Lcd_Set_Cursor@temp^(0+128)
  7112                           
  7113                           ;lcd4.c: 49:   z = temp>>4;
  7114  1F5A  082A               	movf	Lcd_Set_Cursor@temp^(0+128),w
  7115  1F5B  00A5               	movwf	??_Lcd_Set_Cursor^(0+128)
  7116  1F5C  3004               	movlw	4
  7117  1F5D                     u3715:	
  7118  1F5D  1003               	clrc
  7119  1F5E  0CA5               	rrf	??_Lcd_Set_Cursor^(0+128),f
  7120  1F5F  3EFF               	addlw	-1
  7121  1F60  1D03               	skipz
  7122  1F61  2F5D               	goto	u3715
  7123  1F62  0825               	movf	??_Lcd_Set_Cursor^(0+128),w
  7124  1F63  00A6               	movwf	(??_Lcd_Set_Cursor+1)^(0+128)
  7125  1F64  0826               	movf	(??_Lcd_Set_Cursor+1)^(0+128),w
  7126  1F65  00A8               	movwf	Lcd_Set_Cursor@z^(0+128)
  7127                           
  7128                           ;lcd4.c: 50:   y = temp & 0x0F;
  7129  1F66  082A               	movf	Lcd_Set_Cursor@temp^(0+128),w
  7130  1F67  390F               	andlw	15
  7131  1F68  00A5               	movwf	??_Lcd_Set_Cursor^(0+128)
  7132  1F69  0825               	movf	??_Lcd_Set_Cursor^(0+128),w
  7133  1F6A  00A9               	movwf	Lcd_Set_Cursor@y^(0+128)
  7134                           
  7135                           ;lcd4.c: 51:   Lcd_Cmd(z);
  7136  1F6B  0828               	movf	Lcd_Set_Cursor@z^(0+128),w
  7137  1F6C  160A  158A  25A4  160A  158A  	fcall	_Lcd_Cmd
  7138                           
  7139                           ;lcd4.c: 52:   Lcd_Cmd(y);
  7140  1F71  1683               	bsf	3,5	;RP0=1, select bank1
  7141  1F72  1303               	bcf	3,6	;RP1=0, select bank1
  7142  1F73  0829               	movf	Lcd_Set_Cursor@y^(0+128),w
  7143  1F74  160A  158A  25A4   	fcall	_Lcd_Cmd
  7144                           
  7145                           ;lcd4.c: 53:  }
  7146  1F77  0008               	return
  7147  1F78                     l2622:	
  7148  1F78  3002               	movlw	2
  7149  1F79  0627               	xorwf	Lcd_Set_Cursor@a^(0+128),w
  7150  1F7A  1D03               	btfss	3,2
  7151  1F7B  0008               	return
  7152                           
  7153                           ;lcd4.c: 55:  {;lcd4.c: 56:   temp = 0xC0 + b - 1;
  7154  1F7C  0824               	movf	Lcd_Set_Cursor@b^(0+128),w
  7155  1F7D  3EBF               	addlw	191
  7156  1F7E  00A5               	movwf	??_Lcd_Set_Cursor^(0+128)
  7157  1F7F  0825               	movf	??_Lcd_Set_Cursor^(0+128),w
  7158  1F80  00AA               	movwf	Lcd_Set_Cursor@temp^(0+128)
  7159                           
  7160                           ;lcd4.c: 57:   z = temp>>4;
  7161  1F81  082A               	movf	Lcd_Set_Cursor@temp^(0+128),w
  7162  1F82  00A5               	movwf	??_Lcd_Set_Cursor^(0+128)
  7163  1F83  3004               	movlw	4
  7164  1F84                     u3735:	
  7165  1F84  1003               	clrc
  7166  1F85  0CA5               	rrf	??_Lcd_Set_Cursor^(0+128),f
  7167  1F86  3EFF               	addlw	-1
  7168  1F87  1D03               	skipz
  7169  1F88  2F84               	goto	u3735
  7170  1F89  0825               	movf	??_Lcd_Set_Cursor^(0+128),w
  7171  1F8A  00A6               	movwf	(??_Lcd_Set_Cursor+1)^(0+128)
  7172  1F8B  0826               	movf	(??_Lcd_Set_Cursor+1)^(0+128),w
  7173  1F8C  00A8               	movwf	Lcd_Set_Cursor@z^(0+128)
  7174                           
  7175                           ;lcd4.c: 58:   y = temp & 0x0F;
  7176  1F8D  082A               	movf	Lcd_Set_Cursor@temp^(0+128),w
  7177  1F8E  390F               	andlw	15
  7178  1F8F  00A5               	movwf	??_Lcd_Set_Cursor^(0+128)
  7179  1F90  0825               	movf	??_Lcd_Set_Cursor^(0+128),w
  7180  1F91  00A9               	movwf	Lcd_Set_Cursor@y^(0+128)
  7181                           
  7182                           ;lcd4.c: 59:   Lcd_Cmd(z);
  7183  1F92  0828               	movf	Lcd_Set_Cursor@z^(0+128),w
  7184  1F93  160A  158A  25A4  160A  158A  	fcall	_Lcd_Cmd
  7185                           
  7186                           ;lcd4.c: 60:   Lcd_Cmd(y);
  7187  1F98  1683               	bsf	3,5	;RP0=1, select bank1
  7188  1F99  1303               	bcf	3,6	;RP1=0, select bank1
  7189  1F9A  0829               	movf	Lcd_Set_Cursor@y^(0+128),w
  7190  1F9B  160A  158A  25A4   	fcall	_Lcd_Cmd
  7191  1F9E  0008               	return
  7192  1F9F                     __end_of_Lcd_Set_Cursor:	
  7193                           
  7194                           	psect	text20
  7195  0801                     __ptext20:	
  7196 ;; *************** function _Lcd_Set_Port *****************
  7197 ;; Defined at:
  7198 ;;		line 117 in file "lcd4.c"
  7199 ;; Parameters:    Size  Location     Type
  7200 ;;  a               1    wreg     unsigned char 
  7201 ;; Auto vars:     Size  Location     Type
  7202 ;;  a               1    2[BANK1 ] unsigned char 
  7203 ;; Return value:  Size  Location     Type
  7204 ;;                  1    wreg      void 
  7205 ;; Registers used:
  7206 ;;		wreg, fsr0l, fsr0h, status,2, status,0
  7207 ;; Tracked objects:
  7208 ;;		On entry : 0/0
  7209 ;;		On exit  : 0/0
  7210 ;;		Unchanged: 0/0
  7211 ;; Data sizes:     COMMON   BANK0   BANK1   BANK3   BANK2
  7212 ;;      Params:         0       0       0       0       0
  7213 ;;      Locals:         0       0       1       0       0
  7214 ;;      Temps:          0       0       2       0       0
  7215 ;;      Totals:         0       0       3       0       0
  7216 ;;Total ram usage:        3 bytes
  7217 ;; Hardware stack levels used:    1
  7218 ;; Hardware stack levels required when called:    3
  7219 ;; This function calls:
  7220 ;;		Nothing
  7221 ;; This function is called by:
  7222 ;;		_main
  7223 ;; This function uses a non-reentrant model
  7224 ;;
  7225                           
  7226                           
  7227                           ;psect for function _Lcd_Set_Port
  7228  0801                     _Lcd_Set_Port:	
  7229                           
  7230                           ;incstack = 0
  7231                           ; Regs used in _Lcd_Set_Port: [wreg-fsr0h+status,2+status,0]
  7232                           ;Lcd_Set_Port@a stored from wreg
  7233  0801  1683               	bsf	3,5	;RP0=1, select bank1
  7234  0802  1303               	bcf	3,6	;RP1=0, select bank1
  7235  0803  00A2               	movwf	Lcd_Set_Port@a^(0+128)
  7236                           
  7237                           ;lcd4.c: 117: void Lcd_Set_Port(unsigned char a);lcd4.c: 118: {;lcd4.c: 119:     switch 
      +                          (a)
  7238  0804  280D               	goto	l3386
  7239  0805                     l3376:	
  7240                           
  7241                           ;lcd4.c: 122:             TRISA = 0x00;
  7242  0805  0185               	clrf	5	;volatile
  7243                           
  7244                           ;lcd4.c: 123:             break;
  7245  0806  0008               	return
  7246  0807                     l3378:	
  7247                           
  7248                           ;lcd4.c: 125:             TRISB = 0x00;
  7249  0807  0186               	clrf	6	;volatile
  7250                           
  7251                           ;lcd4.c: 126:             break;
  7252  0808  0008               	return
  7253  0809                     l3380:	
  7254                           
  7255                           ;lcd4.c: 128:             TRISC = 0x00;
  7256  0809  0187               	clrf	7	;volatile
  7257                           
  7258                           ;lcd4.c: 129:             break;
  7259  080A  0008               	return
  7260  080B                     l3382:	
  7261                           
  7262                           ;lcd4.c: 131:             TRISD = 0x00;
  7263  080B  0188               	clrf	8	;volatile
  7264                           
  7265                           ;lcd4.c: 132:             break;
  7266  080C  0008               	return
  7267  080D                     l3386:	
  7268  080D  0822               	movf	Lcd_Set_Port@a^(0+128),w
  7269  080E  00A0               	movwf	??_Lcd_Set_Port^(0+128)
  7270  080F  01A1               	clrf	(??_Lcd_Set_Port^(0+128)+1)
  7271                           
  7272                           ; Switch on 2 bytes has been partitioned into a top level switch of size 1, and 1 sub-sw
      +                          itches
  7273                           ; Switch size 1, requested type "simple"
  7274                           ; Number of cases is 1, Range of values is 0 to 0
  7275                           ; switch strategies available:
  7276                           ; Name         Instructions Cycles
  7277                           ; simple_byte            4     3 (average)
  7278                           ; direct_byte           11     8 (fixed)
  7279                           ; jumptable            260     6 (fixed)
  7280                           ;	Chosen strategy is simple_byte
  7281  0810  0821               	movf	(??_Lcd_Set_Port+1)^(0+128),w
  7282  0811  3A00               	xorlw	0	; case 0
  7283  0812  1903               	skipnz
  7284  0813  2815               	goto	l3854
  7285  0814  2823               	goto	l302
  7286  0815                     l3854:	
  7287                           
  7288                           ; Switch size 1, requested type "simple"
  7289                           ; Number of cases is 4, Range of values is 65 to 68
  7290                           ; switch strategies available:
  7291                           ; Name         Instructions Cycles
  7292                           ; simple_byte           13     7 (average)
  7293                           ; direct_byte           23    11 (fixed)
  7294                           ; jumptable            263     9 (fixed)
  7295                           ;	Chosen strategy is simple_byte
  7296  0815  0820               	movf	??_Lcd_Set_Port^(0+128),w
  7297  0816  3A41               	xorlw	65	; case 65
  7298  0817  1903               	skipnz
  7299  0818  2805               	goto	l3376
  7300  0819  3A03               	xorlw	3	; case 66
  7301  081A  1903               	skipnz
  7302  081B  2807               	goto	l3378
  7303  081C  3A01               	xorlw	1	; case 67
  7304  081D  1903               	skipnz
  7305  081E  2809               	goto	l3380
  7306  081F  3A07               	xorlw	7	; case 68
  7307  0820  1903               	skipnz
  7308  0821  280B               	goto	l3382
  7309  0822  2823               	goto	l302
  7310  0823                     l302:	
  7311  0823  0008               	return
  7312  0824                     __end_of_Lcd_Set_Port:	
  7313                           
  7314                           	psect	text21
  7315  1F9F                     __ptext21:	
  7316 ;; *************** function _Lcd_Init *****************
  7317 ;; Defined at:
  7318 ;;		line 64 in file "lcd4.c"
  7319 ;; Parameters:    Size  Location     Type
  7320 ;;		None
  7321 ;; Auto vars:     Size  Location     Type
  7322 ;;		None
  7323 ;; Return value:  Size  Location     Type
  7324 ;;                  1    wreg      void 
  7325 ;; Registers used:
  7326 ;;		wreg, status,2, status,0, pclath, cstack
  7327 ;; Tracked objects:
  7328 ;;		On entry : 0/0
  7329 ;;		On exit  : 0/0
  7330 ;;		Unchanged: 0/0
  7331 ;; Data sizes:     COMMON   BANK0   BANK1   BANK3   BANK2
  7332 ;;      Params:         0       0       0       0       0
  7333 ;;      Locals:         0       0       0       0       0
  7334 ;;      Temps:          0       0       2       0       0
  7335 ;;      Totals:         0       0       2       0       0
  7336 ;;Total ram usage:        2 bytes
  7337 ;; Hardware stack levels used:    1
  7338 ;; Hardware stack levels required when called:    5
  7339 ;; This function calls:
  7340 ;;		_Lcd_Cmd
  7341 ;;		_Lcd_Port
  7342 ;; This function is called by:
  7343 ;;		_main
  7344 ;; This function uses a non-reentrant model
  7345 ;;
  7346                           
  7347                           
  7348                           ;psect for function _Lcd_Init
  7349  1F9F                     _Lcd_Init:	
  7350                           
  7351                           ;lcd4.c: 66:   Lcd_Port(0x00);
  7352                           
  7353                           ;incstack = 0
  7354                           ; Regs used in _Lcd_Init: [wreg+status,2+status,0+pclath+cstack]
  7355  1F9F  3000               	movlw	0
  7356  1FA0  160A  158A  2653  160A  158A  	fcall	_Lcd_Port
  7357                           
  7358                           ;lcd4.c: 67:    _delay((unsigned long)((20)*(20000000/4000.0)));
  7359  1FA5  3082               	movlw	130
  7360  1FA6  1683               	bsf	3,5	;RP0=1, select bank1
  7361  1FA7  1303               	bcf	3,6	;RP1=0, select bank1
  7362  1FA8  00A5               	movwf	(??_Lcd_Init^(0+128)+1)
  7363  1FA9  30DD               	movlw	221
  7364  1FAA  00A4               	movwf	??_Lcd_Init^(0+128)
  7365  1FAB                     u6527:	
  7366  1FAB  0BA4               	decfsz	??_Lcd_Init^(0+128),f
  7367  1FAC  2FAB               	goto	u6527
  7368  1FAD  0BA5               	decfsz	(??_Lcd_Init^(0+128)+1),f
  7369  1FAE  2FAB               	goto	u6527
  7370                           
  7371                           ;lcd4.c: 68:   Lcd_Cmd(0x03);
  7372  1FAF  3003               	movlw	3
  7373  1FB0  160A  158A  25A4  160A  158A  	fcall	_Lcd_Cmd
  7374                           
  7375                           ;lcd4.c: 69:  _delay((unsigned long)((5)*(20000000/4000.0)));
  7376  1FB5  3021               	movlw	33
  7377  1FB6  1683               	bsf	3,5	;RP0=1, select bank1
  7378  1FB7  1303               	bcf	3,6	;RP1=0, select bank1
  7379  1FB8  00A5               	movwf	(??_Lcd_Init^(0+128)+1)
  7380  1FB9  3075               	movlw	117
  7381  1FBA  00A4               	movwf	??_Lcd_Init^(0+128)
  7382  1FBB                     u6537:	
  7383  1FBB  0BA4               	decfsz	??_Lcd_Init^(0+128),f
  7384  1FBC  2FBB               	goto	u6537
  7385  1FBD  0BA5               	decfsz	(??_Lcd_Init^(0+128)+1),f
  7386  1FBE  2FBB               	goto	u6537
  7387  1FBF  2FC0               	nop2
  7388                           
  7389                           ;lcd4.c: 70:   Lcd_Cmd(0x03);
  7390  1FC0  3003               	movlw	3
  7391  1FC1  160A  158A  25A4  160A  158A  	fcall	_Lcd_Cmd
  7392                           
  7393                           ;lcd4.c: 71:  _delay((unsigned long)((11)*(20000000/4000.0)));
  7394  1FC6  3048               	movlw	72
  7395  1FC7  1683               	bsf	3,5	;RP0=1, select bank1
  7396  1FC8  1303               	bcf	3,6	;RP1=0, select bank1
  7397  1FC9  00A5               	movwf	(??_Lcd_Init^(0+128)+1)
  7398  1FCA  306B               	movlw	107
  7399  1FCB  00A4               	movwf	??_Lcd_Init^(0+128)
  7400  1FCC                     u6547:	
  7401  1FCC  0BA4               	decfsz	??_Lcd_Init^(0+128),f
  7402  1FCD  2FCC               	goto	u6547
  7403  1FCE  0BA5               	decfsz	(??_Lcd_Init^(0+128)+1),f
  7404  1FCF  2FCC               	goto	u6547
  7405  1FD0  2FD1               	nop2
  7406                           
  7407                           ;lcd4.c: 72:   Lcd_Cmd(0x03);
  7408  1FD1  3003               	movlw	3
  7409  1FD2  160A  158A  25A4  160A  158A  	fcall	_Lcd_Cmd
  7410                           
  7411                           ;lcd4.c: 74:   Lcd_Cmd(0x02);
  7412  1FD7  3002               	movlw	2
  7413  1FD8  160A  158A  25A4  160A  158A  	fcall	_Lcd_Cmd
  7414                           
  7415                           ;lcd4.c: 75:   Lcd_Cmd(0x02);
  7416  1FDD  3002               	movlw	2
  7417  1FDE  160A  158A  25A4  160A  158A  	fcall	_Lcd_Cmd
  7418                           
  7419                           ;lcd4.c: 76:   Lcd_Cmd(0x08);
  7420  1FE3  3008               	movlw	8
  7421  1FE4  160A  158A  25A4  160A  158A  	fcall	_Lcd_Cmd
  7422                           
  7423                           ;lcd4.c: 77:   Lcd_Cmd(0x00);
  7424  1FE9  3000               	movlw	0
  7425  1FEA  160A  158A  25A4  160A  158A  	fcall	_Lcd_Cmd
  7426                           
  7427                           ;lcd4.c: 78:   Lcd_Cmd(0x0C);
  7428  1FEF  300C               	movlw	12
  7429  1FF0  160A  158A  25A4  160A  158A  	fcall	_Lcd_Cmd
  7430                           
  7431                           ;lcd4.c: 79:   Lcd_Cmd(0x00);
  7432  1FF5  3000               	movlw	0
  7433  1FF6  160A  158A  25A4  160A  158A  	fcall	_Lcd_Cmd
  7434                           
  7435                           ;lcd4.c: 80:   Lcd_Cmd(0x06);
  7436  1FFB  3006               	movlw	6
  7437  1FFC  160A  158A  25A4   	fcall	_Lcd_Cmd
  7438  1FFF  0008               	return
  7439  2000                     __end_of_Lcd_Init:	
  7440                           
  7441                           	psect	text22
  7442  1DA4                     __ptext22:	
  7443 ;; *************** function _Lcd_Cmd *****************
  7444 ;; Defined at:
  7445 ;;		line 27 in file "lcd4.c"
  7446 ;; Parameters:    Size  Location     Type
  7447 ;;  a               1    wreg     unsigned char 
  7448 ;; Auto vars:     Size  Location     Type
  7449 ;;  a               1    3[BANK1 ] unsigned char 
  7450 ;; Return value:  Size  Location     Type
  7451 ;;                  1    wreg      void 
  7452 ;; Registers used:
  7453 ;;		wreg, status,2, status,0, pclath, cstack
  7454 ;; Tracked objects:
  7455 ;;		On entry : 0/0
  7456 ;;		On exit  : 0/0
  7457 ;;		Unchanged: 0/0
  7458 ;; Data sizes:     COMMON   BANK0   BANK1   BANK3   BANK2
  7459 ;;      Params:         0       0       0       0       0
  7460 ;;      Locals:         0       0       1       0       0
  7461 ;;      Temps:          0       0       2       0       0
  7462 ;;      Totals:         0       0       3       0       0
  7463 ;;Total ram usage:        3 bytes
  7464 ;; Hardware stack levels used:    1
  7465 ;; Hardware stack levels required when called:    4
  7466 ;; This function calls:
  7467 ;;		_Lcd_Port
  7468 ;; This function is called by:
  7469 ;;		_Lcd_Clear
  7470 ;;		_Lcd_Set_Cursor
  7471 ;;		_Lcd_Init
  7472 ;;		_Lcd_Shift_Right
  7473 ;;		_Lcd_Shift_Left
  7474 ;; This function uses a non-reentrant model
  7475 ;;
  7476                           
  7477                           
  7478                           ;psect for function _Lcd_Cmd
  7479  1DA4                     _Lcd_Cmd:	
  7480                           
  7481                           ;incstack = 0
  7482                           ; Regs used in _Lcd_Cmd: [wreg+status,2+status,0+pclath+cstack]
  7483                           ;Lcd_Cmd@a stored from wreg
  7484  1DA4  1683               	bsf	3,5	;RP0=1, select bank1
  7485  1DA5  1303               	bcf	3,6	;RP1=0, select bank1
  7486  1DA6  00A3               	movwf	Lcd_Cmd@a^(0+128)
  7487                           
  7488                           ;lcd4.c: 27: void Lcd_Cmd(char a);lcd4.c: 28: {;lcd4.c: 29:  RD0 = 0;
  7489  1DA7  1283               	bcf	3,5	;RP0=0, select bank0
  7490  1DA8  1303               	bcf	3,6	;RP1=0, select bank0
  7491  1DA9  1008               	bcf	8,0	;volatile
  7492                           
  7493                           ;lcd4.c: 30:  Lcd_Port(a);
  7494  1DAA  1683               	bsf	3,5	;RP0=1, select bank1
  7495  1DAB  1303               	bcf	3,6	;RP1=0, select bank1
  7496  1DAC  0823               	movf	Lcd_Cmd@a^(0+128),w
  7497  1DAD  160A  158A  2653  160A  158A  	fcall	_Lcd_Port
  7498                           
  7499                           ;lcd4.c: 31:  RD1 = 1;
  7500  1DB2  1283               	bcf	3,5	;RP0=0, select bank0
  7501  1DB3  1303               	bcf	3,6	;RP1=0, select bank0
  7502  1DB4  1488               	bsf	8,1	;volatile
  7503                           
  7504                           ;lcd4.c: 32:         _delay((unsigned long)((4)*(20000000/4000.0)));
  7505  1DB5  301A               	movlw	26
  7506  1DB6  1683               	bsf	3,5	;RP0=1, select bank1
  7507  1DB7  1303               	bcf	3,6	;RP1=0, select bank1
  7508  1DB8  00A2               	movwf	(??_Lcd_Cmd^(0+128)+1)
  7509  1DB9  30F7               	movlw	247
  7510  1DBA  00A1               	movwf	??_Lcd_Cmd^(0+128)
  7511  1DBB                     u6557:	
  7512  1DBB  0BA1               	decfsz	??_Lcd_Cmd^(0+128),f
  7513  1DBC  2DBB               	goto	u6557
  7514  1DBD  0BA2               	decfsz	(??_Lcd_Cmd^(0+128)+1),f
  7515  1DBE  2DBB               	goto	u6557
  7516  1DBF  2DC0               	nop2
  7517                           
  7518                           ;lcd4.c: 33:         RD1 = 0;
  7519  1DC0  1283               	bcf	3,5	;RP0=0, select bank0
  7520  1DC1  1303               	bcf	3,6	;RP1=0, select bank0
  7521  1DC2  1088               	bcf	8,1	;volatile
  7522  1DC3  0008               	return
  7523  1DC4                     __end_of_Lcd_Cmd:	
  7524                           
  7525                           	psect	text23
  7526  1E53                     __ptext23:	
  7527 ;; *************** function _Lcd_Port *****************
  7528 ;; Defined at:
  7529 ;;		line 5 in file "lcd4.c"
  7530 ;; Parameters:    Size  Location     Type
  7531 ;;  a               1    wreg     unsigned char 
  7532 ;; Auto vars:     Size  Location     Type
  7533 ;;  a               1    0[BANK1 ] unsigned char 
  7534 ;; Return value:  Size  Location     Type
  7535 ;;                  1    wreg      void 
  7536 ;; Registers used:
  7537 ;;		wreg
  7538 ;; Tracked objects:
  7539 ;;		On entry : 0/0
  7540 ;;		On exit  : 0/0
  7541 ;;		Unchanged: 0/0
  7542 ;; Data sizes:     COMMON   BANK0   BANK1   BANK3   BANK2
  7543 ;;      Params:         0       0       0       0       0
  7544 ;;      Locals:         0       0       1       0       0
  7545 ;;      Temps:          0       0       0       0       0
  7546 ;;      Totals:         0       0       1       0       0
  7547 ;;Total ram usage:        1 bytes
  7548 ;; Hardware stack levels used:    1
  7549 ;; Hardware stack levels required when called:    3
  7550 ;; This function calls:
  7551 ;;		Nothing
  7552 ;; This function is called by:
  7553 ;;		_Lcd_Cmd
  7554 ;;		_Lcd_Init
  7555 ;;		_Lcd_Write_Char
  7556 ;; This function uses a non-reentrant model
  7557 ;;
  7558                           
  7559                           
  7560                           ;psect for function _Lcd_Port
  7561  1E53                     _Lcd_Port:	
  7562                           
  7563                           ;incstack = 0
  7564                           ; Regs used in _Lcd_Port: [wreg]
  7565                           ;Lcd_Port@a stored from wreg
  7566  1E53  1683               	bsf	3,5	;RP0=1, select bank1
  7567  1E54  1303               	bcf	3,6	;RP1=0, select bank1
  7568  1E55  00A0               	movwf	Lcd_Port@a^(0+128)
  7569                           
  7570                           ;lcd4.c: 5: void Lcd_Port(char a);lcd4.c: 6: {;lcd4.c: 7:  if(a & 1)
  7571  1E56  1C20               	btfss	Lcd_Port@a^(0+128),0
  7572  1E57  2E5C               	goto	l254
  7573                           
  7574                           ;lcd4.c: 8:   RD2 = 1;
  7575  1E58  1283               	bcf	3,5	;RP0=0, select bank0
  7576  1E59  1303               	bcf	3,6	;RP1=0, select bank0
  7577  1E5A  1508               	bsf	8,2	;volatile
  7578  1E5B  2E5F               	goto	l255
  7579  1E5C                     l254:	
  7580                           ;lcd4.c: 9:  else
  7581                           
  7582                           
  7583                           ;lcd4.c: 10:   RD2 = 0;
  7584  1E5C  1283               	bcf	3,5	;RP0=0, select bank0
  7585  1E5D  1303               	bcf	3,6	;RP1=0, select bank0
  7586  1E5E  1108               	bcf	8,2	;volatile
  7587  1E5F                     l255:	
  7588                           
  7589                           ;lcd4.c: 12:  if(a & 2)
  7590  1E5F  1683               	bsf	3,5	;RP0=1, select bank1
  7591  1E60  1303               	bcf	3,6	;RP1=0, select bank1
  7592  1E61  1CA0               	btfss	Lcd_Port@a^(0+128),1
  7593  1E62  2E67               	goto	l256
  7594                           
  7595                           ;lcd4.c: 13:   RD3 = 1;
  7596  1E63  1283               	bcf	3,5	;RP0=0, select bank0
  7597  1E64  1303               	bcf	3,6	;RP1=0, select bank0
  7598  1E65  1588               	bsf	8,3	;volatile
  7599  1E66  2E6A               	goto	l257
  7600  1E67                     l256:	
  7601                           ;lcd4.c: 14:  else
  7602                           
  7603                           
  7604                           ;lcd4.c: 15:   RD3 = 0;
  7605  1E67  1283               	bcf	3,5	;RP0=0, select bank0
  7606  1E68  1303               	bcf	3,6	;RP1=0, select bank0
  7607  1E69  1188               	bcf	8,3	;volatile
  7608  1E6A                     l257:	
  7609                           
  7610                           ;lcd4.c: 17:  if(a & 4)
  7611  1E6A  1683               	bsf	3,5	;RP0=1, select bank1
  7612  1E6B  1303               	bcf	3,6	;RP1=0, select bank1
  7613  1E6C  1D20               	btfss	Lcd_Port@a^(0+128),2
  7614  1E6D  2E72               	goto	l258
  7615                           
  7616                           ;lcd4.c: 18:   RD4 = 1;
  7617  1E6E  1283               	bcf	3,5	;RP0=0, select bank0
  7618  1E6F  1303               	bcf	3,6	;RP1=0, select bank0
  7619  1E70  1608               	bsf	8,4	;volatile
  7620  1E71  2E75               	goto	l259
  7621  1E72                     l258:	
  7622                           ;lcd4.c: 19:  else
  7623                           
  7624                           
  7625                           ;lcd4.c: 20:   RD4 = 0;
  7626  1E72  1283               	bcf	3,5	;RP0=0, select bank0
  7627  1E73  1303               	bcf	3,6	;RP1=0, select bank0
  7628  1E74  1208               	bcf	8,4	;volatile
  7629  1E75                     l259:	
  7630                           
  7631                           ;lcd4.c: 22:  if(a & 8)
  7632  1E75  1683               	bsf	3,5	;RP0=1, select bank1
  7633  1E76  1303               	bcf	3,6	;RP1=0, select bank1
  7634  1E77  1DA0               	btfss	Lcd_Port@a^(0+128),3
  7635  1E78  2E7D               	goto	l260
  7636                           
  7637                           ;lcd4.c: 23:   RD5 = 1;
  7638  1E79  1283               	bcf	3,5	;RP0=0, select bank0
  7639  1E7A  1303               	bcf	3,6	;RP1=0, select bank0
  7640  1E7B  1688               	bsf	8,5	;volatile
  7641  1E7C  0008               	return
  7642  1E7D                     l260:	
  7643                           ;lcd4.c: 24:  else
  7644                           
  7645                           
  7646                           ;lcd4.c: 25:   RD5 = 0;
  7647  1E7D  1283               	bcf	3,5	;RP0=0, select bank0
  7648  1E7E  1303               	bcf	3,6	;RP1=0, select bank0
  7649  1E7F  1288               	bcf	8,5	;volatile
  7650  1E80  0008               	return
  7651  1E81                     __end_of_Lcd_Port:	
  7652                           
  7653                           	psect	text24
  7654  1D76                     __ptext24:	
  7655 ;; *************** function _Interrupt_Init *****************
  7656 ;; Defined at:
  7657 ;;		line 129 in file "main.c"
  7658 ;; Parameters:    Size  Location     Type
  7659 ;;		None
  7660 ;; Auto vars:     Size  Location     Type
  7661 ;;		None
  7662 ;; Return value:  Size  Location     Type
  7663 ;;                  1    wreg      void 
  7664 ;; Registers used:
  7665 ;;		None
  7666 ;; Tracked objects:
  7667 ;;		On entry : 0/0
  7668 ;;		On exit  : 0/0
  7669 ;;		Unchanged: 0/0
  7670 ;; Data sizes:     COMMON   BANK0   BANK1   BANK3   BANK2
  7671 ;;      Params:         0       0       0       0       0
  7672 ;;      Locals:         0       0       0       0       0
  7673 ;;      Temps:          0       0       0       0       0
  7674 ;;      Totals:         0       0       0       0       0
  7675 ;;Total ram usage:        0 bytes
  7676 ;; Hardware stack levels used:    1
  7677 ;; Hardware stack levels required when called:    3
  7678 ;; This function calls:
  7679 ;;		Nothing
  7680 ;; This function is called by:
  7681 ;;		_main
  7682 ;; This function uses a non-reentrant model
  7683 ;;
  7684                           
  7685                           
  7686                           ;psect for function _Interrupt_Init
  7687  1D76                     _Interrupt_Init:	
  7688                           
  7689                           ;main.c: 131:     TRISB0 = 1;
  7690                           
  7691                           ;incstack = 0
  7692                           ; Regs used in _Interrupt_Init: []
  7693  1D76  1683               	bsf	3,5	;RP0=1, select bank1
  7694  1D77  1303               	bcf	3,6	;RP1=0, select bank1
  7695  1D78  1406               	bsf	6,0	;volatile
  7696                           
  7697                           ;main.c: 133:     INTEDG = 1;
  7698  1D79  1701               	bsf	1,6	;volatile
  7699                           
  7700                           ;main.c: 135:     GIE = 1;
  7701  1D7A  178B               	bsf	11,7	;volatile
  7702                           
  7703                           ;main.c: 136:     PEIE = 1;
  7704  1D7B  170B               	bsf	11,6	;volatile
  7705  1D7C  0008               	return
  7706  1D7D                     __end_of_Interrupt_Init:	
  7707                           
  7708                           	psect	text25
  7709  1004                     __ptext25:	
  7710 ;; *************** function _ADC_Init *****************
  7711 ;; Defined at:
  7712 ;;		line 99 in file "main.c"
  7713 ;; Parameters:    Size  Location     Type
  7714 ;;		None
  7715 ;; Auto vars:     Size  Location     Type
  7716 ;;		None
  7717 ;; Return value:  Size  Location     Type
  7718 ;;                  1    wreg      void 
  7719 ;; Registers used:
  7720 ;;		None
  7721 ;; Tracked objects:
  7722 ;;		On entry : 0/0
  7723 ;;		On exit  : 0/0
  7724 ;;		Unchanged: 0/0
  7725 ;; Data sizes:     COMMON   BANK0   BANK1   BANK3   BANK2
  7726 ;;      Params:         0       0       0       0       0
  7727 ;;      Locals:         0       0       0       0       0
  7728 ;;      Temps:          0       0       0       0       0
  7729 ;;      Totals:         0       0       0       0       0
  7730 ;;Total ram usage:        0 bytes
  7731 ;; Hardware stack levels used:    1
  7732 ;; Hardware stack levels required when called:    3
  7733 ;; This function calls:
  7734 ;;		Nothing
  7735 ;; This function is called by:
  7736 ;;		_main
  7737 ;; This function uses a non-reentrant model
  7738 ;;
  7739                           
  7740                           
  7741                           ;psect for function _ADC_Init
  7742  1004                     _ADC_Init:	
  7743                           
  7744                           ;main.c: 102:     PCFG0 = 0;
  7745                           
  7746                           ;incstack = 0
  7747                           ; Regs used in _ADC_Init: []
  7748  1004  1683               	bsf	3,5	;RP0=1, select bank1
  7749  1005  1303               	bcf	3,6	;RP1=0, select bank1
  7750  1006  101F               	bcf	31,0	;volatile
  7751                           
  7752                           ;main.c: 103:     PCFG1 = 0;
  7753  1007  109F               	bcf	31,1	;volatile
  7754                           
  7755                           ;main.c: 104:     PCFG2 = 1;
  7756  1008  151F               	bsf	31,2	;volatile
  7757                           
  7758                           ;main.c: 105:     PCFG3 = 0;
  7759  1009  119F               	bcf	31,3	;volatile
  7760                           
  7761                           ;main.c: 107:     ADCS0 = 0;
  7762  100A  1283               	bcf	3,5	;RP0=0, select bank0
  7763  100B  1303               	bcf	3,6	;RP1=0, select bank0
  7764  100C  131F               	bcf	31,6	;volatile
  7765                           
  7766                           ;main.c: 108:     ADCS1 = 1;
  7767  100D  179F               	bsf	31,7	;volatile
  7768                           
  7769                           ;main.c: 109:     ADCS2 = 1;
  7770  100E  1683               	bsf	3,5	;RP0=1, select bank1
  7771  100F  1303               	bcf	3,6	;RP1=0, select bank1
  7772  1010  171F               	bsf	31,6	;volatile
  7773                           
  7774                           ;main.c: 111:     ADFM = 1;
  7775  1011  179F               	bsf	31,7	;volatile
  7776                           
  7777                           ;main.c: 113:     ADON = 1;
  7778  1012  1283               	bcf	3,5	;RP0=0, select bank0
  7779  1013  1303               	bcf	3,6	;RP1=0, select bank0
  7780  1014  141F               	bsf	31,0	;volatile
  7781                           
  7782                           ;main.c: 115:     ADIE = 0;
  7783  1015  1683               	bsf	3,5	;RP0=1, select bank1
  7784  1016  1303               	bcf	3,6	;RP1=0, select bank1
  7785  1017  130C               	bcf	12,6	;volatile
  7786                           
  7787                           ;main.c: 116:     ADIF = 0;
  7788  1018  1283               	bcf	3,5	;RP0=0, select bank0
  7789  1019  1303               	bcf	3,6	;RP1=0, select bank0
  7790  101A  130C               	bcf	12,6	;volatile
  7791  101B  0008               	return
  7792  101C                     __end_of_ADC_Init:	
  7793                           
  7794                           	psect	text26
  7795  101C                     __ptext26:	
  7796 ;; *************** function _My_interrupt *****************
  7797 ;; Defined at:
  7798 ;;		line 250 in file "main.c"
  7799 ;; Parameters:    Size  Location     Type
  7800 ;;		None
  7801 ;; Auto vars:     Size  Location     Type
  7802 ;;		None
  7803 ;; Return value:  Size  Location     Type
  7804 ;;                  1    wreg      void 
  7805 ;; Registers used:
  7806 ;;		wreg, status,2, status,0, btemp+1, pclath, cstack
  7807 ;; Tracked objects:
  7808 ;;		On entry : 0/0
  7809 ;;		On exit  : 0/0
  7810 ;;		Unchanged: 0/0
  7811 ;; Data sizes:     COMMON   BANK0   BANK1   BANK3   BANK2
  7812 ;;      Params:         0       0       0       0       0
  7813 ;;      Locals:         0       0       0       0       0
  7814 ;;      Temps:          0       3       0       0       0
  7815 ;;      Totals:         0       3       0       0       0
  7816 ;;Total ram usage:        3 bytes
  7817 ;; Hardware stack levels used:    1
  7818 ;; Hardware stack levels required when called:    2
  7819 ;; This function calls:
  7820 ;;		i1___fldiv
  7821 ;;		i1___flsub
  7822 ;;		i1___fltol
  7823 ;;		i1___xxtofl
  7824 ;; This function is called by:
  7825 ;;		Interrupt level 1
  7826 ;; This function uses a non-reentrant model
  7827 ;;
  7828                           
  7829                           
  7830                           ;psect for function _My_interrupt
  7831  101C                     _My_interrupt:	
  7832                           
  7833                           ;main.c: 252:     if(INTE == 1 && INTF == 1)
  7834  101C  1A0B               	btfsc	11,4	;volatile
  7835  101D  1C8B               	btfss	11,1	;volatile
  7836  101E  287A               	goto	i1l229
  7837                           
  7838                           ;main.c: 253:     {;main.c: 254:         RB1 = 0;
  7839  101F  1086               	bcf	6,1	;volatile
  7840                           
  7841                           ;main.c: 256:         TMR1ON = 1;
  7842  1020  1410               	bsf	16,0	;volatile
  7843  1021                     i1l226:	
  7844                           ;main.c: 257:         while(TMR1IF==0);
  7845                           
  7846  1021  1C0C               	btfss	12,0	;volatile
  7847  1022  2821               	goto	i1l226
  7848                           
  7849                           ;main.c: 258:         TMR1ON = 0;
  7850  1023  1010               	bcf	16,0	;volatile
  7851                           
  7852                           ;main.c: 259:         TMR1= 65536-(1000+duty)/0.2f;
  7853  1024  3047               	movlw	71
  7854  1025  00C1               	movwf	i1___flsub@b+3
  7855  1026  3080               	movlw	128
  7856  1027  00C0               	movwf	i1___flsub@b+2
  7857  1028  3000               	movlw	0
  7858  1029  00BF               	movwf	i1___flsub@b+1
  7859  102A  3000               	movlw	0
  7860  102B  00BE               	movwf	i1___flsub@b
  7861  102C  085C               	movf	_duty,w
  7862  102D  3EE8               	addlw	232
  7863  102E  00F0               	movwf	i1___xxtofl@val
  7864  102F  085D               	movf	_duty+1,w
  7865  1030  1803               	skipnc
  7866  1031  3E01               	addlw	1
  7867  1032  3E03               	addlw	3
  7868  1033  00F1               	movwf	i1___xxtofl@val+1
  7869  1034  01F2               	clrf	i1___xxtofl@val+2
  7870  1035  01F3               	clrf	i1___xxtofl@val+3
  7871  1036  3000               	movlw	0
  7872  1037  160A  118A  2285  160A  118A  	fcall	i1___xxtofl
  7873  103C  0873               	movf	?i1___xxtofl+3,w
  7874  103D  1283               	bcf	3,5	;RP0=0, select bank0
  7875  103E  1303               	bcf	3,6	;RP1=0, select bank0
  7876  103F  00A7               	movwf	i1___fldiv@b+3
  7877  1040  0872               	movf	?i1___xxtofl+2,w
  7878  1041  00A6               	movwf	i1___fldiv@b+2
  7879  1042  0871               	movf	?i1___xxtofl+1,w
  7880  1043  00A5               	movwf	i1___fldiv@b+1
  7881  1044  0870               	movf	?i1___xxtofl,w
  7882  1045  00A4               	movwf	i1___fldiv@b
  7883  1046  303E               	movlw	62
  7884  1047  00A3               	movwf	i1___fldiv@a+3
  7885  1048  304C               	movlw	76
  7886  1049  00A2               	movwf	i1___fldiv@a+2
  7887  104A  30CC               	movlw	204
  7888  104B  00A1               	movwf	i1___fldiv@a+1
  7889  104C  30CD               	movlw	205
  7890  104D  00A0               	movwf	i1___fldiv@a
  7891  104E  160A  118A  24BA  160A  118A  	fcall	i1___fldiv
  7892  1053  1283               	bcf	3,5	;RP0=0, select bank0
  7893  1054  1303               	bcf	3,6	;RP1=0, select bank0
  7894  1055  0823               	movf	?i1___fldiv+3,w
  7895  1056  00BD               	movwf	i1___flsub@a+3
  7896  1057  0822               	movf	?i1___fldiv+2,w
  7897  1058  00BC               	movwf	i1___flsub@a+2
  7898  1059  0821               	movf	?i1___fldiv+1,w
  7899  105A  00BB               	movwf	i1___flsub@a+1
  7900  105B  0820               	movf	?i1___fldiv,w
  7901  105C  00BA               	movwf	i1___flsub@a
  7902  105D  160A  158A  25C4  160A  118A  	fcall	i1___flsub
  7903  1062  1283               	bcf	3,5	;RP0=0, select bank0
  7904  1063  1303               	bcf	3,6	;RP1=0, select bank0
  7905  1064  083D               	movf	?i1___flsub+3,w
  7906  1065  00C5               	movwf	i1___fltol@f1+3
  7907  1066  083C               	movf	?i1___flsub+2,w
  7908  1067  00C4               	movwf	i1___fltol@f1+2
  7909  1068  083B               	movf	?i1___flsub+1,w
  7910  1069  00C3               	movwf	i1___fltol@f1+1
  7911  106A  083A               	movf	?i1___flsub,w
  7912  106B  00C2               	movwf	i1___fltol@f1
  7913  106C  160A  118A  2083  160A  118A  	fcall	i1___fltol
  7914  1071  1283               	bcf	3,5	;RP0=0, select bank0
  7915  1072  1303               	bcf	3,6	;RP1=0, select bank0
  7916  1073  0843               	movf	?i1___fltol+1,w
  7917  1074  008F               	movwf	15	;volatile
  7918  1075  0842               	movf	?i1___fltol,w
  7919  1076  008E               	movwf	14	;volatile
  7920                           
  7921                           ;main.c: 260:         TMR1IF = 0;
  7922  1077  100C               	bcf	12,0	;volatile
  7923                           
  7924                           ;main.c: 262:         RB1 = 1;
  7925  1078  1486               	bsf	6,1	;volatile
  7926                           
  7927                           ;main.c: 263:         INTF = 0;
  7928  1079  108B               	bcf	11,1	;volatile
  7929  107A                     i1l229:	
  7930  107A  084F               	movf	??_My_interrupt+2,w
  7931  107B  00FF               	movwf	127
  7932  107C  084E               	movf	??_My_interrupt+1,w
  7933  107D  008A               	movwf	10
  7934  107E  0E4D               	swapf	??_My_interrupt^0,w
  7935  107F  0083               	movwf	3
  7936  1080  0EFE               	swapf	126,f
  7937  1081  0E7E               	swapf	126,w
  7938  1082  0009               	retfie
  7939  1083                     __end_of_My_interrupt:	
  7940                           
  7941                           	psect	intentry
  7942  0004                     __pintentry:	
  7943                           ;incstack = 0
  7944                           ; Regs used in _My_interrupt: [wreg+status,2+status,0+btemp+1+pclath+cstack]
  7945                           
  7946  0004                     interrupt_function:	
  7947  007E                     saved_w	set	btemp
  7948  0004  00FE               	movwf	btemp
  7949  0005  0E03               	swapf	3,w
  7950  0006  1283               	bcf	3,5	;RP0=0, select bank0
  7951  0007  1303               	bcf	3,6	;RP1=0, select bank0
  7952  0008  00CD               	movwf	??_My_interrupt
  7953  0009  080A               	movf	10,w
  7954  000A  00CE               	movwf	??_My_interrupt+1
  7955  000B  087F               	movf	btemp+1,w
  7956  000C  00CF               	movwf	??_My_interrupt+2
  7957  000D  160A  118A  281C   	ljmp	_My_interrupt
  7958                           
  7959                           	psect	text27
  7960  1285                     __ptext27:	
  7961 ;; *************** function i1___xxtofl *****************
  7962 ;; Defined at:
  7963 ;;		line 10 in file "D:\PROGRAM\MPLABX v5.20\XC8 v2.05\pic\sources\c90\common\xxtofl.c"
  7964 ;; Parameters:    Size  Location     Type
  7965 ;;  sign            1    wreg     unsigned char 
  7966 ;;  val             4    0[COMMON] long 
  7967 ;; Auto vars:     Size  Location     Type
  7968 ;;  sign            1    8[COMMON] unsigned char 
  7969 ;;  __xxtofl        4   10[COMMON] unsigned long 
  7970 ;;  __xxtofl        1    9[COMMON] unsigned char 
  7971 ;; Return value:  Size  Location     Type
  7972 ;;                  4    0[COMMON] unsigned char 
  7973 ;; Registers used:
  7974 ;;		wreg, status,2, status,0
  7975 ;; Tracked objects:
  7976 ;;		On entry : 0/0
  7977 ;;		On exit  : 0/0
  7978 ;;		Unchanged: 0/0
  7979 ;; Data sizes:     COMMON   BANK0   BANK1   BANK3   BANK2
  7980 ;;      Params:         4       0       0       0       0
  7981 ;;      Locals:         6       0       0       0       0
  7982 ;;      Temps:          4       0       0       0       0
  7983 ;;      Totals:        14       0       0       0       0
  7984 ;;Total ram usage:       14 bytes
  7985 ;; Hardware stack levels used:    1
  7986 ;; This function calls:
  7987 ;;		Nothing
  7988 ;; This function is called by:
  7989 ;;		_My_interrupt
  7990 ;; This function uses a non-reentrant model
  7991 ;;
  7992                           
  7993                           
  7994                           ;psect for function i1___xxtofl
  7995  1285                     i1___xxtofl:	
  7996                           
  7997                           ;incstack = 0
  7998                           ; Regs used in i1___xxtofl: [wreg+status,2+status,0]
  7999                           ;i1___xxtofl@sign stored from wreg
  8000  1285  00F8               	movwf	i1___xxtofl@sign
  8001  1286  0878               	movf	i1___xxtofl@sign,w
  8002  1287  1D03               	btfss	3,2
  8003  1288  1FF3               	btfss	i1___xxtofl@val+3,7
  8004  1289  2A9A               	goto	i1l3726
  8005  128A  0970               	comf	i1___xxtofl@val,w
  8006  128B  00FA               	movwf	i1___xxtofl@arg
  8007  128C  0971               	comf	i1___xxtofl@val+1,w
  8008  128D  00FB               	movwf	i1___xxtofl@arg+1
  8009  128E  0972               	comf	i1___xxtofl@val+2,w
  8010  128F  00FC               	movwf	i1___xxtofl@arg+2
  8011  1290  0973               	comf	i1___xxtofl@val+3,w
  8012  1291  00FD               	movwf	i1___xxtofl@arg+3
  8013  1292  0AFA               	incf	i1___xxtofl@arg,f
  8014  1293  1903               	skipnz
  8015  1294  0AFB               	incf	i1___xxtofl@arg+1,f
  8016  1295  1903               	skipnz
  8017  1296  0AFC               	incf	i1___xxtofl@arg+2,f
  8018  1297  1903               	skipnz
  8019  1298  0AFD               	incf	i1___xxtofl@arg+3,f
  8020  1299  2AA2               	goto	i1l815
  8021  129A                     i1l3726:	
  8022  129A  0873               	movf	i1___xxtofl@val+3,w
  8023  129B  00FD               	movwf	i1___xxtofl@arg+3
  8024  129C  0872               	movf	i1___xxtofl@val+2,w
  8025  129D  00FC               	movwf	i1___xxtofl@arg+2
  8026  129E  0871               	movf	i1___xxtofl@val+1,w
  8027  129F  00FB               	movwf	i1___xxtofl@arg+1
  8028  12A0  0870               	movf	i1___xxtofl@val,w
  8029  12A1  00FA               	movwf	i1___xxtofl@arg
  8030  12A2                     i1l815:	
  8031  12A2  0873               	movf	i1___xxtofl@val+3,w
  8032  12A3  0472               	iorwf	i1___xxtofl@val+2,w
  8033  12A4  0471               	iorwf	i1___xxtofl@val+1,w
  8034  12A5  0470               	iorwf	i1___xxtofl@val,w
  8035  12A6  1D03               	skipz
  8036  12A7  2AB1               	goto	i1l3732
  8037  12A8  3000               	movlw	0
  8038  12A9  00F3               	movwf	?i1___xxtofl+3
  8039  12AA  3000               	movlw	0
  8040  12AB  00F2               	movwf	?i1___xxtofl+2
  8041  12AC  3000               	movlw	0
  8042  12AD  00F1               	movwf	?i1___xxtofl+1
  8043  12AE  3000               	movlw	0
  8044  12AF  00F0               	movwf	?i1___xxtofl
  8045  12B0  0008               	return
  8046  12B1                     i1l3732:	
  8047  12B1  3096               	movlw	150
  8048  12B2  00F4               	movwf	??i1___xxtofl
  8049  12B3  0874               	movf	??i1___xxtofl,w
  8050  12B4  00F9               	movwf	i1___xxtofl@exp
  8051  12B5                     i1l3736:	
  8052  12B5  30FE               	movlw	254
  8053  12B6  057D               	andwf	i1___xxtofl@arg+3,w
  8054  12B7  1903               	btfsc	3,2
  8055  12B8  2AE2               	goto	i1l821
  8056  12B9  3001               	movlw	1
  8057  12BA  00F4               	movwf	??i1___xxtofl
  8058  12BB  0874               	movf	??i1___xxtofl,w
  8059  12BC  07F9               	addwf	i1___xxtofl@exp,f
  8060  12BD  3001               	movlw	1
  8061  12BE                     u611_25:	
  8062  12BE  1003               	clrc
  8063  12BF  0CFD               	rrf	i1___xxtofl@arg+3,f
  8064  12C0  0CFC               	rrf	i1___xxtofl@arg+2,f
  8065  12C1  0CFB               	rrf	i1___xxtofl@arg+1,f
  8066  12C2  0CFA               	rrf	i1___xxtofl@arg,f
  8067  12C3  3EFF               	addlw	-1
  8068  12C4  1D03               	skipz
  8069  12C5  2ABE               	goto	u611_25
  8070  12C6  2AB5               	goto	i1l3736
  8071  12C7                     i1l3738:	
  8072  12C7  3001               	movlw	1
  8073  12C8  00F4               	movwf	??i1___xxtofl
  8074  12C9  0874               	movf	??i1___xxtofl,w
  8075  12CA  07F9               	addwf	i1___xxtofl@exp,f
  8076  12CB  3001               	movlw	1
  8077  12CC  07FA               	addwf	i1___xxtofl@arg,f
  8078  12CD  3000               	movlw	0
  8079  12CE  1803               	skipnc
  8080  12CF  3001               	movlw	1
  8081  12D0  07FB               	addwf	i1___xxtofl@arg+1,f
  8082  12D1  3000               	movlw	0
  8083  12D2  1803               	skipnc
  8084  12D3  3001               	movlw	1
  8085  12D4  07FC               	addwf	i1___xxtofl@arg+2,f
  8086  12D5  3000               	movlw	0
  8087  12D6  1803               	skipnc
  8088  12D7  3001               	movlw	1
  8089  12D8  07FD               	addwf	i1___xxtofl@arg+3,f
  8090  12D9  3001               	movlw	1
  8091  12DA                     u613_25:	
  8092  12DA  1003               	clrc
  8093  12DB  0CFD               	rrf	i1___xxtofl@arg+3,f
  8094  12DC  0CFC               	rrf	i1___xxtofl@arg+2,f
  8095  12DD  0CFB               	rrf	i1___xxtofl@arg+1,f
  8096  12DE  0CFA               	rrf	i1___xxtofl@arg,f
  8097  12DF  3EFF               	addlw	-1
  8098  12E0  1D03               	skipz
  8099  12E1  2ADA               	goto	u613_25
  8100  12E2                     i1l821:	
  8101  12E2  30FF               	movlw	255
  8102  12E3  057D               	andwf	i1___xxtofl@arg+3,w
  8103  12E4  1903               	btfsc	3,2
  8104  12E5  2AF6               	goto	i1l3746
  8105  12E6  2AC7               	goto	i1l3738
  8106  12E7                     i1l3748:	
  8107  12E7  3002               	movlw	2
  8108  12E8  0279               	subwf	i1___xxtofl@exp,w
  8109  12E9  1C03               	btfss	3,0
  8110  12EA  2AF8               	goto	i1l828
  8111  12EB  3001               	movlw	1
  8112  12EC  02F9               	subwf	i1___xxtofl@exp,f
  8113  12ED  3001               	movlw	1
  8114  12EE  00F4               	movwf	??i1___xxtofl
  8115  12EF                     u615_25:	
  8116  12EF  1003               	clrc
  8117  12F0  0DFA               	rlf	i1___xxtofl@arg,f
  8118  12F1  0DFB               	rlf	i1___xxtofl@arg+1,f
  8119  12F2  0DFC               	rlf	i1___xxtofl@arg+2,f
  8120  12F3  0DFD               	rlf	i1___xxtofl@arg+3,f
  8121  12F4  0BF4               	decfsz	??i1___xxtofl,f
  8122  12F5  2AEF               	goto	u615_25
  8123  12F6                     i1l3746:	
  8124  12F6  1FFC               	btfss	i1___xxtofl@arg+2,7
  8125  12F7  2AE7               	goto	i1l3748
  8126  12F8                     i1l828:	
  8127  12F8  1879               	btfsc	i1___xxtofl@exp,0
  8128  12F9  2B02               	goto	i1l829
  8129  12FA  30FF               	movlw	255
  8130  12FB  05FA               	andwf	i1___xxtofl@arg,f
  8131  12FC  30FF               	movlw	255
  8132  12FD  05FB               	andwf	i1___xxtofl@arg+1,f
  8133  12FE  307F               	movlw	127
  8134  12FF  05FC               	andwf	i1___xxtofl@arg+2,f
  8135  1300  30FF               	movlw	255
  8136  1301  05FD               	andwf	i1___xxtofl@arg+3,f
  8137  1302                     i1l829:	
  8138  1302  1003               	clrc
  8139  1303  0CF9               	rrf	i1___xxtofl@exp,f
  8140  1304  0879               	movf	i1___xxtofl@exp,w
  8141  1305  00F4               	movwf	??i1___xxtofl
  8142  1306  01F5               	clrf	??i1___xxtofl+1
  8143  1307  01F6               	clrf	??i1___xxtofl+2
  8144  1308  01F7               	clrf	??i1___xxtofl+3
  8145  1309  3018               	movlw	24
  8146  130A                     u619_25:	
  8147  130A  1003               	clrc
  8148  130B  0DF4               	rlf	??i1___xxtofl,f
  8149  130C  0DF5               	rlf	??i1___xxtofl+1,f
  8150  130D  0DF6               	rlf	??i1___xxtofl+2,f
  8151  130E  0DF7               	rlf	??i1___xxtofl+3,f
  8152  130F  3EFF               	addlw	-1
  8153  1310  1D03               	skipz
  8154  1311  2B0A               	goto	u619_25
  8155  1312  0874               	movf	??i1___xxtofl,w
  8156  1313  04FA               	iorwf	i1___xxtofl@arg,f
  8157  1314  0875               	movf	??i1___xxtofl+1,w
  8158  1315  04FB               	iorwf	i1___xxtofl@arg+1,f
  8159  1316  0876               	movf	??i1___xxtofl+2,w
  8160  1317  04FC               	iorwf	i1___xxtofl@arg+2,f
  8161  1318  0877               	movf	??i1___xxtofl+3,w
  8162  1319  04FD               	iorwf	i1___xxtofl@arg+3,f
  8163  131A  0878               	movf	i1___xxtofl@sign,w
  8164  131B  1D03               	btfss	3,2
  8165  131C  1FF3               	btfss	i1___xxtofl@val+3,7
  8166  131D  2B1F               	goto	i1l3760
  8167  131E  17FD               	bsf	i1___xxtofl@arg+3,7
  8168  131F                     i1l3760:	
  8169  131F  087D               	movf	i1___xxtofl@arg+3,w
  8170  1320  00F3               	movwf	?i1___xxtofl+3
  8171  1321  087C               	movf	i1___xxtofl@arg+2,w
  8172  1322  00F2               	movwf	?i1___xxtofl+2
  8173  1323  087B               	movf	i1___xxtofl@arg+1,w
  8174  1324  00F1               	movwf	?i1___xxtofl+1
  8175  1325  087A               	movf	i1___xxtofl@arg,w
  8176  1326  00F0               	movwf	?i1___xxtofl
  8177  1327  0008               	return
  8178  1328                     __end_ofi1___xxtofl:	
  8179                           
  8180                           	psect	text28
  8181  1083                     __ptext28:	
  8182 ;; *************** function i1___fltol *****************
  8183 ;; Defined at:
  8184 ;;		line 43 in file "D:\PROGRAM\MPLABX v5.20\XC8 v2.05\pic\sources\c90\common\fltol.c"
  8185 ;; Parameters:    Size  Location     Type
  8186 ;;  f1              4   34[BANK0 ] unsigned char 
  8187 ;; Auto vars:     Size  Location     Type
  8188 ;;  __fltol         1   44[BANK0 ] unsigned char 
  8189 ;;  __fltol         1   43[BANK0 ] unsigned char 
  8190 ;; Return value:  Size  Location     Type
  8191 ;;                  4   34[BANK0 ] long 
  8192 ;; Registers used:
  8193 ;;		wreg, status,2, status,0
  8194 ;; Tracked objects:
  8195 ;;		On entry : 0/0
  8196 ;;		On exit  : 0/0
  8197 ;;		Unchanged: 0/0
  8198 ;; Data sizes:     COMMON   BANK0   BANK1   BANK3   BANK2
  8199 ;;      Params:         0       4       0       0       0
  8200 ;;      Locals:         0       2       0       0       0
  8201 ;;      Temps:          0       5       0       0       0
  8202 ;;      Totals:         0      11       0       0       0
  8203 ;;Total ram usage:       11 bytes
  8204 ;; Hardware stack levels used:    1
  8205 ;; This function calls:
  8206 ;;		Nothing
  8207 ;; This function is called by:
  8208 ;;		_My_interrupt
  8209 ;; This function uses a non-reentrant model
  8210 ;;
  8211                           
  8212                           
  8213                           ;psect for function i1___fltol
  8214  1083                     i1___fltol:	
  8215                           
  8216                           ;incstack = 0
  8217                           ; Regs used in i1___fltol: [wreg+status,2+status,0]
  8218  1083  1003               	clrc
  8219  1084  1283               	bcf	3,5	;RP0=0, select bank0
  8220  1085  1303               	bcf	3,6	;RP1=0, select bank0
  8221  1086  0D44               	rlf	i1___fltol@f1+2,w
  8222  1087  0D45               	rlf	i1___fltol@f1+3,w
  8223  1088  00C6               	movwf	??i1___fltol
  8224  1089  0846               	movf	??i1___fltol,w
  8225  108A  00CC               	movwf	i1___fltol@exp1
  8226  108B  084C               	movf	i1___fltol@exp1,w
  8227  108C  1D03               	btfss	3,2
  8228  108D  2897               	goto	i1l3542
  8229  108E                     i1l3538:	
  8230  108E  3000               	movlw	0
  8231  108F  00C5               	movwf	?i1___fltol+3
  8232  1090  3000               	movlw	0
  8233  1091  00C4               	movwf	?i1___fltol+2
  8234  1092  3000               	movlw	0
  8235  1093  00C3               	movwf	?i1___fltol+1
  8236  1094  3000               	movlw	0
  8237  1095  00C2               	movwf	?i1___fltol
  8238  1096  0008               	return
  8239  1097                     i1l3542:	
  8240  1097  0842               	movf	i1___fltol@f1,w
  8241  1098  00C6               	movwf	??i1___fltol
  8242  1099  0843               	movf	i1___fltol@f1+1,w
  8243  109A  00C7               	movwf	??i1___fltol+1
  8244  109B  0844               	movf	i1___fltol@f1+2,w
  8245  109C  00C8               	movwf	??i1___fltol+2
  8246  109D  0845               	movf	i1___fltol@f1+3,w
  8247  109E  00C9               	movwf	??i1___fltol+3
  8248  109F  301F               	movlw	31
  8249  10A0                     u570_25:	
  8250  10A0  1003               	clrc
  8251  10A1  0CC9               	rrf	??i1___fltol+3,f
  8252  10A2  0CC8               	rrf	??i1___fltol+2,f
  8253  10A3  0CC7               	rrf	??i1___fltol+1,f
  8254  10A4  0CC6               	rrf	??i1___fltol,f
  8255  10A5  3EFF               	addlw	-1
  8256  10A6  1D03               	skipz
  8257  10A7  28A0               	goto	u570_25
  8258  10A8  0846               	movf	??i1___fltol,w
  8259  10A9  00CA               	movwf	??i1___fltol+4
  8260  10AA  084A               	movf	??i1___fltol+4,w
  8261  10AB  00CB               	movwf	i1___fltol@sign1
  8262  10AC  17C4               	bsf	i1___fltol@f1+2,7
  8263  10AD  30FF               	movlw	255
  8264  10AE  05C2               	andwf	i1___fltol@f1,f
  8265  10AF  30FF               	movlw	255
  8266  10B0  05C3               	andwf	i1___fltol@f1+1,f
  8267  10B1  30FF               	movlw	255
  8268  10B2  05C4               	andwf	i1___fltol@f1+2,f
  8269  10B3  3000               	movlw	0
  8270  10B4  05C5               	andwf	i1___fltol@f1+3,f
  8271  10B5  3096               	movlw	150
  8272  10B6  02CC               	subwf	i1___fltol@exp1,f
  8273  10B7  1FCC               	btfss	i1___fltol@exp1,7
  8274  10B8  28CE               	goto	i1l3560
  8275  10B9  084C               	movf	i1___fltol@exp1,w
  8276  10BA  3A80               	xorlw	128
  8277  10BB  3E97               	addlw	151
  8278  10BC  1C03               	btfss	3,0
  8279  10BD  288E               	goto	i1l3538
  8280  10BE                     i1l3558:	
  8281  10BE  3001               	movlw	1
  8282  10BF                     u573_25:	
  8283  10BF  1003               	clrc
  8284  10C0  0CC5               	rrf	i1___fltol@f1+3,f
  8285  10C1  0CC4               	rrf	i1___fltol@f1+2,f
  8286  10C2  0CC3               	rrf	i1___fltol@f1+1,f
  8287  10C3  0CC2               	rrf	i1___fltol@f1,f
  8288  10C4  3EFF               	addlw	-1
  8289  10C5  1D03               	skipz
  8290  10C6  28BF               	goto	u573_25
  8291  10C7  3001               	movlw	1
  8292  10C8  00C6               	movwf	??i1___fltol
  8293  10C9  0846               	movf	??i1___fltol,w
  8294  10CA  07CC               	addwf	i1___fltol@exp1,f
  8295  10CB  1903               	btfsc	3,2
  8296  10CC  28E1               	goto	i1l3568
  8297  10CD  28BE               	goto	i1l3558
  8298  10CE                     i1l3560:	
  8299  10CE  3020               	movlw	32
  8300  10CF  024C               	subwf	i1___fltol@exp1,w
  8301  10D0  1803               	btfsc	3,0
  8302  10D1  288E               	goto	i1l3538
  8303  10D2                     i1l581:	
  8304  10D2  084C               	movf	i1___fltol@exp1,w
  8305  10D3  1903               	btfsc	3,2
  8306  10D4  28E1               	goto	i1l3568
  8307  10D5  3001               	movlw	1
  8308  10D6  00C6               	movwf	??i1___fltol
  8309  10D7                     u576_25:	
  8310  10D7  1003               	clrc
  8311  10D8  0DC2               	rlf	i1___fltol@f1,f
  8312  10D9  0DC3               	rlf	i1___fltol@f1+1,f
  8313  10DA  0DC4               	rlf	i1___fltol@f1+2,f
  8314  10DB  0DC5               	rlf	i1___fltol@f1+3,f
  8315  10DC  0BC6               	decfsz	??i1___fltol,f
  8316  10DD  28D7               	goto	u576_25
  8317  10DE  3001               	movlw	1
  8318  10DF  02CC               	subwf	i1___fltol@exp1,f
  8319  10E0  28D2               	goto	i1l581
  8320  10E1                     i1l3568:	
  8321  10E1  084B               	movf	i1___fltol@sign1,w
  8322  10E2  1903               	btfsc	3,2
  8323  10E3  0008               	return
  8324  10E4  09C2               	comf	i1___fltol@f1,f
  8325  10E5  09C3               	comf	i1___fltol@f1+1,f
  8326  10E6  09C4               	comf	i1___fltol@f1+2,f
  8327  10E7  09C5               	comf	i1___fltol@f1+3,f
  8328  10E8  0AC2               	incf	i1___fltol@f1,f
  8329  10E9  1903               	skipnz
  8330  10EA  0AC3               	incf	i1___fltol@f1+1,f
  8331  10EB  1903               	skipnz
  8332  10EC  0AC4               	incf	i1___fltol@f1+2,f
  8333  10ED  1903               	skipnz
  8334  10EE  0AC5               	incf	i1___fltol@f1+3,f
  8335  10EF  0008               	return
  8336  10F0                     __end_ofi1___fltol:	
  8337                           
  8338                           	psect	text29
  8339  1DC4                     __ptext29:	
  8340 ;; *************** function i1___flsub *****************
  8341 ;; Defined at:
  8342 ;;		line 242 in file "D:\PROGRAM\MPLABX v5.20\XC8 v2.05\pic\sources\c90\common\sprcadd.c"
  8343 ;; Parameters:    Size  Location     Type
  8344 ;;  a               4   26[BANK0 ] long 
  8345 ;;  b               4   30[BANK0 ] long 
  8346 ;; Auto vars:     Size  Location     Type
  8347 ;;		None
  8348 ;; Return value:  Size  Location     Type
  8349 ;;                  4   26[BANK0 ] long 
  8350 ;; Registers used:
  8351 ;;		wreg, status,2, status,0, btemp+1, pclath, cstack
  8352 ;; Tracked objects:
  8353 ;;		On entry : 0/0
  8354 ;;		On exit  : 0/0
  8355 ;;		Unchanged: 0/0
  8356 ;; Data sizes:     COMMON   BANK0   BANK1   BANK3   BANK2
  8357 ;;      Params:         0       8       0       0       0
  8358 ;;      Locals:         0       0       0       0       0
  8359 ;;      Temps:          0       0       0       0       0
  8360 ;;      Totals:         0       8       0       0       0
  8361 ;;Total ram usage:        8 bytes
  8362 ;; Hardware stack levels used:    1
  8363 ;; Hardware stack levels required when called:    1
  8364 ;; This function calls:
  8365 ;;		i1___fladd
  8366 ;; This function is called by:
  8367 ;;		_My_interrupt
  8368 ;; This function uses a non-reentrant model
  8369 ;;
  8370                           
  8371                           
  8372                           ;psect for function i1___flsub
  8373  1DC4                     i1___flsub:	
  8374                           
  8375                           ;incstack = 0
  8376                           ; Regs used in i1___flsub: [wreg+status,2+status,0+btemp+1+pclath+cstack]
  8377  1DC4  3080               	movlw	128
  8378  1DC5  1283               	bcf	3,5	;RP0=0, select bank0
  8379  1DC6  1303               	bcf	3,6	;RP1=0, select bank0
  8380  1DC7  06BD               	xorwf	i1___flsub@a+3,f
  8381  1DC8  0841               	movf	i1___flsub@b+3,w
  8382  1DC9  00F3               	movwf	i1___fladd@b+3
  8383  1DCA  0840               	movf	i1___flsub@b+2,w
  8384  1DCB  00F2               	movwf	i1___fladd@b+2
  8385  1DCC  083F               	movf	i1___flsub@b+1,w
  8386  1DCD  00F1               	movwf	i1___fladd@b+1
  8387  1DCE  083E               	movf	i1___flsub@b,w
  8388  1DCF  00F0               	movwf	i1___fladd@b
  8389  1DD0  083D               	movf	i1___flsub@a+3,w
  8390  1DD1  00F7               	movwf	i1___fladd@a+3
  8391  1DD2  083C               	movf	i1___flsub@a+2,w
  8392  1DD3  00F6               	movwf	i1___fladd@a+2
  8393  1DD4  083B               	movf	i1___flsub@a+1,w
  8394  1DD5  00F5               	movwf	i1___fladd@a+1
  8395  1DD6  083A               	movf	i1___flsub@a,w
  8396  1DD7  00F4               	movwf	i1___fladd@a
  8397  1DD8  120A  158A  2024   	fcall	i1___fladd
  8398  1DDB  0873               	movf	?i1___fladd+3,w
  8399  1DDC  1283               	bcf	3,5	;RP0=0, select bank0
  8400  1DDD  1303               	bcf	3,6	;RP1=0, select bank0
  8401  1DDE  00BD               	movwf	?i1___flsub+3
  8402  1DDF  0872               	movf	?i1___fladd+2,w
  8403  1DE0  00BC               	movwf	?i1___flsub+2
  8404  1DE1  0871               	movf	?i1___fladd+1,w
  8405  1DE2  00BB               	movwf	?i1___flsub+1
  8406  1DE3  0870               	movf	?i1___fladd,w
  8407  1DE4  00BA               	movwf	?i1___flsub
  8408  1DE5  0008               	return
  8409  1DE6                     __end_ofi1___flsub:	
  8410                           
  8411                           	psect	text30
  8412  0824                     __ptext30:	
  8413 ;; *************** function i1___fladd *****************
  8414 ;; Defined at:
  8415 ;;		line 10 in file "D:\PROGRAM\MPLABX v5.20\XC8 v2.05\pic\sources\c90\common\sprcadd.c"
  8416 ;; Parameters:    Size  Location     Type
  8417 ;;  b               4    0[COMMON] long 
  8418 ;;  a               4    4[COMMON] long 
  8419 ;; Auto vars:     Size  Location     Type
  8420 ;;  __fladd         1   11[COMMON] unsigned char 
  8421 ;;  __fladd         1   10[COMMON] unsigned char 
  8422 ;;  __fladd         1    9[COMMON] unsigned char 
  8423 ;;  __fladd         1    8[COMMON] unsigned char 
  8424 ;; Return value:  Size  Location     Type
  8425 ;;                  4    0[COMMON] unsigned char 
  8426 ;; Registers used:
  8427 ;;		wreg, status,2, status,0, btemp+1
  8428 ;; Tracked objects:
  8429 ;;		On entry : 0/0
  8430 ;;		On exit  : 0/0
  8431 ;;		Unchanged: 0/0
  8432 ;; Data sizes:     COMMON   BANK0   BANK1   BANK3   BANK2
  8433 ;;      Params:         8       0       0       0       0
  8434 ;;      Locals:         4       0       0       0       0
  8435 ;;      Temps:          0       8       0       0       0
  8436 ;;      Totals:        12       8       0       0       0
  8437 ;;Total ram usage:       20 bytes
  8438 ;; Hardware stack levels used:    1
  8439 ;; This function calls:
  8440 ;;		Nothing
  8441 ;; This function is called by:
  8442 ;;		i1___flsub
  8443 ;; This function uses a non-reentrant model
  8444 ;;
  8445                           
  8446                           
  8447                           ;psect for function i1___fladd
  8448  0824                     i1___fladd:	
  8449                           
  8450                           ;incstack = 0
  8451                           ; Regs used in i1___fladd: [wreg+status,2+status,0+btemp+1]
  8452  0824  0873               	movf	i1___fladd@b+3,w
  8453  0825  3980               	andlw	128
  8454  0826  1283               	bcf	3,5	;RP0=0, select bank0
  8455  0827  1303               	bcf	3,6	;RP1=0, select bank0
  8456  0828  00A0               	movwf	??i1___fladd
  8457  0829  0820               	movf	??i1___fladd,w
  8458  082A  00F8               	movwf	i1___fladd@signs
  8459  082B  0873               	movf	i1___fladd@b+3,w
  8460  082C  00A0               	movwf	??i1___fladd
  8461  082D  0720               	addwf	??i1___fladd,w
  8462  082E  00A1               	movwf	??i1___fladd+1
  8463  082F  0821               	movf	??i1___fladd+1,w
  8464  0830  00FA               	movwf	i1___fladd@bexp
  8465  0831  1BF2               	btfsc	i1___fladd@b+2,7
  8466  0832  147A               	bsf	i1___fladd@bexp,0
  8467  0833  087A               	movf	i1___fladd@bexp,w
  8468  0834  1903               	btfsc	3,2
  8469  0835  2844               	goto	i1l3198
  8470  0836  0A7A               	incf	i1___fladd@bexp,w
  8471  0837  1D03               	btfss	3,2
  8472  0838  2841               	goto	i1l3194
  8473  0839  3000               	movlw	0
  8474  083A  00F3               	movwf	i1___fladd@b+3
  8475  083B  3000               	movlw	0
  8476  083C  00F2               	movwf	i1___fladd@b+2
  8477  083D  3000               	movlw	0
  8478  083E  00F1               	movwf	i1___fladd@b+1
  8479  083F  3000               	movlw	0
  8480  0840  00F0               	movwf	i1___fladd@b
  8481  0841                     i1l3194:	
  8482  0841  17F2               	bsf	i1___fladd@b+2,7
  8483  0842  01F3               	clrf	i1___fladd@b+3
  8484  0843  284C               	goto	i1l3200
  8485  0844                     i1l3198:	
  8486  0844  3000               	movlw	0
  8487  0845  00F3               	movwf	i1___fladd@b+3
  8488  0846  3000               	movlw	0
  8489  0847  00F2               	movwf	i1___fladd@b+2
  8490  0848  3000               	movlw	0
  8491  0849  00F1               	movwf	i1___fladd@b+1
  8492  084A  3000               	movlw	0
  8493  084B  00F0               	movwf	i1___fladd@b
  8494  084C                     i1l3200:	
  8495  084C  0877               	movf	i1___fladd@a+3,w
  8496  084D  3980               	andlw	128
  8497  084E  00A0               	movwf	??i1___fladd
  8498  084F  0820               	movf	??i1___fladd,w
  8499  0850  00F9               	movwf	i1___fladd@aexp
  8500  0851  0879               	movf	i1___fladd@aexp,w
  8501  0852  0678               	xorwf	i1___fladd@signs,w
  8502  0853  1D03               	btfss	3,2
  8503  0854  1778               	bsf	i1___fladd@signs,6
  8504  0855  0877               	movf	i1___fladd@a+3,w
  8505  0856  00A0               	movwf	??i1___fladd
  8506  0857  0720               	addwf	??i1___fladd,w
  8507  0858  00A1               	movwf	??i1___fladd+1
  8508  0859  0821               	movf	??i1___fladd+1,w
  8509  085A  00F9               	movwf	i1___fladd@aexp
  8510  085B  1BF6               	btfsc	i1___fladd@a+2,7
  8511  085C  1479               	bsf	i1___fladd@aexp,0
  8512  085D  0879               	movf	i1___fladd@aexp,w
  8513  085E  1903               	btfsc	3,2
  8514  085F  286E               	goto	i1l3222
  8515  0860  0A79               	incf	i1___fladd@aexp,w
  8516  0861  1D03               	btfss	3,2
  8517  0862  286B               	goto	i1l3218
  8518  0863  3000               	movlw	0
  8519  0864  00F7               	movwf	i1___fladd@a+3
  8520  0865  3000               	movlw	0
  8521  0866  00F6               	movwf	i1___fladd@a+2
  8522  0867  3000               	movlw	0
  8523  0868  00F5               	movwf	i1___fladd@a+1
  8524  0869  3000               	movlw	0
  8525  086A  00F4               	movwf	i1___fladd@a
  8526  086B                     i1l3218:	
  8527  086B  17F6               	bsf	i1___fladd@a+2,7
  8528  086C  01F7               	clrf	i1___fladd@a+3
  8529  086D  2876               	goto	i1l681
  8530  086E                     i1l3222:	
  8531  086E  3000               	movlw	0
  8532  086F  00F7               	movwf	i1___fladd@a+3
  8533  0870  3000               	movlw	0
  8534  0871  00F6               	movwf	i1___fladd@a+2
  8535  0872  3000               	movlw	0
  8536  0873  00F5               	movwf	i1___fladd@a+1
  8537  0874  3000               	movlw	0
  8538  0875  00F4               	movwf	i1___fladd@a
  8539  0876                     i1l681:	
  8540  0876  087A               	movf	i1___fladd@bexp,w
  8541  0877  0279               	subwf	i1___fladd@aexp,w
  8542  0878  1803               	skipnc
  8543  0879  28BC               	goto	i1l3258
  8544  087A  1F78               	btfss	i1___fladd@signs,6
  8545  087B  2880               	goto	i1l3228
  8546  087C  3080               	movlw	128
  8547  087D  00A0               	movwf	??i1___fladd
  8548  087E  0820               	movf	??i1___fladd,w
  8549  087F  06F8               	xorwf	i1___fladd@signs,f
  8550  0880                     i1l3228:	
  8551  0880  087A               	movf	i1___fladd@bexp,w
  8552  0881  00A0               	movwf	??i1___fladd
  8553  0882  0820               	movf	??i1___fladd,w
  8554  0883  00FB               	movwf	i1___fladd@grs
  8555  0884  0879               	movf	i1___fladd@aexp,w
  8556  0885  00A0               	movwf	??i1___fladd
  8557  0886  0820               	movf	??i1___fladd,w
  8558  0887  00FA               	movwf	i1___fladd@bexp
  8559  0888  087B               	movf	i1___fladd@grs,w
  8560  0889  00A0               	movwf	??i1___fladd
  8561  088A  0820               	movf	??i1___fladd,w
  8562  088B  00F9               	movwf	i1___fladd@aexp
  8563  088C  0870               	movf	i1___fladd@b,w
  8564  088D  00A0               	movwf	??i1___fladd
  8565  088E  0820               	movf	??i1___fladd,w
  8566  088F  00FB               	movwf	i1___fladd@grs
  8567  0890  0874               	movf	i1___fladd@a,w
  8568  0891  00A0               	movwf	??i1___fladd
  8569  0892  0820               	movf	??i1___fladd,w
  8570  0893  00F0               	movwf	i1___fladd@b
  8571  0894  087B               	movf	i1___fladd@grs,w
  8572  0895  00A0               	movwf	??i1___fladd
  8573  0896  0820               	movf	??i1___fladd,w
  8574  0897  00F4               	movwf	i1___fladd@a
  8575  0898  0871               	movf	i1___fladd@b+1,w
  8576  0899  00A0               	movwf	??i1___fladd
  8577  089A  0820               	movf	??i1___fladd,w
  8578  089B  00FB               	movwf	i1___fladd@grs
  8579  089C  0875               	movf	i1___fladd@a+1,w
  8580  089D  00A0               	movwf	??i1___fladd
  8581  089E  0820               	movf	??i1___fladd,w
  8582  089F  00F1               	movwf	i1___fladd@b+1
  8583  08A0  087B               	movf	i1___fladd@grs,w
  8584  08A1  00A0               	movwf	??i1___fladd
  8585  08A2  0820               	movf	??i1___fladd,w
  8586  08A3  00F5               	movwf	i1___fladd@a+1
  8587  08A4  0872               	movf	i1___fladd@b+2,w
  8588  08A5  00A0               	movwf	??i1___fladd
  8589  08A6  0820               	movf	??i1___fladd,w
  8590  08A7  00FB               	movwf	i1___fladd@grs
  8591  08A8  0876               	movf	i1___fladd@a+2,w
  8592  08A9  00A0               	movwf	??i1___fladd
  8593  08AA  0820               	movf	??i1___fladd,w
  8594  08AB  00F2               	movwf	i1___fladd@b+2
  8595  08AC  087B               	movf	i1___fladd@grs,w
  8596  08AD  00A0               	movwf	??i1___fladd
  8597  08AE  0820               	movf	??i1___fladd,w
  8598  08AF  00F6               	movwf	i1___fladd@a+2
  8599  08B0  0873               	movf	i1___fladd@b+3,w
  8600  08B1  00A0               	movwf	??i1___fladd
  8601  08B2  0820               	movf	??i1___fladd,w
  8602  08B3  00FB               	movwf	i1___fladd@grs
  8603  08B4  0877               	movf	i1___fladd@a+3,w
  8604  08B5  00A0               	movwf	??i1___fladd
  8605  08B6  0820               	movf	??i1___fladd,w
  8606  08B7  00F3               	movwf	i1___fladd@b+3
  8607  08B8  087B               	movf	i1___fladd@grs,w
  8608  08B9  00A0               	movwf	??i1___fladd
  8609  08BA  0820               	movf	??i1___fladd,w
  8610  08BB  00F7               	movwf	i1___fladd@a+3
  8611  08BC                     i1l3258:	
  8612  08BC  01FB               	clrf	i1___fladd@grs
  8613  08BD  0879               	movf	i1___fladd@aexp,w
  8614  08BE  00A0               	movwf	??i1___fladd
  8615  08BF  01A1               	clrf	??i1___fladd+1
  8616  08C0  0821               	movf	??i1___fladd+1,w
  8617  08C1  00A3               	movwf	??i1___fladd+3
  8618  08C2  087A               	movf	i1___fladd@bexp,w
  8619  08C3  0220               	subwf	??i1___fladd,w
  8620  08C4  00A2               	movwf	??i1___fladd+2
  8621  08C5  1C03               	skipc
  8622  08C6  03A3               	decf	??i1___fladd+3,f
  8623  08C7  0823               	movf	??i1___fladd+3,w
  8624  08C8  3A80               	xorlw	128
  8625  08C9  00FF               	movwf	127
  8626  08CA  3080               	movlw	128
  8627  08CB  027F               	subwf	127,w
  8628  08CC  1D03               	skipz
  8629  08CD  28D0               	goto	u507_25
  8630  08CE  301A               	movlw	26
  8631  08CF  0222               	subwf	??i1___fladd+2,w
  8632  08D0                     u507_25:	
  8633  08D0  1C03               	skipc
  8634  08D1  290D               	goto	i1l3276
  8635  08D2  0873               	movf	i1___fladd@b+3,w
  8636  08D3  0472               	iorwf	i1___fladd@b+2,w
  8637  08D4  0471               	iorwf	i1___fladd@b+1,w
  8638  08D5  0470               	iorwf	i1___fladd@b,w
  8639  08D6  1903               	btfsc	3,2
  8640  08D7  28DA               	goto	u508_20
  8641  08D8  3001               	movlw	1
  8642  08D9  28DB               	goto	u509_20
  8643  08DA                     u508_20:	
  8644  08DA  3000               	movlw	0
  8645  08DB                     u509_20:	
  8646  08DB  1283               	bcf	3,5	;RP0=0, select bank0
  8647  08DC  1303               	bcf	3,6	;RP1=0, select bank0
  8648  08DD  00A0               	movwf	??i1___fladd
  8649  08DE  0820               	movf	??i1___fladd,w
  8650  08DF  00FB               	movwf	i1___fladd@grs
  8651  08E0  3000               	movlw	0
  8652  08E1  00F3               	movwf	i1___fladd@b+3
  8653  08E2  3000               	movlw	0
  8654  08E3  00F2               	movwf	i1___fladd@b+2
  8655  08E4  3000               	movlw	0
  8656  08E5  00F1               	movwf	i1___fladd@b+1
  8657  08E6  3000               	movlw	0
  8658  08E7  00F0               	movwf	i1___fladd@b
  8659  08E8  0879               	movf	i1___fladd@aexp,w
  8660  08E9  00A0               	movwf	??i1___fladd
  8661  08EA  0820               	movf	??i1___fladd,w
  8662  08EB  00FA               	movwf	i1___fladd@bexp
  8663  08EC  2911               	goto	i1l685
  8664  08ED                     i1l687:	
  8665  08ED  1C7B               	btfss	i1___fladd@grs,0
  8666  08EE  28FA               	goto	i1l3266
  8667  08EF  087B               	movf	i1___fladd@grs,w
  8668  08F0  1283               	bcf	3,5	;RP0=0, select bank0
  8669  08F1  1303               	bcf	3,6	;RP1=0, select bank0
  8670  08F2  00A0               	movwf	??i1___fladd
  8671  08F3  1003               	clrc
  8672  08F4  0C20               	rrf	??i1___fladd,w
  8673  08F5  3801               	iorlw	1
  8674  08F6  00A1               	movwf	??i1___fladd+1
  8675  08F7  0821               	movf	??i1___fladd+1,w
  8676  08F8  00FB               	movwf	i1___fladd@grs
  8677  08F9  28FC               	goto	i1l3268
  8678  08FA                     i1l3266:	
  8679  08FA  1003               	clrc
  8680  08FB  0CFB               	rrf	i1___fladd@grs,f
  8681  08FC                     i1l3268:	
  8682  08FC  1870               	btfsc	i1___fladd@b,0
  8683  08FD  17FB               	bsf	i1___fladd@grs,7
  8684  08FE  3001               	movlw	1
  8685  08FF  1283               	bcf	3,5	;RP0=0, select bank0
  8686  0900  1303               	bcf	3,6	;RP1=0, select bank0
  8687  0901  00A0               	movwf	??i1___fladd
  8688  0902                     u512_25:	
  8689  0902  0D73               	rlf	i1___fladd@b+3,w
  8690  0903  0CF3               	rrf	i1___fladd@b+3,f
  8691  0904  0CF2               	rrf	i1___fladd@b+2,f
  8692  0905  0CF1               	rrf	i1___fladd@b+1,f
  8693  0906  0CF0               	rrf	i1___fladd@b,f
  8694  0907  0BA0               	decfsz	??i1___fladd& (0+127),f
  8695  0908  2902               	goto	u512_25
  8696  0909  3001               	movlw	1
  8697  090A  00A0               	movwf	??i1___fladd
  8698  090B  0820               	movf	??i1___fladd,w
  8699  090C  07FA               	addwf	i1___fladd@bexp,f
  8700  090D                     i1l3276:	
  8701  090D  0879               	movf	i1___fladd@aexp,w
  8702  090E  027A               	subwf	i1___fladd@bexp,w
  8703  090F  1C03               	skipc
  8704  0910  28ED               	goto	i1l687
  8705  0911                     i1l685:	
  8706  0911  1B78               	btfsc	i1___fladd@signs,6
  8707  0912  2956               	goto	i1l3302
  8708  0913  087A               	movf	i1___fladd@bexp,w
  8709  0914  1D03               	btfss	3,2
  8710  0915  291F               	goto	i1l3284
  8711  0916  3000               	movlw	0
  8712  0917  00F3               	movwf	?i1___fladd+3
  8713  0918  3000               	movlw	0
  8714  0919  00F2               	movwf	?i1___fladd+2
  8715  091A  3000               	movlw	0
  8716  091B  00F1               	movwf	?i1___fladd+1
  8717  091C  3000               	movlw	0
  8718  091D  00F0               	movwf	?i1___fladd
  8719  091E  0008               	return
  8720  091F                     i1l3284:	
  8721  091F  0874               	movf	i1___fladd@a,w
  8722  0920  07F0               	addwf	i1___fladd@b,f
  8723  0921  0875               	movf	i1___fladd@a+1,w
  8724  0922  1103               	clrz
  8725  0923  1803               	skipnc
  8726  0924  3E01               	addlw	1
  8727  0925  1D03               	btfss	3,2
  8728  0926  07F1               	addwf	i1___fladd@b+1,f
  8729  0927  0876               	movf	i1___fladd@a+2,w
  8730  0928  1103               	clrz
  8731  0929  1803               	skipnc
  8732  092A  3E01               	addlw	1
  8733  092B  1D03               	btfss	3,2
  8734  092C  07F2               	addwf	i1___fladd@b+2,f
  8735  092D  0877               	movf	i1___fladd@a+3,w
  8736  092E  1103               	clrz
  8737  092F  1803               	skipnc
  8738  0930  3E01               	addlw	1
  8739  0931  1D03               	btfss	3,2
  8740  0932  07F3               	addwf	i1___fladd@b+3,f
  8741  0933  1C73               	btfss	i1___fladd@b+3,0
  8742  0934  29FC               	goto	i1l3336
  8743  0935  1C7B               	btfss	i1___fladd@grs,0
  8744  0936  2942               	goto	i1l3292
  8745  0937  087B               	movf	i1___fladd@grs,w
  8746  0938  1283               	bcf	3,5	;RP0=0, select bank0
  8747  0939  1303               	bcf	3,6	;RP1=0, select bank0
  8748  093A  00A0               	movwf	??i1___fladd
  8749  093B  1003               	clrc
  8750  093C  0C20               	rrf	??i1___fladd,w
  8751  093D  3801               	iorlw	1
  8752  093E  00A1               	movwf	??i1___fladd+1
  8753  093F  0821               	movf	??i1___fladd+1,w
  8754  0940  00FB               	movwf	i1___fladd@grs
  8755  0941  2944               	goto	i1l3294
  8756  0942                     i1l3292:	
  8757  0942  1003               	clrc
  8758  0943  0CFB               	rrf	i1___fladd@grs,f
  8759  0944                     i1l3294:	
  8760  0944  1870               	btfsc	i1___fladd@b,0
  8761  0945  17FB               	bsf	i1___fladd@grs,7
  8762  0946  3001               	movlw	1
  8763  0947  1283               	bcf	3,5	;RP0=0, select bank0
  8764  0948  1303               	bcf	3,6	;RP1=0, select bank0
  8765  0949  00A0               	movwf	??i1___fladd
  8766  094A                     u520_25:	
  8767  094A  0D73               	rlf	i1___fladd@b+3,w
  8768  094B  0CF3               	rrf	i1___fladd@b+3,f
  8769  094C  0CF2               	rrf	i1___fladd@b+2,f
  8770  094D  0CF1               	rrf	i1___fladd@b+1,f
  8771  094E  0CF0               	rrf	i1___fladd@b,f
  8772  094F  0BA0               	decfsz	??i1___fladd& (0+127),f
  8773  0950  294A               	goto	u520_25
  8774  0951  3001               	movlw	1
  8775  0952  00A0               	movwf	??i1___fladd
  8776  0953  0820               	movf	??i1___fladd,w
  8777  0954  07FA               	addwf	i1___fladd@bexp,f
  8778  0955  29FC               	goto	i1l3336
  8779  0956                     i1l3302:	
  8780  0956  0873               	movf	i1___fladd@b+3,w
  8781  0957  3A80               	xorlw	128
  8782  0958  00FF               	movwf	127
  8783  0959  0877               	movf	i1___fladd@a+3,w
  8784  095A  3A80               	xorlw	128
  8785  095B  027F               	subwf	127,w
  8786  095C  1D03               	skipz
  8787  095D  2968               	goto	u521_23
  8788  095E  0876               	movf	i1___fladd@a+2,w
  8789  095F  0272               	subwf	i1___fladd@b+2,w
  8790  0960  1D03               	skipz
  8791  0961  2968               	goto	u521_23
  8792  0962  0875               	movf	i1___fladd@a+1,w
  8793  0963  0271               	subwf	i1___fladd@b+1,w
  8794  0964  1D03               	skipz
  8795  0965  2968               	goto	u521_23
  8796  0966  0874               	movf	i1___fladd@a,w
  8797  0967  0270               	subwf	i1___fladd@b,w
  8798  0968                     u521_23:	
  8799  0968  1803               	skipnc
  8800  0969  29C2               	goto	i1l3312
  8801  096A  30FF               	movlw	255
  8802  096B  1283               	bcf	3,5	;RP0=0, select bank0
  8803  096C  1303               	bcf	3,6	;RP1=0, select bank0
  8804  096D  00A0               	movwf	??i1___fladd
  8805  096E  30FF               	movlw	255
  8806  096F  00A1               	movwf	??i1___fladd+1
  8807  0970  30FF               	movlw	255
  8808  0971  00A2               	movwf	??i1___fladd+2
  8809  0972  30FF               	movlw	255
  8810  0973  00A3               	movwf	??i1___fladd+3
  8811  0974  0874               	movf	i1___fladd@a,w
  8812  0975  00A4               	movwf	??i1___fladd+4
  8813  0976  0875               	movf	i1___fladd@a+1,w
  8814  0977  00A5               	movwf	??i1___fladd+5
  8815  0978  0876               	movf	i1___fladd@a+2,w
  8816  0979  00A6               	movwf	??i1___fladd+6
  8817  097A  0877               	movf	i1___fladd@a+3,w
  8818  097B  00A7               	movwf	??i1___fladd+7
  8819  097C  0870               	movf	i1___fladd@b,w
  8820  097D  02A4               	subwf	??i1___fladd+4,f
  8821  097E  0871               	movf	i1___fladd@b+1,w
  8822  097F  1C03               	skipc
  8823  0980  0F71               	incfsz	i1___fladd@b+1,w
  8824  0981  2983               	goto	u522_21
  8825  0982  2984               	goto	u522_22
  8826  0983                     u522_21:	
  8827  0983  02A5               	subwf	??i1___fladd+5,f
  8828  0984                     u522_22:	
  8829  0984  0872               	movf	i1___fladd@b+2,w
  8830  0985  1C03               	skipc
  8831  0986  0F72               	incfsz	i1___fladd@b+2,w
  8832  0987  2989               	goto	u522_23
  8833  0988  298A               	goto	u522_24
  8834  0989                     u522_23:	
  8835  0989  02A6               	subwf	??i1___fladd+6,f
  8836  098A                     u522_24:	
  8837  098A  0873               	movf	i1___fladd@b+3,w
  8838  098B  1C03               	skipc
  8839  098C  0F73               	incfsz	i1___fladd@b+3,w
  8840  098D  298F               	goto	u522_25
  8841  098E  2990               	goto	u522_26
  8842  098F                     u522_25:	
  8843  098F  02A7               	subwf	??i1___fladd+7,f
  8844  0990                     u522_26:	
  8845  0990  0824               	movf	??i1___fladd+4,w
  8846  0991  07A0               	addwf	??i1___fladd,f
  8847  0992  0825               	movf	??i1___fladd+5,w
  8848  0993  1803               	skipnc
  8849  0994  0F25               	incfsz	??i1___fladd+5,w
  8850  0995  2997               	goto	u523_20
  8851  0996  2998               	goto	u523_21
  8852  0997                     u523_20:	
  8853  0997  07A1               	addwf	??i1___fladd+1,f
  8854  0998                     u523_21:	
  8855  0998  0826               	movf	??i1___fladd+6,w
  8856  0999  1803               	skipnc
  8857  099A  0F26               	incfsz	??i1___fladd+6,w
  8858  099B  299D               	goto	u523_22
  8859  099C  299E               	goto	u523_23
  8860  099D                     u523_22:	
  8861  099D  07A2               	addwf	??i1___fladd+2,f
  8862  099E                     u523_23:	
  8863  099E  0827               	movf	??i1___fladd+7,w
  8864  099F  1803               	skipnc
  8865  09A0  0A27               	incf	??i1___fladd+7,w
  8866  09A1  07A3               	addwf	??i1___fladd+3,f
  8867  09A2  0823               	movf	??i1___fladd+3,w
  8868  09A3  00F3               	movwf	i1___fladd@b+3
  8869  09A4  0822               	movf	??i1___fladd+2,w
  8870  09A5  00F2               	movwf	i1___fladd@b+2
  8871  09A6  0821               	movf	??i1___fladd+1,w
  8872  09A7  00F1               	movwf	i1___fladd@b+1
  8873  09A8  0820               	movf	??i1___fladd,w
  8874  09A9  00F0               	movwf	i1___fladd@b
  8875  09AA  3080               	movlw	128
  8876  09AB  00A0               	movwf	??i1___fladd
  8877  09AC  0820               	movf	??i1___fladd,w
  8878  09AD  06F8               	xorwf	i1___fladd@signs,f
  8879  09AE  09FB               	comf	i1___fladd@grs,f
  8880  09AF  0AFB               	incf	i1___fladd@grs,f
  8881  09B0  087B               	movf	i1___fladd@grs,w
  8882  09B1  1D03               	btfss	3,2
  8883  09B2  29D0               	goto	i1l702
  8884  09B3  3001               	movlw	1
  8885  09B4  07F0               	addwf	i1___fladd@b,f
  8886  09B5  3000               	movlw	0
  8887  09B6  1803               	skipnc
  8888  09B7  3001               	movlw	1
  8889  09B8  07F1               	addwf	i1___fladd@b+1,f
  8890  09B9  3000               	movlw	0
  8891  09BA  1803               	skipnc
  8892  09BB  3001               	movlw	1
  8893  09BC  07F2               	addwf	i1___fladd@b+2,f
  8894  09BD  3000               	movlw	0
  8895  09BE  1803               	skipnc
  8896  09BF  3001               	movlw	1
  8897  09C0  07F3               	addwf	i1___fladd@b+3,f
  8898  09C1  29D0               	goto	i1l702
  8899  09C2                     i1l3312:	
  8900  09C2  0874               	movf	i1___fladd@a,w
  8901  09C3  02F0               	subwf	i1___fladd@b,f
  8902  09C4  0875               	movf	i1___fladd@a+1,w
  8903  09C5  1C03               	skipc
  8904  09C6  0F75               	incfsz	i1___fladd@a+1,w
  8905  09C7  02F1               	subwf	i1___fladd@b+1,f
  8906  09C8  0876               	movf	i1___fladd@a+2,w
  8907  09C9  1C03               	skipc
  8908  09CA  0F76               	incfsz	i1___fladd@a+2,w
  8909  09CB  02F2               	subwf	i1___fladd@b+2,f
  8910  09CC  0877               	movf	i1___fladd@a+3,w
  8911  09CD  1C03               	skipc
  8912  09CE  0F77               	incfsz	i1___fladd@a+3,w
  8913  09CF  02F3               	subwf	i1___fladd@b+3,f
  8914  09D0                     i1l702:	
  8915  09D0  0873               	movf	i1___fladd@b+3,w
  8916  09D1  0472               	iorwf	i1___fladd@b+2,w
  8917  09D2  0471               	iorwf	i1___fladd@b+1,w
  8918  09D3  0470               	iorwf	i1___fladd@b,w
  8919  09D4  1D03               	skipz
  8920  09D5  29FA               	goto	i1l3334
  8921  09D6  087B               	movf	i1___fladd@grs,w
  8922  09D7  1D03               	btfss	3,2
  8923  09D8  29FA               	goto	i1l3334
  8924  09D9  3000               	movlw	0
  8925  09DA  00F3               	movwf	?i1___fladd+3
  8926  09DB  3000               	movlw	0
  8927  09DC  00F2               	movwf	?i1___fladd+2
  8928  09DD  3000               	movlw	0
  8929  09DE  00F1               	movwf	?i1___fladd+1
  8930  09DF  3000               	movlw	0
  8931  09E0  00F0               	movwf	?i1___fladd
  8932  09E1  0008               	return
  8933  09E2                     i1l3320:	
  8934  09E2  3001               	movlw	1
  8935  09E3  1283               	bcf	3,5	;RP0=0, select bank0
  8936  09E4  1303               	bcf	3,6	;RP1=0, select bank0
  8937  09E5  00A0               	movwf	??i1___fladd
  8938  09E6                     u527_25:	
  8939  09E6  1003               	clrc
  8940  09E7  0DF0               	rlf	i1___fladd@b,f
  8941  09E8  0DF1               	rlf	i1___fladd@b+1,f
  8942  09E9  0DF2               	rlf	i1___fladd@b+2,f
  8943  09EA  0DF3               	rlf	i1___fladd@b+3,f
  8944  09EB  0BA0               	decfsz	??i1___fladd,f
  8945  09EC  29E6               	goto	u527_25
  8946  09ED  1BFB               	btfsc	i1___fladd@grs,7
  8947  09EE  1470               	bsf	i1___fladd@b,0
  8948  09EF  1C7B               	btfss	i1___fladd@grs,0
  8949  09F0  29F3               	goto	i1l3328
  8950  09F1  1403               	setc
  8951  09F2  29F4               	goto	L4
  8952  09F3                     i1l3328:	
  8953  09F3  1003               	clrc
  8954  09F4                     L4:	
  8955  09F4  0DFB               	rlf	i1___fladd@grs,f
  8956  09F5  087A               	movf	i1___fladd@bexp,w
  8957  09F6  1903               	btfsc	3,2
  8958  09F7  29FA               	goto	i1l3334
  8959  09F8  3001               	movlw	1
  8960  09F9  02FA               	subwf	i1___fladd@bexp,f
  8961  09FA                     i1l3334:	
  8962  09FA  1FF2               	btfss	i1___fladd@b+2,7
  8963  09FB  29E2               	goto	i1l3320
  8964  09FC                     i1l3336:	
  8965  09FC  01F9               	clrf	i1___fladd@aexp
  8966  09FD  1FFB               	btfss	i1___fladd@grs,7
  8967  09FE  2A07               	goto	i1l3346
  8968  09FF  087B               	movf	i1___fladd@grs,w
  8969  0A00  397F               	andlw	127
  8970  0A01  1903               	btfsc	3,2
  8971  0A02  1870               	btfsc	i1___fladd@b,0
  8972  0A03  2A05               	goto	i1l3342
  8973  0A04  2A07               	goto	i1l3346
  8974  0A05                     i1l3342:	
  8975  0A05  01F9               	clrf	i1___fladd@aexp
  8976  0A06  0AF9               	incf	i1___fladd@aexp,f
  8977  0A07                     i1l3346:	
  8978  0A07  0879               	movf	i1___fladd@aexp,w
  8979  0A08  1903               	btfsc	3,2
  8980  0A09  2A3C               	goto	i1l715
  8981  0A0A  3001               	movlw	1
  8982  0A0B  07F0               	addwf	i1___fladd@b,f
  8983  0A0C  3000               	movlw	0
  8984  0A0D  1803               	skipnc
  8985  0A0E  3001               	movlw	1
  8986  0A0F  07F1               	addwf	i1___fladd@b+1,f
  8987  0A10  3000               	movlw	0
  8988  0A11  1803               	skipnc
  8989  0A12  3001               	movlw	1
  8990  0A13  07F2               	addwf	i1___fladd@b+2,f
  8991  0A14  3000               	movlw	0
  8992  0A15  1803               	skipnc
  8993  0A16  3001               	movlw	1
  8994  0A17  07F3               	addwf	i1___fladd@b+3,f
  8995  0A18  1C73               	btfss	i1___fladd@b+3,0
  8996  0A19  2A3C               	goto	i1l715
  8997  0A1A  0870               	movf	i1___fladd@b,w
  8998  0A1B  1283               	bcf	3,5	;RP0=0, select bank0
  8999  0A1C  1303               	bcf	3,6	;RP1=0, select bank0
  9000  0A1D  00A0               	movwf	??i1___fladd
  9001  0A1E  0871               	movf	i1___fladd@b+1,w
  9002  0A1F  00A1               	movwf	??i1___fladd+1
  9003  0A20  0872               	movf	i1___fladd@b+2,w
  9004  0A21  00A2               	movwf	??i1___fladd+2
  9005  0A22  0873               	movf	i1___fladd@b+3,w
  9006  0A23  00A3               	movwf	??i1___fladd+3
  9007  0A24  3001               	movlw	1
  9008  0A25  00A4               	movwf	??i1___fladd+4
  9009  0A26                     u537_25:	
  9010  0A26  0D23               	rlf	??i1___fladd+3,w
  9011  0A27  0CA3               	rrf	??i1___fladd+3,f
  9012  0A28  0CA2               	rrf	??i1___fladd+2,f
  9013  0A29  0CA1               	rrf	??i1___fladd+1,f
  9014  0A2A  0CA0               	rrf	??i1___fladd,f
  9015  0A2B  0BA4               	decfsz	??i1___fladd+4,f
  9016  0A2C  2A26               	goto	u537_25
  9017  0A2D  0823               	movf	??i1___fladd+3,w
  9018  0A2E  00F3               	movwf	i1___fladd@b+3
  9019  0A2F  0822               	movf	??i1___fladd+2,w
  9020  0A30  00F2               	movwf	i1___fladd@b+2
  9021  0A31  0821               	movf	??i1___fladd+1,w
  9022  0A32  00F1               	movwf	i1___fladd@b+1
  9023  0A33  0820               	movf	??i1___fladd,w
  9024  0A34  00F0               	movwf	i1___fladd@b
  9025  0A35  0A7A               	incf	i1___fladd@bexp,w
  9026  0A36  1903               	btfsc	3,2
  9027  0A37  2A3C               	goto	i1l715
  9028  0A38  3001               	movlw	1
  9029  0A39  00A0               	movwf	??i1___fladd
  9030  0A3A  0820               	movf	??i1___fladd,w
  9031  0A3B  07FA               	addwf	i1___fladd@bexp,f
  9032  0A3C                     i1l715:	
  9033  0A3C  0A7A               	incf	i1___fladd@bexp,w
  9034  0A3D  1D03               	btfss	3,2
  9035  0A3E  087A               	movf	i1___fladd@bexp,w
  9036  0A3F  1D03               	btfss	3,2
  9037  0A40  2A4C               	goto	i1l3364
  9038  0A41  3000               	movlw	0
  9039  0A42  00F3               	movwf	i1___fladd@b+3
  9040  0A43  3000               	movlw	0
  9041  0A44  00F2               	movwf	i1___fladd@b+2
  9042  0A45  3000               	movlw	0
  9043  0A46  00F1               	movwf	i1___fladd@b+1
  9044  0A47  3000               	movlw	0
  9045  0A48  00F0               	movwf	i1___fladd@b
  9046  0A49  087A               	movf	i1___fladd@bexp,w
  9047  0A4A  1903               	btfsc	3,2
  9048  0A4B  01F8               	clrf	i1___fladd@signs
  9049  0A4C                     i1l3364:	
  9050  0A4C  1C7A               	btfss	i1___fladd@bexp,0
  9051  0A4D  2A50               	goto	i1l3368
  9052  0A4E  17F2               	bsf	i1___fladd@b+2,7
  9053  0A4F  2A56               	goto	i1l723
  9054  0A50                     i1l3368:	
  9055  0A50  307F               	movlw	127
  9056  0A51  1283               	bcf	3,5	;RP0=0, select bank0
  9057  0A52  1303               	bcf	3,6	;RP1=0, select bank0
  9058  0A53  00A0               	movwf	??i1___fladd
  9059  0A54  0820               	movf	??i1___fladd,w
  9060  0A55  05F2               	andwf	i1___fladd@b+2,f
  9061  0A56                     i1l723:	
  9062  0A56  087A               	movf	i1___fladd@bexp,w
  9063  0A57  1283               	bcf	3,5	;RP0=0, select bank0
  9064  0A58  1303               	bcf	3,6	;RP1=0, select bank0
  9065  0A59  00A0               	movwf	??i1___fladd
  9066  0A5A  1003               	clrc
  9067  0A5B  0C20               	rrf	??i1___fladd,w
  9068  0A5C  00A1               	movwf	??i1___fladd+1
  9069  0A5D  0821               	movf	??i1___fladd+1,w
  9070  0A5E  00F3               	movwf	i1___fladd@b+3
  9071  0A5F  1FF8               	btfss	i1___fladd@signs,7
  9072  0A60  0008               	return
  9073  0A61  17F3               	bsf	i1___fladd@b+3,7
  9074  0A62  0008               	return
  9075  0A63                     __end_ofi1___fladd:	
  9076                           
  9077                           	psect	text31
  9078  14BA                     __ptext31:	
  9079 ;; *************** function i1___fldiv *****************
  9080 ;; Defined at:
  9081 ;;		line 8 in file "D:\PROGRAM\MPLABX v5.20\XC8 v2.05\pic\sources\c90\common\sprcdiv.c"
  9082 ;; Parameters:    Size  Location     Type
  9083 ;;  a               4    0[BANK0 ] unsigned char 
  9084 ;;  b               4    4[BANK0 ] unsigned char 
  9085 ;; Auto vars:     Size  Location     Type
  9086 ;;  __fldiv         4   20[BANK0 ] unsigned long 
  9087 ;;  __fldiv         4   13[BANK0 ] unsigned long 
  9088 ;;  __fldiv         2   18[BANK0 ] int 
  9089 ;;  __fldiv         1   25[BANK0 ] unsigned char 
  9090 ;;  __fldiv         1   24[BANK0 ] unsigned char 
  9091 ;;  __fldiv         1   17[BANK0 ] unsigned char 
  9092 ;; Return value:  Size  Location     Type
  9093 ;;                  4    0[BANK0 ] unsigned char 
  9094 ;; Registers used:
  9095 ;;		wreg, status,2, status,0, btemp+1
  9096 ;; Tracked objects:
  9097 ;;		On entry : 0/0
  9098 ;;		On exit  : 0/0
  9099 ;;		Unchanged: 0/0
  9100 ;; Data sizes:     COMMON   BANK0   BANK1   BANK3   BANK2
  9101 ;;      Params:         0       8       0       0       0
  9102 ;;      Locals:         0      13       0       0       0
  9103 ;;      Temps:          0       5       0       0       0
  9104 ;;      Totals:         0      26       0       0       0
  9105 ;;Total ram usage:       26 bytes
  9106 ;; Hardware stack levels used:    1
  9107 ;; This function calls:
  9108 ;;		Nothing
  9109 ;; This function is called by:
  9110 ;;		_My_interrupt
  9111 ;; This function uses a non-reentrant model
  9112 ;;
  9113                           
  9114                           
  9115                           ;psect for function i1___fldiv
  9116  14BA                     i1___fldiv:	
  9117                           
  9118                           ;incstack = 0
  9119                           ; Regs used in i1___fldiv: [wreg+status,2+status,0+btemp+1]
  9120  14BA  1283               	bcf	3,5	;RP0=0, select bank0
  9121  14BB  1303               	bcf	3,6	;RP1=0, select bank0
  9122  14BC  0827               	movf	i1___fldiv@b+3,w
  9123  14BD  3980               	andlw	128
  9124  14BE  00A8               	movwf	??i1___fldiv
  9125  14BF  0828               	movf	??i1___fldiv,w
  9126  14C0  00B1               	movwf	i1___fldiv@sign
  9127  14C1  0827               	movf	i1___fldiv@b+3,w
  9128  14C2  00A8               	movwf	??i1___fldiv
  9129  14C3  0728               	addwf	??i1___fldiv,w
  9130  14C4  00A9               	movwf	??i1___fldiv+1
  9131  14C5  0829               	movf	??i1___fldiv+1,w
  9132  14C6  00B8               	movwf	i1___fldiv@bexp
  9133  14C7  1BA6               	btfsc	i1___fldiv@b+2,7
  9134  14C8  1438               	bsf	i1___fldiv@bexp,0
  9135  14C9  0838               	movf	i1___fldiv@bexp,w
  9136  14CA  1903               	btfsc	3,2
  9137  14CB  2CDA               	goto	i1l3596
  9138  14CC  0A38               	incf	i1___fldiv@bexp,w
  9139  14CD  1D03               	btfss	3,2
  9140  14CE  2CD7               	goto	i1l3592
  9141  14CF  3000               	movlw	0
  9142  14D0  00A7               	movwf	i1___fldiv@b+3
  9143  14D1  3000               	movlw	0
  9144  14D2  00A6               	movwf	i1___fldiv@b+2
  9145  14D3  3000               	movlw	0
  9146  14D4  00A5               	movwf	i1___fldiv@b+1
  9147  14D5  3000               	movlw	0
  9148  14D6  00A4               	movwf	i1___fldiv@b
  9149  14D7                     i1l3592:	
  9150  14D7  17A6               	bsf	i1___fldiv@b+2,7
  9151  14D8  01A7               	clrf	i1___fldiv@b+3
  9152  14D9  2CE2               	goto	i1l3598
  9153  14DA                     i1l3596:	
  9154  14DA  3000               	movlw	0
  9155  14DB  00A7               	movwf	i1___fldiv@b+3
  9156  14DC  3000               	movlw	0
  9157  14DD  00A6               	movwf	i1___fldiv@b+2
  9158  14DE  3000               	movlw	0
  9159  14DF  00A5               	movwf	i1___fldiv@b+1
  9160  14E0  3000               	movlw	0
  9161  14E1  00A4               	movwf	i1___fldiv@b
  9162  14E2                     i1l3598:	
  9163  14E2  0823               	movf	i1___fldiv@a+3,w
  9164  14E3  3980               	andlw	128
  9165  14E4  00A8               	movwf	??i1___fldiv
  9166  14E5  0828               	movf	??i1___fldiv,w
  9167  14E6  06B1               	xorwf	i1___fldiv@sign,f
  9168  14E7  0823               	movf	i1___fldiv@a+3,w
  9169  14E8  00A8               	movwf	??i1___fldiv
  9170  14E9  0728               	addwf	??i1___fldiv,w
  9171  14EA  00A9               	movwf	??i1___fldiv+1
  9172  14EB  0829               	movf	??i1___fldiv+1,w
  9173  14EC  00B9               	movwf	i1___fldiv@aexp
  9174  14ED  1BA2               	btfsc	i1___fldiv@a+2,7
  9175  14EE  1439               	bsf	i1___fldiv@aexp,0
  9176  14EF  0839               	movf	i1___fldiv@aexp,w
  9177  14F0  1903               	btfsc	3,2
  9178  14F1  2D00               	goto	i1l3616
  9179  14F2  0A39               	incf	i1___fldiv@aexp,w
  9180  14F3  1D03               	btfss	3,2
  9181  14F4  2CFD               	goto	i1l3612
  9182  14F5  3000               	movlw	0
  9183  14F6  00A3               	movwf	i1___fldiv@a+3
  9184  14F7  3000               	movlw	0
  9185  14F8  00A2               	movwf	i1___fldiv@a+2
  9186  14F9  3000               	movlw	0
  9187  14FA  00A1               	movwf	i1___fldiv@a+1
  9188  14FB  3000               	movlw	0
  9189  14FC  00A0               	movwf	i1___fldiv@a
  9190  14FD                     i1l3612:	
  9191  14FD  17A2               	bsf	i1___fldiv@a+2,7
  9192  14FE  01A3               	clrf	i1___fldiv@a+3
  9193  14FF  2D08               	goto	i1l737
  9194  1500                     i1l3616:	
  9195  1500  3000               	movlw	0
  9196  1501  00A3               	movwf	i1___fldiv@a+3
  9197  1502  3000               	movlw	0
  9198  1503  00A2               	movwf	i1___fldiv@a+2
  9199  1504  3000               	movlw	0
  9200  1505  00A1               	movwf	i1___fldiv@a+1
  9201  1506  3000               	movlw	0
  9202  1507  00A0               	movwf	i1___fldiv@a
  9203  1508                     i1l737:	
  9204  1508  0823               	movf	i1___fldiv@a+3,w
  9205  1509  0422               	iorwf	i1___fldiv@a+2,w
  9206  150A  0421               	iorwf	i1___fldiv@a+1,w
  9207  150B  0420               	iorwf	i1___fldiv@a,w
  9208  150C  1D03               	skipz
  9209  150D  2D27               	goto	i1l3626
  9210  150E  3000               	movlw	0
  9211  150F  00A7               	movwf	i1___fldiv@b+3
  9212  1510  3000               	movlw	0
  9213  1511  00A6               	movwf	i1___fldiv@b+2
  9214  1512  3000               	movlw	0
  9215  1513  00A5               	movwf	i1___fldiv@b+1
  9216  1514  3000               	movlw	0
  9217  1515  00A4               	movwf	i1___fldiv@b
  9218  1516  3080               	movlw	128
  9219  1517  04A6               	iorwf	i1___fldiv@b+2,f
  9220  1518  307F               	movlw	127
  9221  1519  04A7               	iorwf	i1___fldiv@b+3,f
  9222  151A                     L5:	
  9223  151A  0831               	movf	i1___fldiv@sign,w
  9224  151B  00A8               	movwf	??i1___fldiv
  9225  151C  0828               	movf	??i1___fldiv,w
  9226  151D  04A7               	iorwf	i1___fldiv@b+3,f
  9227  151E  0827               	movf	i1___fldiv@b+3,w
  9228  151F  00A3               	movwf	?i1___fldiv+3
  9229  1520  0826               	movf	i1___fldiv@b+2,w
  9230  1521  00A2               	movwf	?i1___fldiv+2
  9231  1522  0825               	movf	i1___fldiv@b+1,w
  9232  1523  00A1               	movwf	?i1___fldiv+1
  9233  1524  0824               	movf	i1___fldiv@b,w
  9234  1525  00A0               	movwf	?i1___fldiv
  9235  1526  0008               	return
  9236  1527                     i1l3626:	
  9237  1527  0838               	movf	i1___fldiv@bexp,w
  9238  1528  1D03               	btfss	3,2
  9239  1529  2D33               	goto	i1l3632
  9240  152A  3000               	movlw	0
  9241  152B  00A3               	movwf	?i1___fldiv+3
  9242  152C  3000               	movlw	0
  9243  152D  00A2               	movwf	?i1___fldiv+2
  9244  152E  3000               	movlw	0
  9245  152F  00A1               	movwf	?i1___fldiv+1
  9246  1530  3000               	movlw	0
  9247  1531  00A0               	movwf	?i1___fldiv
  9248  1532  0008               	return
  9249  1533                     i1l3632:	
  9250  1533  0838               	movf	i1___fldiv@bexp,w
  9251  1534  00A8               	movwf	??i1___fldiv
  9252  1535  01A9               	clrf	??i1___fldiv+1
  9253  1536  0829               	movf	??i1___fldiv+1,w
  9254  1537  00AB               	movwf	??i1___fldiv+3
  9255  1538  0839               	movf	i1___fldiv@aexp,w
  9256  1539  0228               	subwf	??i1___fldiv,w
  9257  153A  00AA               	movwf	??i1___fldiv+2
  9258  153B  1C03               	skipc
  9259  153C  03AB               	decf	??i1___fldiv+3,f
  9260  153D  082A               	movf	??i1___fldiv+2,w
  9261  153E  3E7F               	addlw	127
  9262  153F  00B2               	movwf	i1___fldiv@new_exp
  9263  1540  082B               	movf	??i1___fldiv+3,w
  9264  1541  1803               	skipnc
  9265  1542  3E01               	addlw	1
  9266  1543  3E00               	addlw	0
  9267  1544  00B3               	movwf	i1___fldiv@new_exp+1
  9268  1545  0827               	movf	i1___fldiv@b+3,w
  9269  1546  00B0               	movwf	i1___fldiv@rem+3
  9270  1547  0826               	movf	i1___fldiv@b+2,w
  9271  1548  00AF               	movwf	i1___fldiv@rem+2
  9272  1549  0825               	movf	i1___fldiv@b+1,w
  9273  154A  00AE               	movwf	i1___fldiv@rem+1
  9274  154B  0824               	movf	i1___fldiv@b,w
  9275  154C  00AD               	movwf	i1___fldiv@rem
  9276  154D  3000               	movlw	0
  9277  154E  00A7               	movwf	i1___fldiv@b+3
  9278  154F  3000               	movlw	0
  9279  1550  00A6               	movwf	i1___fldiv@b+2
  9280  1551  3000               	movlw	0
  9281  1552  00A5               	movwf	i1___fldiv@b+1
  9282  1553  3000               	movlw	0
  9283  1554  00A4               	movwf	i1___fldiv@b
  9284  1555  3000               	movlw	0
  9285  1556  00B7               	movwf	i1___fldiv@grs+3
  9286  1557  3000               	movlw	0
  9287  1558  00B6               	movwf	i1___fldiv@grs+2
  9288  1559  3000               	movlw	0
  9289  155A  00B5               	movwf	i1___fldiv@grs+1
  9290  155B  3000               	movlw	0
  9291  155C  00B4               	movwf	i1___fldiv@grs
  9292  155D  01B9               	clrf	i1___fldiv@aexp
  9293  155E                     i1l3660:	
  9294  155E  301A               	movlw	26
  9295  155F  0239               	subwf	i1___fldiv@aexp,w
  9296  1560  1803               	btfsc	3,0
  9297  1561  2DA6               	goto	i1l3662
  9298  1562  0839               	movf	i1___fldiv@aexp,w
  9299  1563  1903               	btfsc	3,2
  9300  1564  2D82               	goto	i1l3652
  9301  1565  3001               	movlw	1
  9302  1566  00A8               	movwf	??i1___fldiv
  9303  1567                     u588_25:	
  9304  1567  1003               	clrc
  9305  1568  0DAD               	rlf	i1___fldiv@rem,f
  9306  1569  0DAE               	rlf	i1___fldiv@rem+1,f
  9307  156A  0DAF               	rlf	i1___fldiv@rem+2,f
  9308  156B  0DB0               	rlf	i1___fldiv@rem+3,f
  9309  156C  0BA8               	decfsz	??i1___fldiv,f
  9310  156D  2D67               	goto	u588_25
  9311  156E  3001               	movlw	1
  9312  156F  00A8               	movwf	??i1___fldiv
  9313  1570                     u589_25:	
  9314  1570  1003               	clrc
  9315  1571  0DA4               	rlf	i1___fldiv@b,f
  9316  1572  0DA5               	rlf	i1___fldiv@b+1,f
  9317  1573  0DA6               	rlf	i1___fldiv@b+2,f
  9318  1574  0DA7               	rlf	i1___fldiv@b+3,f
  9319  1575  0BA8               	decfsz	??i1___fldiv,f
  9320  1576  2D70               	goto	u589_25
  9321  1577  1BB7               	btfsc	i1___fldiv@grs+3,7
  9322  1578  1424               	bsf	i1___fldiv@b,0
  9323  1579  3001               	movlw	1
  9324  157A  00A8               	movwf	??i1___fldiv
  9325  157B                     u591_25:	
  9326  157B  1003               	clrc
  9327  157C  0DB4               	rlf	i1___fldiv@grs,f
  9328  157D  0DB5               	rlf	i1___fldiv@grs+1,f
  9329  157E  0DB6               	rlf	i1___fldiv@grs+2,f
  9330  157F  0DB7               	rlf	i1___fldiv@grs+3,f
  9331  1580  0BA8               	decfsz	??i1___fldiv,f
  9332  1581  2D7B               	goto	u591_25
  9333  1582                     i1l3652:	
  9334  1582  0823               	movf	i1___fldiv@a+3,w
  9335  1583  0230               	subwf	i1___fldiv@rem+3,w
  9336  1584  1D03               	skipz
  9337  1585  2D90               	goto	u592_25
  9338  1586  0822               	movf	i1___fldiv@a+2,w
  9339  1587  022F               	subwf	i1___fldiv@rem+2,w
  9340  1588  1D03               	skipz
  9341  1589  2D90               	goto	u592_25
  9342  158A  0821               	movf	i1___fldiv@a+1,w
  9343  158B  022E               	subwf	i1___fldiv@rem+1,w
  9344  158C  1D03               	skipz
  9345  158D  2D90               	goto	u592_25
  9346  158E  0820               	movf	i1___fldiv@a,w
  9347  158F  022D               	subwf	i1___fldiv@rem,w
  9348  1590                     u592_25:	
  9349  1590  1C03               	skipc
  9350  1591  2DA1               	goto	i1l3658
  9351  1592  1737               	bsf	i1___fldiv@grs+3,6
  9352  1593  0820               	movf	i1___fldiv@a,w
  9353  1594  02AD               	subwf	i1___fldiv@rem,f
  9354  1595  0821               	movf	i1___fldiv@a+1,w
  9355  1596  1C03               	skipc
  9356  1597  0F21               	incfsz	i1___fldiv@a+1,w
  9357  1598  02AE               	subwf	i1___fldiv@rem+1,f
  9358  1599  0822               	movf	i1___fldiv@a+2,w
  9359  159A  1C03               	skipc
  9360  159B  0F22               	incfsz	i1___fldiv@a+2,w
  9361  159C  02AF               	subwf	i1___fldiv@rem+2,f
  9362  159D  0823               	movf	i1___fldiv@a+3,w
  9363  159E  1C03               	skipc
  9364  159F  0F23               	incfsz	i1___fldiv@a+3,w
  9365  15A0  02B0               	subwf	i1___fldiv@rem+3,f
  9366  15A1                     i1l3658:	
  9367  15A1  3001               	movlw	1
  9368  15A2  00A8               	movwf	??i1___fldiv
  9369  15A3  0828               	movf	??i1___fldiv,w
  9370  15A4  07B9               	addwf	i1___fldiv@aexp,f
  9371  15A5  2D5E               	goto	i1l3660
  9372  15A6                     i1l3662:	
  9373  15A6  0830               	movf	i1___fldiv@rem+3,w
  9374  15A7  042F               	iorwf	i1___fldiv@rem+2,w
  9375  15A8  042E               	iorwf	i1___fldiv@rem+1,w
  9376  15A9  042D               	iorwf	i1___fldiv@rem,w
  9377  15AA  1D03               	btfss	3,2
  9378  15AB  1434               	bsf	i1___fldiv@grs,0
  9379  15AC                     i1l3676:	
  9380  15AC  1BA6               	btfsc	i1___fldiv@b+2,7
  9381  15AD  2DC9               	goto	i1l3678
  9382  15AE  3001               	movlw	1
  9383  15AF  00A8               	movwf	??i1___fldiv
  9384  15B0                     u595_25:	
  9385  15B0  1003               	clrc
  9386  15B1  0DA4               	rlf	i1___fldiv@b,f
  9387  15B2  0DA5               	rlf	i1___fldiv@b+1,f
  9388  15B3  0DA6               	rlf	i1___fldiv@b+2,f
  9389  15B4  0DA7               	rlf	i1___fldiv@b+3,f
  9390  15B5  0BA8               	decfsz	??i1___fldiv,f
  9391  15B6  2DB0               	goto	u595_25
  9392  15B7  1BB7               	btfsc	i1___fldiv@grs+3,7
  9393  15B8  1424               	bsf	i1___fldiv@b,0
  9394  15B9  3001               	movlw	1
  9395  15BA  00A8               	movwf	??i1___fldiv
  9396  15BB                     u597_25:	
  9397  15BB  1003               	clrc
  9398  15BC  0DB4               	rlf	i1___fldiv@grs,f
  9399  15BD  0DB5               	rlf	i1___fldiv@grs+1,f
  9400  15BE  0DB6               	rlf	i1___fldiv@grs+2,f
  9401  15BF  0DB7               	rlf	i1___fldiv@grs+3,f
  9402  15C0  0BA8               	decfsz	??i1___fldiv,f
  9403  15C1  2DBB               	goto	u597_25
  9404  15C2  30FF               	movlw	255
  9405  15C3  07B2               	addwf	i1___fldiv@new_exp,f
  9406  15C4  1803               	skipnc
  9407  15C5  0AB3               	incf	i1___fldiv@new_exp+1,f
  9408  15C6  30FF               	movlw	255
  9409  15C7  07B3               	addwf	i1___fldiv@new_exp+1,f
  9410  15C8  2DAC               	goto	i1l3676
  9411  15C9                     i1l3678:	
  9412  15C9  01B9               	clrf	i1___fldiv@aexp
  9413  15CA  1FB7               	btfss	i1___fldiv@grs+3,7
  9414  15CB  2DE2               	goto	i1l3688
  9415  15CC  30FF               	movlw	255
  9416  15CD  0534               	andwf	i1___fldiv@grs,w
  9417  15CE  00A8               	movwf	??i1___fldiv
  9418  15CF  30FF               	movlw	255
  9419  15D0  0535               	andwf	i1___fldiv@grs+1,w
  9420  15D1  00A9               	movwf	??i1___fldiv+1
  9421  15D2  30FF               	movlw	255
  9422  15D3  0536               	andwf	i1___fldiv@grs+2,w
  9423  15D4  00AA               	movwf	??i1___fldiv+2
  9424  15D5  307F               	movlw	127
  9425  15D6  0537               	andwf	i1___fldiv@grs+3,w
  9426  15D7  00AB               	movwf	??i1___fldiv+3
  9427  15D8  082B               	movf	??i1___fldiv+3,w
  9428  15D9  042A               	iorwf	??i1___fldiv+2,w
  9429  15DA  0429               	iorwf	??i1___fldiv+1,w
  9430  15DB  0428               	iorwf	??i1___fldiv,w
  9431  15DC  1903               	skipnz
  9432  15DD  1824               	btfsc	i1___fldiv@b,0
  9433  15DE  2DE0               	goto	i1l3684
  9434  15DF  2DE2               	goto	i1l3688
  9435  15E0                     i1l3684:	
  9436  15E0  01B9               	clrf	i1___fldiv@aexp
  9437  15E1  0AB9               	incf	i1___fldiv@aexp,f
  9438  15E2                     i1l3688:	
  9439  15E2  0839               	movf	i1___fldiv@aexp,w
  9440  15E3  1903               	btfsc	3,2
  9441  15E4  2E14               	goto	i1l3698
  9442  15E5  3001               	movlw	1
  9443  15E6  07A4               	addwf	i1___fldiv@b,f
  9444  15E7  3000               	movlw	0
  9445  15E8  1803               	skipnc
  9446  15E9  3001               	movlw	1
  9447  15EA  07A5               	addwf	i1___fldiv@b+1,f
  9448  15EB  3000               	movlw	0
  9449  15EC  1803               	skipnc
  9450  15ED  3001               	movlw	1
  9451  15EE  07A6               	addwf	i1___fldiv@b+2,f
  9452  15EF  3000               	movlw	0
  9453  15F0  1803               	skipnc
  9454  15F1  3001               	movlw	1
  9455  15F2  07A7               	addwf	i1___fldiv@b+3,f
  9456  15F3  1C27               	btfss	i1___fldiv@b+3,0
  9457  15F4  2E14               	goto	i1l3698
  9458  15F5  0824               	movf	i1___fldiv@b,w
  9459  15F6  00A8               	movwf	??i1___fldiv
  9460  15F7  0825               	movf	i1___fldiv@b+1,w
  9461  15F8  00A9               	movwf	??i1___fldiv+1
  9462  15F9  0826               	movf	i1___fldiv@b+2,w
  9463  15FA  00AA               	movwf	??i1___fldiv+2
  9464  15FB  0827               	movf	i1___fldiv@b+3,w
  9465  15FC  00AB               	movwf	??i1___fldiv+3
  9466  15FD  3001               	movlw	1
  9467  15FE  00AC               	movwf	??i1___fldiv+4
  9468  15FF                     u604_25:	
  9469  15FF  0D2B               	rlf	??i1___fldiv+3,w
  9470  1600  0CAB               	rrf	??i1___fldiv+3,f
  9471  1601  0CAA               	rrf	??i1___fldiv+2,f
  9472  1602  0CA9               	rrf	??i1___fldiv+1,f
  9473  1603  0CA8               	rrf	??i1___fldiv,f
  9474  1604  0BAC               	decfsz	??i1___fldiv+4,f
  9475  1605  2DFF               	goto	u604_25
  9476  1606  082B               	movf	??i1___fldiv+3,w
  9477  1607  00A7               	movwf	i1___fldiv@b+3
  9478  1608  082A               	movf	??i1___fldiv+2,w
  9479  1609  00A6               	movwf	i1___fldiv@b+2
  9480  160A  0829               	movf	??i1___fldiv+1,w
  9481  160B  00A5               	movwf	i1___fldiv@b+1
  9482  160C  0828               	movf	??i1___fldiv,w
  9483  160D  00A4               	movwf	i1___fldiv@b
  9484  160E  3001               	movlw	1
  9485  160F  07B2               	addwf	i1___fldiv@new_exp,f
  9486  1610  1803               	skipnc
  9487  1611  0AB3               	incf	i1___fldiv@new_exp+1,f
  9488  1612  3000               	movlw	0
  9489  1613  07B3               	addwf	i1___fldiv@new_exp+1,f
  9490  1614                     i1l3698:	
  9491  1614  0833               	movf	i1___fldiv@new_exp+1,w
  9492  1615  3A80               	xorlw	128
  9493  1616  00FF               	movwf	127
  9494  1617  3080               	movlw	128
  9495  1618  027F               	subwf	127,w
  9496  1619  1D03               	skipz
  9497  161A  2E1D               	goto	u605_25
  9498  161B  30FF               	movlw	255
  9499  161C  0232               	subwf	i1___fldiv@new_exp,w
  9500  161D                     u605_25:	
  9501  161D  1C03               	skipc
  9502  161E  2E2D               	goto	i1l3702
  9503  161F  30FF               	movlw	255
  9504  1620  1283               	bcf	3,5	;RP0=0, select bank0
  9505  1621  1303               	bcf	3,6	;RP1=0, select bank0
  9506  1622  00B2               	movwf	i1___fldiv@new_exp
  9507  1623  3000               	movlw	0
  9508  1624  00B3               	movwf	i1___fldiv@new_exp+1
  9509  1625  3000               	movlw	0
  9510  1626  00A7               	movwf	i1___fldiv@b+3
  9511  1627  3000               	movlw	0
  9512  1628  00A6               	movwf	i1___fldiv@b+2
  9513  1629  3000               	movlw	0
  9514  162A  00A5               	movwf	i1___fldiv@b+1
  9515  162B  3000               	movlw	0
  9516  162C  00A4               	movwf	i1___fldiv@b
  9517  162D                     i1l3702:	
  9518  162D  1283               	bcf	3,5	;RP0=0, select bank0
  9519  162E  1303               	bcf	3,6	;RP1=0, select bank0
  9520  162F  0833               	movf	i1___fldiv@new_exp+1,w
  9521  1630  3A80               	xorlw	128
  9522  1631  00FF               	movwf	127
  9523  1632  3080               	movlw	128
  9524  1633  027F               	subwf	127,w
  9525  1634  1D03               	skipz
  9526  1635  2E38               	goto	u606_25
  9527  1636  3001               	movlw	1
  9528  1637  0232               	subwf	i1___fldiv@new_exp,w
  9529  1638                     u606_25:	
  9530  1638  1803               	skipnc
  9531  1639  2E47               	goto	i1l759
  9532  163A  1283               	bcf	3,5	;RP0=0, select bank0
  9533  163B  1303               	bcf	3,6	;RP1=0, select bank0
  9534  163C  01B2               	clrf	i1___fldiv@new_exp
  9535  163D  01B3               	clrf	i1___fldiv@new_exp+1
  9536  163E  3000               	movlw	0
  9537  163F  00A7               	movwf	i1___fldiv@b+3
  9538  1640  3000               	movlw	0
  9539  1641  00A6               	movwf	i1___fldiv@b+2
  9540  1642  3000               	movlw	0
  9541  1643  00A5               	movwf	i1___fldiv@b+1
  9542  1644  3000               	movlw	0
  9543  1645  00A4               	movwf	i1___fldiv@b
  9544  1646  01B1               	clrf	i1___fldiv@sign
  9545  1647                     i1l759:	
  9546  1647  1283               	bcf	3,5	;RP0=0, select bank0
  9547  1648  1303               	bcf	3,6	;RP1=0, select bank0
  9548  1649  0832               	movf	i1___fldiv@new_exp,w
  9549  164A  00A8               	movwf	??i1___fldiv
  9550  164B  0828               	movf	??i1___fldiv,w
  9551  164C  00B8               	movwf	i1___fldiv@bexp
  9552  164D  1C38               	btfss	i1___fldiv@bexp,0
  9553  164E  2E51               	goto	i1l3714
  9554  164F  17A6               	bsf	i1___fldiv@b+2,7
  9555  1650  2E55               	goto	i1l761
  9556  1651                     i1l3714:	
  9557  1651  307F               	movlw	127
  9558  1652  00A8               	movwf	??i1___fldiv
  9559  1653  0828               	movf	??i1___fldiv,w
  9560  1654  05A6               	andwf	i1___fldiv@b+2,f
  9561  1655                     i1l761:	
  9562  1655  0838               	movf	i1___fldiv@bexp,w
  9563  1656  00A8               	movwf	??i1___fldiv
  9564  1657  1003               	clrc
  9565  1658  0C28               	rrf	??i1___fldiv,w
  9566  1659  00A9               	movwf	??i1___fldiv+1
  9567  165A  0829               	movf	??i1___fldiv+1,w
  9568  165B  00A7               	movwf	i1___fldiv@b+3
  9569  165C  2D1A               	goto	L5
  9570  165D                     __end_ofi1___fldiv:	
  9571  007E                     btemp	set	126	;btemp
  9572  007E                     wtemp0	set	126


Data Sizes:
    Strings     37
    Constant    0
    Data        0
    BSS         4
    Persistent  48
    Stack       0

Auto Spaces:
    Space          Size  Autos    Used
    COMMON           14     14      14
    BANK0            80     48      62
    BANK1            80     80      80
    BANK3            96     57      95
    BANK2            96      0       0

Pointer List with Targets:

    Lcd_Write_String@a	PTR unsigned char  size(1) Largest target is 16
		 -> STR_3(CODE[16]), STR_2(CODE[11]), STR_1(CODE[10]), 


Critical Paths under _main in COMMON

    None.

Critical Paths under _My_interrupt in COMMON

    _My_interrupt->i1___xxtofl
    i1___fltol->i1___xxtofl
    i1___flsub->i1___xxtofl
    i1___fldiv->i1___xxtofl

Critical Paths under _main in BANK0

    None.

Critical Paths under _My_interrupt in BANK0

    _My_interrupt->i1___fltol
    i1___fltol->i1___flsub
    i1___flsub->i1___fldiv

Critical Paths under _main in BANK1

    _main->_Set_temp
    _Set_temp->___fladd
    _PID_Init->___fladd
    ___xxtofl->_Read_ADC
    ___fltol->___fladd
    ___flsub->___fladd
    ___fladd->___fldiv
    ___flmul->___xxtofl
    ___fldiv->___flmul
    _Lcd_Write_String->_Lcd_Write_Char
    _Lcd_Clear->_Lcd_Cmd
    _Display->___awdiv
    ___awdiv->___awmod
    _Lcd_Write_Char->_Lcd_Port
    _Lcd_Set_Cursor->_Lcd_Cmd
    _Lcd_Init->_Lcd_Cmd
    _Lcd_Cmd->_Lcd_Port

Critical Paths under _My_interrupt in BANK1

    None.

Critical Paths under _main in BANK3

    _main->_Set_temp
    _Set_temp->_PID_Init
    _PID_Init->___fltol
    ___fltol->___flsub
    ___flsub->___fladd

Critical Paths under _My_interrupt in BANK3

    None.

Critical Paths under _main in BANK2

    None.

Critical Paths under _My_interrupt in BANK2

    None.

Call Graph Tables:

 ---------------------------------------------------------------------------------
 (Depth) Function   	        Calls       Base Space   Used Autos Params    Refs
 ---------------------------------------------------------------------------------
 (0) _main                                                 2     2      0   26846
                                             55 BANK3      2     2      0
                           _ADC_Init
                     _Interrupt_Init
                           _Lcd_Init
                       _Lcd_Set_Port
                   _Lcd_Write_String
                           _Set_temp
                        _Timer1_Init
 ---------------------------------------------------------------------------------
 (1) _Timer1_Init                                          0     0      0       0
 ---------------------------------------------------------------------------------
 (1) _Set_temp                                             5     5      0   26259
                                             79 BANK1      1     1      0
                                             51 BANK3      4     4      0
                            _Display
                          _Lcd_Clear
                     _Lcd_Set_Cursor
                   _Lcd_Write_String
                           _PID_Init
                           _Read_ADC
                            ___fladd
                            ___flmul
                            ___fltol
                           ___xxtofl
 ---------------------------------------------------------------------------------
 (2) _Read_ADC                                             9     7      2      67
                                              0 BANK1      9     7      2
 ---------------------------------------------------------------------------------
 (2) _PID_Init                                            16    12      4   14496
                                             35 BANK3     16    12      4
                            ___fladd
                            ___fldiv
                             ___flge
                            ___flmul
                            ___flsub
                            ___fltol
                           ___xxtofl
 ---------------------------------------------------------------------------------
 (2) ___xxtofl                                            14    10      4     600
                                              9 BANK1     14    10      4
                           _Read_ADC (ARG)
 ---------------------------------------------------------------------------------
 (2) ___fltol                                             11     7      4     507
                                             24 BANK3     11     7      4
                           _Read_ADC (ARG)
                            ___fladd (ARG)
                            ___flmul (ARG)
                            ___flsub (ARG)
                           ___xxtofl (ARG)
 ---------------------------------------------------------------------------------
 (3) ___flsub                                              8     0      8    3801
                                             16 BANK3      8     0      8
                            ___fladd
                            ___fldiv (ARG)
                            ___flmul (ARG)
 ---------------------------------------------------------------------------------
 (2) ___fladd                                             20    12      8    3200
                                             75 BANK1      4     4      0
                                              0 BANK3     16     8      8
                           _Read_ADC (ARG)
                            ___fldiv (ARG)
                            ___flmul (ARG)
                           ___xxtofl (ARG)
 ---------------------------------------------------------------------------------
 (2) ___flmul                                             26    18      8    3481
                                             23 BANK1     26    18      8
                           _Read_ADC (ARG)
                          __Umul8_16
                           ___xxtofl (ARG)
 ---------------------------------------------------------------------------------
 (3) __Umul8_16                                            9     7      2     799
                                              0 BANK1      9     7      2
 ---------------------------------------------------------------------------------
 (3) ___flge                                              12     4      8     638
                                              0 BANK1     12     4      8
 ---------------------------------------------------------------------------------
 (3) ___fldiv                                             26    18      8    1981
                                             49 BANK1     26    18      8
                            ___flmul (ARG)
 ---------------------------------------------------------------------------------
 (2) _Lcd_Write_String                                     3     3      0     367
                                              5 BANK1      3     3      0
                     _Lcd_Write_Char
 ---------------------------------------------------------------------------------
 (2) _Lcd_Clear                                            2     2      0     110
                                              4 BANK1      2     2      0
                            _Lcd_Cmd
 ---------------------------------------------------------------------------------
 (2) _Display                                              4     3      1    2534
                                             16 BANK1      4     3      1
                     _Lcd_Set_Cursor
                     _Lcd_Write_Char
                            ___awdiv
                            ___awmod
 ---------------------------------------------------------------------------------
 (3) ___awmod                                              7     3      4     752
                                              0 BANK1      7     3      4
 ---------------------------------------------------------------------------------
 (3) ___awdiv                                              9     5      4     604
                                              7 BANK1      9     5      4
                            ___awmod (ARG)
 ---------------------------------------------------------------------------------
 (3) _Lcd_Write_Char                                       4     4      0     178
                                              1 BANK1      4     4      0
                           _Lcd_Port
 ---------------------------------------------------------------------------------
 (2) _Lcd_Set_Cursor                                       7     6      1     608
                                              4 BANK1      7     6      1
                            _Lcd_Cmd
 ---------------------------------------------------------------------------------
 (1) _Lcd_Set_Port                                         3     3      0      22
                                              0 BANK1      3     3      0
 ---------------------------------------------------------------------------------
 (1) _Lcd_Init                                             2     2      0     198
                                              4 BANK1      2     2      0
                            _Lcd_Cmd
                           _Lcd_Port
 ---------------------------------------------------------------------------------
 (3) _Lcd_Cmd                                              3     3      0     110
                                              1 BANK1      3     3      0
                           _Lcd_Port
 ---------------------------------------------------------------------------------
 (4) _Lcd_Port                                             1     1      0      88
                                              0 BANK1      1     1      0
 ---------------------------------------------------------------------------------
 (1) _Interrupt_Init                                       0     0      0       0
 ---------------------------------------------------------------------------------
 (1) _ADC_Init                                             0     0      0       0
 ---------------------------------------------------------------------------------
 Estimated maximum stack depth 4
 ---------------------------------------------------------------------------------
 (Depth) Function   	        Calls       Base Space   Used Autos Params    Refs
 ---------------------------------------------------------------------------------
 (6) _My_interrupt                                         3     3      0    3909
                                             45 BANK0      3     3      0
                          i1___fldiv
                          i1___flsub
                          i1___fltol
                         i1___xxtofl
 ---------------------------------------------------------------------------------
 (7) i1___xxtofl                                          14    10      4     348
                                              0 COMMON    14    10      4
 ---------------------------------------------------------------------------------
 (7) i1___fltol                                           11     7      4     255
                                             34 BANK0     11     7      4
                          i1___fldiv (ARG)
                          i1___flsub (ARG)
                         i1___xxtofl (ARG)
 ---------------------------------------------------------------------------------
 (7) i1___flsub                                            8     0      8    2133
                                             26 BANK0      8     0      8
                          i1___fladd
                          i1___fldiv (ARG)
                         i1___xxtofl (ARG)
 ---------------------------------------------------------------------------------
 (8) i1___fladd                                           20    12      8    2036
                                              0 COMMON    12     4      8
                                              0 BANK0      8     8      0
 ---------------------------------------------------------------------------------
 (7) i1___fldiv                                           26    18      8    1173
                                              0 BANK0     26    18      8
                         i1___xxtofl (ARG)
 ---------------------------------------------------------------------------------
 Estimated maximum stack depth 8
 ---------------------------------------------------------------------------------

 Call Graph Graphs:

 _main (ROOT)
   _ADC_Init
   _Interrupt_Init
   _Lcd_Init
     _Lcd_Cmd
       _Lcd_Port
     _Lcd_Port
   _Lcd_Set_Port
   _Lcd_Write_String
     _Lcd_Write_Char
       _Lcd_Port
   _Set_temp
     _Display
       _Lcd_Set_Cursor
         _Lcd_Cmd
           _Lcd_Port
       _Lcd_Write_Char
         _Lcd_Port
       ___awdiv
         ___awmod (ARG)
       ___awmod
     _Lcd_Clear
       _Lcd_Cmd
         _Lcd_Port
     _Lcd_Set_Cursor
       _Lcd_Cmd
         _Lcd_Port
     _Lcd_Write_String
       _Lcd_Write_Char
         _Lcd_Port
     _PID_Init
       ___fladd
         _Read_ADC (ARG)
         ___fldiv (ARG)
           ___flmul (ARG)
             _Read_ADC (ARG)
             __Umul8_16 (ARG)
             ___xxtofl (ARG)
               _Read_ADC (ARG)
         ___flmul (ARG)
           _Read_ADC (ARG)
           __Umul8_16 (ARG)
           ___xxtofl (ARG)
             _Read_ADC (ARG)
         ___xxtofl (ARG)
           _Read_ADC (ARG)
       ___fldiv
         ___flmul (ARG)
           _Read_ADC (ARG)
           __Umul8_16 (ARG)
           ___xxtofl (ARG)
             _Read_ADC (ARG)
       ___flge
       ___flmul
         _Read_ADC (ARG)
         __Umul8_16 (ARG)
         ___xxtofl (ARG)
           _Read_ADC (ARG)
       ___flsub
         ___fladd
           _Read_ADC (ARG)
           ___fldiv (ARG)
             ___flmul (ARG)
               _Read_ADC (ARG)
               __Umul8_16 (ARG)
               ___xxtofl (ARG)
                 _Read_ADC (ARG)
           ___flmul (ARG)
             _Read_ADC (ARG)
             __Umul8_16 (ARG)
             ___xxtofl (ARG)
               _Read_ADC (ARG)
           ___xxtofl (ARG)
             _Read_ADC (ARG)
         ___fldiv (ARG)
           ___flmul (ARG)
             _Read_ADC (ARG)
             __Umul8_16 (ARG)
             ___xxtofl (ARG)
               _Read_ADC (ARG)
         ___flmul (ARG)
           _Read_ADC (ARG)
           __Umul8_16 (ARG)
           ___xxtofl (ARG)
             _Read_ADC (ARG)
       ___fltol
         _Read_ADC (ARG)
         ___fladd (ARG)
           _Read_ADC (ARG)
           ___fldiv (ARG)
             ___flmul (ARG)
               _Read_ADC (ARG)
               __Umul8_16 (ARG)
               ___xxtofl (ARG)
                 _Read_ADC (ARG)
           ___flmul (ARG)
             _Read_ADC (ARG)
             __Umul8_16 (ARG)
             ___xxtofl (ARG)
               _Read_ADC (ARG)
           ___xxtofl (ARG)
             _Read_ADC (ARG)
         ___flmul (ARG)
           _Read_ADC (ARG)
           __Umul8_16 (ARG)
           ___xxtofl (ARG)
             _Read_ADC (ARG)
         ___flsub (ARG)
           ___fladd
             _Read_ADC (ARG)
             ___fldiv (ARG)
               ___flmul (ARG)
                 _Read_ADC (ARG)
                 __Umul8_16 (ARG)
                 ___xxtofl (ARG)
                   _Read_ADC (ARG)
             ___flmul (ARG)
               _Read_ADC (ARG)
               __Umul8_16 (ARG)
               ___xxtofl (ARG)
                 _Read_ADC (ARG)
             ___xxtofl (ARG)
               _Read_ADC (ARG)
           ___fldiv (ARG)
             ___flmul (ARG)
               _Read_ADC (ARG)
               __Umul8_16 (ARG)
               ___xxtofl (ARG)
                 _Read_ADC (ARG)
           ___flmul (ARG)
             _Read_ADC (ARG)
             __Umul8_16 (ARG)
             ___xxtofl (ARG)
               _Read_ADC (ARG)
         ___xxtofl (ARG)
           _Read_ADC (ARG)
       ___xxtofl
         _Read_ADC (ARG)
     _Read_ADC
     ___fladd
       _Read_ADC (ARG)
       ___fldiv (ARG)
         ___flmul (ARG)
           _Read_ADC (ARG)
           __Umul8_16 (ARG)
           ___xxtofl (ARG)
             _Read_ADC (ARG)
       ___flmul (ARG)
         _Read_ADC (ARG)
         __Umul8_16 (ARG)
         ___xxtofl (ARG)
           _Read_ADC (ARG)
       ___xxtofl (ARG)
         _Read_ADC (ARG)
     ___flmul
       _Read_ADC (ARG)
       __Umul8_16 (ARG)
       ___xxtofl (ARG)
         _Read_ADC (ARG)
     ___fltol
       _Read_ADC (ARG)
       ___fladd (ARG)
         _Read_ADC (ARG)
         ___fldiv (ARG)
           ___flmul (ARG)
             _Read_ADC (ARG)
             __Umul8_16 (ARG)
             ___xxtofl (ARG)
               _Read_ADC (ARG)
         ___flmul (ARG)
           _Read_ADC (ARG)
           __Umul8_16 (ARG)
           ___xxtofl (ARG)
             _Read_ADC (ARG)
         ___xxtofl (ARG)
           _Read_ADC (ARG)
       ___flmul (ARG)
         _Read_ADC (ARG)
         __Umul8_16 (ARG)
         ___xxtofl (ARG)
           _Read_ADC (ARG)
       ___flsub (ARG)
         ___fladd
           _Read_ADC (ARG)
           ___fldiv (ARG)
             ___flmul (ARG)
               _Read_ADC (ARG)
               __Umul8_16 (ARG)
               ___xxtofl (ARG)
                 _Read_ADC (ARG)
           ___flmul (ARG)
             _Read_ADC (ARG)
             __Umul8_16 (ARG)
             ___xxtofl (ARG)
               _Read_ADC (ARG)
           ___xxtofl (ARG)
             _Read_ADC (ARG)
         ___fldiv (ARG)
           ___flmul (ARG)
             _Read_ADC (ARG)
             __Umul8_16 (ARG)
             ___xxtofl (ARG)
               _Read_ADC (ARG)
         ___flmul (ARG)
           _Read_ADC (ARG)
           __Umul8_16 (ARG)
           ___xxtofl (ARG)
             _Read_ADC (ARG)
       ___xxtofl (ARG)
         _Read_ADC (ARG)
     ___xxtofl
       _Read_ADC (ARG)
   _Timer1_Init

 _My_interrupt (ROOT)
   i1___fldiv
     i1___xxtofl (ARG)
   i1___flsub
     i1___fladd
     i1___fldiv (ARG)
       i1___xxtofl (ARG)
     i1___xxtofl (ARG)
   i1___fltol
     i1___fldiv (ARG)
       i1___xxtofl (ARG)
     i1___flsub (ARG)
       i1___fladd
       i1___fldiv (ARG)
         i1___xxtofl (ARG)
       i1___xxtofl (ARG)
     i1___xxtofl (ARG)
   i1___xxtofl

 Address spaces:
Name               Size   Autos  Total    Cost      Usage
BITCOMMON            E      0       0       0        0.0%
EEDATA             100      0       0       0        0.0%
NULL                 0      0       0       0        0.0%
CODE                 0      0       0       0        0.0%
COMMON               E      E       E       1      100.0%
BITSFR0              0      0       0       1        0.0%
SFR0                 0      0       0       1        0.0%
BITSFR1              0      0       0       2        0.0%
SFR1                 0      0       0       2        0.0%
STACK                0      0       0       2        0.0%
ABS                  0      0      FB       3        0.0%
BITBANK0            50      0       0       4        0.0%
BITSFR3              0      0       0       4        0.0%
SFR3                 0      0       0       4        0.0%
BANK0               50     30      3E       5       77.5%
BITSFR2              0      0       0       5        0.0%
SFR2                 0      0       0       5        0.0%
BITBANK1            50      0       0       6        0.0%
BANK1               50     50      50       7      100.0%
BITBANK3            60      0       0       8        0.0%
BANK3               60     39      5F       9       99.0%
BITBANK2            60      0       0      10        0.0%
BANK2               60      0       0      11        0.0%
DATA                 0      0      FB      12        0.0%


Microchip Technology PIC Macro Assembler V2.05 build -831301201 
Symbol Table                                                                                   Fri Sep 27 23:14:30 2019

         ??_Interrupt_Init 00A0                          _E 01E9                          _T 01DD  
             ___fldiv@aexp 00EA               ___fldiv@bexp 00E9                          _t 01ED  
                        pc 0002                i1___fladd@a 0074                i1___fladd@b 0070  
             ___fldiv@sign 00E2                i1___fldiv@a 0020                i1___fldiv@b 0024  
              __CFG_CP$OFF 0000                         _E1 01E5                         _E2 01E1  
                       _a1 01D9                         _a2 0058                         _a3 0054  
                       _Kd 01CD                         _Ki 01D1                         _Kp 01D5  
             ___awdiv@sign 00AD                         fsr 0004                i1___flsub@a 003A  
              i1___flsub@b 003E        __Umul8_16@word_mpld 00A6                 i1___xxtofl 1285  
                      l204 0C0C                        l213 0CE6                        l302 0823  
                      l209 0CBF                        l146 14A7                        l260 1E7D  
                      l165 1EA4                        l254 1E5C                        l182 0A63  
                      l255 1E5F                        l256 1E67                        l192 0BDC  
                      l184 0B7E                        l257 1E6A                        l258 1E72  
                      l259 1E75                        l702 0F49                        l562 120C  
                      l706 0F71                        l723 0FED                        l715 0FCC  
                      l565 1272                        l581 113F                        l821 1387  
                      l815 1347                        l761 17F8                        l737 16AB  
                      l681 0D8C                        l834 1E1C                        l828 139D  
                      l685 0E77                        l829 13A7                        l759 17EA  
                      l687 0E48                        l789 0794                        _GIE 005F  
                      _RB1 0031                        _RC0 0038                        _RC1 0039  
                      _RC2 003A                        _RD0 0040                        _RD1 0041  
                      _RD2 0042                        _RD3 0043                        _RD4 0044  
                      _RD5 0045                        _RD6 0046                        _RD7 0047  
             __CFG_CPD$OFF 0000                        fsr0 0004                        _out 01C9  
             i1___fltol@f1 0042               ___awmod@sign 00A6              i1___fladd@grs 007B  
             __CFG_FOSC$HS 0000               ___flmul@aexp 00C9               ___flmul@bexp 00CA  
             ___flmul@sign 00C4               ___flmul@temp 00CF               ___flmul@prod 00CB  
             __CFG_LVP$OFF 0000              i1___fldiv@grs 0034              i1___fldiv@rem 002D  
             ___fltol@exp1 01B2                       l3104 139B                       l3042 071A  
                     l3034 06E6                       l3106 138C                       l3060 0764  
                     l3036 0703                       l2500 0E71                       l2412 0D30  
                     l3046 071C                       l2422 0D46                       l3118 13C4  
                     l3128 1E32                       l3056 074E                       l2424 0D50  
                     l2602 1E14                       l3066 077D                       l2522 0EB9  
                     l2442 0D7D                       l2418 0D41                       l3090 1356  
                     l3138 1E8B                       l2516 0EB0                       l2508 0E87  
                     l2452 0D9C                       l2436 0D6C                       l3084 133F  
                     l3172 0461                       l3156 007B                       l2622 1F78  
                     l2518 0EB2                       l2526 0ECB                       l2446 0D82  
                     l3094 135A                       l2704 1F0E                       l2552 0F76  
                     l2544 0F61                       l2536 0F3B                       l2560 0F81  
                     l3096 136C                       l3168 0430                       l2730 1F4A  
                     l2722 1F37                       l2810 167A                       l2570 0F90  
                     l2490 0E57                       l2482 0E06                       l3530 0CE9  
                     l3522 0CC2                       l3514 0C1C                       l3442 0A98  
                     l3380 0809                       l2660 07AD                       l2716 1F1B  
                     l2708 1F15                       l2740 1226                       l2492 0E59  
                     l3532 0CF8                       l3382 080B                       l2718 1F29  
                     l2726 1F42                       l2902 1783                       l2830 16A0  
                     l2814 167D                       l2566 0F8D                       l2558 0F7D  
                     l3462 0B4E                       l3376 0805                       l2920 17D0  
                     l2816 1685                       l2744 124C                       l2592 0FE7  
                     l2496 0E60                       l2760 1104                       l3378 0807  
                     l3386 080D                       l2666 07B8                       l2906 1785  
                     l2850 16D6                       l2834 16A3                       l2692 07F7  
                     l2684 07E4                       l2676 07C0                       l2932 17F4  
                     l2916 17B7                       l2844 16CA                       l2588 0FE1  
                     l2756 10FB                       l3468 0B74                       l3804 14AE  
                     l2678 07CE                       l2870 1725                       l3494 0BD2  
                     l2688 07EF                       l2880 1749                       l2952 04A9  
                     l2776 112B                       l3488 0BB2                       l2970 04CE  
                     l2954 04AB                       l2786 114E                       l2778 113B  
                     l2876 1744                       l2972 04D0                       l2956 04B3  
                     l3854 0815                       l2894 174F                       l2878 1701  
                     l2982 04E6                       l2974 04D8                       l2896 176C  
                     l3786 1476                       _ADIE 0466                       _ADIF 0066  
                     _ADFM 04FF                       _ADON 00F8                       STR_1 1821  
                     STR_2 1816                       STR_3 1806                       u3310 0E2D  
                     u3320 0E2E                       u3305 0E21                       u4025 110D  
                     u4205 170A                       u4215 1713                       u4055 112C  
                     u3505 0F63                       u4235 171E                       u3451 0EF8  
                     u3443 0EDF                       u3435 0EBD                       u3355 0E64  
                     u3460 0F0C                       u3452 0EF9                       u4245 1733  
                     u3605 0FB0                       u3461 0F0D                       u3453 0EFE  
                     u4085 1144                       u3462 0F12                       u3454 0EFF  
                     u3463 0F13                       u3455 0F04                       u3456 0F05  
                     u3715 1F5D                       u4275 1753                       _PEIE 005E  
                     u3805 07CF                       u4365 17A2                       u4525 0596  
                     _INTE 005C                       _INTF 0059                       u3735 1F84  
                     u3815 07DB                       u4375 17C0                       u4295 175E  
                     u4615 06B4                       u3745 1ED4                       u3825 07E5  
                     u3905 1F2F                       u4385 17DB                       u3915 1F38  
                     u4635 06D2                       u4555 05F3                       u6307 1480  
                     u3685 1E1D                       u4645 06EA                       u4805 1363  
                     u6317 148F                       u4735 0739                       u6407 0BCC  
                     u6327 149E                       u3785 07C3                       u4745 0757  
                     u4665 06F5                       u4825 137F                       u6417 0BE5  
                     u6337 14B4                       u6507 1EE6                       u3971 1237  
                     u4755 076F                       u4595 068F                       u6427 0BF4  
                     u6347 0A7B                       u3972 1238                       u6517 1EFB  
                     u3885 1F1E                       u3973 123D                       u4845 1394  
                     u6437 0C03                       u6357 0B29                       u3974 123E  
                     u6527 1FAB                       u3991 125D                       u3975 1243  
                     u4935 1E8E                       u6447 0C17                       u6367 0B3E  
                     u3992 125E                       u3976 1244                       u6537 1FBB  
                     u3993 1263                       u6457 0CDC                       u6377 0B6E  
                     u3994 1264                       u6547 1FCC                       u3995 1269  
                     u6467 0CF1                       u6387 0B8D                       u3996 126A  
                     u6557 1DBB                       u4885 13AF                       u6477 0D10  
                     u6397 0BA2                       u6487 1E9E                       u6497 1D9F  
                     _TMR1 000E               __CFG_WRT$OFF 0000          ?_Lcd_Write_String 0070  
                     _main 13CD                       _duty 005C                       btemp 007E  
         __end_of_ADC_Init 101C             i1___fladd@aexp 0079             i1___fladd@bexp 007A  
                     start 0010         ??_Lcd_Write_String 00A5            ___fldiv@new_exp 00E3  
          __end_of_Lcd_Cmd 1DC4            __end_of_Display 11F0             i1___fldiv@aexp 0039  
           i1___fldiv@bexp 0038             i1___fldiv@sign 0031              ___fltol@sign1 01B1  
                    _ADCS0 00FE                      _ADCS1 00FF                      _ADCS2 04FE  
          __end_of___fladd 1000                      ?_main 0070            __end_of___fldiv 1800  
          __end_of___awdiv 07FC              __CFG_WDTE$OFF 0000            __end_of___awmod 1F4F  
          __end_of___flmul 07A1            __end_of___flsub 1E08            __end_of___fltol 115D  
     __end_of_Lcd_Set_Port 0824            ___awdiv@divisor 00A7                      _PCFG0 04F8  
                    _PCFG1 04F9                      _PCFG2 04FA                      _PCFG3 04FB  
                    i1l226 1021                      i1l229 107A                      i1l702 09D0  
                    i1l723 0A56                      i1l715 0A3C                      i1l581 10D2  
                    i1l821 12E2                      i1l815 12A2                      i1l761 1655  
                    i1l737 1508                      i1l681 0876                      i1l828 12F8  
                    i1l685 0911                      i1l829 1302                      i1l759 1647  
                    i1l687 08ED            ___awdiv@counter 00AC                      _TMR1H 000F  
                    _TMR1L 000E    __size_of_Lcd_Set_Cursor 0050                      _TRISA 0085  
                    _TRISB 0086                      _TRISC 0087                      _TRISD 0088  
         __end_of_PID_Init 048C             __CFG_BOREN$OFF 0000                      pclath 000A  
           i1___fltol@exp1 004C                      status 0003                      wtemp0 007E  
       __size_ofi1___fladd 023F         __size_ofi1___fldiv 01A3            i1___fladd@signs 0078  
       __size_ofi1___flsub 0022         __size_ofi1___fltol 006D           __end_of_Lcd_Init 2000  
         __end_of_Lcd_Port 1E81            __initialization 0013               __end_of_main 14BA  
         __end_of_Read_ADC 1EBF                     ??_main 01C7                ?i1___xxtofl 0070  
       __size_of_Lcd_Clear 0017           __end_of_Set_temp 0D16                     _ADCON0 001F  
                   _ADRESH 001E                     _ADRESL 009E           ___awdiv@dividend 00A9  
                   i1l3200 084C                     i1l3302 0956                     i1l3222 086E  
                   i1l3320 09E2                     i1l3312 09C2                     i1l3218 086B  
                   i1l3228 0880                     i1l3342 0A05                     i1l3334 09FA  
                   i1l3328 09F3                     i1l3336 09FC                     i1l3346 0A07  
                   i1l3266 08FA                     i1l3258 08BC                     i1l3194 0841  
                   i1l3612 14FD                     i1l3364 0A4C                     i1l3292 0942  
                   i1l3284 091F                     i1l3268 08FC                     i1l3276 090D  
                   i1l3702 162D                     i1l3294 0944                     i1l3198 0844  
                   i1l3542 1097                     i1l3632 1533                     i1l3616 1500  
                   i1l3368 0A50                     i1l3560 10CE                     i1l3714 1651  
                   i1l3626 1527                     i1l3538 108E                     _T1SYNC 0082  
                   i1l3652 1582                     i1l3660 155E                     i1l3732 12B1  
                   i1l3662 15A6                     i1l3558 10BE                     i1l3726 129A  
                   i1l3592 14D7                     i1l3568 10E1                     i1l3760 131F  
                   i1l3736 12B5                     i1l3658 15A1                     i1l3746 12F6  
                   i1l3738 12C7                     i1l3684 15E0                     i1l3676 15AC  
                   i1l3596 14DA                     i1l3748 12E7                     i1l3678 15C9  
                   i1l3598 14E2                     i1l3688 15E2                     i1l3698 1614  
                   _INTEDG 040E                     u520_25 094A                     u512_25 0902  
                   u521_23 0968                     u522_21 0983                     u522_22 0984  
                   u522_23 0989                     u522_24 098A                     u522_25 098F  
                   u522_26 0990                     u523_20 0997                     u523_21 0998  
                   u523_22 099D                     u523_23 099E                     u507_25 08D0  
                   u611_25 12BE                     u508_20 08DA                     u604_25 15FF  
                   u509_20 08DB                     u605_25 161D                     u613_25 12DA  
                   u606_25 1638                     u527_25 09E6                     u615_25 12EF  
                   u537_25 0A26                     u570_25 10A0                     u619_25 130A  
                   u573_25 10BF                     u591_25 157B                     u592_25 1590  
                   u576_25 10D7                  ??_Lcd_Cmd 00A1                     u595_25 15B0  
                   u588_25 1567                     _TMR1IE 0460                     _TMR1IF 0060  
                   u597_25 15BB                     u589_25 1570                     _TMR1CS 0081  
                   _TMR1ON 0080    __size_of_Lcd_Write_Char 0043                     _TRISA0 0428  
                   _TRISB0 0430                     _TRISB1 0431                     _TRISC0 0438  
                   _TRISC1 0439                     _TRISC2 043A                  ??_Display 00B1  
         __end_of___xxtofl 13CD             __CFG_PWRTE$OFF 0000              ??_Timer1_Init 00A0  
                   ___flge 11F0            Read_ADC@channel 00A8                  ??___fladd 0198  
                ??___fldiv 00D9                  ??___awdiv 00AB                  ??___awmod 00A4  
                ??___flmul 00BF                  ??___flsub 00EF                  ??___fltol 01AC  
         ___awdiv@quotient 00AE            ___awmod@divisor 00A0            ___awmod@counter 00A5  
        __end_ofi1___fladd 0A63          __end_ofi1___fldiv 165D          __end_ofi1___flsub 1DE6  
        __end_ofi1___fltol 10F0         __size_of__Umul8_16 0025                  ?_ADC_Init 0070  
                   saved_w 007E            i1___fltol@sign1 004B            Lcd_Set_Cursor@a 00A7  
          Lcd_Set_Cursor@b 00A4            Lcd_Set_Cursor@y 00A9            Lcd_Set_Cursor@z 00A8  
               ___flge@ff1 00A0                 ___flge@ff2 00A4               ___xxtofl@arg 00B3  
             ___xxtofl@exp 00B2               ___xxtofl@val 00A9    __end_of__initialization 001B  
        __end_of_Lcd_Clear 1DA4        __size_ofi1___xxtofl 00A3                 ___fltol@f1 01A8  
                ?_PID_Init 01B3             __pcstackCOMMON 0070      __size_of_Lcd_Set_Port 0023  
      __end_of_Timer1_Init 1D8D             _Lcd_Set_Cursor 1F4F                 ??_ADC_Init 00A0  
                ?_Lcd_Init 0070                  ?_Lcd_Port 0070                 __pbssBANK0 005C  
               __pbssBANK3 01ED                  ?_Read_ADC 00A0             i1___xxtofl@arg 007A  
           i1___xxtofl@exp 0079             i1___xxtofl@val 0070               _Lcd_Set_Port 0801  
        __end_of__Umul8_16 1E2D                 ??_PID_Init 00EF                  ?_Set_temp 0070  
               __pmaintext 13CD                    ?___flge 00A0              ?_My_interrupt 0070  
               __pintentry 0004  __size_of_Lcd_Write_String 0026     __end_of_Lcd_Set_Cursor 1F9F  
                  _T1CKPS0 0084                    _T1CKPS1 0085                    _T1OSCEN 0083  
                ?___xxtofl 00A9                 ??_Lcd_Init 00A4                 ??_Lcd_Port 00A0  
               __stringtab 1800                 ??_Read_ADC 00A2             _Lcd_Write_Char 1EBF  
                  _Lcd_Cmd 1DA4                    _Display 115D                _Timer1_Init 1D7D  
           ??_My_interrupt 004D                 ??_Set_temp 01C3            __size_of___flge 0095  
                  ___fladd 0D16                    ___fldiv 165D                    ___awdiv 07A1  
                  ___awmod 1F02                    ___flmul 048C                    ___flsub 1DE6  
                  ___fltol 10F0            ?_Lcd_Set_Cursor 00A4               ??i1___xxtofl 0074  
                  __ptext1 1D7D                    __ptext2 0A63                    __ptext3 1E81  
                  __ptext4 001F                    __ptext5 1328                    __ptext6 10F0  
                  __ptext7 1DE6                    __ptext8 0D16                    __ptext9 048C  
  __size_of_Interrupt_Init 0007                 ??___xxtofl 00AD           ___awmod@dividend 00A2  
                  _pre_out 0050     __end_of_Lcd_Write_Char 1F02       end_of_initialization 001B  
       __end_ofi1___xxtofl 1328                  Lcd_Port@a 00A0            Display@set_temp 00B0  
              ___fladd@grs 00EE              ___xxtofl@sign 00B1                  i1___fladd 0824  
                i1___fldiv 14BA                ___fldiv@grs 00E5                  i1___flsub 1DC4  
                i1___fltol 1083                ___fldiv@rem 00DE          __size_of_ADC_Init 0018  
          ?_Lcd_Write_Char 0070          Lcd_Write_String@a 00A7          Lcd_Write_String@i 00A5  
              ___flmul@grs 00C5                  Read_ADC@N 00A6                  _Lcd_Clear 1D8D  
        __size_of_PID_Init 046D             __end_of___flge 1285           _Lcd_Write_String 1E2D  
      start_initialization 0013              Lcd_Set_Port@a 00A2                 ?i1___fladd 0070  
               ?i1___fldiv 0020       __end_of_My_interrupt 1083                 ?i1___flsub 003A  
               ?i1___fltol 0042          __size_of_Lcd_Init 0061          __size_of_Lcd_Port 002E  
       PID_Init@nhietdodat 01B5          __size_of_Read_ADC 003E                 ?_Lcd_Clear 0070  
                 ??___flge 00A8          __size_of_Set_temp 02B3                  __Umul8_16 1E08  
          Lcd_Write_Char@a 00A4            Lcd_Write_Char@y 00A3                  ___fladd@a 0194  
                ___fladd@b 0190             _Interrupt_Init 1D76                  ___fldiv@a 00D1  
                ___fldiv@b 00D5                  ___flmul@a 00BB                  ___flmul@b 00B7  
                ___flsub@a 01A0                  ___flsub@b 01A4                  ___latbits 0002  
            __pcstackBANK0 0020              __pcstackBANK1 00A0              __pcstackBANK3 0190  
        __size_of___xxtofl 00A5            i1___xxtofl@sign 0078                   ?_Lcd_Cmd 0070  
        i1___fldiv@new_exp 0032                   ?_Display 00B0                  __pnvBANK0 0050  
                __pnvBANK3 01C9               ?_Timer1_Init 0070           ??_Lcd_Set_Cursor 00A5  
                 ?___fladd 0190                   ?___fldiv 00D1                   ?___awdiv 00A7  
                 ?___awmod 00A0                   ?___flmul 00B7                   ?___flsub 01A0  
                 ?___fltol 01A8                 ?__Umul8_16 00A0     __end_of_Interrupt_Init 1D7D  
                __pstrings 1800                   _ADC_Init 1004                ??i1___fladd 0020  
              ??i1___fldiv 0028                ??i1___flsub 007E                ??i1___fltol 0046  
         Set_temp@set_temp 00EF          interrupt_function 0004               _PID_Init$825 01BF  
             _PID_Init$826 01B7               _PID_Init$827 01BB                   Lcd_Cmd@a 00A3  
                 _PID_Init 001F                   _GO_nDONE 00FA                ??_Lcd_Clear 00A4  
          ?_Interrupt_Init 0070                __stringbase 1805      __size_of_My_interrupt 0067  
         ??_Lcd_Write_Char 00A1                   _Lcd_Init 1F9F                   _Lcd_Port 1E53  
                 _Read_ADC 1E81   __end_of_Lcd_Write_String 1E53           __size_of_Lcd_Cmd 0020  
         __size_of_Display 0093                   _Set_temp 0A63               _My_interrupt 101C  
              ??__Umul8_16 00A2           __size_of___fladd 02EA           __size_of___fldiv 01A3  
         __size_of___awdiv 005B           __size_of___awmod 004D           __size_of___flmul 0315  
         __size_of___flsub 0022           __size_of___fltol 006D         __end_of__stringtab 1806  
          PID_Init@nhietdo 01B3                   ___xxtofl 1328                   __ptext10 1E08  
                 __ptext11 11F0                   __ptext20 0801                   __ptext12 165D  
                 __ptext21 1F9F                   __ptext13 1E2D                   __ptext30 0824  
                 __ptext22 1DA4                   __ptext14 1D8D                   __ptext31 14BA  
                 __ptext23 1E53                   __ptext15 115D                   __ptext24 1D76  
                 __ptext16 1F02                   __ptext25 1004                   __ptext17 07A1  
                 __ptext26 101C                   __ptext18 1EBF                   __ptext27 1285  
                 __ptext19 1F4F                   __ptext28 1083                   __ptext29 1DC4  
            __size_of_main 00ED              ?_Lcd_Set_Port 0070       __size_of_Timer1_Init 0010  
       Lcd_Write_Char@temp 00A2                   intlevel1 0000             ??_Lcd_Set_Port 00A0  
                stringcode 1800         Lcd_Set_Cursor@temp 00AA     __Umul8_16@multiplicand 00A0  
                 stringdir 1800                   stringtab 1800                Display@temp 00B3  
            ___fladd@signs 00EB               ___fladd@aexp 00EC               ___fladd@bexp 00ED  
     __Umul8_16@multiplier 00A8          __Umul8_16@product 00A4  
