

Microchip MPLAB XC8 Assembler V2.05 build -831301201 
                                                                                               Tue Mar 26 23:11:44 2019

Microchip MPLAB XC8 C Compiler v2.05 (Free license) build 20181220022703 Og1 
     1                           	processor	16F877A
     2                           	opt	pw 120
     3                           	opt	flic
     4                           	psect	strings,global,class=STRING,delta=2
     5                           	psect	cinit,global,class=CODE,merge=1,delta=2
     6                           	psect	cstackBANK1,global,class=BANK1,space=1,delta=1
     7                           	psect	cstackCOMMON,global,class=COMMON,space=1,delta=1
     8                           	psect	cstackBANK0,global,class=BANK0,space=1,delta=1
     9                           	psect	maintext,global,class=CODE,split=1,delta=2
    10                           	psect	text1,local,class=CODE,merge=1,delta=2,group=1
    11                           	psect	text2,local,class=CODE,merge=1,delta=2,group=1
    12                           	psect	text3,local,class=CODE,merge=1,delta=2,group=1
    13                           	psect	text4,local,class=CODE,merge=1,delta=2,group=1
    14                           	psect	text5,local,class=CODE,merge=1,delta=2,group=1
    15                           	psect	text6,local,class=CODE,merge=1,delta=2,group=1
    16                           	psect	text7,local,class=CODE,merge=1,delta=2,group=1
    17                           	psect	text8,local,class=CODE,merge=1,delta=2
    18                           	psect	text9,local,class=CODE,merge=1,delta=2
    19                           	psect	text10,local,class=CODE,merge=1,delta=2
    20                           	psect	text11,local,class=CODE,merge=1,delta=2
    21                           	psect	text12,local,class=CODE,merge=1,delta=2
    22                           	psect	text13,local,class=CODE,merge=1,delta=2
    23                           	psect	text14,local,class=CODE,merge=1,delta=2
    24                           	psect	text15,local,class=CODE,merge=1,delta=2
    25                           	psect	text16,local,class=CODE,merge=1,delta=2
    26                           	psect	intentry,global,class=CODE,delta=2
    27                           	dabs	1,0x7E,2
    28  0000                     
    29                           ; Version 2.05
    30                           ; Generated 20/12/2018 GMT
    31                           ; 
    32                           ; Copyright © 2018, Microchip Technology Inc. and its subsidiaries ("Microchip")
    33                           ; All rights reserved.
    34                           ; 
    35                           ; This software is developed by Microchip Technology Inc. and its subsidiaries ("Microch
      +                          ip").
    36                           ; 
    37                           ; Redistribution and use in source and binary forms, with or without modification, are
    38                           ; permitted provided that the following conditions are met:
    39                           ; 
    40                           ;     1. Redistributions of source code must retain the above copyright notice, this lis
      +                          t of
    41                           ;        conditions and the following disclaimer.
    42                           ; 
    43                           ;     2. Redistributions in binary form must reproduce the above copyright notice, this 
      +                          list
    44                           ;        of conditions and the following disclaimer in the documentation and/or other
    45                           ;        materials provided with the distribution.
    46                           ; 
    47                           ;     3. Microchip's name may not be used to endorse or promote products derived from th
      +                          is
    48                           ;        software without specific prior written permission.
    49                           ; 
    50                           ; THIS SOFTWARE IS PROVIDED BY MICROCHIP "AS IS" AND ANY EXPRESS OR IMPLIED WARRANTIES,
    51                           ; INCLUDING, BUT NOT LIMITED TO, THE IMPLIED WARRANTIES OF MERCHANTABILITY AND FITNESS F
      +                          OR
    52                           ; PURPOSE ARE DISCLAIMED.  IN NO EVENT SHALL MICROCHIP BE LIABLE FOR ANY DIRECT, INDIREC
      +                          T,
    53                           ; INCIDENTAL, SPECIAL, EXEMPLARY, OR CONSEQUENTIAL DAMAGES (INCLUDING BUT NOT LIMITED TO
    54                           ; PROCUREMENT OF SUBSTITUTE GOODS OR SERVICES; LOSS OF USE, DATA OR PROFITS; OR BUSINESS
    55                           ; INTERRUPTION) HOWSOEVER CAUSED AND ON ANY THEORY OF LIABILITY, WHETHER IN CONTRACT, ST
      +                          RICT
    56                           ; LIABILITY, OR TORT (INCLUDING NEGLIGENCE OR OTHERWISE) ARISING IN ANY WAY OUT OF THE U
      +                          SE OF
    57                           ; THIS SOFTWARE, EVEN IF ADVISED OF THE POSSIBILITY OF SUCH DAMAGE.
    58                           ; 
    59                           ; 
    60                           ; Code-generator required, PIC16F877A Definitions
    61                           ; 
    62                           ; SFR Addresses
    63  0000                     	;# 
    64  0001                     	;# 
    65  0002                     	;# 
    66  0003                     	;# 
    67  0004                     	;# 
    68  0005                     	;# 
    69  0006                     	;# 
    70  0007                     	;# 
    71  0008                     	;# 
    72  0009                     	;# 
    73  000A                     	;# 
    74  000B                     	;# 
    75  000C                     	;# 
    76  000D                     	;# 
    77  000E                     	;# 
    78  000E                     	;# 
    79  000F                     	;# 
    80  0010                     	;# 
    81  0011                     	;# 
    82  0012                     	;# 
    83  0013                     	;# 
    84  0014                     	;# 
    85  0015                     	;# 
    86  0015                     	;# 
    87  0016                     	;# 
    88  0017                     	;# 
    89  0018                     	;# 
    90  0019                     	;# 
    91  001A                     	;# 
    92  001B                     	;# 
    93  001B                     	;# 
    94  001C                     	;# 
    95  001D                     	;# 
    96  001E                     	;# 
    97  001F                     	;# 
    98  0081                     	;# 
    99  0085                     	;# 
   100  0086                     	;# 
   101  0087                     	;# 
   102  0088                     	;# 
   103  0089                     	;# 
   104  008C                     	;# 
   105  008D                     	;# 
   106  008E                     	;# 
   107  0091                     	;# 
   108  0092                     	;# 
   109  0093                     	;# 
   110  0094                     	;# 
   111  0098                     	;# 
   112  0099                     	;# 
   113  009C                     	;# 
   114  009D                     	;# 
   115  009E                     	;# 
   116  009F                     	;# 
   117  010C                     	;# 
   118  010D                     	;# 
   119  010E                     	;# 
   120  010F                     	;# 
   121  018C                     	;# 
   122  018D                     	;# 
   123  0000                     	;# 
   124  0001                     	;# 
   125  0002                     	;# 
   126  0003                     	;# 
   127  0004                     	;# 
   128  0005                     	;# 
   129  0006                     	;# 
   130  0007                     	;# 
   131  0008                     	;# 
   132  0009                     	;# 
   133  000A                     	;# 
   134  000B                     	;# 
   135  000C                     	;# 
   136  000D                     	;# 
   137  000E                     	;# 
   138  000E                     	;# 
   139  000F                     	;# 
   140  0010                     	;# 
   141  0011                     	;# 
   142  0012                     	;# 
   143  0013                     	;# 
   144  0014                     	;# 
   145  0015                     	;# 
   146  0015                     	;# 
   147  0016                     	;# 
   148  0017                     	;# 
   149  0018                     	;# 
   150  0019                     	;# 
   151  001A                     	;# 
   152  001B                     	;# 
   153  001B                     	;# 
   154  001C                     	;# 
   155  001D                     	;# 
   156  001E                     	;# 
   157  001F                     	;# 
   158  0081                     	;# 
   159  0085                     	;# 
   160  0086                     	;# 
   161  0087                     	;# 
   162  0088                     	;# 
   163  0089                     	;# 
   164  008C                     	;# 
   165  008D                     	;# 
   166  008E                     	;# 
   167  0091                     	;# 
   168  0092                     	;# 
   169  0093                     	;# 
   170  0094                     	;# 
   171  0098                     	;# 
   172  0099                     	;# 
   173  009C                     	;# 
   174  009D                     	;# 
   175  009E                     	;# 
   176  009F                     	;# 
   177  010C                     	;# 
   178  010D                     	;# 
   179  010E                     	;# 
   180  010F                     	;# 
   181  018C                     	;# 
   182  018D                     	;# 
   183  0000                     	;# 
   184  0001                     	;# 
   185  0002                     	;# 
   186  0003                     	;# 
   187  0004                     	;# 
   188  0005                     	;# 
   189  0006                     	;# 
   190  0007                     	;# 
   191  0008                     	;# 
   192  0009                     	;# 
   193  000A                     	;# 
   194  000B                     	;# 
   195  000C                     	;# 
   196  000D                     	;# 
   197  000E                     	;# 
   198  000E                     	;# 
   199  000F                     	;# 
   200  0010                     	;# 
   201  0011                     	;# 
   202  0012                     	;# 
   203  0013                     	;# 
   204  0014                     	;# 
   205  0015                     	;# 
   206  0015                     	;# 
   207  0016                     	;# 
   208  0017                     	;# 
   209  0018                     	;# 
   210  0019                     	;# 
   211  001A                     	;# 
   212  001B                     	;# 
   213  001B                     	;# 
   214  001C                     	;# 
   215  001D                     	;# 
   216  001E                     	;# 
   217  001F                     	;# 
   218  0081                     	;# 
   219  0085                     	;# 
   220  0086                     	;# 
   221  0087                     	;# 
   222  0088                     	;# 
   223  0089                     	;# 
   224  008C                     	;# 
   225  008D                     	;# 
   226  008E                     	;# 
   227  0091                     	;# 
   228  0092                     	;# 
   229  0093                     	;# 
   230  0094                     	;# 
   231  0098                     	;# 
   232  0099                     	;# 
   233  009C                     	;# 
   234  009D                     	;# 
   235  009E                     	;# 
   236  009F                     	;# 
   237  010C                     	;# 
   238  010D                     	;# 
   239  010E                     	;# 
   240  010F                     	;# 
   241  018C                     	;# 
   242  018D                     	;# 
   243  000E                     _TMR1	set	14
   244  0015                     _CCPR1	set	21
   245  0041                     _RD1	set	65
   246  0040                     _RD0	set	64
   247  0045                     _RD5	set	69
   248  0044                     _RD4	set	68
   249  0043                     _RD3	set	67
   250  0042                     _RD2	set	66
   251  0062                     _CCP1IF	set	98
   252  00B8                     _CCP1M0	set	184
   253  00B9                     _CCP1M1	set	185
   254  00BA                     _CCP1M2	set	186
   255  00BB                     _CCP1M3	set	187
   256  0080                     _TMR1ON	set	128
   257  005E                     _PEIE	set	94
   258  005F                     _GIE	set	95
   259  0081                     _TMR1CS	set	129
   260  0082                     _T1SYNC	set	130
   261  0083                     _T1OSCEN	set	131
   262  0084                     _T1CKPS0	set	132
   263  0085                     _T1CKPS1	set	133
   264  0088                     _TRISD	set	136
   265  0462                     _CCP1IE	set	1122
   266  043A                     _TRISC2	set	1082
   267  0460                     _TMR1IE	set	1120
   268                           
   269                           	psect	strings
   270  0800                     __pstrings:	
   271  0800                     stringtab:	
   272  0800                     __stringtab:	
   273  0800                     stringcode:	
   274                           ;	String table - string pointers are 1 byte each
   275                           
   276  0800                     stringdir:	
   277  0800  3008               	movlw	high stringdir
   278  0801  008A               	movwf	10
   279  0802  0804               	movf	4,w
   280  0803  0A84               	incf	4,f
   281  0804  0782               	addwf	2,f
   282  0805                     __stringbase:	
   283  0805  3400               	retlw	0
   284  0806                     __end_of__stringtab:	
   285  0806                     STR_1:	
   286  0806  3447               	retlw	71	;'G'
   287  0807  3469               	retlw	105	;'i'
   288  0808  3461               	retlw	97	;'a'
   289  0809  3420               	retlw	32	;' '
   290  080A  3474               	retlw	116	;'t'
   291  080B  3472               	retlw	114	;'r'
   292  080C  3469               	retlw	105	;'i'
   293  080D  343A               	retlw	58	;':'
   294  080E  3420               	retlw	32	;' '
   295  080F  3400               	retlw	0
   296  0810                     STR_2:	
   297  0810  3454               	retlw	84	;'T'
   298  0811  346F               	retlw	111	;'o'
   299  0812  3463               	retlw	99	;'c'
   300  0813  3420               	retlw	32	;' '
   301  0814  3464               	retlw	100	;'d'
   302  0815  346F               	retlw	111	;'o'
   303  0816  343A               	retlw	58	;':'
   304  0817  3420               	retlw	32	;' '
   305  0818  3400               	retlw	0
   306                           
   307                           ; #config settings
   308  0000                     
   309                           	psect	cinit
   310  000F                     start_initialization:	
   311  000F                     __initialization:	
   312  000F                     end_of_initialization:	
   313                           ;End of C runtime variable initialization code
   314                           
   315  000F                     __end_of__initialization:	
   316  000F  0183               	clrf	3
   317  0010  120A  118A  2B28   	ljmp	_main	;jump to C main() function
   318                           
   319                           	psect	cstackBANK1
   320  00A0                     __pcstackBANK1:	
   321  00A0                     _main$736:	
   322                           
   323                           ; 4 bytes @ 0x0
   324  00A0                     	ds	4
   325  00A4                     _main$737:	
   326                           
   327                           ; 4 bytes @ 0x4
   328  00A4                     	ds	4
   329  00A8                     main@t:	
   330                           
   331                           ; 2 bytes @ 0x8
   332  00A8                     	ds	2
   333  00AA                     main@x:	
   334                           
   335                           ; 2 bytes @ 0xA
   336  00AA                     	ds	2
   337                           
   338                           	psect	cstackCOMMON
   339  0070                     __pcstackCOMMON:	
   340  0070                     ?_Timer1_Init:	
   341  0070                     ?_Capture_Init:	
   342                           ; 1 bytes @ 0x0
   343                           
   344  0070                     ?_Lcd_Init:	
   345                           ; 1 bytes @ 0x0
   346                           
   347  0070                     ?_Lcd_Write_String:	
   348                           ; 1 bytes @ 0x0
   349                           
   350  0070                     ?_Lcd_Write_Char:	
   351                           ; 1 bytes @ 0x0
   352                           
   353  0070                     ?_main:	
   354                           ; 1 bytes @ 0x0
   355                           
   356  0070                     ?_My_interrupt:	
   357                           ; 1 bytes @ 0x0
   358                           
   359  0070                     ??_My_interrupt:	
   360                           ; 1 bytes @ 0x0
   361                           
   362  0070                     ?_Lcd_Port:	
   363                           ; 1 bytes @ 0x0
   364                           
   365  0070                     ?_Lcd_Cmd:	
   366                           ; 1 bytes @ 0x0
   367                           
   368                           
   369                           ; 1 bytes @ 0x0
   370  0070                     	ds	2
   371  0072                     ??_Timer1_Init:	
   372  0072                     ??_Capture_Init:	
   373                           ; 1 bytes @ 0x2
   374                           
   375  0072                     ??_Lcd_Port:	
   376                           ; 1 bytes @ 0x2
   377                           
   378  0072                     ?__Umul8_16:	
   379                           ; 1 bytes @ 0x2
   380                           
   381  0072                     ?___lwmod:	
   382                           ; 2 bytes @ 0x2
   383                           
   384  0072                     ?___xxtofl:	
   385                           ; 2 bytes @ 0x2
   386                           
   387  0072                     Lcd_Port@a:	
   388                           ; 4 bytes @ 0x2
   389                           
   390  0072                     __Umul8_16@multiplicand:	
   391                           ; 1 bytes @ 0x2
   392                           
   393  0072                     ___lwmod@divisor:	
   394                           ; 1 bytes @ 0x2
   395                           
   396  0072                     ___xxtofl@val:	
   397                           ; 2 bytes @ 0x2
   398                           
   399                           
   400                           ; 4 bytes @ 0x2
   401  0072                     	ds	1
   402  0073                     ??_Lcd_Write_Char:	
   403  0073                     ??_Lcd_Cmd:	
   404                           ; 1 bytes @ 0x3
   405                           
   406                           
   407                           ; 1 bytes @ 0x3
   408  0073                     	ds	1
   409  0074                     ??__Umul8_16:	
   410  0074                     Lcd_Write_Char@temp:	
   411                           ; 1 bytes @ 0x4
   412                           
   413  0074                     ___lwmod@dividend:	
   414                           ; 1 bytes @ 0x4
   415                           
   416                           
   417                           ; 2 bytes @ 0x4
   418  0074                     	ds	1
   419  0075                     Lcd_Cmd@a:	
   420  0075                     Lcd_Write_Char@y:	
   421                           ; 1 bytes @ 0x5
   422                           
   423                           
   424                           ; 1 bytes @ 0x5
   425  0075                     	ds	1
   426  0076                     ??_Lcd_Init:	
   427  0076                     ?_Lcd_Set_Cursor:	
   428                           ; 1 bytes @ 0x6
   429                           
   430  0076                     ??___lwmod:	
   431                           ; 1 bytes @ 0x6
   432                           
   433  0076                     ??___xxtofl:	
   434                           ; 1 bytes @ 0x6
   435                           
   436  0076                     Lcd_Set_Cursor@b:	
   437                           ; 1 bytes @ 0x6
   438                           
   439  0076                     Lcd_Write_Char@a:	
   440                           ; 1 bytes @ 0x6
   441                           
   442  0076                     __Umul8_16@product:	
   443                           ; 1 bytes @ 0x6
   444                           
   445                           
   446                           ; 2 bytes @ 0x6
   447  0076                     	ds	1
   448  0077                     ??_Lcd_Write_String:	
   449  0077                     ??_Lcd_Set_Cursor:	
   450                           ; 1 bytes @ 0x7
   451                           
   452  0077                     ___lwmod@counter:	
   453                           ; 1 bytes @ 0x7
   454                           
   455  0077                     Lcd_Write_String@i:	
   456                           ; 1 bytes @ 0x7
   457                           
   458                           
   459                           ; 2 bytes @ 0x7
   460  0077                     	ds	1
   461  0078                     ?___lwdiv:	
   462  0078                     ___lwdiv@divisor:	
   463                           ; 2 bytes @ 0x8
   464                           
   465  0078                     __Umul8_16@word_mpld:	
   466                           ; 2 bytes @ 0x8
   467                           
   468                           
   469                           ; 2 bytes @ 0x8
   470  0078                     	ds	1
   471  0079                     Lcd_Write_String@a:	
   472                           
   473                           ; 1 bytes @ 0x9
   474  0079                     	ds	1
   475  007A                     __Umul8_16@multiplier:	
   476  007A                     ___lwdiv@dividend:	
   477                           ; 1 bytes @ 0xA
   478                           
   479                           
   480                           ; 2 bytes @ 0xA
   481  007A                     	ds	2
   482                           
   483                           	psect	cstackBANK0
   484  0020                     __pcstackBANK0:	
   485  0020                     ??___lwdiv:	
   486  0020                     Lcd_Set_Cursor@a:	
   487                           ; 1 bytes @ 0x0
   488                           
   489  0020                     ___xxtofl@sign:	
   490                           ; 1 bytes @ 0x0
   491                           
   492                           
   493                           ; 1 bytes @ 0x0
   494  0020                     	ds	1
   495  0021                     Lcd_Set_Cursor@z:	
   496  0021                     ___xxtofl@exp:	
   497                           ; 1 bytes @ 0x1
   498                           
   499  0021                     ___lwdiv@quotient:	
   500                           ; 1 bytes @ 0x1
   501                           
   502                           
   503                           ; 2 bytes @ 0x1
   504  0021                     	ds	1
   505  0022                     Lcd_Set_Cursor@y:	
   506  0022                     ___xxtofl@arg:	
   507                           ; 1 bytes @ 0x2
   508                           
   509                           
   510                           ; 4 bytes @ 0x2
   511  0022                     	ds	1
   512  0023                     Lcd_Set_Cursor@temp:	
   513  0023                     ___lwdiv@counter:	
   514                           ; 1 bytes @ 0x3
   515                           
   516                           
   517                           ; 1 bytes @ 0x3
   518  0023                     	ds	3
   519  0026                     ?___flmul:	
   520  0026                     ___flmul@b:	
   521                           ; 4 bytes @ 0x6
   522                           
   523                           
   524                           ; 4 bytes @ 0x6
   525  0026                     	ds	4
   526  002A                     ___flmul@a:	
   527                           
   528                           ; 4 bytes @ 0xA
   529  002A                     	ds	4
   530  002E                     ??___flmul:	
   531                           
   532                           ; 1 bytes @ 0xE
   533  002E                     	ds	5
   534  0033                     ___flmul@sign:	
   535                           
   536                           ; 1 bytes @ 0x13
   537  0033                     	ds	1
   538  0034                     ___flmul@grs:	
   539                           
   540                           ; 4 bytes @ 0x14
   541  0034                     	ds	4
   542  0038                     ___flmul@aexp:	
   543                           
   544                           ; 1 bytes @ 0x18
   545  0038                     	ds	1
   546  0039                     ___flmul@bexp:	
   547                           
   548                           ; 1 bytes @ 0x19
   549  0039                     	ds	1
   550  003A                     ___flmul@prod:	
   551                           
   552                           ; 4 bytes @ 0x1A
   553  003A                     	ds	4
   554  003E                     ___flmul@temp:	
   555                           
   556                           ; 2 bytes @ 0x1E
   557  003E                     	ds	2
   558  0040                     ?___fldiv:	
   559  0040                     ___fldiv@a:	
   560                           ; 4 bytes @ 0x20
   561                           
   562                           
   563                           ; 4 bytes @ 0x20
   564  0040                     	ds	4
   565  0044                     ___fldiv@b:	
   566                           
   567                           ; 4 bytes @ 0x24
   568  0044                     	ds	4
   569  0048                     ??___fldiv:	
   570                           
   571                           ; 1 bytes @ 0x28
   572  0048                     	ds	5
   573  004D                     ___fldiv@rem:	
   574                           
   575                           ; 4 bytes @ 0x2D
   576  004D                     	ds	4
   577  0051                     ___fldiv@sign:	
   578                           
   579                           ; 1 bytes @ 0x31
   580  0051                     	ds	1
   581  0052                     ___fldiv@new_exp:	
   582                           
   583                           ; 2 bytes @ 0x32
   584  0052                     	ds	2
   585  0054                     ___fldiv@grs:	
   586                           
   587                           ; 4 bytes @ 0x34
   588  0054                     	ds	4
   589  0058                     ___fldiv@bexp:	
   590                           
   591                           ; 1 bytes @ 0x38
   592  0058                     	ds	1
   593  0059                     ___fldiv@aexp:	
   594                           
   595                           ; 1 bytes @ 0x39
   596  0059                     	ds	1
   597  005A                     ?___fltol:	
   598  005A                     ___fltol@f1:	
   599                           ; 4 bytes @ 0x3A
   600                           
   601                           
   602                           ; 4 bytes @ 0x3A
   603  005A                     	ds	4
   604  005E                     ??___fltol:	
   605                           
   606                           ; 1 bytes @ 0x3E
   607  005E                     	ds	5
   608  0063                     ___fltol@sign1:	
   609                           
   610                           ; 1 bytes @ 0x43
   611  0063                     	ds	1
   612  0064                     ___fltol@exp1:	
   613                           
   614                           ; 1 bytes @ 0x44
   615  0064                     	ds	1
   616  0065                     ??_main:	
   617                           
   618                           ; 1 bytes @ 0x45
   619  0065                     	ds	1
   620                           
   621                           	psect	maintext
   622  0328                     __pmaintext:	
   623 ;;
   624 ;;Main: autosize = 0, tempsize = 1, incstack = 0, save=0
   625 ;;
   626 ;; *************** function _main *****************
   627 ;; Defined at:
   628 ;;		line 14 in file "capture.c"
   629 ;; Parameters:    Size  Location     Type
   630 ;;		None
   631 ;; Auto vars:     Size  Location     Type
   632 ;;  x               2   10[BANK1 ] unsigned int 
   633 ;;  t               2    8[BANK1 ] unsigned int 
   634 ;; Return value:  Size  Location     Type
   635 ;;                  1    wreg      void 
   636 ;; Registers used:
   637 ;;		wreg, fsr0l, fsr0h, status,2, status,0, btemp+1, pclath, cstack
   638 ;; Tracked objects:
   639 ;;		On entry : B00/0
   640 ;;		On exit  : 0/0
   641 ;;		Unchanged: 0/0
   642 ;; Data sizes:     COMMON   BANK0   BANK1   BANK3   BANK2
   643 ;;      Params:         0       0       0       0       0
   644 ;;      Locals:         0       0      12       0       0
   645 ;;      Temps:          0       1       0       0       0
   646 ;;      Totals:         0       1      12       0       0
   647 ;;Total ram usage:       13 bytes
   648 ;; Hardware stack levels required when called:    4
   649 ;; This function calls:
   650 ;;		_Capture_Init
   651 ;;		_Lcd_Init
   652 ;;		_Lcd_Set_Cursor
   653 ;;		_Lcd_Write_Char
   654 ;;		_Lcd_Write_String
   655 ;;		_Timer1_Init
   656 ;;		___fldiv
   657 ;;		___flmul
   658 ;;		___fltol
   659 ;;		___lwdiv
   660 ;;		___lwmod
   661 ;;		___xxtofl
   662 ;; This function is called by:
   663 ;;		Startup code after reset
   664 ;; This function uses a non-reentrant model
   665 ;;
   666                           
   667                           
   668                           ;psect for function _main
   669  0328                     _main:	
   670                           
   671                           ;capture.c: 18:     unsigned int t = 0;
   672                           
   673                           ;incstack = 0
   674                           ; Regs used in _main: [wreg-fsr0h+status,2+status,0+btemp+1+pclath+cstack]
   675  0328  1683               	bsf	3,5	;RP0=1, select bank1
   676  0329  1303               	bcf	3,6	;RP1=0, select bank1
   677  032A  01A8               	clrf	main@t^(0+128)
   678  032B  01A9               	clrf	(main@t+1)^(0+128)
   679                           
   680                           ;capture.c: 20:     TRISD = 0x00;
   681  032C  0188               	clrf	8	;volatile
   682                           
   683                           ;capture.c: 22:     Timer1_Init();
   684  032D  120A  158A  25F1  120A  118A  	fcall	_Timer1_Init
   685                           
   686                           ;capture.c: 23:     Capture_Init();
   687  0332  120A  158A  25CE  120A  118A  	fcall	_Capture_Init
   688                           
   689                           ;capture.c: 24:     Lcd_Init();
   690  0337  120A  158A  2737  120A  118A  	fcall	_Lcd_Init
   691                           
   692                           ;capture.c: 25:     Lcd_Write_String("Gia tri: ");
   693  033C  3001               	movlw	(low ((STR_1-__stringbase)| (0+32768)))& (0+255)
   694  033D  120A  158A  2637  120A  118A  	fcall	_Lcd_Write_String
   695                           
   696                           ;capture.c: 26:     Lcd_Set_Cursor(2,1);
   697  0342  01F6               	clrf	Lcd_Set_Cursor@b
   698  0343  0AF6               	incf	Lcd_Set_Cursor@b,f
   699  0344  3002               	movlw	2
   700  0345  120A  158A  26E7  120A  118A  	fcall	_Lcd_Set_Cursor
   701                           
   702                           ;capture.c: 27:     Lcd_Write_String("Toc do: ");
   703  034A  300B               	movlw	(low ((STR_2-__stringbase)| (0+32768)))& (0+255)
   704  034B  120A  158A  2637  120A  118A  	fcall	_Lcd_Write_String
   705  0350                     l1863:	
   706                           
   707                           ;capture.c: 29:     {;capture.c: 30:         x = CCPR1;
   708  0350  1283               	bcf	3,5	;RP0=0, select bank0
   709  0351  1303               	bcf	3,6	;RP1=0, select bank0
   710  0352  0816               	movf	22,w	;volatile
   711  0353  1683               	bsf	3,5	;RP0=1, select bank1
   712  0354  1303               	bcf	3,6	;RP1=0, select bank1
   713  0355  00AB               	movwf	(main@x+1)^(0+128)
   714  0356  1283               	bcf	3,5	;RP0=0, select bank0
   715  0357  1303               	bcf	3,6	;RP1=0, select bank0
   716  0358  0815               	movf	21,w	;volatile
   717  0359  1683               	bsf	3,5	;RP0=1, select bank1
   718  035A  1303               	bcf	3,6	;RP1=0, select bank1
   719  035B  00AA               	movwf	main@x^(0+128)
   720                           
   721                           ;capture.c: 31:         t = 60000000/(x*0.2f*8*24);
   722  035C  082A               	movf	main@x^(0+128),w
   723  035D  00F2               	movwf	___xxtofl@val
   724  035E  082B               	movf	(main@x+1)^(0+128),w
   725  035F  00F3               	movwf	___xxtofl@val+1
   726  0360  01F4               	clrf	___xxtofl@val+2
   727  0361  01F5               	clrf	___xxtofl@val+3
   728  0362  3000               	movlw	0
   729  0363  120A  118A  2711  120A  118A  	fcall	___xxtofl
   730  0368  0875               	movf	?___xxtofl+3,w
   731  0369  1283               	bcf	3,5	;RP0=0, select bank0
   732  036A  1303               	bcf	3,6	;RP1=0, select bank0
   733  036B  00AD               	movwf	___flmul@a+3
   734  036C  0874               	movf	?___xxtofl+2,w
   735  036D  00AC               	movwf	___flmul@a+2
   736  036E  0873               	movf	?___xxtofl+1,w
   737  036F  00AB               	movwf	___flmul@a+1
   738  0370  0872               	movf	?___xxtofl,w
   739  0371  00AA               	movwf	___flmul@a
   740  0372  303E               	movlw	62
   741  0373  00A9               	movwf	___flmul@b+3
   742  0374  304C               	movlw	76
   743  0375  00A8               	movwf	___flmul@b+2
   744  0376  30CC               	movlw	204
   745  0377  00A7               	movwf	___flmul@b+1
   746  0378  30CD               	movlw	205
   747  0379  00A6               	movwf	___flmul@b
   748  037A  120A  118A  2013  120A  118A  	fcall	___flmul
   749  037F  1283               	bcf	3,5	;RP0=0, select bank0
   750  0380  1303               	bcf	3,6	;RP1=0, select bank0
   751  0381  0829               	movf	?___flmul+3,w
   752  0382  1683               	bsf	3,5	;RP0=1, select bank1
   753  0383  1303               	bcf	3,6	;RP1=0, select bank1
   754  0384  00A3               	movwf	(_main$736+3)^(0+128)
   755  0385  1283               	bcf	3,5	;RP0=0, select bank0
   756  0386  1303               	bcf	3,6	;RP1=0, select bank0
   757  0387  0828               	movf	?___flmul+2,w
   758  0388  1683               	bsf	3,5	;RP0=1, select bank1
   759  0389  1303               	bcf	3,6	;RP1=0, select bank1
   760  038A  00A2               	movwf	(_main$736+2)^(0+128)
   761  038B  1283               	bcf	3,5	;RP0=0, select bank0
   762  038C  1303               	bcf	3,6	;RP1=0, select bank0
   763  038D  0827               	movf	?___flmul+1,w
   764  038E  1683               	bsf	3,5	;RP0=1, select bank1
   765  038F  1303               	bcf	3,6	;RP1=0, select bank1
   766  0390  00A1               	movwf	(_main$736+1)^(0+128)
   767  0391  1283               	bcf	3,5	;RP0=0, select bank0
   768  0392  1303               	bcf	3,6	;RP1=0, select bank0
   769  0393  0826               	movf	?___flmul,w
   770  0394  1683               	bsf	3,5	;RP0=1, select bank1
   771  0395  1303               	bcf	3,6	;RP1=0, select bank1
   772  0396  00A0               	movwf	_main$736^(0+128)
   773                           
   774                           ;capture.c: 31:         t = 60000000/(x*0.2f*8*24);
   775  0397  0823               	movf	(_main$736+3)^(0+128),w
   776  0398  1283               	bcf	3,5	;RP0=0, select bank0
   777  0399  1303               	bcf	3,6	;RP1=0, select bank0
   778  039A  00AD               	movwf	___flmul@a+3
   779  039B  1683               	bsf	3,5	;RP0=1, select bank1
   780  039C  1303               	bcf	3,6	;RP1=0, select bank1
   781  039D  0822               	movf	(_main$736+2)^(0+128),w
   782  039E  1283               	bcf	3,5	;RP0=0, select bank0
   783  039F  1303               	bcf	3,6	;RP1=0, select bank0
   784  03A0  00AC               	movwf	___flmul@a+2
   785  03A1  1683               	bsf	3,5	;RP0=1, select bank1
   786  03A2  1303               	bcf	3,6	;RP1=0, select bank1
   787  03A3  0821               	movf	(_main$736+1)^(0+128),w
   788  03A4  1283               	bcf	3,5	;RP0=0, select bank0
   789  03A5  1303               	bcf	3,6	;RP1=0, select bank0
   790  03A6  00AB               	movwf	___flmul@a+1
   791  03A7  1683               	bsf	3,5	;RP0=1, select bank1
   792  03A8  1303               	bcf	3,6	;RP1=0, select bank1
   793  03A9  0820               	movf	_main$736^(0+128),w
   794  03AA  1283               	bcf	3,5	;RP0=0, select bank0
   795  03AB  1303               	bcf	3,6	;RP1=0, select bank0
   796  03AC  00AA               	movwf	___flmul@a
   797  03AD  3041               	movlw	65
   798  03AE  00A9               	movwf	___flmul@b+3
   799  03AF  3000               	movlw	0
   800  03B0  00A8               	movwf	___flmul@b+2
   801  03B1  3000               	movlw	0
   802  03B2  00A7               	movwf	___flmul@b+1
   803  03B3  3000               	movlw	0
   804  03B4  00A6               	movwf	___flmul@b
   805  03B5  120A  118A  2013  120A  118A  	fcall	___flmul
   806  03BA  1283               	bcf	3,5	;RP0=0, select bank0
   807  03BB  1303               	bcf	3,6	;RP1=0, select bank0
   808  03BC  0829               	movf	?___flmul+3,w
   809  03BD  1683               	bsf	3,5	;RP0=1, select bank1
   810  03BE  1303               	bcf	3,6	;RP1=0, select bank1
   811  03BF  00A7               	movwf	(_main$737+3)^(0+128)
   812  03C0  1283               	bcf	3,5	;RP0=0, select bank0
   813  03C1  1303               	bcf	3,6	;RP1=0, select bank0
   814  03C2  0828               	movf	?___flmul+2,w
   815  03C3  1683               	bsf	3,5	;RP0=1, select bank1
   816  03C4  1303               	bcf	3,6	;RP1=0, select bank1
   817  03C5  00A6               	movwf	(_main$737+2)^(0+128)
   818  03C6  1283               	bcf	3,5	;RP0=0, select bank0
   819  03C7  1303               	bcf	3,6	;RP1=0, select bank0
   820  03C8  0827               	movf	?___flmul+1,w
   821  03C9  1683               	bsf	3,5	;RP0=1, select bank1
   822  03CA  1303               	bcf	3,6	;RP1=0, select bank1
   823  03CB  00A5               	movwf	(_main$737+1)^(0+128)
   824  03CC  1283               	bcf	3,5	;RP0=0, select bank0
   825  03CD  1303               	bcf	3,6	;RP1=0, select bank0
   826  03CE  0826               	movf	?___flmul,w
   827  03CF  1683               	bsf	3,5	;RP0=1, select bank1
   828  03D0  1303               	bcf	3,6	;RP1=0, select bank1
   829  03D1  00A4               	movwf	_main$737^(0+128)
   830                           
   831                           ;capture.c: 31:         t = 60000000/(x*0.2f*8*24);
   832  03D2  304C               	movlw	76
   833  03D3  1283               	bcf	3,5	;RP0=0, select bank0
   834  03D4  1303               	bcf	3,6	;RP1=0, select bank0
   835  03D5  00C7               	movwf	___fldiv@b+3
   836  03D6  3064               	movlw	100
   837  03D7  00C6               	movwf	___fldiv@b+2
   838  03D8  30E1               	movlw	225
   839  03D9  00C5               	movwf	___fldiv@b+1
   840  03DA  30C0               	movlw	192
   841  03DB  00C4               	movwf	___fldiv@b
   842  03DC  1683               	bsf	3,5	;RP0=1, select bank1
   843  03DD  1303               	bcf	3,6	;RP1=0, select bank1
   844  03DE  0827               	movf	(_main$737+3)^(0+128),w
   845  03DF  1283               	bcf	3,5	;RP0=0, select bank0
   846  03E0  1303               	bcf	3,6	;RP1=0, select bank0
   847  03E1  00AD               	movwf	___flmul@a+3
   848  03E2  1683               	bsf	3,5	;RP0=1, select bank1
   849  03E3  1303               	bcf	3,6	;RP1=0, select bank1
   850  03E4  0826               	movf	(_main$737+2)^(0+128),w
   851  03E5  1283               	bcf	3,5	;RP0=0, select bank0
   852  03E6  1303               	bcf	3,6	;RP1=0, select bank0
   853  03E7  00AC               	movwf	___flmul@a+2
   854  03E8  1683               	bsf	3,5	;RP0=1, select bank1
   855  03E9  1303               	bcf	3,6	;RP1=0, select bank1
   856  03EA  0825               	movf	(_main$737+1)^(0+128),w
   857  03EB  1283               	bcf	3,5	;RP0=0, select bank0
   858  03EC  1303               	bcf	3,6	;RP1=0, select bank0
   859  03ED  00AB               	movwf	___flmul@a+1
   860  03EE  1683               	bsf	3,5	;RP0=1, select bank1
   861  03EF  1303               	bcf	3,6	;RP1=0, select bank1
   862  03F0  0824               	movf	_main$737^(0+128),w
   863  03F1  1283               	bcf	3,5	;RP0=0, select bank0
   864  03F2  1303               	bcf	3,6	;RP1=0, select bank0
   865  03F3  00AA               	movwf	___flmul@a
   866  03F4  3041               	movlw	65
   867  03F5  00A9               	movwf	___flmul@b+3
   868  03F6  30C0               	movlw	192
   869  03F7  00A8               	movwf	___flmul@b+2
   870  03F8  3000               	movlw	0
   871  03F9  00A7               	movwf	___flmul@b+1
   872  03FA  3000               	movlw	0
   873  03FB  00A6               	movwf	___flmul@b
   874  03FC  120A  118A  2013  120A  118A  	fcall	___flmul
   875  0401  1283               	bcf	3,5	;RP0=0, select bank0
   876  0402  1303               	bcf	3,6	;RP1=0, select bank0
   877  0403  0829               	movf	?___flmul+3,w
   878  0404  00C3               	movwf	___fldiv@a+3
   879  0405  0828               	movf	?___flmul+2,w
   880  0406  00C2               	movwf	___fldiv@a+2
   881  0407  0827               	movf	?___flmul+1,w
   882  0408  00C1               	movwf	___fldiv@a+1
   883  0409  0826               	movf	?___flmul,w
   884  040A  00C0               	movwf	___fldiv@a
   885  040B  120A  118A  256E  120A  118A  	fcall	___fldiv
   886  0410  1283               	bcf	3,5	;RP0=0, select bank0
   887  0411  1303               	bcf	3,6	;RP1=0, select bank0
   888  0412  0843               	movf	?___fldiv+3,w
   889  0413  00DD               	movwf	___fltol@f1+3
   890  0414  0842               	movf	?___fldiv+2,w
   891  0415  00DC               	movwf	___fltol@f1+2
   892  0416  0841               	movf	?___fldiv+1,w
   893  0417  00DB               	movwf	___fltol@f1+1
   894  0418  0840               	movf	?___fldiv,w
   895  0419  00DA               	movwf	___fltol@f1
   896  041A  120A  158A  2793  120A  118A  	fcall	___fltol
   897  041F  1283               	bcf	3,5	;RP0=0, select bank0
   898  0420  1303               	bcf	3,6	;RP1=0, select bank0
   899  0421  085B               	movf	?___fltol+1,w
   900  0422  1683               	bsf	3,5	;RP0=1, select bank1
   901  0423  1303               	bcf	3,6	;RP1=0, select bank1
   902  0424  00A9               	movwf	(main@t+1)^(0+128)
   903  0425  1283               	bcf	3,5	;RP0=0, select bank0
   904  0426  1303               	bcf	3,6	;RP1=0, select bank0
   905  0427  085A               	movf	?___fltol,w
   906  0428  1683               	bsf	3,5	;RP0=1, select bank1
   907  0429  1303               	bcf	3,6	;RP1=0, select bank1
   908  042A  00A8               	movwf	main@t^(0+128)
   909                           
   910                           ;capture.c: 32:       Lcd_Set_Cursor(1,10);
   911  042B  300A               	movlw	10
   912  042C  1283               	bcf	3,5	;RP0=0, select bank0
   913  042D  1303               	bcf	3,6	;RP1=0, select bank0
   914  042E  00E5               	movwf	??_main
   915  042F  0865               	movf	??_main,w
   916  0430  00F6               	movwf	Lcd_Set_Cursor@b
   917  0431  3001               	movlw	1
   918  0432  120A  158A  26E7  120A  118A  	fcall	_Lcd_Set_Cursor
   919                           
   920                           ;capture.c: 33:       Lcd_Write_Char(x/10000+48);
   921  0437  3010               	movlw	16
   922  0438  00F8               	movwf	___lwdiv@divisor
   923  0439  3027               	movlw	39
   924  043A  00F9               	movwf	___lwdiv@divisor+1
   925  043B  1683               	bsf	3,5	;RP0=1, select bank1
   926  043C  1303               	bcf	3,6	;RP1=0, select bank1
   927  043D  082B               	movf	(main@x+1)^(0+128),w
   928  043E  00FB               	movwf	___lwdiv@dividend+1
   929  043F  082A               	movf	main@x^(0+128),w
   930  0440  00FA               	movwf	___lwdiv@dividend
   931  0441  120A  118A  27B6  120A  118A  	fcall	___lwdiv
   932  0446  0878               	movf	?___lwdiv,w
   933  0447  3E30               	addlw	48
   934  0448  120A  158A  26AE  120A  118A  	fcall	_Lcd_Write_Char
   935                           
   936                           ;capture.c: 34:       Lcd_Write_Char((x%10000)/1000+48);
   937  044D  30E8               	movlw	232
   938  044E  00F8               	movwf	___lwdiv@divisor
   939  044F  3003               	movlw	3
   940  0450  00F9               	movwf	___lwdiv@divisor+1
   941  0451  1683               	bsf	3,5	;RP0=1, select bank1
   942  0452  1303               	bcf	3,6	;RP1=0, select bank1
   943  0453  082B               	movf	(main@x+1)^(0+128),w
   944  0454  00F5               	movwf	___lwmod@dividend+1
   945  0455  082A               	movf	main@x^(0+128),w
   946  0456  00F4               	movwf	___lwmod@dividend
   947  0457  3010               	movlw	16
   948  0458  00F2               	movwf	___lwmod@divisor
   949  0459  3027               	movlw	39
   950  045A  00F3               	movwf	___lwmod@divisor+1
   951  045B  120A  158A  267C  120A  118A  	fcall	___lwmod
   952  0460  0873               	movf	?___lwmod+1,w
   953  0461  00FB               	movwf	___lwdiv@dividend+1
   954  0462  0872               	movf	?___lwmod,w
   955  0463  00FA               	movwf	___lwdiv@dividend
   956  0464  120A  118A  27B6  120A  118A  	fcall	___lwdiv
   957  0469  0878               	movf	?___lwdiv,w
   958  046A  3E30               	addlw	48
   959  046B  120A  158A  26AE  120A  118A  	fcall	_Lcd_Write_Char
   960                           
   961                           ;capture.c: 35:       Lcd_Write_Char((x%1000)/100+48);
   962  0470  3064               	movlw	100
   963  0471  00F8               	movwf	___lwdiv@divisor
   964  0472  3000               	movlw	0
   965  0473  00F9               	movwf	___lwdiv@divisor+1
   966  0474  1683               	bsf	3,5	;RP0=1, select bank1
   967  0475  1303               	bcf	3,6	;RP1=0, select bank1
   968  0476  082B               	movf	(main@x+1)^(0+128),w
   969  0477  00F5               	movwf	___lwmod@dividend+1
   970  0478  082A               	movf	main@x^(0+128),w
   971  0479  00F4               	movwf	___lwmod@dividend
   972  047A  30E8               	movlw	232
   973  047B  00F2               	movwf	___lwmod@divisor
   974  047C  3003               	movlw	3
   975  047D  00F3               	movwf	___lwmod@divisor+1
   976  047E  120A  158A  267C  120A  118A  	fcall	___lwmod
   977  0483  0873               	movf	?___lwmod+1,w
   978  0484  00FB               	movwf	___lwdiv@dividend+1
   979  0485  0872               	movf	?___lwmod,w
   980  0486  00FA               	movwf	___lwdiv@dividend
   981  0487  120A  118A  27B6  120A  118A  	fcall	___lwdiv
   982  048C  0878               	movf	?___lwdiv,w
   983  048D  3E30               	addlw	48
   984  048E  120A  158A  26AE  120A  118A  	fcall	_Lcd_Write_Char
   985                           
   986                           ;capture.c: 36:       Lcd_Write_Char((x%100)/10+48);
   987  0493  300A               	movlw	10
   988  0494  00F8               	movwf	___lwdiv@divisor
   989  0495  3000               	movlw	0
   990  0496  00F9               	movwf	___lwdiv@divisor+1
   991  0497  1683               	bsf	3,5	;RP0=1, select bank1
   992  0498  1303               	bcf	3,6	;RP1=0, select bank1
   993  0499  082B               	movf	(main@x+1)^(0+128),w
   994  049A  00F5               	movwf	___lwmod@dividend+1
   995  049B  082A               	movf	main@x^(0+128),w
   996  049C  00F4               	movwf	___lwmod@dividend
   997  049D  3064               	movlw	100
   998  049E  00F2               	movwf	___lwmod@divisor
   999  049F  3000               	movlw	0
  1000  04A0  00F3               	movwf	___lwmod@divisor+1
  1001  04A1  120A  158A  267C  120A  118A  	fcall	___lwmod
  1002  04A6  0873               	movf	?___lwmod+1,w
  1003  04A7  00FB               	movwf	___lwdiv@dividend+1
  1004  04A8  0872               	movf	?___lwmod,w
  1005  04A9  00FA               	movwf	___lwdiv@dividend
  1006  04AA  120A  118A  27B6  120A  118A  	fcall	___lwdiv
  1007  04AF  0878               	movf	?___lwdiv,w
  1008  04B0  3E30               	addlw	48
  1009  04B1  120A  158A  26AE  120A  118A  	fcall	_Lcd_Write_Char
  1010                           
  1011                           ;capture.c: 37:       Lcd_Write_Char(x%10+48);
  1012  04B6  300A               	movlw	10
  1013  04B7  00F2               	movwf	___lwmod@divisor
  1014  04B8  3000               	movlw	0
  1015  04B9  00F3               	movwf	___lwmod@divisor+1
  1016  04BA  1683               	bsf	3,5	;RP0=1, select bank1
  1017  04BB  1303               	bcf	3,6	;RP1=0, select bank1
  1018  04BC  082B               	movf	(main@x+1)^(0+128),w
  1019  04BD  00F5               	movwf	___lwmod@dividend+1
  1020  04BE  082A               	movf	main@x^(0+128),w
  1021  04BF  00F4               	movwf	___lwmod@dividend
  1022  04C0  120A  158A  267C  120A  118A  	fcall	___lwmod
  1023  04C5  0872               	movf	?___lwmod,w
  1024  04C6  3E30               	addlw	48
  1025  04C7  120A  158A  26AE  120A  118A  	fcall	_Lcd_Write_Char
  1026                           
  1027                           ;capture.c: 39:       Lcd_Set_Cursor(2,9);
  1028  04CC  3009               	movlw	9
  1029  04CD  1283               	bcf	3,5	;RP0=0, select bank0
  1030  04CE  1303               	bcf	3,6	;RP1=0, select bank0
  1031  04CF  00E5               	movwf	??_main
  1032  04D0  0865               	movf	??_main,w
  1033  04D1  00F6               	movwf	Lcd_Set_Cursor@b
  1034  04D2  3002               	movlw	2
  1035  04D3  120A  158A  26E7  120A  118A  	fcall	_Lcd_Set_Cursor
  1036                           
  1037                           ;capture.c: 40:       Lcd_Write_Char(t/10000+48);
  1038  04D8  3010               	movlw	16
  1039  04D9  00F8               	movwf	___lwdiv@divisor
  1040  04DA  3027               	movlw	39
  1041  04DB  00F9               	movwf	___lwdiv@divisor+1
  1042  04DC  1683               	bsf	3,5	;RP0=1, select bank1
  1043  04DD  1303               	bcf	3,6	;RP1=0, select bank1
  1044  04DE  0829               	movf	(main@t+1)^(0+128),w
  1045  04DF  00FB               	movwf	___lwdiv@dividend+1
  1046  04E0  0828               	movf	main@t^(0+128),w
  1047  04E1  00FA               	movwf	___lwdiv@dividend
  1048  04E2  120A  118A  27B6  120A  118A  	fcall	___lwdiv
  1049  04E7  0878               	movf	?___lwdiv,w
  1050  04E8  3E30               	addlw	48
  1051  04E9  120A  158A  26AE  120A  118A  	fcall	_Lcd_Write_Char
  1052                           
  1053                           ;capture.c: 41:       Lcd_Write_Char((t%10000)/1000+48);
  1054  04EE  30E8               	movlw	232
  1055  04EF  00F8               	movwf	___lwdiv@divisor
  1056  04F0  3003               	movlw	3
  1057  04F1  00F9               	movwf	___lwdiv@divisor+1
  1058  04F2  1683               	bsf	3,5	;RP0=1, select bank1
  1059  04F3  1303               	bcf	3,6	;RP1=0, select bank1
  1060  04F4  0829               	movf	(main@t+1)^(0+128),w
  1061  04F5  00F5               	movwf	___lwmod@dividend+1
  1062  04F6  0828               	movf	main@t^(0+128),w
  1063  04F7  00F4               	movwf	___lwmod@dividend
  1064  04F8  3010               	movlw	16
  1065  04F9  00F2               	movwf	___lwmod@divisor
  1066  04FA  3027               	movlw	39
  1067  04FB  00F3               	movwf	___lwmod@divisor+1
  1068  04FC  120A  158A  267C  120A  118A  	fcall	___lwmod
  1069  0501  0873               	movf	?___lwmod+1,w
  1070  0502  00FB               	movwf	___lwdiv@dividend+1
  1071  0503  0872               	movf	?___lwmod,w
  1072  0504  00FA               	movwf	___lwdiv@dividend
  1073  0505  120A  118A  27B6  120A  118A  	fcall	___lwdiv
  1074  050A  0878               	movf	?___lwdiv,w
  1075  050B  3E30               	addlw	48
  1076  050C  120A  158A  26AE  120A  118A  	fcall	_Lcd_Write_Char
  1077                           
  1078                           ;capture.c: 42:       Lcd_Write_Char((t%1000)/100+48);
  1079  0511  3064               	movlw	100
  1080  0512  00F8               	movwf	___lwdiv@divisor
  1081  0513  3000               	movlw	0
  1082  0514  00F9               	movwf	___lwdiv@divisor+1
  1083  0515  1683               	bsf	3,5	;RP0=1, select bank1
  1084  0516  1303               	bcf	3,6	;RP1=0, select bank1
  1085  0517  0829               	movf	(main@t+1)^(0+128),w
  1086  0518  00F5               	movwf	___lwmod@dividend+1
  1087  0519  0828               	movf	main@t^(0+128),w
  1088  051A  00F4               	movwf	___lwmod@dividend
  1089  051B  30E8               	movlw	232
  1090  051C  00F2               	movwf	___lwmod@divisor
  1091  051D  3003               	movlw	3
  1092  051E  00F3               	movwf	___lwmod@divisor+1
  1093  051F  120A  158A  267C  120A  118A  	fcall	___lwmod
  1094  0524  0873               	movf	?___lwmod+1,w
  1095  0525  00FB               	movwf	___lwdiv@dividend+1
  1096  0526  0872               	movf	?___lwmod,w
  1097  0527  00FA               	movwf	___lwdiv@dividend
  1098  0528  120A  118A  27B6  120A  118A  	fcall	___lwdiv
  1099  052D  0878               	movf	?___lwdiv,w
  1100  052E  3E30               	addlw	48
  1101  052F  120A  158A  26AE  120A  118A  	fcall	_Lcd_Write_Char
  1102                           
  1103                           ;capture.c: 43:       Lcd_Write_Char((t%100)/10+48);
  1104  0534  300A               	movlw	10
  1105  0535  00F8               	movwf	___lwdiv@divisor
  1106  0536  3000               	movlw	0
  1107  0537  00F9               	movwf	___lwdiv@divisor+1
  1108  0538  1683               	bsf	3,5	;RP0=1, select bank1
  1109  0539  1303               	bcf	3,6	;RP1=0, select bank1
  1110  053A  0829               	movf	(main@t+1)^(0+128),w
  1111  053B  00F5               	movwf	___lwmod@dividend+1
  1112  053C  0828               	movf	main@t^(0+128),w
  1113  053D  00F4               	movwf	___lwmod@dividend
  1114  053E  3064               	movlw	100
  1115  053F  00F2               	movwf	___lwmod@divisor
  1116  0540  3000               	movlw	0
  1117  0541  00F3               	movwf	___lwmod@divisor+1
  1118  0542  120A  158A  267C  120A  118A  	fcall	___lwmod
  1119  0547  0873               	movf	?___lwmod+1,w
  1120  0548  00FB               	movwf	___lwdiv@dividend+1
  1121  0549  0872               	movf	?___lwmod,w
  1122  054A  00FA               	movwf	___lwdiv@dividend
  1123  054B  120A  118A  27B6  120A  118A  	fcall	___lwdiv
  1124  0550  0878               	movf	?___lwdiv,w
  1125  0551  3E30               	addlw	48
  1126  0552  120A  158A  26AE  120A  118A  	fcall	_Lcd_Write_Char
  1127                           
  1128                           ;capture.c: 44:       Lcd_Write_Char(t%10+48);
  1129  0557  300A               	movlw	10
  1130  0558  00F2               	movwf	___lwmod@divisor
  1131  0559  3000               	movlw	0
  1132  055A  00F3               	movwf	___lwmod@divisor+1
  1133  055B  1683               	bsf	3,5	;RP0=1, select bank1
  1134  055C  1303               	bcf	3,6	;RP1=0, select bank1
  1135  055D  0829               	movf	(main@t+1)^(0+128),w
  1136  055E  00F5               	movwf	___lwmod@dividend+1
  1137  055F  0828               	movf	main@t^(0+128),w
  1138  0560  00F4               	movwf	___lwmod@dividend
  1139  0561  120A  158A  267C  120A  118A  	fcall	___lwmod
  1140  0566  0872               	movf	?___lwmod,w
  1141  0567  3E30               	addlw	48
  1142  0568  120A  158A  26AE  120A  118A  	fcall	_Lcd_Write_Char
  1143  056D  2B50               	goto	l1863
  1144  056E                     __end_of_main:	
  1145                           
  1146                           	psect	text1
  1147  0711                     __ptext1:	
  1148 ;; *************** function ___xxtofl *****************
  1149 ;; Defined at:
  1150 ;;		line 10 in file "D:\Mplab X\xc8\pic\sources\c90\common\xxtofl.c"
  1151 ;; Parameters:    Size  Location     Type
  1152 ;;  sign            1    wreg     unsigned char 
  1153 ;;  val             4    2[COMMON] long 
  1154 ;; Auto vars:     Size  Location     Type
  1155 ;;  sign            1    0[BANK0 ] unsigned char 
  1156 ;;  arg             4    2[BANK0 ] unsigned long 
  1157 ;;  exp             1    1[BANK0 ] unsigned char 
  1158 ;; Return value:  Size  Location     Type
  1159 ;;                  4    2[COMMON] unsigned char 
  1160 ;; Registers used:
  1161 ;;		wreg, status,2, status,0
  1162 ;; Tracked objects:
  1163 ;;		On entry : 0/0
  1164 ;;		On exit  : 0/0
  1165 ;;		Unchanged: 0/0
  1166 ;; Data sizes:     COMMON   BANK0   BANK1   BANK3   BANK2
  1167 ;;      Params:         4       0       0       0       0
  1168 ;;      Locals:         0       6       0       0       0
  1169 ;;      Temps:          4       0       0       0       0
  1170 ;;      Totals:         8       6       0       0       0
  1171 ;;Total ram usage:       14 bytes
  1172 ;; Hardware stack levels used:    1
  1173 ;; Hardware stack levels required when called:    1
  1174 ;; This function calls:
  1175 ;;		Nothing
  1176 ;; This function is called by:
  1177 ;;		_main
  1178 ;; This function uses a non-reentrant model
  1179 ;;
  1180                           
  1181                           
  1182                           ;psect for function ___xxtofl
  1183  0711                     ___xxtofl:	
  1184                           
  1185                           ;incstack = 0
  1186                           ; Regs used in ___xxtofl: [wreg+status,2+status,0]
  1187                           ;___xxtofl@sign stored from wreg
  1188  0711  1283               	bcf	3,5	;RP0=0, select bank0
  1189  0712  1303               	bcf	3,6	;RP1=0, select bank0
  1190  0713  00A0               	movwf	___xxtofl@sign
  1191  0714  0820               	movf	___xxtofl@sign,w
  1192  0715  1D03               	btfss	3,2
  1193  0716  1FF5               	btfss	___xxtofl@val+3,7
  1194  0717  2F28               	goto	l1811
  1195  0718  0972               	comf	___xxtofl@val,w
  1196  0719  00A2               	movwf	___xxtofl@arg
  1197  071A  0973               	comf	___xxtofl@val+1,w
  1198  071B  00A3               	movwf	___xxtofl@arg+1
  1199  071C  0974               	comf	___xxtofl@val+2,w
  1200  071D  00A4               	movwf	___xxtofl@arg+2
  1201  071E  0975               	comf	___xxtofl@val+3,w
  1202  071F  00A5               	movwf	___xxtofl@arg+3
  1203  0720  0AA2               	incf	___xxtofl@arg,f
  1204  0721  1903               	skipnz
  1205  0722  0AA3               	incf	___xxtofl@arg+1,f
  1206  0723  1903               	skipnz
  1207  0724  0AA4               	incf	___xxtofl@arg+2,f
  1208  0725  1903               	skipnz
  1209  0726  0AA5               	incf	___xxtofl@arg+3,f
  1210  0727  2F30               	goto	l638
  1211  0728                     l1811:	
  1212  0728  0875               	movf	___xxtofl@val+3,w
  1213  0729  00A5               	movwf	___xxtofl@arg+3
  1214  072A  0874               	movf	___xxtofl@val+2,w
  1215  072B  00A4               	movwf	___xxtofl@arg+2
  1216  072C  0873               	movf	___xxtofl@val+1,w
  1217  072D  00A3               	movwf	___xxtofl@arg+1
  1218  072E  0872               	movf	___xxtofl@val,w
  1219  072F  00A2               	movwf	___xxtofl@arg
  1220  0730                     l638:	
  1221  0730  0875               	movf	___xxtofl@val+3,w
  1222  0731  0474               	iorwf	___xxtofl@val+2,w
  1223  0732  0473               	iorwf	___xxtofl@val+1,w
  1224  0733  0472               	iorwf	___xxtofl@val,w
  1225  0734  1D03               	skipz
  1226  0735  2F3F               	goto	l1817
  1227  0736  3000               	movlw	0
  1228  0737  00F5               	movwf	?___xxtofl+3
  1229  0738  3000               	movlw	0
  1230  0739  00F4               	movwf	?___xxtofl+2
  1231  073A  3000               	movlw	0
  1232  073B  00F3               	movwf	?___xxtofl+1
  1233  073C  3000               	movlw	0
  1234  073D  00F2               	movwf	?___xxtofl
  1235  073E  0008               	return
  1236  073F                     l1817:	
  1237  073F  3096               	movlw	150
  1238  0740  00F6               	movwf	??___xxtofl
  1239  0741  0876               	movf	??___xxtofl,w
  1240  0742  00A1               	movwf	___xxtofl@exp
  1241  0743                     l1821:	
  1242  0743  30FE               	movlw	254
  1243  0744  0525               	andwf	___xxtofl@arg+3,w
  1244  0745  1903               	btfsc	3,2
  1245  0746  2F70               	goto	l644
  1246  0747  3001               	movlw	1
  1247  0748  00F6               	movwf	??___xxtofl
  1248  0749  0876               	movf	??___xxtofl,w
  1249  074A  07A1               	addwf	___xxtofl@exp,f
  1250  074B  3001               	movlw	1
  1251  074C                     u2245:	
  1252  074C  1003               	clrc
  1253  074D  0CA5               	rrf	___xxtofl@arg+3,f
  1254  074E  0CA4               	rrf	___xxtofl@arg+2,f
  1255  074F  0CA3               	rrf	___xxtofl@arg+1,f
  1256  0750  0CA2               	rrf	___xxtofl@arg,f
  1257  0751  3EFF               	addlw	-1
  1258  0752  1D03               	skipz
  1259  0753  2F4C               	goto	u2245
  1260  0754  2F43               	goto	l1821
  1261  0755                     l1823:	
  1262  0755  3001               	movlw	1
  1263  0756  00F6               	movwf	??___xxtofl
  1264  0757  0876               	movf	??___xxtofl,w
  1265  0758  07A1               	addwf	___xxtofl@exp,f
  1266  0759  3001               	movlw	1
  1267  075A  07A2               	addwf	___xxtofl@arg,f
  1268  075B  3000               	movlw	0
  1269  075C  1803               	skipnc
  1270  075D  3001               	movlw	1
  1271  075E  07A3               	addwf	___xxtofl@arg+1,f
  1272  075F  3000               	movlw	0
  1273  0760  1803               	skipnc
  1274  0761  3001               	movlw	1
  1275  0762  07A4               	addwf	___xxtofl@arg+2,f
  1276  0763  3000               	movlw	0
  1277  0764  1803               	skipnc
  1278  0765  3001               	movlw	1
  1279  0766  07A5               	addwf	___xxtofl@arg+3,f
  1280  0767  3001               	movlw	1
  1281  0768                     u2265:	
  1282  0768  1003               	clrc
  1283  0769  0CA5               	rrf	___xxtofl@arg+3,f
  1284  076A  0CA4               	rrf	___xxtofl@arg+2,f
  1285  076B  0CA3               	rrf	___xxtofl@arg+1,f
  1286  076C  0CA2               	rrf	___xxtofl@arg,f
  1287  076D  3EFF               	addlw	-1
  1288  076E  1D03               	skipz
  1289  076F  2F68               	goto	u2265
  1290  0770                     l644:	
  1291  0770  30FF               	movlw	255
  1292  0771  0525               	andwf	___xxtofl@arg+3,w
  1293  0772  1903               	btfsc	3,2
  1294  0773  2F84               	goto	l1831
  1295  0774  2F55               	goto	l1823
  1296  0775                     l1833:	
  1297  0775  3002               	movlw	2
  1298  0776  0221               	subwf	___xxtofl@exp,w
  1299  0777  1C03               	btfss	3,0
  1300  0778  2F86               	goto	l651
  1301  0779  3001               	movlw	1
  1302  077A  02A1               	subwf	___xxtofl@exp,f
  1303  077B  3001               	movlw	1
  1304  077C  00F6               	movwf	??___xxtofl
  1305  077D                     u2285:	
  1306  077D  1003               	clrc
  1307  077E  0DA2               	rlf	___xxtofl@arg,f
  1308  077F  0DA3               	rlf	___xxtofl@arg+1,f
  1309  0780  0DA4               	rlf	___xxtofl@arg+2,f
  1310  0781  0DA5               	rlf	___xxtofl@arg+3,f
  1311  0782  0BF6               	decfsz	??___xxtofl,f
  1312  0783  2F7D               	goto	u2285
  1313  0784                     l1831:	
  1314  0784  1FA4               	btfss	___xxtofl@arg+2,7
  1315  0785  2F75               	goto	l1833
  1316  0786                     l651:	
  1317  0786  1821               	btfsc	___xxtofl@exp,0
  1318  0787  2F90               	goto	l652
  1319  0788  30FF               	movlw	255
  1320  0789  05A2               	andwf	___xxtofl@arg,f
  1321  078A  30FF               	movlw	255
  1322  078B  05A3               	andwf	___xxtofl@arg+1,f
  1323  078C  307F               	movlw	127
  1324  078D  05A4               	andwf	___xxtofl@arg+2,f
  1325  078E  30FF               	movlw	255
  1326  078F  05A5               	andwf	___xxtofl@arg+3,f
  1327  0790                     l652:	
  1328  0790  1003               	clrc
  1329  0791  0CA1               	rrf	___xxtofl@exp,f
  1330  0792  0821               	movf	___xxtofl@exp,w
  1331  0793  00F6               	movwf	??___xxtofl
  1332  0794  01F7               	clrf	??___xxtofl+1
  1333  0795  01F8               	clrf	??___xxtofl+2
  1334  0796  01F9               	clrf	??___xxtofl+3
  1335  0797  3018               	movlw	24
  1336  0798                     u2325:	
  1337  0798  1003               	clrc
  1338  0799  0DF6               	rlf	??___xxtofl,f
  1339  079A  0DF7               	rlf	??___xxtofl+1,f
  1340  079B  0DF8               	rlf	??___xxtofl+2,f
  1341  079C  0DF9               	rlf	??___xxtofl+3,f
  1342  079D  3EFF               	addlw	-1
  1343  079E  1D03               	skipz
  1344  079F  2F98               	goto	u2325
  1345  07A0  0876               	movf	??___xxtofl,w
  1346  07A1  04A2               	iorwf	___xxtofl@arg,f
  1347  07A2  0877               	movf	??___xxtofl+1,w
  1348  07A3  04A3               	iorwf	___xxtofl@arg+1,f
  1349  07A4  0878               	movf	??___xxtofl+2,w
  1350  07A5  04A4               	iorwf	___xxtofl@arg+2,f
  1351  07A6  0879               	movf	??___xxtofl+3,w
  1352  07A7  04A5               	iorwf	___xxtofl@arg+3,f
  1353  07A8  0820               	movf	___xxtofl@sign,w
  1354  07A9  1D03               	btfss	3,2
  1355  07AA  1FF5               	btfss	___xxtofl@val+3,7
  1356  07AB  2FAD               	goto	l1845
  1357  07AC  17A5               	bsf	___xxtofl@arg+3,7
  1358  07AD                     l1845:	
  1359  07AD  0825               	movf	___xxtofl@arg+3,w
  1360  07AE  00F5               	movwf	?___xxtofl+3
  1361  07AF  0824               	movf	___xxtofl@arg+2,w
  1362  07B0  00F4               	movwf	?___xxtofl+2
  1363  07B1  0823               	movf	___xxtofl@arg+1,w
  1364  07B2  00F3               	movwf	?___xxtofl+1
  1365  07B3  0822               	movf	___xxtofl@arg,w
  1366  07B4  00F2               	movwf	?___xxtofl
  1367  07B5  0008               	return
  1368  07B6                     __end_of___xxtofl:	
  1369                           
  1370                           	psect	text2
  1371  0E7C                     __ptext2:	
  1372 ;; *************** function ___lwmod *****************
  1373 ;; Defined at:
  1374 ;;		line 5 in file "D:\Mplab X\xc8\pic\sources\c90\common\lwmod.c"
  1375 ;; Parameters:    Size  Location     Type
  1376 ;;  divisor         2    2[COMMON] unsigned int 
  1377 ;;  dividend        2    4[COMMON] unsigned int 
  1378 ;; Auto vars:     Size  Location     Type
  1379 ;;  counter         1    7[COMMON] unsigned char 
  1380 ;; Return value:  Size  Location     Type
  1381 ;;                  2    2[COMMON] unsigned int 
  1382 ;; Registers used:
  1383 ;;		wreg, status,2, status,0
  1384 ;; Tracked objects:
  1385 ;;		On entry : 0/0
  1386 ;;		On exit  : 0/0
  1387 ;;		Unchanged: 0/0
  1388 ;; Data sizes:     COMMON   BANK0   BANK1   BANK3   BANK2
  1389 ;;      Params:         4       0       0       0       0
  1390 ;;      Locals:         1       0       0       0       0
  1391 ;;      Temps:          1       0       0       0       0
  1392 ;;      Totals:         6       0       0       0       0
  1393 ;;Total ram usage:        6 bytes
  1394 ;; Hardware stack levels used:    1
  1395 ;; Hardware stack levels required when called:    1
  1396 ;; This function calls:
  1397 ;;		Nothing
  1398 ;; This function is called by:
  1399 ;;		_main
  1400 ;; This function uses a non-reentrant model
  1401 ;;
  1402                           
  1403                           
  1404                           ;psect for function ___lwmod
  1405  0E7C                     ___lwmod:	
  1406                           
  1407                           ;incstack = 0
  1408                           ; Regs used in ___lwmod: [wreg+status,2+status,0]
  1409  0E7C  0872               	movf	___lwmod@divisor,w
  1410  0E7D  0473               	iorwf	___lwmod@divisor+1,w
  1411  0E7E  1903               	btfsc	3,2
  1412  0E7F  2EA9               	goto	l1519
  1413  0E80  01F7               	clrf	___lwmod@counter
  1414  0E81  0AF7               	incf	___lwmod@counter,f
  1415  0E82                     l1509:	
  1416  0E82  1BF3               	btfsc	___lwmod@divisor+1,7
  1417  0E83  2E90               	goto	l1511
  1418  0E84  3001               	movlw	1
  1419  0E85                     u1505:	
  1420  0E85  1003               	clrc
  1421  0E86  0DF2               	rlf	___lwmod@divisor,f
  1422  0E87  0DF3               	rlf	___lwmod@divisor+1,f
  1423  0E88  3EFF               	addlw	-1
  1424  0E89  1D03               	skipz
  1425  0E8A  2E85               	goto	u1505
  1426  0E8B  3001               	movlw	1
  1427  0E8C  00F6               	movwf	??___lwmod
  1428  0E8D  0876               	movf	??___lwmod,w
  1429  0E8E  07F7               	addwf	___lwmod@counter,f
  1430  0E8F  2E82               	goto	l1509
  1431  0E90                     l1511:	
  1432  0E90  0873               	movf	___lwmod@divisor+1,w
  1433  0E91  0275               	subwf	___lwmod@dividend+1,w
  1434  0E92  1D03               	skipz
  1435  0E93  2E96               	goto	u1525
  1436  0E94  0872               	movf	___lwmod@divisor,w
  1437  0E95  0274               	subwf	___lwmod@dividend,w
  1438  0E96                     u1525:	
  1439  0E96  1C03               	skipc
  1440  0E97  2E9E               	goto	l1515
  1441  0E98  0872               	movf	___lwmod@divisor,w
  1442  0E99  02F4               	subwf	___lwmod@dividend,f
  1443  0E9A  0873               	movf	___lwmod@divisor+1,w
  1444  0E9B  1C03               	skipc
  1445  0E9C  03F5               	decf	___lwmod@dividend+1,f
  1446  0E9D  02F5               	subwf	___lwmod@dividend+1,f
  1447  0E9E                     l1515:	
  1448  0E9E  3001               	movlw	1
  1449  0E9F                     u1535:	
  1450  0E9F  1003               	clrc
  1451  0EA0  0CF3               	rrf	___lwmod@divisor+1,f
  1452  0EA1  0CF2               	rrf	___lwmod@divisor,f
  1453  0EA2  3EFF               	addlw	-1
  1454  0EA3  1D03               	skipz
  1455  0EA4  2E9F               	goto	u1535
  1456  0EA5  3001               	movlw	1
  1457  0EA6  02F7               	subwf	___lwmod@counter,f
  1458  0EA7  1D03               	btfss	3,2
  1459  0EA8  2E90               	goto	l1511
  1460  0EA9                     l1519:	
  1461  0EA9  0875               	movf	___lwmod@dividend+1,w
  1462  0EAA  00F3               	movwf	?___lwmod+1
  1463  0EAB  0874               	movf	___lwmod@dividend,w
  1464  0EAC  00F2               	movwf	?___lwmod
  1465  0EAD  0008               	return
  1466  0EAE                     __end_of___lwmod:	
  1467                           
  1468                           	psect	text3
  1469  07B6                     __ptext3:	
  1470 ;; *************** function ___lwdiv *****************
  1471 ;; Defined at:
  1472 ;;		line 5 in file "D:\Mplab X\xc8\pic\sources\c90\common\lwdiv.c"
  1473 ;; Parameters:    Size  Location     Type
  1474 ;;  divisor         2    8[COMMON] unsigned int 
  1475 ;;  dividend        2   10[COMMON] unsigned int 
  1476 ;; Auto vars:     Size  Location     Type
  1477 ;;  quotient        2    1[BANK0 ] unsigned int 
  1478 ;;  counter         1    3[BANK0 ] unsigned char 
  1479 ;; Return value:  Size  Location     Type
  1480 ;;                  2    8[COMMON] unsigned int 
  1481 ;; Registers used:
  1482 ;;		wreg, status,2, status,0
  1483 ;; Tracked objects:
  1484 ;;		On entry : 0/0
  1485 ;;		On exit  : 0/0
  1486 ;;		Unchanged: 0/0
  1487 ;; Data sizes:     COMMON   BANK0   BANK1   BANK3   BANK2
  1488 ;;      Params:         4       0       0       0       0
  1489 ;;      Locals:         0       3       0       0       0
  1490 ;;      Temps:          0       1       0       0       0
  1491 ;;      Totals:         4       4       0       0       0
  1492 ;;Total ram usage:        8 bytes
  1493 ;; Hardware stack levels used:    1
  1494 ;; Hardware stack levels required when called:    1
  1495 ;; This function calls:
  1496 ;;		Nothing
  1497 ;; This function is called by:
  1498 ;;		_main
  1499 ;; This function uses a non-reentrant model
  1500 ;;
  1501                           
  1502                           
  1503                           ;psect for function ___lwdiv
  1504  07B6                     ___lwdiv:	
  1505                           
  1506                           ;incstack = 0
  1507                           ; Regs used in ___lwdiv: [wreg+status,2+status,0]
  1508  07B6  1283               	bcf	3,5	;RP0=0, select bank0
  1509  07B7  1303               	bcf	3,6	;RP1=0, select bank0
  1510  07B8  01A1               	clrf	___lwdiv@quotient
  1511  07B9  01A2               	clrf	___lwdiv@quotient+1
  1512  07BA  0878               	movf	___lwdiv@divisor,w
  1513  07BB  0479               	iorwf	___lwdiv@divisor+1,w
  1514  07BC  1903               	btfsc	3,2
  1515  07BD  2FEF               	goto	l1497
  1516  07BE  01A3               	clrf	___lwdiv@counter
  1517  07BF  0AA3               	incf	___lwdiv@counter,f
  1518  07C0                     l1485:	
  1519  07C0  1BF9               	btfsc	___lwdiv@divisor+1,7
  1520  07C1  2FCE               	goto	l1487
  1521  07C2  3001               	movlw	1
  1522  07C3                     u1435:	
  1523  07C3  1003               	clrc
  1524  07C4  0DF8               	rlf	___lwdiv@divisor,f
  1525  07C5  0DF9               	rlf	___lwdiv@divisor+1,f
  1526  07C6  3EFF               	addlw	-1
  1527  07C7  1D03               	skipz
  1528  07C8  2FC3               	goto	u1435
  1529  07C9  3001               	movlw	1
  1530  07CA  00A0               	movwf	??___lwdiv
  1531  07CB  0820               	movf	??___lwdiv,w
  1532  07CC  07A3               	addwf	___lwdiv@counter,f
  1533  07CD  2FC0               	goto	l1485
  1534  07CE                     l1487:	
  1535  07CE  3001               	movlw	1
  1536  07CF                     u1455:	
  1537  07CF  1003               	clrc
  1538  07D0  0DA1               	rlf	___lwdiv@quotient,f
  1539  07D1  0DA2               	rlf	___lwdiv@quotient+1,f
  1540  07D2  3EFF               	addlw	-1
  1541  07D3  1D03               	skipz
  1542  07D4  2FCF               	goto	u1455
  1543  07D5  0879               	movf	___lwdiv@divisor+1,w
  1544  07D6  027B               	subwf	___lwdiv@dividend+1,w
  1545  07D7  1D03               	skipz
  1546  07D8  2FDB               	goto	u1465
  1547  07D9  0878               	movf	___lwdiv@divisor,w
  1548  07DA  027A               	subwf	___lwdiv@dividend,w
  1549  07DB                     u1465:	
  1550  07DB  1C03               	skipc
  1551  07DC  2FE4               	goto	l1493
  1552  07DD  0878               	movf	___lwdiv@divisor,w
  1553  07DE  02FA               	subwf	___lwdiv@dividend,f
  1554  07DF  0879               	movf	___lwdiv@divisor+1,w
  1555  07E0  1C03               	skipc
  1556  07E1  03FB               	decf	___lwdiv@dividend+1,f
  1557  07E2  02FB               	subwf	___lwdiv@dividend+1,f
  1558  07E3  1421               	bsf	___lwdiv@quotient,0
  1559  07E4                     l1493:	
  1560  07E4  3001               	movlw	1
  1561  07E5                     u1475:	
  1562  07E5  1003               	clrc
  1563  07E6  0CF9               	rrf	___lwdiv@divisor+1,f
  1564  07E7  0CF8               	rrf	___lwdiv@divisor,f
  1565  07E8  3EFF               	addlw	-1
  1566  07E9  1D03               	skipz
  1567  07EA  2FE5               	goto	u1475
  1568  07EB  3001               	movlw	1
  1569  07EC  02A3               	subwf	___lwdiv@counter,f
  1570  07ED  1D03               	btfss	3,2
  1571  07EE  2FCE               	goto	l1487
  1572  07EF                     l1497:	
  1573  07EF  0822               	movf	___lwdiv@quotient+1,w
  1574  07F0  00F9               	movwf	?___lwdiv+1
  1575  07F1  0821               	movf	___lwdiv@quotient,w
  1576  07F2  00F8               	movwf	?___lwdiv
  1577  07F3  0008               	return
  1578  07F4                     __end_of___lwdiv:	
  1579                           
  1580                           	psect	text4
  1581  0F93                     __ptext4:	
  1582 ;; *************** function ___fltol *****************
  1583 ;; Defined at:
  1584 ;;		line 43 in file "D:\Mplab X\xc8\pic\sources\c90\common\fltol.c"
  1585 ;; Parameters:    Size  Location     Type
  1586 ;;  f1              4   58[BANK0 ] unsigned int 
  1587 ;; Auto vars:     Size  Location     Type
  1588 ;;  exp1            1   68[BANK0 ] unsigned char 
  1589 ;;  sign1           1   67[BANK0 ] unsigned char 
  1590 ;; Return value:  Size  Location     Type
  1591 ;;                  4   58[BANK0 ] long 
  1592 ;; Registers used:
  1593 ;;		wreg, status,2, status,0
  1594 ;; Tracked objects:
  1595 ;;		On entry : 0/0
  1596 ;;		On exit  : 0/0
  1597 ;;		Unchanged: 0/0
  1598 ;; Data sizes:     COMMON   BANK0   BANK1   BANK3   BANK2
  1599 ;;      Params:         0       4       0       0       0
  1600 ;;      Locals:         0       2       0       0       0
  1601 ;;      Temps:          0       5       0       0       0
  1602 ;;      Totals:         0      11       0       0       0
  1603 ;;Total ram usage:       11 bytes
  1604 ;; Hardware stack levels used:    1
  1605 ;; Hardware stack levels required when called:    1
  1606 ;; This function calls:
  1607 ;;		Nothing
  1608 ;; This function is called by:
  1609 ;;		_main
  1610 ;; This function uses a non-reentrant model
  1611 ;;
  1612                           
  1613                           
  1614                           ;psect for function ___fltol
  1615  0F93                     ___fltol:	
  1616                           
  1617                           ;incstack = 0
  1618                           ; Regs used in ___fltol: [wreg+status,2+status,0]
  1619  0F93  1003               	clrc
  1620  0F94  1283               	bcf	3,5	;RP0=0, select bank0
  1621  0F95  1303               	bcf	3,6	;RP1=0, select bank0
  1622  0F96  0D5C               	rlf	___fltol@f1+2,w
  1623  0F97  0D5D               	rlf	___fltol@f1+3,w
  1624  0F98  00DE               	movwf	??___fltol
  1625  0F99  085E               	movf	??___fltol,w
  1626  0F9A  00E4               	movwf	___fltol@exp1
  1627  0F9B  0864               	movf	___fltol@exp1,w
  1628  0F9C  1D03               	btfss	3,2
  1629  0F9D  2FA7               	goto	l1445
  1630  0F9E                     l1441:	
  1631  0F9E  3000               	movlw	0
  1632  0F9F  00DD               	movwf	?___fltol+3
  1633  0FA0  3000               	movlw	0
  1634  0FA1  00DC               	movwf	?___fltol+2
  1635  0FA2  3000               	movlw	0
  1636  0FA3  00DB               	movwf	?___fltol+1
  1637  0FA4  3000               	movlw	0
  1638  0FA5  00DA               	movwf	?___fltol
  1639  0FA6  0008               	return
  1640  0FA7                     l1445:	
  1641  0FA7  085A               	movf	___fltol@f1,w
  1642  0FA8  00DE               	movwf	??___fltol
  1643  0FA9  085B               	movf	___fltol@f1+1,w
  1644  0FAA  00DF               	movwf	??___fltol+1
  1645  0FAB  085C               	movf	___fltol@f1+2,w
  1646  0FAC  00E0               	movwf	??___fltol+2
  1647  0FAD  085D               	movf	___fltol@f1+3,w
  1648  0FAE  00E1               	movwf	??___fltol+3
  1649  0FAF  301F               	movlw	31
  1650  0FB0                     u1335:	
  1651  0FB0  1003               	clrc
  1652  0FB1  0CE1               	rrf	??___fltol+3,f
  1653  0FB2  0CE0               	rrf	??___fltol+2,f
  1654  0FB3  0CDF               	rrf	??___fltol+1,f
  1655  0FB4  0CDE               	rrf	??___fltol,f
  1656  0FB5  3EFF               	addlw	-1
  1657  0FB6  1D03               	skipz
  1658  0FB7  2FB0               	goto	u1335
  1659  0FB8  085E               	movf	??___fltol,w
  1660  0FB9  00E2               	movwf	??___fltol+4
  1661  0FBA  0862               	movf	??___fltol+4,w
  1662  0FBB  00E3               	movwf	___fltol@sign1
  1663  0FBC  17DC               	bsf	___fltol@f1+2,7
  1664  0FBD  30FF               	movlw	255
  1665  0FBE  05DA               	andwf	___fltol@f1,f
  1666  0FBF  30FF               	movlw	255
  1667  0FC0  05DB               	andwf	___fltol@f1+1,f
  1668  0FC1  30FF               	movlw	255
  1669  0FC2  05DC               	andwf	___fltol@f1+2,f
  1670  0FC3  3000               	movlw	0
  1671  0FC4  05DD               	andwf	___fltol@f1+3,f
  1672  0FC5  3096               	movlw	150
  1673  0FC6  02E4               	subwf	___fltol@exp1,f
  1674  0FC7  1FE4               	btfss	___fltol@exp1,7
  1675  0FC8  2FDE               	goto	l1463
  1676  0FC9  0864               	movf	___fltol@exp1,w
  1677  0FCA  3A80               	xorlw	128
  1678  0FCB  3E97               	addlw	151
  1679  0FCC  1C03               	btfss	3,0
  1680  0FCD  2F9E               	goto	l1441
  1681  0FCE                     l1461:	
  1682  0FCE  3001               	movlw	1
  1683  0FCF                     u1365:	
  1684  0FCF  1003               	clrc
  1685  0FD0  0CDD               	rrf	___fltol@f1+3,f
  1686  0FD1  0CDC               	rrf	___fltol@f1+2,f
  1687  0FD2  0CDB               	rrf	___fltol@f1+1,f
  1688  0FD3  0CDA               	rrf	___fltol@f1,f
  1689  0FD4  3EFF               	addlw	-1
  1690  0FD5  1D03               	skipz
  1691  0FD6  2FCF               	goto	u1365
  1692  0FD7  3001               	movlw	1
  1693  0FD8  00DE               	movwf	??___fltol
  1694  0FD9  085E               	movf	??___fltol,w
  1695  0FDA  07E4               	addwf	___fltol@exp1,f
  1696  0FDB  1903               	btfsc	3,2
  1697  0FDC  2FF1               	goto	l1471
  1698  0FDD  2FCE               	goto	l1461
  1699  0FDE                     l1463:	
  1700  0FDE  3020               	movlw	32
  1701  0FDF  0264               	subwf	___fltol@exp1,w
  1702  0FE0  1803               	btfsc	3,0
  1703  0FE1  2F9E               	goto	l1441
  1704  0FE2                     l404:	
  1705  0FE2  0864               	movf	___fltol@exp1,w
  1706  0FE3  1903               	btfsc	3,2
  1707  0FE4  2FF1               	goto	l1471
  1708  0FE5  3001               	movlw	1
  1709  0FE6  00DE               	movwf	??___fltol
  1710  0FE7                     u1395:	
  1711  0FE7  1003               	clrc
  1712  0FE8  0DDA               	rlf	___fltol@f1,f
  1713  0FE9  0DDB               	rlf	___fltol@f1+1,f
  1714  0FEA  0DDC               	rlf	___fltol@f1+2,f
  1715  0FEB  0DDD               	rlf	___fltol@f1+3,f
  1716  0FEC  0BDE               	decfsz	??___fltol,f
  1717  0FED  2FE7               	goto	u1395
  1718  0FEE  3001               	movlw	1
  1719  0FEF  02E4               	subwf	___fltol@exp1,f
  1720  0FF0  2FE2               	goto	l404
  1721  0FF1                     l1471:	
  1722  0FF1  0863               	movf	___fltol@sign1,w
  1723  0FF2  1903               	btfsc	3,2
  1724  0FF3  0008               	return
  1725  0FF4  09DA               	comf	___fltol@f1,f
  1726  0FF5  09DB               	comf	___fltol@f1+1,f
  1727  0FF6  09DC               	comf	___fltol@f1+2,f
  1728  0FF7  09DD               	comf	___fltol@f1+3,f
  1729  0FF8  0ADA               	incf	___fltol@f1,f
  1730  0FF9  1903               	skipnz
  1731  0FFA  0ADB               	incf	___fltol@f1+1,f
  1732  0FFB  1903               	skipnz
  1733  0FFC  0ADC               	incf	___fltol@f1+2,f
  1734  0FFD  1903               	skipnz
  1735  0FFE  0ADD               	incf	___fltol@f1+3,f
  1736  0FFF  0008               	return
  1737  1000                     __end_of___fltol:	
  1738                           
  1739                           	psect	text5
  1740  0013                     __ptext5:	
  1741 ;; *************** function ___flmul *****************
  1742 ;; Defined at:
  1743 ;;		line 8 in file "D:\Mplab X\xc8\pic\sources\c90\common\sprcmul.c"
  1744 ;; Parameters:    Size  Location     Type
  1745 ;;  b               4    6[BANK0 ] long 
  1746 ;;  a               4   10[BANK0 ] long 
  1747 ;; Auto vars:     Size  Location     Type
  1748 ;;  prod            4   26[BANK0 ] struct .
  1749 ;;  grs             4   20[BANK0 ] unsigned long 
  1750 ;;  temp            2   30[BANK0 ] struct .
  1751 ;;  bexp            1   25[BANK0 ] unsigned char 
  1752 ;;  aexp            1   24[BANK0 ] unsigned char 
  1753 ;;  sign            1   19[BANK0 ] unsigned char 
  1754 ;; Return value:  Size  Location     Type
  1755 ;;                  4    6[BANK0 ] unsigned char 
  1756 ;; Registers used:
  1757 ;;		wreg, status,2, status,0, btemp+1, pclath, cstack
  1758 ;; Tracked objects:
  1759 ;;		On entry : 0/0
  1760 ;;		On exit  : 0/0
  1761 ;;		Unchanged: 0/0
  1762 ;; Data sizes:     COMMON   BANK0   BANK1   BANK3   BANK2
  1763 ;;      Params:         0       8       0       0       0
  1764 ;;      Locals:         0      13       0       0       0
  1765 ;;      Temps:          0       5       0       0       0
  1766 ;;      Totals:         0      26       0       0       0
  1767 ;;Total ram usage:       26 bytes
  1768 ;; Hardware stack levels used:    1
  1769 ;; Hardware stack levels required when called:    2
  1770 ;; This function calls:
  1771 ;;		__Umul8_16
  1772 ;; This function is called by:
  1773 ;;		_main
  1774 ;; This function uses a non-reentrant model
  1775 ;;
  1776                           
  1777                           
  1778                           ;psect for function ___flmul
  1779  0013                     ___flmul:	
  1780                           
  1781                           ;incstack = 0
  1782                           ; Regs used in ___flmul: [wreg+status,2+status,0+btemp+1+pclath+cstack]
  1783  0013  1283               	bcf	3,5	;RP0=0, select bank0
  1784  0014  1303               	bcf	3,6	;RP1=0, select bank0
  1785  0015  0829               	movf	___flmul@b+3,w
  1786  0016  3980               	andlw	128
  1787  0017  00AE               	movwf	??___flmul
  1788  0018  082E               	movf	??___flmul,w
  1789  0019  00B3               	movwf	___flmul@sign
  1790  001A  0829               	movf	___flmul@b+3,w
  1791  001B  00AE               	movwf	??___flmul
  1792  001C  072E               	addwf	??___flmul,w
  1793  001D  00AF               	movwf	??___flmul+1
  1794  001E  082F               	movf	??___flmul+1,w
  1795  001F  00B9               	movwf	___flmul@bexp
  1796  0020  1BA8               	btfsc	___flmul@b+2,7
  1797  0021  1439               	bsf	___flmul@bexp,0
  1798  0022  0839               	movf	___flmul@bexp,w
  1799  0023  1903               	btfsc	3,2
  1800  0024  2832               	goto	l1681
  1801  0025  0A39               	incf	___flmul@bexp,w
  1802  0026  1D03               	btfss	3,2
  1803  0027  2830               	goto	l1679
  1804  0028  3000               	movlw	0
  1805  0029  00A9               	movwf	___flmul@b+3
  1806  002A  3000               	movlw	0
  1807  002B  00A8               	movwf	___flmul@b+2
  1808  002C  3000               	movlw	0
  1809  002D  00A7               	movwf	___flmul@b+1
  1810  002E  3000               	movlw	0
  1811  002F  00A6               	movwf	___flmul@b
  1812  0030                     l1679:	
  1813  0030  17A8               	bsf	___flmul@b+2,7
  1814  0031  283A               	goto	l1683
  1815  0032                     l1681:	
  1816  0032  3000               	movlw	0
  1817  0033  00A9               	movwf	___flmul@b+3
  1818  0034  3000               	movlw	0
  1819  0035  00A8               	movwf	___flmul@b+2
  1820  0036  3000               	movlw	0
  1821  0037  00A7               	movwf	___flmul@b+1
  1822  0038  3000               	movlw	0
  1823  0039  00A6               	movwf	___flmul@b
  1824  003A                     l1683:	
  1825  003A  082D               	movf	___flmul@a+3,w
  1826  003B  3980               	andlw	128
  1827  003C  00AE               	movwf	??___flmul
  1828  003D  082E               	movf	??___flmul,w
  1829  003E  06B3               	xorwf	___flmul@sign,f
  1830  003F  082D               	movf	___flmul@a+3,w
  1831  0040  00AE               	movwf	??___flmul
  1832  0041  072E               	addwf	??___flmul,w
  1833  0042  00AF               	movwf	??___flmul+1
  1834  0043  082F               	movf	??___flmul+1,w
  1835  0044  00B8               	movwf	___flmul@aexp
  1836  0045  1BAC               	btfsc	___flmul@a+2,7
  1837  0046  1438               	bsf	___flmul@aexp,0
  1838  0047  0838               	movf	___flmul@aexp,w
  1839  0048  1903               	btfsc	3,2
  1840  0049  2857               	goto	l1699
  1841  004A  0A38               	incf	___flmul@aexp,w
  1842  004B  1D03               	btfss	3,2
  1843  004C  2855               	goto	l1697
  1844  004D  3000               	movlw	0
  1845  004E  00AD               	movwf	___flmul@a+3
  1846  004F  3000               	movlw	0
  1847  0050  00AC               	movwf	___flmul@a+2
  1848  0051  3000               	movlw	0
  1849  0052  00AB               	movwf	___flmul@a+1
  1850  0053  3000               	movlw	0
  1851  0054  00AA               	movwf	___flmul@a
  1852  0055                     l1697:	
  1853  0055  17AC               	bsf	___flmul@a+2,7
  1854  0056  285F               	goto	l1701
  1855  0057                     l1699:	
  1856  0057  3000               	movlw	0
  1857  0058  00AD               	movwf	___flmul@a+3
  1858  0059  3000               	movlw	0
  1859  005A  00AC               	movwf	___flmul@a+2
  1860  005B  3000               	movlw	0
  1861  005C  00AB               	movwf	___flmul@a+1
  1862  005D  3000               	movlw	0
  1863  005E  00AA               	movwf	___flmul@a
  1864  005F                     l1701:	
  1865  005F  0838               	movf	___flmul@aexp,w
  1866  0060  1D03               	btfss	3,2
  1867  0061  0839               	movf	___flmul@bexp,w
  1868  0062  1D03               	btfss	3,2
  1869  0063  286D               	goto	l1709
  1870  0064  3000               	movlw	0
  1871  0065  00A9               	movwf	?___flmul+3
  1872  0066  3000               	movlw	0
  1873  0067  00A8               	movwf	?___flmul+2
  1874  0068  3000               	movlw	0
  1875  0069  00A7               	movwf	?___flmul+1
  1876  006A  3000               	movlw	0
  1877  006B  00A6               	movwf	?___flmul
  1878  006C  0008               	return
  1879  006D                     l1709:	
  1880  006D  0826               	movf	___flmul@b,w
  1881  006E  00AE               	movwf	??___flmul
  1882  006F  082E               	movf	??___flmul,w
  1883  0070  00F2               	movwf	__Umul8_16@multiplicand
  1884  0071  082C               	movf	___flmul@a+2,w
  1885  0072  120A  158A  2659  120A  118A  	fcall	__Umul8_16
  1886  0077  0873               	movf	?__Umul8_16+1,w
  1887  0078  1283               	bcf	3,5	;RP0=0, select bank0
  1888  0079  1303               	bcf	3,6	;RP1=0, select bank0
  1889  007A  00BF               	movwf	___flmul@temp+1
  1890  007B  0872               	movf	?__Umul8_16,w
  1891  007C  00BE               	movwf	___flmul@temp
  1892  007D  083E               	movf	___flmul@temp,w
  1893  007E  00AE               	movwf	??___flmul
  1894  007F  01AF               	clrf	??___flmul+1
  1895  0080  01B0               	clrf	??___flmul+2
  1896  0081  01B1               	clrf	??___flmul+3
  1897  0082  0831               	movf	??___flmul+3,w
  1898  0083  00B7               	movwf	___flmul@grs+3
  1899  0084  0830               	movf	??___flmul+2,w
  1900  0085  00B6               	movwf	___flmul@grs+2
  1901  0086  082F               	movf	??___flmul+1,w
  1902  0087  00B5               	movwf	___flmul@grs+1
  1903  0088  082E               	movf	??___flmul,w
  1904  0089  00B4               	movwf	___flmul@grs
  1905  008A  083F               	movf	___flmul@temp+1,w
  1906  008B  00AE               	movwf	??___flmul
  1907  008C  01AF               	clrf	??___flmul+1
  1908  008D  01B0               	clrf	??___flmul+2
  1909  008E  01B1               	clrf	??___flmul+3
  1910  008F  0831               	movf	??___flmul+3,w
  1911  0090  00BD               	movwf	___flmul@prod+3
  1912  0091  0830               	movf	??___flmul+2,w
  1913  0092  00BC               	movwf	___flmul@prod+2
  1914  0093  082F               	movf	??___flmul+1,w
  1915  0094  00BB               	movwf	___flmul@prod+1
  1916  0095  082E               	movf	??___flmul,w
  1917  0096  00BA               	movwf	___flmul@prod
  1918  0097  0827               	movf	___flmul@b+1,w
  1919  0098  00AE               	movwf	??___flmul
  1920  0099  082E               	movf	??___flmul,w
  1921  009A  00F2               	movwf	__Umul8_16@multiplicand
  1922  009B  082B               	movf	___flmul@a+1,w
  1923  009C  120A  158A  2659  120A  118A  	fcall	__Umul8_16
  1924  00A1  0873               	movf	?__Umul8_16+1,w
  1925  00A2  1283               	bcf	3,5	;RP0=0, select bank0
  1926  00A3  1303               	bcf	3,6	;RP1=0, select bank0
  1927  00A4  00BF               	movwf	___flmul@temp+1
  1928  00A5  0872               	movf	?__Umul8_16,w
  1929  00A6  00BE               	movwf	___flmul@temp
  1930  00A7  083E               	movf	___flmul@temp,w
  1931  00A8  00AE               	movwf	??___flmul
  1932  00A9  01AF               	clrf	??___flmul+1
  1933  00AA  01B0               	clrf	??___flmul+2
  1934  00AB  01B1               	clrf	??___flmul+3
  1935  00AC  082E               	movf	??___flmul,w
  1936  00AD  07B4               	addwf	___flmul@grs,f
  1937  00AE  082F               	movf	??___flmul+1,w
  1938  00AF  1103               	clrz
  1939  00B0  1803               	skipnc
  1940  00B1  3E01               	addlw	1
  1941  00B2  1D03               	btfss	3,2
  1942  00B3  07B5               	addwf	___flmul@grs+1,f
  1943  00B4  0830               	movf	??___flmul+2,w
  1944  00B5  1103               	clrz
  1945  00B6  1803               	skipnc
  1946  00B7  3E01               	addlw	1
  1947  00B8  1D03               	btfss	3,2
  1948  00B9  07B6               	addwf	___flmul@grs+2,f
  1949  00BA  0831               	movf	??___flmul+3,w
  1950  00BB  1103               	clrz
  1951  00BC  1803               	skipnc
  1952  00BD  3E01               	addlw	1
  1953  00BE  1D03               	btfss	3,2
  1954  00BF  07B7               	addwf	___flmul@grs+3,f
  1955  00C0  083F               	movf	___flmul@temp+1,w
  1956  00C1  00AE               	movwf	??___flmul
  1957  00C2  01AF               	clrf	??___flmul+1
  1958  00C3  01B0               	clrf	??___flmul+2
  1959  00C4  01B1               	clrf	??___flmul+3
  1960  00C5  082E               	movf	??___flmul,w
  1961  00C6  07BA               	addwf	___flmul@prod,f
  1962  00C7  082F               	movf	??___flmul+1,w
  1963  00C8  1103               	clrz
  1964  00C9  1803               	skipnc
  1965  00CA  3E01               	addlw	1
  1966  00CB  1D03               	btfss	3,2
  1967  00CC  07BB               	addwf	___flmul@prod+1,f
  1968  00CD  0830               	movf	??___flmul+2,w
  1969  00CE  1103               	clrz
  1970  00CF  1803               	skipnc
  1971  00D0  3E01               	addlw	1
  1972  00D1  1D03               	btfss	3,2
  1973  00D2  07BC               	addwf	___flmul@prod+2,f
  1974  00D3  0831               	movf	??___flmul+3,w
  1975  00D4  1103               	clrz
  1976  00D5  1803               	skipnc
  1977  00D6  3E01               	addlw	1
  1978  00D7  1D03               	btfss	3,2
  1979  00D8  07BD               	addwf	___flmul@prod+3,f
  1980  00D9  0828               	movf	___flmul@b+2,w
  1981  00DA  00AE               	movwf	??___flmul
  1982  00DB  082E               	movf	??___flmul,w
  1983  00DC  00F2               	movwf	__Umul8_16@multiplicand
  1984  00DD  082A               	movf	___flmul@a,w
  1985  00DE  120A  158A  2659  120A  118A  	fcall	__Umul8_16
  1986  00E3  0873               	movf	?__Umul8_16+1,w
  1987  00E4  1283               	bcf	3,5	;RP0=0, select bank0
  1988  00E5  1303               	bcf	3,6	;RP1=0, select bank0
  1989  00E6  00BF               	movwf	___flmul@temp+1
  1990  00E7  0872               	movf	?__Umul8_16,w
  1991  00E8  00BE               	movwf	___flmul@temp
  1992  00E9  083E               	movf	___flmul@temp,w
  1993  00EA  00AE               	movwf	??___flmul
  1994  00EB  01AF               	clrf	??___flmul+1
  1995  00EC  01B0               	clrf	??___flmul+2
  1996  00ED  01B1               	clrf	??___flmul+3
  1997  00EE  082E               	movf	??___flmul,w
  1998  00EF  07B4               	addwf	___flmul@grs,f
  1999  00F0  082F               	movf	??___flmul+1,w
  2000  00F1  1103               	clrz
  2001  00F2  1803               	skipnc
  2002  00F3  3E01               	addlw	1
  2003  00F4  1D03               	btfss	3,2
  2004  00F5  07B5               	addwf	___flmul@grs+1,f
  2005  00F6  0830               	movf	??___flmul+2,w
  2006  00F7  1103               	clrz
  2007  00F8  1803               	skipnc
  2008  00F9  3E01               	addlw	1
  2009  00FA  1D03               	btfss	3,2
  2010  00FB  07B6               	addwf	___flmul@grs+2,f
  2011  00FC  0831               	movf	??___flmul+3,w
  2012  00FD  1103               	clrz
  2013  00FE  1803               	skipnc
  2014  00FF  3E01               	addlw	1
  2015  0100  1D03               	btfss	3,2
  2016  0101  07B7               	addwf	___flmul@grs+3,f
  2017  0102  083F               	movf	___flmul@temp+1,w
  2018  0103  00AE               	movwf	??___flmul
  2019  0104  01AF               	clrf	??___flmul+1
  2020  0105  01B0               	clrf	??___flmul+2
  2021  0106  01B1               	clrf	??___flmul+3
  2022  0107  082E               	movf	??___flmul,w
  2023  0108  07BA               	addwf	___flmul@prod,f
  2024  0109  082F               	movf	??___flmul+1,w
  2025  010A  1103               	clrz
  2026  010B  1803               	skipnc
  2027  010C  3E01               	addlw	1
  2028  010D  1D03               	btfss	3,2
  2029  010E  07BB               	addwf	___flmul@prod+1,f
  2030  010F  0830               	movf	??___flmul+2,w
  2031  0110  1103               	clrz
  2032  0111  1803               	skipnc
  2033  0112  3E01               	addlw	1
  2034  0113  1D03               	btfss	3,2
  2035  0114  07BC               	addwf	___flmul@prod+2,f
  2036  0115  0831               	movf	??___flmul+3,w
  2037  0116  1103               	clrz
  2038  0117  1803               	skipnc
  2039  0118  3E01               	addlw	1
  2040  0119  1D03               	btfss	3,2
  2041  011A  07BD               	addwf	___flmul@prod+3,f
  2042  011B  3008               	movlw	8
  2043  011C  00AE               	movwf	??___flmul
  2044  011D                     u1965:	
  2045  011D  1003               	clrc
  2046  011E  0DB4               	rlf	___flmul@grs,f
  2047  011F  0DB5               	rlf	___flmul@grs+1,f
  2048  0120  0DB6               	rlf	___flmul@grs+2,f
  2049  0121  0DB7               	rlf	___flmul@grs+3,f
  2050  0122  0BAE               	decfsz	??___flmul,f
  2051  0123  291D               	goto	u1965
  2052  0124  0827               	movf	___flmul@b+1,w
  2053  0125  00AE               	movwf	??___flmul
  2054  0126  082E               	movf	??___flmul,w
  2055  0127  00F2               	movwf	__Umul8_16@multiplicand
  2056  0128  082A               	movf	___flmul@a,w
  2057  0129  120A  158A  2659  120A  118A  	fcall	__Umul8_16
  2058  012E  0873               	movf	?__Umul8_16+1,w
  2059  012F  1283               	bcf	3,5	;RP0=0, select bank0
  2060  0130  1303               	bcf	3,6	;RP1=0, select bank0
  2061  0131  00BF               	movwf	___flmul@temp+1
  2062  0132  0872               	movf	?__Umul8_16,w
  2063  0133  00BE               	movwf	___flmul@temp
  2064  0134  083E               	movf	___flmul@temp,w
  2065  0135  00AE               	movwf	??___flmul
  2066  0136  083F               	movf	___flmul@temp+1,w
  2067  0137  00AF               	movwf	??___flmul+1
  2068  0138  01B0               	clrf	??___flmul+2
  2069  0139  01B1               	clrf	??___flmul+3
  2070  013A  082E               	movf	??___flmul,w
  2071  013B  07B4               	addwf	___flmul@grs,f
  2072  013C  082F               	movf	??___flmul+1,w
  2073  013D  1103               	clrz
  2074  013E  1803               	skipnc
  2075  013F  3E01               	addlw	1
  2076  0140  1D03               	btfss	3,2
  2077  0141  07B5               	addwf	___flmul@grs+1,f
  2078  0142  0830               	movf	??___flmul+2,w
  2079  0143  1103               	clrz
  2080  0144  1803               	skipnc
  2081  0145  3E01               	addlw	1
  2082  0146  1D03               	btfss	3,2
  2083  0147  07B6               	addwf	___flmul@grs+2,f
  2084  0148  0831               	movf	??___flmul+3,w
  2085  0149  1103               	clrz
  2086  014A  1803               	skipnc
  2087  014B  3E01               	addlw	1
  2088  014C  1D03               	btfss	3,2
  2089  014D  07B7               	addwf	___flmul@grs+3,f
  2090  014E  0826               	movf	___flmul@b,w
  2091  014F  00AE               	movwf	??___flmul
  2092  0150  082E               	movf	??___flmul,w
  2093  0151  00F2               	movwf	__Umul8_16@multiplicand
  2094  0152  082B               	movf	___flmul@a+1,w
  2095  0153  120A  158A  2659  120A  118A  	fcall	__Umul8_16
  2096  0158  0873               	movf	?__Umul8_16+1,w
  2097  0159  1283               	bcf	3,5	;RP0=0, select bank0
  2098  015A  1303               	bcf	3,6	;RP1=0, select bank0
  2099  015B  00BF               	movwf	___flmul@temp+1
  2100  015C  0872               	movf	?__Umul8_16,w
  2101  015D  00BE               	movwf	___flmul@temp
  2102  015E  083E               	movf	___flmul@temp,w
  2103  015F  00AE               	movwf	??___flmul
  2104  0160  083F               	movf	___flmul@temp+1,w
  2105  0161  00AF               	movwf	??___flmul+1
  2106  0162  01B0               	clrf	??___flmul+2
  2107  0163  01B1               	clrf	??___flmul+3
  2108  0164  082E               	movf	??___flmul,w
  2109  0165  07B4               	addwf	___flmul@grs,f
  2110  0166  082F               	movf	??___flmul+1,w
  2111  0167  1103               	clrz
  2112  0168  1803               	skipnc
  2113  0169  3E01               	addlw	1
  2114  016A  1D03               	btfss	3,2
  2115  016B  07B5               	addwf	___flmul@grs+1,f
  2116  016C  0830               	movf	??___flmul+2,w
  2117  016D  1103               	clrz
  2118  016E  1803               	skipnc
  2119  016F  3E01               	addlw	1
  2120  0170  1D03               	btfss	3,2
  2121  0171  07B6               	addwf	___flmul@grs+2,f
  2122  0172  0831               	movf	??___flmul+3,w
  2123  0173  1103               	clrz
  2124  0174  1803               	skipnc
  2125  0175  3E01               	addlw	1
  2126  0176  1D03               	btfss	3,2
  2127  0177  07B7               	addwf	___flmul@grs+3,f
  2128  0178  3008               	movlw	8
  2129  0179  00AE               	movwf	??___flmul
  2130  017A                     u1995:	
  2131  017A  1003               	clrc
  2132  017B  0DB4               	rlf	___flmul@grs,f
  2133  017C  0DB5               	rlf	___flmul@grs+1,f
  2134  017D  0DB6               	rlf	___flmul@grs+2,f
  2135  017E  0DB7               	rlf	___flmul@grs+3,f
  2136  017F  0BAE               	decfsz	??___flmul,f
  2137  0180  297A               	goto	u1995
  2138  0181  0826               	movf	___flmul@b,w
  2139  0182  00AE               	movwf	??___flmul
  2140  0183  082E               	movf	??___flmul,w
  2141  0184  00F2               	movwf	__Umul8_16@multiplicand
  2142  0185  082A               	movf	___flmul@a,w
  2143  0186  120A  158A  2659  120A  118A  	fcall	__Umul8_16
  2144  018B  0873               	movf	?__Umul8_16+1,w
  2145  018C  1283               	bcf	3,5	;RP0=0, select bank0
  2146  018D  1303               	bcf	3,6	;RP1=0, select bank0
  2147  018E  00BF               	movwf	___flmul@temp+1
  2148  018F  0872               	movf	?__Umul8_16,w
  2149  0190  00BE               	movwf	___flmul@temp
  2150  0191  083E               	movf	___flmul@temp,w
  2151  0192  00AE               	movwf	??___flmul
  2152  0193  083F               	movf	___flmul@temp+1,w
  2153  0194  00AF               	movwf	??___flmul+1
  2154  0195  01B0               	clrf	??___flmul+2
  2155  0196  01B1               	clrf	??___flmul+3
  2156  0197  082E               	movf	??___flmul,w
  2157  0198  07B4               	addwf	___flmul@grs,f
  2158  0199  082F               	movf	??___flmul+1,w
  2159  019A  1103               	clrz
  2160  019B  1803               	skipnc
  2161  019C  3E01               	addlw	1
  2162  019D  1D03               	btfss	3,2
  2163  019E  07B5               	addwf	___flmul@grs+1,f
  2164  019F  0830               	movf	??___flmul+2,w
  2165  01A0  1103               	clrz
  2166  01A1  1803               	skipnc
  2167  01A2  3E01               	addlw	1
  2168  01A3  1D03               	btfss	3,2
  2169  01A4  07B6               	addwf	___flmul@grs+2,f
  2170  01A5  0831               	movf	??___flmul+3,w
  2171  01A6  1103               	clrz
  2172  01A7  1803               	skipnc
  2173  01A8  3E01               	addlw	1
  2174  01A9  1D03               	btfss	3,2
  2175  01AA  07B7               	addwf	___flmul@grs+3,f
  2176  01AB  0827               	movf	___flmul@b+1,w
  2177  01AC  00AE               	movwf	??___flmul
  2178  01AD  082E               	movf	??___flmul,w
  2179  01AE  00F2               	movwf	__Umul8_16@multiplicand
  2180  01AF  082C               	movf	___flmul@a+2,w
  2181  01B0  120A  158A  2659  120A  118A  	fcall	__Umul8_16
  2182  01B5  0873               	movf	?__Umul8_16+1,w
  2183  01B6  1283               	bcf	3,5	;RP0=0, select bank0
  2184  01B7  1303               	bcf	3,6	;RP1=0, select bank0
  2185  01B8  00BF               	movwf	___flmul@temp+1
  2186  01B9  0872               	movf	?__Umul8_16,w
  2187  01BA  00BE               	movwf	___flmul@temp
  2188  01BB  083E               	movf	___flmul@temp,w
  2189  01BC  00AE               	movwf	??___flmul
  2190  01BD  083F               	movf	___flmul@temp+1,w
  2191  01BE  00AF               	movwf	??___flmul+1
  2192  01BF  01B0               	clrf	??___flmul+2
  2193  01C0  01B1               	clrf	??___flmul+3
  2194  01C1  082E               	movf	??___flmul,w
  2195  01C2  07BA               	addwf	___flmul@prod,f
  2196  01C3  082F               	movf	??___flmul+1,w
  2197  01C4  1103               	clrz
  2198  01C5  1803               	skipnc
  2199  01C6  3E01               	addlw	1
  2200  01C7  1D03               	btfss	3,2
  2201  01C8  07BB               	addwf	___flmul@prod+1,f
  2202  01C9  0830               	movf	??___flmul+2,w
  2203  01CA  1103               	clrz
  2204  01CB  1803               	skipnc
  2205  01CC  3E01               	addlw	1
  2206  01CD  1D03               	btfss	3,2
  2207  01CE  07BC               	addwf	___flmul@prod+2,f
  2208  01CF  0831               	movf	??___flmul+3,w
  2209  01D0  1103               	clrz
  2210  01D1  1803               	skipnc
  2211  01D2  3E01               	addlw	1
  2212  01D3  1D03               	btfss	3,2
  2213  01D4  07BD               	addwf	___flmul@prod+3,f
  2214  01D5  0828               	movf	___flmul@b+2,w
  2215  01D6  00AE               	movwf	??___flmul
  2216  01D7  082E               	movf	??___flmul,w
  2217  01D8  00F2               	movwf	__Umul8_16@multiplicand
  2218  01D9  082B               	movf	___flmul@a+1,w
  2219  01DA  120A  158A  2659  120A  118A  	fcall	__Umul8_16
  2220  01DF  0873               	movf	?__Umul8_16+1,w
  2221  01E0  1283               	bcf	3,5	;RP0=0, select bank0
  2222  01E1  1303               	bcf	3,6	;RP1=0, select bank0
  2223  01E2  00BF               	movwf	___flmul@temp+1
  2224  01E3  0872               	movf	?__Umul8_16,w
  2225  01E4  00BE               	movwf	___flmul@temp
  2226  01E5  083E               	movf	___flmul@temp,w
  2227  01E6  00AE               	movwf	??___flmul
  2228  01E7  083F               	movf	___flmul@temp+1,w
  2229  01E8  00AF               	movwf	??___flmul+1
  2230  01E9  01B0               	clrf	??___flmul+2
  2231  01EA  01B1               	clrf	??___flmul+3
  2232  01EB  082E               	movf	??___flmul,w
  2233  01EC  07BA               	addwf	___flmul@prod,f
  2234  01ED  082F               	movf	??___flmul+1,w
  2235  01EE  1103               	clrz
  2236  01EF  1803               	skipnc
  2237  01F0  3E01               	addlw	1
  2238  01F1  1D03               	btfss	3,2
  2239  01F2  07BB               	addwf	___flmul@prod+1,f
  2240  01F3  0830               	movf	??___flmul+2,w
  2241  01F4  1103               	clrz
  2242  01F5  1803               	skipnc
  2243  01F6  3E01               	addlw	1
  2244  01F7  1D03               	btfss	3,2
  2245  01F8  07BC               	addwf	___flmul@prod+2,f
  2246  01F9  0831               	movf	??___flmul+3,w
  2247  01FA  1103               	clrz
  2248  01FB  1803               	skipnc
  2249  01FC  3E01               	addlw	1
  2250  01FD  1D03               	btfss	3,2
  2251  01FE  07BD               	addwf	___flmul@prod+3,f
  2252  01FF  0828               	movf	___flmul@b+2,w
  2253  0200  00AE               	movwf	??___flmul
  2254  0201  082E               	movf	??___flmul,w
  2255  0202  00F2               	movwf	__Umul8_16@multiplicand
  2256  0203  082C               	movf	___flmul@a+2,w
  2257  0204  120A  158A  2659  120A  118A  	fcall	__Umul8_16
  2258  0209  0873               	movf	?__Umul8_16+1,w
  2259  020A  1283               	bcf	3,5	;RP0=0, select bank0
  2260  020B  1303               	bcf	3,6	;RP1=0, select bank0
  2261  020C  00BF               	movwf	___flmul@temp+1
  2262  020D  0872               	movf	?__Umul8_16,w
  2263  020E  00BE               	movwf	___flmul@temp
  2264  020F  083E               	movf	___flmul@temp,w
  2265  0210  00AE               	movwf	??___flmul
  2266  0211  083F               	movf	___flmul@temp+1,w
  2267  0212  00AF               	movwf	??___flmul+1
  2268  0213  01B0               	clrf	??___flmul+2
  2269  0214  01B1               	clrf	??___flmul+3
  2270  0215  3008               	movlw	8
  2271  0216                     u2035:	
  2272  0216  1003               	clrc
  2273  0217  0DAE               	rlf	??___flmul,f
  2274  0218  0DAF               	rlf	??___flmul+1,f
  2275  0219  0DB0               	rlf	??___flmul+2,f
  2276  021A  0DB1               	rlf	??___flmul+3,f
  2277  021B  3EFF               	addlw	-1
  2278  021C  1D03               	skipz
  2279  021D  2A16               	goto	u2035
  2280  021E  082E               	movf	??___flmul,w
  2281  021F  07BA               	addwf	___flmul@prod,f
  2282  0220  082F               	movf	??___flmul+1,w
  2283  0221  1103               	clrz
  2284  0222  1803               	skipnc
  2285  0223  3E01               	addlw	1
  2286  0224  1D03               	btfss	3,2
  2287  0225  07BB               	addwf	___flmul@prod+1,f
  2288  0226  0830               	movf	??___flmul+2,w
  2289  0227  1103               	clrz
  2290  0228  1803               	skipnc
  2291  0229  3E01               	addlw	1
  2292  022A  1D03               	btfss	3,2
  2293  022B  07BC               	addwf	___flmul@prod+2,f
  2294  022C  0831               	movf	??___flmul+3,w
  2295  022D  1103               	clrz
  2296  022E  1803               	skipnc
  2297  022F  3E01               	addlw	1
  2298  0230  1D03               	btfss	3,2
  2299  0231  07BD               	addwf	___flmul@prod+3,f
  2300  0232  0834               	movf	___flmul@grs,w
  2301  0233  00AE               	movwf	??___flmul
  2302  0234  0835               	movf	___flmul@grs+1,w
  2303  0235  00AF               	movwf	??___flmul+1
  2304  0236  0836               	movf	___flmul@grs+2,w
  2305  0237  00B0               	movwf	??___flmul+2
  2306  0238  0837               	movf	___flmul@grs+3,w
  2307  0239  00B1               	movwf	??___flmul+3
  2308  023A  3018               	movlw	24
  2309  023B                     u2055:	
  2310  023B  1003               	clrc
  2311  023C  0CB1               	rrf	??___flmul+3,f
  2312  023D  0CB0               	rrf	??___flmul+2,f
  2313  023E  0CAF               	rrf	??___flmul+1,f
  2314  023F  0CAE               	rrf	??___flmul,f
  2315  0240  3EFF               	addlw	-1
  2316  0241  1D03               	skipz
  2317  0242  2A3B               	goto	u2055
  2318  0243  082E               	movf	??___flmul,w
  2319  0244  07BA               	addwf	___flmul@prod,f
  2320  0245  082F               	movf	??___flmul+1,w
  2321  0246  1103               	clrz
  2322  0247  1803               	skipnc
  2323  0248  3E01               	addlw	1
  2324  0249  1D03               	btfss	3,2
  2325  024A  07BB               	addwf	___flmul@prod+1,f
  2326  024B  0830               	movf	??___flmul+2,w
  2327  024C  1103               	clrz
  2328  024D  1803               	skipnc
  2329  024E  3E01               	addlw	1
  2330  024F  1D03               	btfss	3,2
  2331  0250  07BC               	addwf	___flmul@prod+2,f
  2332  0251  0831               	movf	??___flmul+3,w
  2333  0252  1103               	clrz
  2334  0253  1803               	skipnc
  2335  0254  3E01               	addlw	1
  2336  0255  1D03               	btfss	3,2
  2337  0256  07BD               	addwf	___flmul@prod+3,f
  2338  0257  3008               	movlw	8
  2339  0258  00AE               	movwf	??___flmul
  2340  0259                     u2075:	
  2341  0259  1003               	clrc
  2342  025A  0DB4               	rlf	___flmul@grs,f
  2343  025B  0DB5               	rlf	___flmul@grs+1,f
  2344  025C  0DB6               	rlf	___flmul@grs+2,f
  2345  025D  0DB7               	rlf	___flmul@grs+3,f
  2346  025E  0BAE               	decfsz	??___flmul,f
  2347  025F  2A59               	goto	u2075
  2348  0260  0839               	movf	___flmul@bexp,w
  2349  0261  0738               	addwf	___flmul@aexp,w
  2350  0262  00AE               	movwf	??___flmul
  2351  0263  01AF               	clrf	??___flmul+1
  2352  0264  0DAF               	rlf	??___flmul+1,f
  2353  0265  082E               	movf	??___flmul,w
  2354  0266  3E82               	addlw	130
  2355  0267  00BE               	movwf	___flmul@temp
  2356  0268  082F               	movf	??___flmul+1,w
  2357  0269  1803               	skipnc
  2358  026A  3E01               	addlw	1
  2359  026B  3EFF               	addlw	255
  2360  026C  00BF               	movwf	___flmul@temp+1
  2361  026D                     l1761:	
  2362  026D  1BBC               	btfsc	___flmul@prod+2,7
  2363  026E  2A8A               	goto	l1763
  2364  026F  3001               	movlw	1
  2365  0270  00AE               	movwf	??___flmul
  2366  0271                     u2085:	
  2367  0271  1003               	clrc
  2368  0272  0DBA               	rlf	___flmul@prod,f
  2369  0273  0DBB               	rlf	___flmul@prod+1,f
  2370  0274  0DBC               	rlf	___flmul@prod+2,f
  2371  0275  0DBD               	rlf	___flmul@prod+3,f
  2372  0276  0BAE               	decfsz	??___flmul,f
  2373  0277  2A71               	goto	u2085
  2374  0278  1BB7               	btfsc	___flmul@grs+3,7
  2375  0279  143A               	bsf	___flmul@prod,0
  2376  027A  3001               	movlw	1
  2377  027B  00AE               	movwf	??___flmul
  2378  027C                     u2105:	
  2379  027C  1003               	clrc
  2380  027D  0DB4               	rlf	___flmul@grs,f
  2381  027E  0DB5               	rlf	___flmul@grs+1,f
  2382  027F  0DB6               	rlf	___flmul@grs+2,f
  2383  0280  0DB7               	rlf	___flmul@grs+3,f
  2384  0281  0BAE               	decfsz	??___flmul,f
  2385  0282  2A7C               	goto	u2105
  2386  0283  30FF               	movlw	255
  2387  0284  07BE               	addwf	___flmul@temp,f
  2388  0285  1803               	skipnc
  2389  0286  0ABF               	incf	___flmul@temp+1,f
  2390  0287  30FF               	movlw	255
  2391  0288  07BF               	addwf	___flmul@temp+1,f
  2392  0289  2A6D               	goto	l1761
  2393  028A                     l1763:	
  2394  028A  01B8               	clrf	___flmul@aexp
  2395  028B  1FB7               	btfss	___flmul@grs+3,7
  2396  028C  2AA3               	goto	l1773
  2397  028D  30FF               	movlw	255
  2398  028E  0534               	andwf	___flmul@grs,w
  2399  028F  00AE               	movwf	??___flmul
  2400  0290  30FF               	movlw	255
  2401  0291  0535               	andwf	___flmul@grs+1,w
  2402  0292  00AF               	movwf	??___flmul+1
  2403  0293  30FF               	movlw	255
  2404  0294  0536               	andwf	___flmul@grs+2,w
  2405  0295  00B0               	movwf	??___flmul+2
  2406  0296  307F               	movlw	127
  2407  0297  0537               	andwf	___flmul@grs+3,w
  2408  0298  00B1               	movwf	??___flmul+3
  2409  0299  0831               	movf	??___flmul+3,w
  2410  029A  0430               	iorwf	??___flmul+2,w
  2411  029B  042F               	iorwf	??___flmul+1,w
  2412  029C  042E               	iorwf	??___flmul,w
  2413  029D  1903               	skipnz
  2414  029E  183A               	btfsc	___flmul@prod,0
  2415  029F  2AA1               	goto	l1769
  2416  02A0  2AA3               	goto	l1773
  2417  02A1                     l1769:	
  2418  02A1  01B8               	clrf	___flmul@aexp
  2419  02A2  0AB8               	incf	___flmul@aexp,f
  2420  02A3                     l1773:	
  2421  02A3  0838               	movf	___flmul@aexp,w
  2422  02A4  1903               	btfsc	3,2
  2423  02A5  2AD5               	goto	l1783
  2424  02A6  3001               	movlw	1
  2425  02A7  07BA               	addwf	___flmul@prod,f
  2426  02A8  3000               	movlw	0
  2427  02A9  1803               	skipnc
  2428  02AA  3001               	movlw	1
  2429  02AB  07BB               	addwf	___flmul@prod+1,f
  2430  02AC  3000               	movlw	0
  2431  02AD  1803               	skipnc
  2432  02AE  3001               	movlw	1
  2433  02AF  07BC               	addwf	___flmul@prod+2,f
  2434  02B0  3000               	movlw	0
  2435  02B1  1803               	skipnc
  2436  02B2  3001               	movlw	1
  2437  02B3  07BD               	addwf	___flmul@prod+3,f
  2438  02B4  1C3D               	btfss	___flmul@prod+3,0
  2439  02B5  2AD5               	goto	l1783
  2440  02B6  083A               	movf	___flmul@prod,w
  2441  02B7  00AE               	movwf	??___flmul
  2442  02B8  083B               	movf	___flmul@prod+1,w
  2443  02B9  00AF               	movwf	??___flmul+1
  2444  02BA  083C               	movf	___flmul@prod+2,w
  2445  02BB  00B0               	movwf	??___flmul+2
  2446  02BC  083D               	movf	___flmul@prod+3,w
  2447  02BD  00B1               	movwf	??___flmul+3
  2448  02BE  3001               	movlw	1
  2449  02BF  00B2               	movwf	??___flmul+4
  2450  02C0                     u2175:	
  2451  02C0  0D31               	rlf	??___flmul+3,w
  2452  02C1  0CB1               	rrf	??___flmul+3,f
  2453  02C2  0CB0               	rrf	??___flmul+2,f
  2454  02C3  0CAF               	rrf	??___flmul+1,f
  2455  02C4  0CAE               	rrf	??___flmul,f
  2456  02C5  0BB2               	decfsz	??___flmul+4,f
  2457  02C6  2AC0               	goto	u2175
  2458  02C7  0831               	movf	??___flmul+3,w
  2459  02C8  00BD               	movwf	___flmul@prod+3
  2460  02C9  0830               	movf	??___flmul+2,w
  2461  02CA  00BC               	movwf	___flmul@prod+2
  2462  02CB  082F               	movf	??___flmul+1,w
  2463  02CC  00BB               	movwf	___flmul@prod+1
  2464  02CD  082E               	movf	??___flmul,w
  2465  02CE  00BA               	movwf	___flmul@prod
  2466  02CF  3001               	movlw	1
  2467  02D0  07BE               	addwf	___flmul@temp,f
  2468  02D1  1803               	skipnc
  2469  02D2  0ABF               	incf	___flmul@temp+1,f
  2470  02D3  3000               	movlw	0
  2471  02D4  07BF               	addwf	___flmul@temp+1,f
  2472  02D5                     l1783:	
  2473  02D5  083F               	movf	___flmul@temp+1,w
  2474  02D6  3A80               	xorlw	128
  2475  02D7  00FF               	movwf	127
  2476  02D8  3080               	movlw	128
  2477  02D9  027F               	subwf	127,w
  2478  02DA  1D03               	skipz
  2479  02DB  2ADE               	goto	u2185
  2480  02DC  30FF               	movlw	255
  2481  02DD  023E               	subwf	___flmul@temp,w
  2482  02DE                     u2185:	
  2483  02DE  1C03               	skipc
  2484  02DF  2AEB               	goto	l1787
  2485  02E0  307F               	movlw	127
  2486  02E1  1283               	bcf	3,5	;RP0=0, select bank0
  2487  02E2  1303               	bcf	3,6	;RP1=0, select bank0
  2488  02E3  00BD               	movwf	___flmul@prod+3
  2489  02E4  3080               	movlw	128
  2490  02E5  00BC               	movwf	___flmul@prod+2
  2491  02E6  3000               	movlw	0
  2492  02E7  00BB               	movwf	___flmul@prod+1
  2493  02E8  3000               	movlw	0
  2494  02E9  00BA               	movwf	___flmul@prod
  2495  02EA  2B1B               	goto	l612
  2496  02EB                     l1787:	
  2497  02EB  1283               	bcf	3,5	;RP0=0, select bank0
  2498  02EC  1303               	bcf	3,6	;RP1=0, select bank0
  2499  02ED  083F               	movf	___flmul@temp+1,w
  2500  02EE  3A80               	xorlw	128
  2501  02EF  00FF               	movwf	127
  2502  02F0  3080               	movlw	128
  2503  02F1  027F               	subwf	127,w
  2504  02F2  1D03               	skipz
  2505  02F3  2AF6               	goto	u2195
  2506  02F4  3001               	movlw	1
  2507  02F5  023E               	subwf	___flmul@temp,w
  2508  02F6                     u2195:	
  2509  02F6  1803               	skipnc
  2510  02F7  2B04               	goto	l1793
  2511  02F8  3000               	movlw	0
  2512  02F9  1283               	bcf	3,5	;RP0=0, select bank0
  2513  02FA  1303               	bcf	3,6	;RP1=0, select bank0
  2514  02FB  00BD               	movwf	___flmul@prod+3
  2515  02FC  3000               	movlw	0
  2516  02FD  00BC               	movwf	___flmul@prod+2
  2517  02FE  3000               	movlw	0
  2518  02FF  00BB               	movwf	___flmul@prod+1
  2519  0300  3000               	movlw	0
  2520  0301  00BA               	movwf	___flmul@prod
  2521  0302  01B3               	clrf	___flmul@sign
  2522  0303  2B1B               	goto	l612
  2523  0304                     l1793:	
  2524  0304  1283               	bcf	3,5	;RP0=0, select bank0
  2525  0305  1303               	bcf	3,6	;RP1=0, select bank0
  2526  0306  083E               	movf	___flmul@temp,w
  2527  0307  00AE               	movwf	??___flmul
  2528  0308  082E               	movf	??___flmul,w
  2529  0309  00B9               	movwf	___flmul@bexp
  2530  030A  30FF               	movlw	255
  2531  030B  05BA               	andwf	___flmul@prod,f
  2532  030C  30FF               	movlw	255
  2533  030D  05BB               	andwf	___flmul@prod+1,f
  2534  030E  307F               	movlw	127
  2535  030F  05BC               	andwf	___flmul@prod+2,f
  2536  0310  3000               	movlw	0
  2537  0311  05BD               	andwf	___flmul@prod+3,f
  2538  0312  1839               	btfsc	___flmul@bexp,0
  2539  0313  17BC               	bsf	___flmul@prod+2,7
  2540  0314  0839               	movf	___flmul@bexp,w
  2541  0315  00AE               	movwf	??___flmul
  2542  0316  1003               	clrc
  2543  0317  0C2E               	rrf	??___flmul,w
  2544  0318  00AF               	movwf	??___flmul+1
  2545  0319  082F               	movf	??___flmul+1,w
  2546  031A  00BD               	movwf	___flmul@prod+3
  2547  031B                     l612:	
  2548  031B  0833               	movf	___flmul@sign,w
  2549  031C  00AE               	movwf	??___flmul
  2550  031D  082E               	movf	??___flmul,w
  2551  031E  04BD               	iorwf	___flmul@prod+3,f
  2552  031F  083D               	movf	___flmul@prod+3,w
  2553  0320  00A9               	movwf	?___flmul+3
  2554  0321  083C               	movf	___flmul@prod+2,w
  2555  0322  00A8               	movwf	?___flmul+2
  2556  0323  083B               	movf	___flmul@prod+1,w
  2557  0324  00A7               	movwf	?___flmul+1
  2558  0325  083A               	movf	___flmul@prod,w
  2559  0326  00A6               	movwf	?___flmul
  2560  0327  0008               	return
  2561  0328                     __end_of___flmul:	
  2562                           
  2563                           	psect	text6
  2564  0E59                     __ptext6:	
  2565 ;; *************** function __Umul8_16 *****************
  2566 ;; Defined at:
  2567 ;;		line 4 in file "D:\Mplab X\xc8\pic\sources\c90\common\Umul8_16.c"
  2568 ;; Parameters:    Size  Location     Type
  2569 ;;  multiplier      1    wreg     unsigned char 
  2570 ;;  multiplicand    1    2[COMMON] unsigned char 
  2571 ;; Auto vars:     Size  Location     Type
  2572 ;;  multiplier      1   10[COMMON] unsigned char 
  2573 ;;  word_mpld       2    8[COMMON] unsigned int 
  2574 ;;  product         2    6[COMMON] unsigned int 
  2575 ;; Return value:  Size  Location     Type
  2576 ;;                  2    2[COMMON] unsigned int 
  2577 ;; Registers used:
  2578 ;;		wreg, status,2, status,0
  2579 ;; Tracked objects:
  2580 ;;		On entry : 0/0
  2581 ;;		On exit  : 0/0
  2582 ;;		Unchanged: 0/0
  2583 ;; Data sizes:     COMMON   BANK0   BANK1   BANK3   BANK2
  2584 ;;      Params:         2       0       0       0       0
  2585 ;;      Locals:         5       0       0       0       0
  2586 ;;      Temps:          2       0       0       0       0
  2587 ;;      Totals:         9       0       0       0       0
  2588 ;;Total ram usage:        9 bytes
  2589 ;; Hardware stack levels used:    1
  2590 ;; Hardware stack levels required when called:    1
  2591 ;; This function calls:
  2592 ;;		Nothing
  2593 ;; This function is called by:
  2594 ;;		___flmul
  2595 ;; This function uses a non-reentrant model
  2596 ;;
  2597                           
  2598                           
  2599                           ;psect for function __Umul8_16
  2600  0E59                     __Umul8_16:	
  2601                           
  2602                           ;incstack = 0
  2603                           ; Regs used in __Umul8_16: [wreg+status,2+status,0]
  2604                           ;__Umul8_16@multiplier stored from wreg
  2605  0E59  00FA               	movwf	__Umul8_16@multiplier
  2606  0E5A  01F6               	clrf	__Umul8_16@product
  2607  0E5B  01F7               	clrf	__Umul8_16@product+1
  2608  0E5C  0872               	movf	__Umul8_16@multiplicand,w
  2609  0E5D  00F4               	movwf	??__Umul8_16
  2610  0E5E  01F5               	clrf	??__Umul8_16+1
  2611  0E5F  0874               	movf	??__Umul8_16,w
  2612  0E60  00F8               	movwf	__Umul8_16@word_mpld
  2613  0E61  0875               	movf	??__Umul8_16+1,w
  2614  0E62  00F9               	movwf	__Umul8_16@word_mpld+1
  2615  0E63                     l1357:	
  2616  0E63  1C7A               	btfss	__Umul8_16@multiplier,0
  2617  0E64  2E6B               	goto	l657
  2618  0E65  0878               	movf	__Umul8_16@word_mpld,w
  2619  0E66  07F6               	addwf	__Umul8_16@product,f
  2620  0E67  1803               	skipnc
  2621  0E68  0AF7               	incf	__Umul8_16@product+1,f
  2622  0E69  0879               	movf	__Umul8_16@word_mpld+1,w
  2623  0E6A  07F7               	addwf	__Umul8_16@product+1,f
  2624  0E6B                     l657:	
  2625  0E6B  3001               	movlw	1
  2626  0E6C                     u1255:	
  2627  0E6C  1003               	clrc
  2628  0E6D  0DF8               	rlf	__Umul8_16@word_mpld,f
  2629  0E6E  0DF9               	rlf	__Umul8_16@word_mpld+1,f
  2630  0E6F  3EFF               	addlw	-1
  2631  0E70  1D03               	skipz
  2632  0E71  2E6C               	goto	u1255
  2633  0E72  1003               	clrc
  2634  0E73  0CFA               	rrf	__Umul8_16@multiplier,f
  2635  0E74  087A               	movf	__Umul8_16@multiplier,w
  2636  0E75  1D03               	btfss	3,2
  2637  0E76  2E63               	goto	l1357
  2638  0E77  0877               	movf	__Umul8_16@product+1,w
  2639  0E78  00F3               	movwf	?__Umul8_16+1
  2640  0E79  0876               	movf	__Umul8_16@product,w
  2641  0E7A  00F2               	movwf	?__Umul8_16
  2642  0E7B  0008               	return
  2643  0E7C                     __end_of__Umul8_16:	
  2644                           
  2645                           	psect	text7
  2646  056E                     __ptext7:	
  2647 ;; *************** function ___fldiv *****************
  2648 ;; Defined at:
  2649 ;;		line 8 in file "D:\Mplab X\xc8\pic\sources\c90\common\sprcdiv.c"
  2650 ;; Parameters:    Size  Location     Type
  2651 ;;  a               4   32[BANK0 ] unsigned int 
  2652 ;;  b               4   36[BANK0 ] unsigned int 
  2653 ;; Auto vars:     Size  Location     Type
  2654 ;;  grs             4   52[BANK0 ] unsigned long 
  2655 ;;  rem             4   45[BANK0 ] unsigned long 
  2656 ;;  new_exp         2   50[BANK0 ] int 
  2657 ;;  aexp            1   57[BANK0 ] unsigned char 
  2658 ;;  bexp            1   56[BANK0 ] unsigned char 
  2659 ;;  sign            1   49[BANK0 ] unsigned char 
  2660 ;; Return value:  Size  Location     Type
  2661 ;;                  4   32[BANK0 ] unsigned char 
  2662 ;; Registers used:
  2663 ;;		wreg, status,2, status,0, btemp+1
  2664 ;; Tracked objects:
  2665 ;;		On entry : 0/0
  2666 ;;		On exit  : 0/0
  2667 ;;		Unchanged: 0/0
  2668 ;; Data sizes:     COMMON   BANK0   BANK1   BANK3   BANK2
  2669 ;;      Params:         0       8       0       0       0
  2670 ;;      Locals:         0      13       0       0       0
  2671 ;;      Temps:          0       5       0       0       0
  2672 ;;      Totals:         0      26       0       0       0
  2673 ;;Total ram usage:       26 bytes
  2674 ;; Hardware stack levels used:    1
  2675 ;; Hardware stack levels required when called:    1
  2676 ;; This function calls:
  2677 ;;		Nothing
  2678 ;; This function is called by:
  2679 ;;		_main
  2680 ;; This function uses a non-reentrant model
  2681 ;;
  2682                           
  2683                           
  2684                           ;psect for function ___fldiv
  2685  056E                     ___fldiv:	
  2686                           
  2687                           ;incstack = 0
  2688                           ; Regs used in ___fldiv: [wreg+status,2+status,0+btemp+1]
  2689  056E  1283               	bcf	3,5	;RP0=0, select bank0
  2690  056F  1303               	bcf	3,6	;RP1=0, select bank0
  2691  0570  0847               	movf	___fldiv@b+3,w
  2692  0571  3980               	andlw	128
  2693  0572  00C8               	movwf	??___fldiv
  2694  0573  0848               	movf	??___fldiv,w
  2695  0574  00D1               	movwf	___fldiv@sign
  2696  0575  0847               	movf	___fldiv@b+3,w
  2697  0576  00C8               	movwf	??___fldiv
  2698  0577  0748               	addwf	??___fldiv,w
  2699  0578  00C9               	movwf	??___fldiv+1
  2700  0579  0849               	movf	??___fldiv+1,w
  2701  057A  00D8               	movwf	___fldiv@bexp
  2702  057B  1BC6               	btfsc	___fldiv@b+2,7
  2703  057C  1458               	bsf	___fldiv@bexp,0
  2704  057D  0858               	movf	___fldiv@bexp,w
  2705  057E  1903               	btfsc	3,2
  2706  057F  2D8E               	goto	l1541
  2707  0580  0A58               	incf	___fldiv@bexp,w
  2708  0581  1D03               	btfss	3,2
  2709  0582  2D8B               	goto	l1537
  2710  0583  3000               	movlw	0
  2711  0584  00C7               	movwf	___fldiv@b+3
  2712  0585  3000               	movlw	0
  2713  0586  00C6               	movwf	___fldiv@b+2
  2714  0587  3000               	movlw	0
  2715  0588  00C5               	movwf	___fldiv@b+1
  2716  0589  3000               	movlw	0
  2717  058A  00C4               	movwf	___fldiv@b
  2718  058B                     l1537:	
  2719  058B  17C6               	bsf	___fldiv@b+2,7
  2720  058C  01C7               	clrf	___fldiv@b+3
  2721  058D  2D96               	goto	l1543
  2722  058E                     l1541:	
  2723  058E  3000               	movlw	0
  2724  058F  00C7               	movwf	___fldiv@b+3
  2725  0590  3000               	movlw	0
  2726  0591  00C6               	movwf	___fldiv@b+2
  2727  0592  3000               	movlw	0
  2728  0593  00C5               	movwf	___fldiv@b+1
  2729  0594  3000               	movlw	0
  2730  0595  00C4               	movwf	___fldiv@b
  2731  0596                     l1543:	
  2732  0596  0843               	movf	___fldiv@a+3,w
  2733  0597  3980               	andlw	128
  2734  0598  00C8               	movwf	??___fldiv
  2735  0599  0848               	movf	??___fldiv,w
  2736  059A  06D1               	xorwf	___fldiv@sign,f
  2737  059B  0843               	movf	___fldiv@a+3,w
  2738  059C  00C8               	movwf	??___fldiv
  2739  059D  0748               	addwf	??___fldiv,w
  2740  059E  00C9               	movwf	??___fldiv+1
  2741  059F  0849               	movf	??___fldiv+1,w
  2742  05A0  00D9               	movwf	___fldiv@aexp
  2743  05A1  1BC2               	btfsc	___fldiv@a+2,7
  2744  05A2  1459               	bsf	___fldiv@aexp,0
  2745  05A3  0859               	movf	___fldiv@aexp,w
  2746  05A4  1903               	btfsc	3,2
  2747  05A5  2DB4               	goto	l1561
  2748  05A6  0A59               	incf	___fldiv@aexp,w
  2749  05A7  1D03               	btfss	3,2
  2750  05A8  2DB1               	goto	l1557
  2751  05A9  3000               	movlw	0
  2752  05AA  00C3               	movwf	___fldiv@a+3
  2753  05AB  3000               	movlw	0
  2754  05AC  00C2               	movwf	___fldiv@a+2
  2755  05AD  3000               	movlw	0
  2756  05AE  00C1               	movwf	___fldiv@a+1
  2757  05AF  3000               	movlw	0
  2758  05B0  00C0               	movwf	___fldiv@a
  2759  05B1                     l1557:	
  2760  05B1  17C2               	bsf	___fldiv@a+2,7
  2761  05B2  01C3               	clrf	___fldiv@a+3
  2762  05B3  2DBC               	goto	l560
  2763  05B4                     l1561:	
  2764  05B4  3000               	movlw	0
  2765  05B5  00C3               	movwf	___fldiv@a+3
  2766  05B6  3000               	movlw	0
  2767  05B7  00C2               	movwf	___fldiv@a+2
  2768  05B8  3000               	movlw	0
  2769  05B9  00C1               	movwf	___fldiv@a+1
  2770  05BA  3000               	movlw	0
  2771  05BB  00C0               	movwf	___fldiv@a
  2772  05BC                     l560:	
  2773  05BC  0843               	movf	___fldiv@a+3,w
  2774  05BD  0442               	iorwf	___fldiv@a+2,w
  2775  05BE  0441               	iorwf	___fldiv@a+1,w
  2776  05BF  0440               	iorwf	___fldiv@a,w
  2777  05C0  1D03               	skipz
  2778  05C1  2DDB               	goto	l1571
  2779  05C2  3000               	movlw	0
  2780  05C3  00C7               	movwf	___fldiv@b+3
  2781  05C4  3000               	movlw	0
  2782  05C5  00C6               	movwf	___fldiv@b+2
  2783  05C6  3000               	movlw	0
  2784  05C7  00C5               	movwf	___fldiv@b+1
  2785  05C8  3000               	movlw	0
  2786  05C9  00C4               	movwf	___fldiv@b
  2787  05CA  3080               	movlw	128
  2788  05CB  04C6               	iorwf	___fldiv@b+2,f
  2789  05CC  307F               	movlw	127
  2790  05CD  04C7               	iorwf	___fldiv@b+3,f
  2791  05CE                     L1:	
  2792  05CE  0851               	movf	___fldiv@sign,w
  2793  05CF  00C8               	movwf	??___fldiv
  2794  05D0  0848               	movf	??___fldiv,w
  2795  05D1  04C7               	iorwf	___fldiv@b+3,f
  2796  05D2  0847               	movf	___fldiv@b+3,w
  2797  05D3  00C3               	movwf	?___fldiv+3
  2798  05D4  0846               	movf	___fldiv@b+2,w
  2799  05D5  00C2               	movwf	?___fldiv+2
  2800  05D6  0845               	movf	___fldiv@b+1,w
  2801  05D7  00C1               	movwf	?___fldiv+1
  2802  05D8  0844               	movf	___fldiv@b,w
  2803  05D9  00C0               	movwf	?___fldiv
  2804  05DA  0008               	return
  2805  05DB                     l1571:	
  2806  05DB  0858               	movf	___fldiv@bexp,w
  2807  05DC  1D03               	btfss	3,2
  2808  05DD  2DE7               	goto	l1577
  2809  05DE  3000               	movlw	0
  2810  05DF  00C3               	movwf	?___fldiv+3
  2811  05E0  3000               	movlw	0
  2812  05E1  00C2               	movwf	?___fldiv+2
  2813  05E2  3000               	movlw	0
  2814  05E3  00C1               	movwf	?___fldiv+1
  2815  05E4  3000               	movlw	0
  2816  05E5  00C0               	movwf	?___fldiv
  2817  05E6  0008               	return
  2818  05E7                     l1577:	
  2819  05E7  0858               	movf	___fldiv@bexp,w
  2820  05E8  00C8               	movwf	??___fldiv
  2821  05E9  01C9               	clrf	??___fldiv+1
  2822  05EA  0849               	movf	??___fldiv+1,w
  2823  05EB  00CB               	movwf	??___fldiv+3
  2824  05EC  0859               	movf	___fldiv@aexp,w
  2825  05ED  0248               	subwf	??___fldiv,w
  2826  05EE  00CA               	movwf	??___fldiv+2
  2827  05EF  1C03               	skipc
  2828  05F0  03CB               	decf	??___fldiv+3,f
  2829  05F1  084A               	movf	??___fldiv+2,w
  2830  05F2  3E7F               	addlw	127
  2831  05F3  00D2               	movwf	___fldiv@new_exp
  2832  05F4  084B               	movf	??___fldiv+3,w
  2833  05F5  1803               	skipnc
  2834  05F6  3E01               	addlw	1
  2835  05F7  3E00               	addlw	0
  2836  05F8  00D3               	movwf	___fldiv@new_exp+1
  2837  05F9  0847               	movf	___fldiv@b+3,w
  2838  05FA  00D0               	movwf	___fldiv@rem+3
  2839  05FB  0846               	movf	___fldiv@b+2,w
  2840  05FC  00CF               	movwf	___fldiv@rem+2
  2841  05FD  0845               	movf	___fldiv@b+1,w
  2842  05FE  00CE               	movwf	___fldiv@rem+1
  2843  05FF  0844               	movf	___fldiv@b,w
  2844  0600  00CD               	movwf	___fldiv@rem
  2845  0601  3000               	movlw	0
  2846  0602  00C7               	movwf	___fldiv@b+3
  2847  0603  3000               	movlw	0
  2848  0604  00C6               	movwf	___fldiv@b+2
  2849  0605  3000               	movlw	0
  2850  0606  00C5               	movwf	___fldiv@b+1
  2851  0607  3000               	movlw	0
  2852  0608  00C4               	movwf	___fldiv@b
  2853  0609  3000               	movlw	0
  2854  060A  00D7               	movwf	___fldiv@grs+3
  2855  060B  3000               	movlw	0
  2856  060C  00D6               	movwf	___fldiv@grs+2
  2857  060D  3000               	movlw	0
  2858  060E  00D5               	movwf	___fldiv@grs+1
  2859  060F  3000               	movlw	0
  2860  0610  00D4               	movwf	___fldiv@grs
  2861  0611  01D9               	clrf	___fldiv@aexp
  2862  0612                     l1605:	
  2863  0612  301A               	movlw	26
  2864  0613  0259               	subwf	___fldiv@aexp,w
  2865  0614  1803               	btfsc	3,0
  2866  0615  2E5A               	goto	l1607
  2867  0616  0859               	movf	___fldiv@aexp,w
  2868  0617  1903               	btfsc	3,2
  2869  0618  2E36               	goto	l1597
  2870  0619  3001               	movlw	1
  2871  061A  00C8               	movwf	??___fldiv
  2872  061B                     u1645:	
  2873  061B  1003               	clrc
  2874  061C  0DCD               	rlf	___fldiv@rem,f
  2875  061D  0DCE               	rlf	___fldiv@rem+1,f
  2876  061E  0DCF               	rlf	___fldiv@rem+2,f
  2877  061F  0DD0               	rlf	___fldiv@rem+3,f
  2878  0620  0BC8               	decfsz	??___fldiv,f
  2879  0621  2E1B               	goto	u1645
  2880  0622  3001               	movlw	1
  2881  0623  00C8               	movwf	??___fldiv
  2882  0624                     u1655:	
  2883  0624  1003               	clrc
  2884  0625  0DC4               	rlf	___fldiv@b,f
  2885  0626  0DC5               	rlf	___fldiv@b+1,f
  2886  0627  0DC6               	rlf	___fldiv@b+2,f
  2887  0628  0DC7               	rlf	___fldiv@b+3,f
  2888  0629  0BC8               	decfsz	??___fldiv,f
  2889  062A  2E24               	goto	u1655
  2890  062B  1BD7               	btfsc	___fldiv@grs+3,7
  2891  062C  1444               	bsf	___fldiv@b,0
  2892  062D  3001               	movlw	1
  2893  062E  00C8               	movwf	??___fldiv
  2894  062F                     u1675:	
  2895  062F  1003               	clrc
  2896  0630  0DD4               	rlf	___fldiv@grs,f
  2897  0631  0DD5               	rlf	___fldiv@grs+1,f
  2898  0632  0DD6               	rlf	___fldiv@grs+2,f
  2899  0633  0DD7               	rlf	___fldiv@grs+3,f
  2900  0634  0BC8               	decfsz	??___fldiv,f
  2901  0635  2E2F               	goto	u1675
  2902  0636                     l1597:	
  2903  0636  0843               	movf	___fldiv@a+3,w
  2904  0637  0250               	subwf	___fldiv@rem+3,w
  2905  0638  1D03               	skipz
  2906  0639  2E44               	goto	u1685
  2907  063A  0842               	movf	___fldiv@a+2,w
  2908  063B  024F               	subwf	___fldiv@rem+2,w
  2909  063C  1D03               	skipz
  2910  063D  2E44               	goto	u1685
  2911  063E  0841               	movf	___fldiv@a+1,w
  2912  063F  024E               	subwf	___fldiv@rem+1,w
  2913  0640  1D03               	skipz
  2914  0641  2E44               	goto	u1685
  2915  0642  0840               	movf	___fldiv@a,w
  2916  0643  024D               	subwf	___fldiv@rem,w
  2917  0644                     u1685:	
  2918  0644  1C03               	skipc
  2919  0645  2E55               	goto	l1603
  2920  0646  1757               	bsf	___fldiv@grs+3,6
  2921  0647  0840               	movf	___fldiv@a,w
  2922  0648  02CD               	subwf	___fldiv@rem,f
  2923  0649  0841               	movf	___fldiv@a+1,w
  2924  064A  1C03               	skipc
  2925  064B  0F41               	incfsz	___fldiv@a+1,w
  2926  064C  02CE               	subwf	___fldiv@rem+1,f
  2927  064D  0842               	movf	___fldiv@a+2,w
  2928  064E  1C03               	skipc
  2929  064F  0F42               	incfsz	___fldiv@a+2,w
  2930  0650  02CF               	subwf	___fldiv@rem+2,f
  2931  0651  0843               	movf	___fldiv@a+3,w
  2932  0652  1C03               	skipc
  2933  0653  0F43               	incfsz	___fldiv@a+3,w
  2934  0654  02D0               	subwf	___fldiv@rem+3,f
  2935  0655                     l1603:	
  2936  0655  3001               	movlw	1
  2937  0656  00C8               	movwf	??___fldiv
  2938  0657  0848               	movf	??___fldiv,w
  2939  0658  07D9               	addwf	___fldiv@aexp,f
  2940  0659  2E12               	goto	l1605
  2941  065A                     l1607:	
  2942  065A  0850               	movf	___fldiv@rem+3,w
  2943  065B  044F               	iorwf	___fldiv@rem+2,w
  2944  065C  044E               	iorwf	___fldiv@rem+1,w
  2945  065D  044D               	iorwf	___fldiv@rem,w
  2946  065E  1D03               	btfss	3,2
  2947  065F  1454               	bsf	___fldiv@grs,0
  2948  0660                     l1621:	
  2949  0660  1BC6               	btfsc	___fldiv@b+2,7
  2950  0661  2E7D               	goto	l1623
  2951  0662  3001               	movlw	1
  2952  0663  00C8               	movwf	??___fldiv
  2953  0664                     u1715:	
  2954  0664  1003               	clrc
  2955  0665  0DC4               	rlf	___fldiv@b,f
  2956  0666  0DC5               	rlf	___fldiv@b+1,f
  2957  0667  0DC6               	rlf	___fldiv@b+2,f
  2958  0668  0DC7               	rlf	___fldiv@b+3,f
  2959  0669  0BC8               	decfsz	??___fldiv,f
  2960  066A  2E64               	goto	u1715
  2961  066B  1BD7               	btfsc	___fldiv@grs+3,7
  2962  066C  1444               	bsf	___fldiv@b,0
  2963  066D  3001               	movlw	1
  2964  066E  00C8               	movwf	??___fldiv
  2965  066F                     u1735:	
  2966  066F  1003               	clrc
  2967  0670  0DD4               	rlf	___fldiv@grs,f
  2968  0671  0DD5               	rlf	___fldiv@grs+1,f
  2969  0672  0DD6               	rlf	___fldiv@grs+2,f
  2970  0673  0DD7               	rlf	___fldiv@grs+3,f
  2971  0674  0BC8               	decfsz	??___fldiv,f
  2972  0675  2E6F               	goto	u1735
  2973  0676  30FF               	movlw	255
  2974  0677  07D2               	addwf	___fldiv@new_exp,f
  2975  0678  1803               	skipnc
  2976  0679  0AD3               	incf	___fldiv@new_exp+1,f
  2977  067A  30FF               	movlw	255
  2978  067B  07D3               	addwf	___fldiv@new_exp+1,f
  2979  067C  2E60               	goto	l1621
  2980  067D                     l1623:	
  2981  067D  01D9               	clrf	___fldiv@aexp
  2982  067E  1FD7               	btfss	___fldiv@grs+3,7
  2983  067F  2E96               	goto	l1633
  2984  0680  30FF               	movlw	255
  2985  0681  0554               	andwf	___fldiv@grs,w
  2986  0682  00C8               	movwf	??___fldiv
  2987  0683  30FF               	movlw	255
  2988  0684  0555               	andwf	___fldiv@grs+1,w
  2989  0685  00C9               	movwf	??___fldiv+1
  2990  0686  30FF               	movlw	255
  2991  0687  0556               	andwf	___fldiv@grs+2,w
  2992  0688  00CA               	movwf	??___fldiv+2
  2993  0689  307F               	movlw	127
  2994  068A  0557               	andwf	___fldiv@grs+3,w
  2995  068B  00CB               	movwf	??___fldiv+3
  2996  068C  084B               	movf	??___fldiv+3,w
  2997  068D  044A               	iorwf	??___fldiv+2,w
  2998  068E  0449               	iorwf	??___fldiv+1,w
  2999  068F  0448               	iorwf	??___fldiv,w
  3000  0690  1903               	skipnz
  3001  0691  1844               	btfsc	___fldiv@b,0
  3002  0692  2E94               	goto	l1629
  3003  0693  2E96               	goto	l1633
  3004  0694                     l1629:	
  3005  0694  01D9               	clrf	___fldiv@aexp
  3006  0695  0AD9               	incf	___fldiv@aexp,f
  3007  0696                     l1633:	
  3008  0696  0859               	movf	___fldiv@aexp,w
  3009  0697  1903               	btfsc	3,2
  3010  0698  2EC8               	goto	l1643
  3011  0699  3001               	movlw	1
  3012  069A  07C4               	addwf	___fldiv@b,f
  3013  069B  3000               	movlw	0
  3014  069C  1803               	skipnc
  3015  069D  3001               	movlw	1
  3016  069E  07C5               	addwf	___fldiv@b+1,f
  3017  069F  3000               	movlw	0
  3018  06A0  1803               	skipnc
  3019  06A1  3001               	movlw	1
  3020  06A2  07C6               	addwf	___fldiv@b+2,f
  3021  06A3  3000               	movlw	0
  3022  06A4  1803               	skipnc
  3023  06A5  3001               	movlw	1
  3024  06A6  07C7               	addwf	___fldiv@b+3,f
  3025  06A7  1C47               	btfss	___fldiv@b+3,0
  3026  06A8  2EC8               	goto	l1643
  3027  06A9  0844               	movf	___fldiv@b,w
  3028  06AA  00C8               	movwf	??___fldiv
  3029  06AB  0845               	movf	___fldiv@b+1,w
  3030  06AC  00C9               	movwf	??___fldiv+1
  3031  06AD  0846               	movf	___fldiv@b+2,w
  3032  06AE  00CA               	movwf	??___fldiv+2
  3033  06AF  0847               	movf	___fldiv@b+3,w
  3034  06B0  00CB               	movwf	??___fldiv+3
  3035  06B1  3001               	movlw	1
  3036  06B2  00CC               	movwf	??___fldiv+4
  3037  06B3                     u1805:	
  3038  06B3  0D4B               	rlf	??___fldiv+3,w
  3039  06B4  0CCB               	rrf	??___fldiv+3,f
  3040  06B5  0CCA               	rrf	??___fldiv+2,f
  3041  06B6  0CC9               	rrf	??___fldiv+1,f
  3042  06B7  0CC8               	rrf	??___fldiv,f
  3043  06B8  0BCC               	decfsz	??___fldiv+4,f
  3044  06B9  2EB3               	goto	u1805
  3045  06BA  084B               	movf	??___fldiv+3,w
  3046  06BB  00C7               	movwf	___fldiv@b+3
  3047  06BC  084A               	movf	??___fldiv+2,w
  3048  06BD  00C6               	movwf	___fldiv@b+2
  3049  06BE  0849               	movf	??___fldiv+1,w
  3050  06BF  00C5               	movwf	___fldiv@b+1
  3051  06C0  0848               	movf	??___fldiv,w
  3052  06C1  00C4               	movwf	___fldiv@b
  3053  06C2  3001               	movlw	1
  3054  06C3  07D2               	addwf	___fldiv@new_exp,f
  3055  06C4  1803               	skipnc
  3056  06C5  0AD3               	incf	___fldiv@new_exp+1,f
  3057  06C6  3000               	movlw	0
  3058  06C7  07D3               	addwf	___fldiv@new_exp+1,f
  3059  06C8                     l1643:	
  3060  06C8  0853               	movf	___fldiv@new_exp+1,w
  3061  06C9  3A80               	xorlw	128
  3062  06CA  00FF               	movwf	127
  3063  06CB  3080               	movlw	128
  3064  06CC  027F               	subwf	127,w
  3065  06CD  1D03               	skipz
  3066  06CE  2ED1               	goto	u1815
  3067  06CF  30FF               	movlw	255
  3068  06D0  0252               	subwf	___fldiv@new_exp,w
  3069  06D1                     u1815:	
  3070  06D1  1C03               	skipc
  3071  06D2  2EE1               	goto	l1647
  3072  06D3  30FF               	movlw	255
  3073  06D4  1283               	bcf	3,5	;RP0=0, select bank0
  3074  06D5  1303               	bcf	3,6	;RP1=0, select bank0
  3075  06D6  00D2               	movwf	___fldiv@new_exp
  3076  06D7  3000               	movlw	0
  3077  06D8  00D3               	movwf	___fldiv@new_exp+1
  3078  06D9  3000               	movlw	0
  3079  06DA  00C7               	movwf	___fldiv@b+3
  3080  06DB  3000               	movlw	0
  3081  06DC  00C6               	movwf	___fldiv@b+2
  3082  06DD  3000               	movlw	0
  3083  06DE  00C5               	movwf	___fldiv@b+1
  3084  06DF  3000               	movlw	0
  3085  06E0  00C4               	movwf	___fldiv@b
  3086  06E1                     l1647:	
  3087  06E1  1283               	bcf	3,5	;RP0=0, select bank0
  3088  06E2  1303               	bcf	3,6	;RP1=0, select bank0
  3089  06E3  0853               	movf	___fldiv@new_exp+1,w
  3090  06E4  3A80               	xorlw	128
  3091  06E5  00FF               	movwf	127
  3092  06E6  3080               	movlw	128
  3093  06E7  027F               	subwf	127,w
  3094  06E8  1D03               	skipz
  3095  06E9  2EEC               	goto	u1825
  3096  06EA  3001               	movlw	1
  3097  06EB  0252               	subwf	___fldiv@new_exp,w
  3098  06EC                     u1825:	
  3099  06EC  1803               	skipnc
  3100  06ED  2EFB               	goto	l582
  3101  06EE  1283               	bcf	3,5	;RP0=0, select bank0
  3102  06EF  1303               	bcf	3,6	;RP1=0, select bank0
  3103  06F0  01D2               	clrf	___fldiv@new_exp
  3104  06F1  01D3               	clrf	___fldiv@new_exp+1
  3105  06F2  3000               	movlw	0
  3106  06F3  00C7               	movwf	___fldiv@b+3
  3107  06F4  3000               	movlw	0
  3108  06F5  00C6               	movwf	___fldiv@b+2
  3109  06F6  3000               	movlw	0
  3110  06F7  00C5               	movwf	___fldiv@b+1
  3111  06F8  3000               	movlw	0
  3112  06F9  00C4               	movwf	___fldiv@b
  3113  06FA  01D1               	clrf	___fldiv@sign
  3114  06FB                     l582:	
  3115  06FB  1283               	bcf	3,5	;RP0=0, select bank0
  3116  06FC  1303               	bcf	3,6	;RP1=0, select bank0
  3117  06FD  0852               	movf	___fldiv@new_exp,w
  3118  06FE  00C8               	movwf	??___fldiv
  3119  06FF  0848               	movf	??___fldiv,w
  3120  0700  00D8               	movwf	___fldiv@bexp
  3121  0701  1C58               	btfss	___fldiv@bexp,0
  3122  0702  2F05               	goto	l1659
  3123  0703  17C6               	bsf	___fldiv@b+2,7
  3124  0704  2F09               	goto	l584
  3125  0705                     l1659:	
  3126  0705  307F               	movlw	127
  3127  0706  00C8               	movwf	??___fldiv
  3128  0707  0848               	movf	??___fldiv,w
  3129  0708  05C6               	andwf	___fldiv@b+2,f
  3130  0709                     l584:	
  3131  0709  0858               	movf	___fldiv@bexp,w
  3132  070A  00C8               	movwf	??___fldiv
  3133  070B  1003               	clrc
  3134  070C  0C48               	rrf	??___fldiv,w
  3135  070D  00C9               	movwf	??___fldiv+1
  3136  070E  0849               	movf	??___fldiv+1,w
  3137  070F  00C7               	movwf	___fldiv@b+3
  3138  0710  2DCE               	goto	L1
  3139  0711                     __end_of___fldiv:	
  3140                           
  3141                           	psect	text8
  3142  0DF1                     __ptext8:	
  3143 ;; *************** function _Timer1_Init *****************
  3144 ;; Defined at:
  3145 ;;		line 49 in file "capture.c"
  3146 ;; Parameters:    Size  Location     Type
  3147 ;;		None
  3148 ;; Auto vars:     Size  Location     Type
  3149 ;;		None
  3150 ;; Return value:  Size  Location     Type
  3151 ;;                  1    wreg      void 
  3152 ;; Registers used:
  3153 ;;		status,2
  3154 ;; Tracked objects:
  3155 ;;		On entry : 0/0
  3156 ;;		On exit  : 0/0
  3157 ;;		Unchanged: 0/0
  3158 ;; Data sizes:     COMMON   BANK0   BANK1   BANK3   BANK2
  3159 ;;      Params:         0       0       0       0       0
  3160 ;;      Locals:         0       0       0       0       0
  3161 ;;      Temps:          0       0       0       0       0
  3162 ;;      Totals:         0       0       0       0       0
  3163 ;;Total ram usage:        0 bytes
  3164 ;; Hardware stack levels used:    1
  3165 ;; Hardware stack levels required when called:    1
  3166 ;; This function calls:
  3167 ;;		Nothing
  3168 ;; This function is called by:
  3169 ;;		_main
  3170 ;; This function uses a non-reentrant model
  3171 ;;
  3172                           
  3173                           
  3174                           ;psect for function _Timer1_Init
  3175  0DF1                     _Timer1_Init:	
  3176                           
  3177                           ;capture.c: 52:     TMR1 = 0;
  3178                           
  3179                           ;incstack = 0
  3180                           ; Regs used in _Timer1_Init: [status,2]
  3181  0DF1  1283               	bcf	3,5	;RP0=0, select bank0
  3182  0DF2  1303               	bcf	3,6	;RP1=0, select bank0
  3183  0DF3  018E               	clrf	14	;volatile
  3184  0DF4  018F               	clrf	15	;volatile
  3185                           
  3186                           ;capture.c: 54:     T1CKPS1 = 1;
  3187  0DF5  1690               	bsf	16,5	;volatile
  3188                           
  3189                           ;capture.c: 55:     T1CKPS0 = 1;
  3190  0DF6  1610               	bsf	16,4	;volatile
  3191                           
  3192                           ;capture.c: 56:     T1OSCEN = 0;
  3193  0DF7  1190               	bcf	16,3	;volatile
  3194                           
  3195                           ;capture.c: 57:     T1SYNC = 0;
  3196  0DF8  1110               	bcf	16,2	;volatile
  3197                           
  3198                           ;capture.c: 58:     TMR1CS = 0;
  3199  0DF9  1090               	bcf	16,1	;volatile
  3200                           
  3201                           ;capture.c: 60:     GIE = 1;
  3202  0DFA  178B               	bsf	11,7	;volatile
  3203                           
  3204                           ;capture.c: 61:     PEIE = 1;
  3205  0DFB  170B               	bsf	11,6	;volatile
  3206                           
  3207                           ;capture.c: 62:     TMR1IE = 0;
  3208  0DFC  1683               	bsf	3,5	;RP0=1, select bank1
  3209  0DFD  1303               	bcf	3,6	;RP1=0, select bank1
  3210  0DFE  100C               	bcf	12,0	;volatile
  3211                           
  3212                           ;capture.c: 64:     TMR1ON = 1;
  3213  0DFF  1283               	bcf	3,5	;RP0=0, select bank0
  3214  0E00  1303               	bcf	3,6	;RP1=0, select bank0
  3215  0E01  1410               	bsf	16,0	;volatile
  3216  0E02  0008               	return
  3217  0E03                     __end_of_Timer1_Init:	
  3218                           
  3219                           	psect	text9
  3220  0E37                     __ptext9:	
  3221 ;; *************** function _Lcd_Write_String *****************
  3222 ;; Defined at:
  3223 ;;		line 98 in file "lcd4.c"
  3224 ;; Parameters:    Size  Location     Type
  3225 ;;  a               1    wreg     PTR unsigned char 
  3226 ;;		 -> STR_2(9), STR_1(10), 
  3227 ;; Auto vars:     Size  Location     Type
  3228 ;;  a               1    9[COMMON] PTR unsigned char 
  3229 ;;		 -> STR_2(9), STR_1(10), 
  3230 ;;  i               2    7[COMMON] int 
  3231 ;; Return value:  Size  Location     Type
  3232 ;;                  1    wreg      void 
  3233 ;; Registers used:
  3234 ;;		wreg, fsr0l, fsr0h, status,2, status,0, pclath, cstack
  3235 ;; Tracked objects:
  3236 ;;		On entry : 0/0
  3237 ;;		On exit  : 0/0
  3238 ;;		Unchanged: 0/0
  3239 ;; Data sizes:     COMMON   BANK0   BANK1   BANK3   BANK2
  3240 ;;      Params:         0       0       0       0       0
  3241 ;;      Locals:         3       0       0       0       0
  3242 ;;      Temps:          0       0       0       0       0
  3243 ;;      Totals:         3       0       0       0       0
  3244 ;;Total ram usage:        3 bytes
  3245 ;; Hardware stack levels used:    1
  3246 ;; Hardware stack levels required when called:    3
  3247 ;; This function calls:
  3248 ;;		_Lcd_Write_Char
  3249 ;; This function is called by:
  3250 ;;		_main
  3251 ;; This function uses a non-reentrant model
  3252 ;;
  3253                           
  3254                           
  3255                           ;psect for function _Lcd_Write_String
  3256  0E37                     _Lcd_Write_String:	
  3257                           
  3258                           ;incstack = 0
  3259                           ; Regs used in _Lcd_Write_String: [wreg-fsr0h+status,2+status,0+pclath+cstack]
  3260                           ;Lcd_Write_String@a stored from wreg
  3261  0E37  00F9               	movwf	Lcd_Write_String@a
  3262                           
  3263                           ;lcd4.c: 98: void Lcd_Write_String(char *a);lcd4.c: 99: {;lcd4.c: 100:  int i;;lcd4.c: 1
      +                          01:  for(i=0;a[i]!='\0';i++)
  3264  0E38  01F7               	clrf	Lcd_Write_String@i
  3265  0E39  01F8               	clrf	Lcd_Write_String@i+1
  3266  0E3A                     l1417:	
  3267  0E3A  0877               	movf	Lcd_Write_String@i,w
  3268  0E3B  0779               	addwf	Lcd_Write_String@a,w
  3269  0E3C  0084               	movwf	4
  3270  0E3D  120A  158A  2000  120A  158A  	fcall	stringdir
  3271  0E42  3A00               	xorlw	0
  3272  0E43  1903               	btfsc	3,2
  3273  0E44  0008               	return
  3274                           
  3275                           ;lcd4.c: 102:     Lcd_Write_Char(a[i]);
  3276  0E45  0877               	movf	Lcd_Write_String@i,w
  3277  0E46  0779               	addwf	Lcd_Write_String@a,w
  3278  0E47  0084               	movwf	4
  3279  0E48  120A  158A  2000  120A  158A  	fcall	stringdir
  3280  0E4D  120A  158A  26AE  120A  158A  	fcall	_Lcd_Write_Char
  3281  0E52  3001               	movlw	1
  3282  0E53  07F7               	addwf	Lcd_Write_String@i,f
  3283  0E54  1803               	skipnc
  3284  0E55  0AF8               	incf	Lcd_Write_String@i+1,f
  3285  0E56  3000               	movlw	0
  3286  0E57  07F8               	addwf	Lcd_Write_String@i+1,f
  3287  0E58  2E3A               	goto	l1417
  3288  0E59                     __end_of_Lcd_Write_String:	
  3289                           
  3290                           	psect	text10
  3291  0EAE                     __ptext10:	
  3292 ;; *************** function _Lcd_Write_Char *****************
  3293 ;; Defined at:
  3294 ;;		line 82 in file "lcd4.c"
  3295 ;; Parameters:    Size  Location     Type
  3296 ;;  a               1    wreg     unsigned char 
  3297 ;; Auto vars:     Size  Location     Type
  3298 ;;  a               1    6[COMMON] unsigned char 
  3299 ;;  y               1    5[COMMON] unsigned char 
  3300 ;;  temp            1    4[COMMON] unsigned char 
  3301 ;; Return value:  Size  Location     Type
  3302 ;;                  1    wreg      void 
  3303 ;; Registers used:
  3304 ;;		wreg, status,2, status,0, pclath, cstack
  3305 ;; Tracked objects:
  3306 ;;		On entry : 0/0
  3307 ;;		On exit  : 0/0
  3308 ;;		Unchanged: 0/0
  3309 ;; Data sizes:     COMMON   BANK0   BANK1   BANK3   BANK2
  3310 ;;      Params:         0       0       0       0       0
  3311 ;;      Locals:         3       0       0       0       0
  3312 ;;      Temps:          1       0       0       0       0
  3313 ;;      Totals:         4       0       0       0       0
  3314 ;;Total ram usage:        4 bytes
  3315 ;; Hardware stack levels used:    1
  3316 ;; Hardware stack levels required when called:    2
  3317 ;; This function calls:
  3318 ;;		_Lcd_Port
  3319 ;; This function is called by:
  3320 ;;		_main
  3321 ;;		_Lcd_Write_String
  3322 ;; This function uses a non-reentrant model
  3323 ;;
  3324                           
  3325                           
  3326                           ;psect for function _Lcd_Write_Char
  3327  0EAE                     _Lcd_Write_Char:	
  3328                           
  3329                           ;incstack = 0
  3330                           ; Regs used in _Lcd_Write_Char: [wreg+status,2+status,0+pclath+cstack]
  3331                           ;Lcd_Write_Char@a stored from wreg
  3332  0EAE  00F6               	movwf	Lcd_Write_Char@a
  3333                           
  3334                           ;lcd4.c: 82: void Lcd_Write_Char(char a);lcd4.c: 83: {;lcd4.c: 84:    char temp,y;;lcd4.
      +                          c: 85:    temp = a&0x0F;
  3335  0EAF  0876               	movf	Lcd_Write_Char@a,w
  3336  0EB0  390F               	andlw	15
  3337  0EB1  00F3               	movwf	??_Lcd_Write_Char
  3338  0EB2  0873               	movf	??_Lcd_Write_Char,w
  3339  0EB3  00F4               	movwf	Lcd_Write_Char@temp
  3340                           
  3341                           ;lcd4.c: 86:    y = a&0xF0;
  3342  0EB4  0876               	movf	Lcd_Write_Char@a,w
  3343  0EB5  39F0               	andlw	240
  3344  0EB6  00F3               	movwf	??_Lcd_Write_Char
  3345  0EB7  0873               	movf	??_Lcd_Write_Char,w
  3346  0EB8  00F5               	movwf	Lcd_Write_Char@y
  3347                           
  3348                           ;lcd4.c: 87:    RD0 = 1;
  3349  0EB9  1283               	bcf	3,5	;RP0=0, select bank0
  3350  0EBA  1303               	bcf	3,6	;RP1=0, select bank0
  3351  0EBB  1408               	bsf	8,0	;volatile
  3352                           
  3353                           ;lcd4.c: 88:    Lcd_Port(y>>4);
  3354  0EBC  0875               	movf	Lcd_Write_Char@y,w
  3355  0EBD  00F3               	movwf	??_Lcd_Write_Char
  3356  0EBE  3004               	movlw	4
  3357  0EBF                     u1235:	
  3358  0EBF  1003               	clrc
  3359  0EC0  0CF3               	rrf	??_Lcd_Write_Char,f
  3360  0EC1  3EFF               	addlw	-1
  3361  0EC2  1D03               	skipz
  3362  0EC3  2EBF               	goto	u1235
  3363  0EC4  0873               	movf	??_Lcd_Write_Char,w
  3364  0EC5  120A  158A  2603  120A  158A  	fcall	_Lcd_Port
  3365                           
  3366                           ;lcd4.c: 89:    RD1 = 1;
  3367  0ECA  1283               	bcf	3,5	;RP0=0, select bank0
  3368  0ECB  1303               	bcf	3,6	;RP1=0, select bank0
  3369  0ECC  1488               	bsf	8,1	;volatile
  3370                           
  3371                           ;lcd4.c: 90:    _delay((unsigned long)((40)*(20000000/4000000.0)));
  3372  0ECD  3042               	movlw	66
  3373  0ECE  00F3               	movwf	??_Lcd_Write_Char
  3374  0ECF                     u2357:	
  3375  0ECF  0BF3               	decfsz	??_Lcd_Write_Char,f
  3376  0ED0  2ECF               	goto	u2357
  3377  0ED1  0000               	nop
  3378                           
  3379                           ;lcd4.c: 91:    RD1 = 0;
  3380  0ED2  1283               	bcf	3,5	;RP0=0, select bank0
  3381  0ED3  1303               	bcf	3,6	;RP1=0, select bank0
  3382  0ED4  1088               	bcf	8,1	;volatile
  3383                           
  3384                           ;lcd4.c: 92:    Lcd_Port(temp);
  3385  0ED5  0874               	movf	Lcd_Write_Char@temp,w
  3386  0ED6  120A  158A  2603  120A  158A  	fcall	_Lcd_Port
  3387                           
  3388                           ;lcd4.c: 93:    RD1 = 1;
  3389  0EDB  1283               	bcf	3,5	;RP0=0, select bank0
  3390  0EDC  1303               	bcf	3,6	;RP1=0, select bank0
  3391  0EDD  1488               	bsf	8,1	;volatile
  3392                           
  3393                           ;lcd4.c: 94:    _delay((unsigned long)((40)*(20000000/4000000.0)));
  3394  0EDE  3042               	movlw	66
  3395  0EDF  00F3               	movwf	??_Lcd_Write_Char
  3396  0EE0                     u2367:	
  3397  0EE0  0BF3               	decfsz	??_Lcd_Write_Char,f
  3398  0EE1  2EE0               	goto	u2367
  3399  0EE2  0000               	nop
  3400                           
  3401                           ;lcd4.c: 95:    RD1 = 0;
  3402  0EE3  1283               	bcf	3,5	;RP0=0, select bank0
  3403  0EE4  1303               	bcf	3,6	;RP1=0, select bank0
  3404  0EE5  1088               	bcf	8,1	;volatile
  3405  0EE6  0008               	return
  3406  0EE7                     __end_of_Lcd_Write_Char:	
  3407                           
  3408                           	psect	text11
  3409  0EE7                     __ptext11:	
  3410 ;; *************** function _Lcd_Set_Cursor *****************
  3411 ;; Defined at:
  3412 ;;		line 42 in file "lcd4.c"
  3413 ;; Parameters:    Size  Location     Type
  3414 ;;  a               1    wreg     unsigned char 
  3415 ;;  b               1    6[COMMON] unsigned char 
  3416 ;; Auto vars:     Size  Location     Type
  3417 ;;  a               1    0[BANK0 ] unsigned char 
  3418 ;;  temp            1    3[BANK0 ] unsigned char 
  3419 ;;  y               1    2[BANK0 ] unsigned char 
  3420 ;;  z               1    1[BANK0 ] unsigned char 
  3421 ;; Return value:  Size  Location     Type
  3422 ;;                  1    wreg      void 
  3423 ;; Registers used:
  3424 ;;		wreg, status,2, status,0, pclath, cstack
  3425 ;; Tracked objects:
  3426 ;;		On entry : 0/0
  3427 ;;		On exit  : 0/0
  3428 ;;		Unchanged: 0/0
  3429 ;; Data sizes:     COMMON   BANK0   BANK1   BANK3   BANK2
  3430 ;;      Params:         1       0       0       0       0
  3431 ;;      Locals:         0       4       0       0       0
  3432 ;;      Temps:          2       0       0       0       0
  3433 ;;      Totals:         3       4       0       0       0
  3434 ;;Total ram usage:        7 bytes
  3435 ;; Hardware stack levels used:    1
  3436 ;; Hardware stack levels required when called:    3
  3437 ;; This function calls:
  3438 ;;		_Lcd_Cmd
  3439 ;; This function is called by:
  3440 ;;		_main
  3441 ;; This function uses a non-reentrant model
  3442 ;;
  3443                           
  3444                           
  3445                           ;psect for function _Lcd_Set_Cursor
  3446  0EE7                     _Lcd_Set_Cursor:	
  3447                           
  3448                           ;incstack = 0
  3449                           ; Regs used in _Lcd_Set_Cursor: [wreg+status,2+status,0+pclath+cstack]
  3450                           ;Lcd_Set_Cursor@a stored from wreg
  3451  0EE7  1283               	bcf	3,5	;RP0=0, select bank0
  3452  0EE8  1303               	bcf	3,6	;RP1=0, select bank0
  3453  0EE9  00A0               	movwf	Lcd_Set_Cursor@a
  3454                           
  3455                           ;lcd4.c: 42: void Lcd_Set_Cursor(char a, char b);lcd4.c: 43: {;lcd4.c: 44:  char temp,z,
      +                          y;;lcd4.c: 45:  if(a == 1)
  3456  0EEA  0320               	decf	Lcd_Set_Cursor@a,w
  3457  0EEB  1D03               	btfss	3,2
  3458  0EEC  2F10               	goto	l1429
  3459                           
  3460                           ;lcd4.c: 46:  {;lcd4.c: 47:    temp = 0x80 + b - 1;
  3461  0EED  0876               	movf	Lcd_Set_Cursor@b,w
  3462  0EEE  3E7F               	addlw	127
  3463  0EEF  00F7               	movwf	??_Lcd_Set_Cursor
  3464  0EF0  0877               	movf	??_Lcd_Set_Cursor,w
  3465  0EF1  00A3               	movwf	Lcd_Set_Cursor@temp
  3466                           
  3467                           ;lcd4.c: 48:   z = temp>>4;
  3468  0EF2  0823               	movf	Lcd_Set_Cursor@temp,w
  3469  0EF3  00F7               	movwf	??_Lcd_Set_Cursor
  3470  0EF4  3004               	movlw	4
  3471  0EF5                     u1295:	
  3472  0EF5  1003               	clrc
  3473  0EF6  0CF7               	rrf	??_Lcd_Set_Cursor,f
  3474  0EF7  3EFF               	addlw	-1
  3475  0EF8  1D03               	skipz
  3476  0EF9  2EF5               	goto	u1295
  3477  0EFA  0877               	movf	??_Lcd_Set_Cursor,w
  3478  0EFB  00F8               	movwf	??_Lcd_Set_Cursor+1
  3479  0EFC  0878               	movf	??_Lcd_Set_Cursor+1,w
  3480  0EFD  00A1               	movwf	Lcd_Set_Cursor@z
  3481                           
  3482                           ;lcd4.c: 49:   y = temp & 0x0F;
  3483  0EFE  0823               	movf	Lcd_Set_Cursor@temp,w
  3484  0EFF  390F               	andlw	15
  3485  0F00  00F7               	movwf	??_Lcd_Set_Cursor
  3486  0F01  0877               	movf	??_Lcd_Set_Cursor,w
  3487  0F02  00A2               	movwf	Lcd_Set_Cursor@y
  3488                           
  3489                           ;lcd4.c: 50:   Lcd_Cmd(z);
  3490  0F03  0821               	movf	Lcd_Set_Cursor@z,w
  3491  0F04  120A  158A  261D  120A  158A  	fcall	_Lcd_Cmd
  3492                           
  3493                           ;lcd4.c: 51:   Lcd_Cmd(y);
  3494  0F09  1283               	bcf	3,5	;RP0=0, select bank0
  3495  0F0A  1303               	bcf	3,6	;RP1=0, select bank0
  3496  0F0B  0822               	movf	Lcd_Set_Cursor@y,w
  3497  0F0C  120A  158A  261D   	fcall	_Lcd_Cmd
  3498                           
  3499                           ;lcd4.c: 52:  }
  3500  0F0F  0008               	return
  3501  0F10                     l1429:	
  3502  0F10  3002               	movlw	2
  3503  0F11  0620               	xorwf	Lcd_Set_Cursor@a,w
  3504  0F12  1D03               	btfss	3,2
  3505  0F13  0008               	return
  3506                           
  3507                           ;lcd4.c: 54:  {;lcd4.c: 55:   temp = 0xC0 + b - 1;
  3508  0F14  0876               	movf	Lcd_Set_Cursor@b,w
  3509  0F15  3EBF               	addlw	191
  3510  0F16  00F7               	movwf	??_Lcd_Set_Cursor
  3511  0F17  0877               	movf	??_Lcd_Set_Cursor,w
  3512  0F18  00A3               	movwf	Lcd_Set_Cursor@temp
  3513                           
  3514                           ;lcd4.c: 56:   z = temp>>4;
  3515  0F19  0823               	movf	Lcd_Set_Cursor@temp,w
  3516  0F1A  00F7               	movwf	??_Lcd_Set_Cursor
  3517  0F1B  3004               	movlw	4
  3518  0F1C                     u1315:	
  3519  0F1C  1003               	clrc
  3520  0F1D  0CF7               	rrf	??_Lcd_Set_Cursor,f
  3521  0F1E  3EFF               	addlw	-1
  3522  0F1F  1D03               	skipz
  3523  0F20  2F1C               	goto	u1315
  3524  0F21  0877               	movf	??_Lcd_Set_Cursor,w
  3525  0F22  00F8               	movwf	??_Lcd_Set_Cursor+1
  3526  0F23  0878               	movf	??_Lcd_Set_Cursor+1,w
  3527  0F24  00A1               	movwf	Lcd_Set_Cursor@z
  3528                           
  3529                           ;lcd4.c: 57:   y = temp & 0x0F;
  3530  0F25  0823               	movf	Lcd_Set_Cursor@temp,w
  3531  0F26  390F               	andlw	15
  3532  0F27  00F7               	movwf	??_Lcd_Set_Cursor
  3533  0F28  0877               	movf	??_Lcd_Set_Cursor,w
  3534  0F29  00A2               	movwf	Lcd_Set_Cursor@y
  3535                           
  3536                           ;lcd4.c: 58:   Lcd_Cmd(z);
  3537  0F2A  0821               	movf	Lcd_Set_Cursor@z,w
  3538  0F2B  120A  158A  261D  120A  158A  	fcall	_Lcd_Cmd
  3539                           
  3540                           ;lcd4.c: 59:   Lcd_Cmd(y);
  3541  0F30  1283               	bcf	3,5	;RP0=0, select bank0
  3542  0F31  1303               	bcf	3,6	;RP1=0, select bank0
  3543  0F32  0822               	movf	Lcd_Set_Cursor@y,w
  3544  0F33  120A  158A  261D   	fcall	_Lcd_Cmd
  3545  0F36  0008               	return
  3546  0F37                     __end_of_Lcd_Set_Cursor:	
  3547                           
  3548                           	psect	text12
  3549  0F37                     __ptext12:	
  3550 ;; *************** function _Lcd_Init *****************
  3551 ;; Defined at:
  3552 ;;		line 63 in file "lcd4.c"
  3553 ;; Parameters:    Size  Location     Type
  3554 ;;		None
  3555 ;; Auto vars:     Size  Location     Type
  3556 ;;		None
  3557 ;; Return value:  Size  Location     Type
  3558 ;;                  1    wreg      void 
  3559 ;; Registers used:
  3560 ;;		wreg, status,2, status,0, pclath, cstack
  3561 ;; Tracked objects:
  3562 ;;		On entry : 0/0
  3563 ;;		On exit  : 0/0
  3564 ;;		Unchanged: 0/0
  3565 ;; Data sizes:     COMMON   BANK0   BANK1   BANK3   BANK2
  3566 ;;      Params:         0       0       0       0       0
  3567 ;;      Locals:         0       0       0       0       0
  3568 ;;      Temps:          2       0       0       0       0
  3569 ;;      Totals:         2       0       0       0       0
  3570 ;;Total ram usage:        2 bytes
  3571 ;; Hardware stack levels used:    1
  3572 ;; Hardware stack levels required when called:    3
  3573 ;; This function calls:
  3574 ;;		_Lcd_Cmd
  3575 ;;		_Lcd_Port
  3576 ;; This function is called by:
  3577 ;;		_main
  3578 ;; This function uses a non-reentrant model
  3579 ;;
  3580                           
  3581                           
  3582                           ;psect for function _Lcd_Init
  3583  0F37                     _Lcd_Init:	
  3584                           
  3585                           ;lcd4.c: 65:   Lcd_Port(0x00);
  3586                           
  3587                           ;incstack = 0
  3588                           ; Regs used in _Lcd_Init: [wreg+status,2+status,0+pclath+cstack]
  3589  0F37  3000               	movlw	0
  3590  0F38  120A  158A  2603  120A  158A  	fcall	_Lcd_Port
  3591                           
  3592                           ;lcd4.c: 66:    _delay((unsigned long)((20)*(20000000/4000.0)));
  3593  0F3D  3082               	movlw	130
  3594  0F3E  00F7               	movwf	??_Lcd_Init+1
  3595  0F3F  30DD               	movlw	221
  3596  0F40  00F6               	movwf	??_Lcd_Init
  3597  0F41                     u2377:	
  3598  0F41  0BF6               	decfsz	??_Lcd_Init,f
  3599  0F42  2F41               	goto	u2377
  3600  0F43  0BF7               	decfsz	??_Lcd_Init+1,f
  3601  0F44  2F41               	goto	u2377
  3602  0F45  2F46               	nop2
  3603                           
  3604                           ;lcd4.c: 67:   Lcd_Cmd(0x03);
  3605  0F46  3003               	movlw	3
  3606  0F47  120A  158A  261D  120A  158A  	fcall	_Lcd_Cmd
  3607                           
  3608                           ;lcd4.c: 68:  _delay((unsigned long)((5)*(20000000/4000.0)));
  3609  0F4C  3021               	movlw	33
  3610  0F4D  00F7               	movwf	??_Lcd_Init+1
  3611  0F4E  3076               	movlw	118
  3612  0F4F  00F6               	movwf	??_Lcd_Init
  3613  0F50                     u2387:	
  3614  0F50  0BF6               	decfsz	??_Lcd_Init,f
  3615  0F51  2F50               	goto	u2387
  3616  0F52  0BF7               	decfsz	??_Lcd_Init+1,f
  3617  0F53  2F50               	goto	u2387
  3618  0F54  0000               	nop
  3619                           
  3620                           ;lcd4.c: 69:   Lcd_Cmd(0x03);
  3621  0F55  3003               	movlw	3
  3622  0F56  120A  158A  261D  120A  158A  	fcall	_Lcd_Cmd
  3623                           
  3624                           ;lcd4.c: 70:  _delay((unsigned long)((11)*(20000000/4000.0)));
  3625  0F5B  3048               	movlw	72
  3626  0F5C  00F7               	movwf	??_Lcd_Init+1
  3627  0F5D  306C               	movlw	108
  3628  0F5E  00F6               	movwf	??_Lcd_Init
  3629  0F5F                     u2397:	
  3630  0F5F  0BF6               	decfsz	??_Lcd_Init,f
  3631  0F60  2F5F               	goto	u2397
  3632  0F61  0BF7               	decfsz	??_Lcd_Init+1,f
  3633  0F62  2F5F               	goto	u2397
  3634  0F63  0000               	nop
  3635                           
  3636                           ;lcd4.c: 71:   Lcd_Cmd(0x03);
  3637  0F64  3003               	movlw	3
  3638  0F65  120A  158A  261D  120A  158A  	fcall	_Lcd_Cmd
  3639                           
  3640                           ;lcd4.c: 73:   Lcd_Cmd(0x02);
  3641  0F6A  3002               	movlw	2
  3642  0F6B  120A  158A  261D  120A  158A  	fcall	_Lcd_Cmd
  3643                           
  3644                           ;lcd4.c: 74:   Lcd_Cmd(0x02);
  3645  0F70  3002               	movlw	2
  3646  0F71  120A  158A  261D  120A  158A  	fcall	_Lcd_Cmd
  3647                           
  3648                           ;lcd4.c: 75:   Lcd_Cmd(0x08);
  3649  0F76  3008               	movlw	8
  3650  0F77  120A  158A  261D  120A  158A  	fcall	_Lcd_Cmd
  3651                           
  3652                           ;lcd4.c: 76:   Lcd_Cmd(0x00);
  3653  0F7C  3000               	movlw	0
  3654  0F7D  120A  158A  261D  120A  158A  	fcall	_Lcd_Cmd
  3655                           
  3656                           ;lcd4.c: 77:   Lcd_Cmd(0x0C);
  3657  0F82  300C               	movlw	12
  3658  0F83  120A  158A  261D  120A  158A  	fcall	_Lcd_Cmd
  3659                           
  3660                           ;lcd4.c: 78:   Lcd_Cmd(0x00);
  3661  0F88  3000               	movlw	0
  3662  0F89  120A  158A  261D  120A  158A  	fcall	_Lcd_Cmd
  3663                           
  3664                           ;lcd4.c: 79:   Lcd_Cmd(0x06);
  3665  0F8E  3006               	movlw	6
  3666  0F8F  120A  158A  261D   	fcall	_Lcd_Cmd
  3667  0F92  0008               	return
  3668  0F93                     __end_of_Lcd_Init:	
  3669                           
  3670                           	psect	text13
  3671  0E1D                     __ptext13:	
  3672 ;; *************** function _Lcd_Cmd *****************
  3673 ;; Defined at:
  3674 ;;		line 27 in file "lcd4.c"
  3675 ;; Parameters:    Size  Location     Type
  3676 ;;  a               1    wreg     unsigned char 
  3677 ;; Auto vars:     Size  Location     Type
  3678 ;;  a               1    5[COMMON] unsigned char 
  3679 ;; Return value:  Size  Location     Type
  3680 ;;                  1    wreg      void 
  3681 ;; Registers used:
  3682 ;;		wreg, status,2, status,0, pclath, cstack
  3683 ;; Tracked objects:
  3684 ;;		On entry : 0/0
  3685 ;;		On exit  : 0/0
  3686 ;;		Unchanged: 0/0
  3687 ;; Data sizes:     COMMON   BANK0   BANK1   BANK3   BANK2
  3688 ;;      Params:         0       0       0       0       0
  3689 ;;      Locals:         1       0       0       0       0
  3690 ;;      Temps:          2       0       0       0       0
  3691 ;;      Totals:         3       0       0       0       0
  3692 ;;Total ram usage:        3 bytes
  3693 ;; Hardware stack levels used:    1
  3694 ;; Hardware stack levels required when called:    2
  3695 ;; This function calls:
  3696 ;;		_Lcd_Port
  3697 ;; This function is called by:
  3698 ;;		_Lcd_Set_Cursor
  3699 ;;		_Lcd_Init
  3700 ;;		_Lcd_Clear
  3701 ;;		_Lcd_Shift_Right
  3702 ;;		_Lcd_Shift_Left
  3703 ;; This function uses a non-reentrant model
  3704 ;;
  3705                           
  3706                           
  3707                           ;psect for function _Lcd_Cmd
  3708  0E1D                     _Lcd_Cmd:	
  3709                           
  3710                           ;incstack = 0
  3711                           ; Regs used in _Lcd_Cmd: [wreg+status,2+status,0+pclath+cstack]
  3712                           ;Lcd_Cmd@a stored from wreg
  3713  0E1D  00F5               	movwf	Lcd_Cmd@a
  3714                           
  3715                           ;lcd4.c: 27: void Lcd_Cmd(char a);lcd4.c: 28: {;lcd4.c: 29:  RD0 = 0;
  3716  0E1E  1283               	bcf	3,5	;RP0=0, select bank0
  3717  0E1F  1303               	bcf	3,6	;RP1=0, select bank0
  3718  0E20  1008               	bcf	8,0	;volatile
  3719                           
  3720                           ;lcd4.c: 30:  Lcd_Port(a);
  3721  0E21  0875               	movf	Lcd_Cmd@a,w
  3722  0E22  120A  158A  2603  120A  158A  	fcall	_Lcd_Port
  3723                           
  3724                           ;lcd4.c: 31:  RD1 = 1;
  3725  0E27  1283               	bcf	3,5	;RP0=0, select bank0
  3726  0E28  1303               	bcf	3,6	;RP1=0, select bank0
  3727  0E29  1488               	bsf	8,1	;volatile
  3728                           
  3729                           ;lcd4.c: 32:         _delay((unsigned long)((4)*(20000000/4000.0)));
  3730  0E2A  301A               	movlw	26
  3731  0E2B  00F4               	movwf	??_Lcd_Cmd+1
  3732  0E2C  30F8               	movlw	248
  3733  0E2D  00F3               	movwf	??_Lcd_Cmd
  3734  0E2E                     u2407:	
  3735  0E2E  0BF3               	decfsz	??_Lcd_Cmd,f
  3736  0E2F  2E2E               	goto	u2407
  3737  0E30  0BF4               	decfsz	??_Lcd_Cmd+1,f
  3738  0E31  2E2E               	goto	u2407
  3739  0E32  0000               	nop
  3740                           
  3741                           ;lcd4.c: 33:         RD1 = 0;
  3742  0E33  1283               	bcf	3,5	;RP0=0, select bank0
  3743  0E34  1303               	bcf	3,6	;RP1=0, select bank0
  3744  0E35  1088               	bcf	8,1	;volatile
  3745  0E36  0008               	return
  3746  0E37                     __end_of_Lcd_Cmd:	
  3747                           
  3748                           	psect	text14
  3749  0E03                     __ptext14:	
  3750 ;; *************** function _Lcd_Port *****************
  3751 ;; Defined at:
  3752 ;;		line 5 in file "lcd4.c"
  3753 ;; Parameters:    Size  Location     Type
  3754 ;;  a               1    wreg     unsigned char 
  3755 ;; Auto vars:     Size  Location     Type
  3756 ;;  a               1    2[COMMON] unsigned char 
  3757 ;; Return value:  Size  Location     Type
  3758 ;;                  1    wreg      void 
  3759 ;; Registers used:
  3760 ;;		wreg
  3761 ;; Tracked objects:
  3762 ;;		On entry : 0/0
  3763 ;;		On exit  : 0/0
  3764 ;;		Unchanged: 0/0
  3765 ;; Data sizes:     COMMON   BANK0   BANK1   BANK3   BANK2
  3766 ;;      Params:         0       0       0       0       0
  3767 ;;      Locals:         1       0       0       0       0
  3768 ;;      Temps:          0       0       0       0       0
  3769 ;;      Totals:         1       0       0       0       0
  3770 ;;Total ram usage:        1 bytes
  3771 ;; Hardware stack levels used:    1
  3772 ;; Hardware stack levels required when called:    1
  3773 ;; This function calls:
  3774 ;;		Nothing
  3775 ;; This function is called by:
  3776 ;;		_Lcd_Cmd
  3777 ;;		_Lcd_Init
  3778 ;;		_Lcd_Write_Char
  3779 ;; This function uses a non-reentrant model
  3780 ;;
  3781                           
  3782                           
  3783                           ;psect for function _Lcd_Port
  3784  0E03                     _Lcd_Port:	
  3785                           
  3786                           ;incstack = 0
  3787                           ; Regs used in _Lcd_Port: [wreg]
  3788                           ;Lcd_Port@a stored from wreg
  3789  0E03  00F2               	movwf	Lcd_Port@a
  3790                           
  3791                           ;lcd4.c: 5: void Lcd_Port(char a);lcd4.c: 6: {;lcd4.c: 7:  if(a & 1)
  3792  0E04  1C72               	btfss	Lcd_Port@a,0
  3793  0E05  2E0A               	goto	l87
  3794                           
  3795                           ;lcd4.c: 8:   RD2 = 1;
  3796  0E06  1283               	bcf	3,5	;RP0=0, select bank0
  3797  0E07  1303               	bcf	3,6	;RP1=0, select bank0
  3798  0E08  1508               	bsf	8,2	;volatile
  3799  0E09  2E0D               	goto	l88
  3800  0E0A                     l87:	
  3801                           ;lcd4.c: 9:  else
  3802                           
  3803                           
  3804                           ;lcd4.c: 10:   RD2 = 0;
  3805  0E0A  1283               	bcf	3,5	;RP0=0, select bank0
  3806  0E0B  1303               	bcf	3,6	;RP1=0, select bank0
  3807  0E0C  1108               	bcf	8,2	;volatile
  3808  0E0D                     l88:	
  3809                           
  3810                           ;lcd4.c: 12:  if(a & 2)
  3811  0E0D  1CF2               	btfss	Lcd_Port@a,1
  3812  0E0E  2E11               	goto	l89
  3813                           
  3814                           ;lcd4.c: 13:   RD3 = 1;
  3815  0E0F  1588               	bsf	8,3	;volatile
  3816  0E10  2E12               	goto	l90
  3817  0E11                     l89:	
  3818                           ;lcd4.c: 14:  else
  3819                           
  3820                           
  3821                           ;lcd4.c: 15:   RD3 = 0;
  3822  0E11  1188               	bcf	8,3	;volatile
  3823  0E12                     l90:	
  3824                           
  3825                           ;lcd4.c: 17:  if(a & 4)
  3826  0E12  1D72               	btfss	Lcd_Port@a,2
  3827  0E13  2E16               	goto	l91
  3828                           
  3829                           ;lcd4.c: 18:   RD4 = 1;
  3830  0E14  1608               	bsf	8,4	;volatile
  3831  0E15  2E17               	goto	l92
  3832  0E16                     l91:	
  3833                           ;lcd4.c: 19:  else
  3834                           
  3835                           
  3836                           ;lcd4.c: 20:   RD4 = 0;
  3837  0E16  1208               	bcf	8,4	;volatile
  3838  0E17                     l92:	
  3839                           
  3840                           ;lcd4.c: 22:  if(a & 8)
  3841  0E17  1DF2               	btfss	Lcd_Port@a,3
  3842  0E18  2E1B               	goto	l93
  3843                           
  3844                           ;lcd4.c: 23:   RD5 = 1;
  3845  0E19  1688               	bsf	8,5	;volatile
  3846  0E1A  0008               	return
  3847  0E1B                     l93:	
  3848                           ;lcd4.c: 24:  else
  3849                           
  3850                           
  3851                           ;lcd4.c: 25:   RD5 = 0;
  3852  0E1B  1288               	bcf	8,5	;volatile
  3853  0E1C  0008               	return
  3854  0E1D                     __end_of_Lcd_Port:	
  3855                           
  3856                           	psect	text15
  3857  0DCE                     __ptext15:	
  3858 ;; *************** function _Capture_Init *****************
  3859 ;; Defined at:
  3860 ;;		line 66 in file "capture.c"
  3861 ;; Parameters:    Size  Location     Type
  3862 ;;		None
  3863 ;; Auto vars:     Size  Location     Type
  3864 ;;		None
  3865 ;; Return value:  Size  Location     Type
  3866 ;;                  1    wreg      void 
  3867 ;; Registers used:
  3868 ;;		status,2
  3869 ;; Tracked objects:
  3870 ;;		On entry : 0/0
  3871 ;;		On exit  : 0/0
  3872 ;;		Unchanged: 0/0
  3873 ;; Data sizes:     COMMON   BANK0   BANK1   BANK3   BANK2
  3874 ;;      Params:         0       0       0       0       0
  3875 ;;      Locals:         0       0       0       0       0
  3876 ;;      Temps:          0       0       0       0       0
  3877 ;;      Totals:         0       0       0       0       0
  3878 ;;Total ram usage:        0 bytes
  3879 ;; Hardware stack levels used:    1
  3880 ;; Hardware stack levels required when called:    1
  3881 ;; This function calls:
  3882 ;;		Nothing
  3883 ;; This function is called by:
  3884 ;;		_main
  3885 ;; This function uses a non-reentrant model
  3886 ;;
  3887                           
  3888                           
  3889                           ;psect for function _Capture_Init
  3890  0DCE                     _Capture_Init:	
  3891                           
  3892                           ;capture.c: 68:     TRISC2 = 1;
  3893                           
  3894                           ;incstack = 0
  3895                           ; Regs used in _Capture_Init: [status,2]
  3896  0DCE  1683               	bsf	3,5	;RP0=1, select bank1
  3897  0DCF  1303               	bcf	3,6	;RP1=0, select bank1
  3898  0DD0  1507               	bsf	7,2	;volatile
  3899                           
  3900                           ;capture.c: 70:     CCPR1 = 0;
  3901  0DD1  1283               	bcf	3,5	;RP0=0, select bank0
  3902  0DD2  1303               	bcf	3,6	;RP1=0, select bank0
  3903  0DD3  0195               	clrf	21	;volatile
  3904  0DD4  0196               	clrf	22	;volatile
  3905                           
  3906                           ;capture.c: 72:     CCP1IE = 1;
  3907  0DD5  1683               	bsf	3,5	;RP0=1, select bank1
  3908  0DD6  1303               	bcf	3,6	;RP1=0, select bank1
  3909  0DD7  150C               	bsf	12,2	;volatile
  3910                           
  3911                           ;capture.c: 74:     CCP1M3 = 0;
  3912  0DD8  1283               	bcf	3,5	;RP0=0, select bank0
  3913  0DD9  1303               	bcf	3,6	;RP1=0, select bank0
  3914  0DDA  1197               	bcf	23,3	;volatile
  3915                           
  3916                           ;capture.c: 75:     CCP1M2 = 1;
  3917  0DDB  1517               	bsf	23,2	;volatile
  3918                           
  3919                           ;capture.c: 76:     CCP1M1 = 0;
  3920  0DDC  1097               	bcf	23,1	;volatile
  3921                           
  3922                           ;capture.c: 77:     CCP1M0 = 1;
  3923  0DDD  1417               	bsf	23,0	;volatile
  3924  0DDE  0008               	return
  3925  0DDF                     __end_of_Capture_Init:	
  3926                           
  3927                           	psect	text16
  3928  0DDF                     __ptext16:	
  3929 ;; *************** function _My_interrupt *****************
  3930 ;; Defined at:
  3931 ;;		line 79 in file "capture.c"
  3932 ;; Parameters:    Size  Location     Type
  3933 ;;		None
  3934 ;; Auto vars:     Size  Location     Type
  3935 ;;		None
  3936 ;; Return value:  Size  Location     Type
  3937 ;;                  1    wreg      void 
  3938 ;; Registers used:
  3939 ;;		status,2
  3940 ;; Tracked objects:
  3941 ;;		On entry : 0/0
  3942 ;;		On exit  : 0/0
  3943 ;;		Unchanged: 0/0
  3944 ;; Data sizes:     COMMON   BANK0   BANK1   BANK3   BANK2
  3945 ;;      Params:         0       0       0       0       0
  3946 ;;      Locals:         0       0       0       0       0
  3947 ;;      Temps:          2       0       0       0       0
  3948 ;;      Totals:         2       0       0       0       0
  3949 ;;Total ram usage:        2 bytes
  3950 ;; Hardware stack levels used:    1
  3951 ;; This function calls:
  3952 ;;		Nothing
  3953 ;; This function is called by:
  3954 ;;		Interrupt level 1
  3955 ;; This function uses a non-reentrant model
  3956 ;;
  3957                           
  3958                           
  3959                           ;psect for function _My_interrupt
  3960  0DDF                     _My_interrupt:	
  3961                           
  3962                           ;capture.c: 81:     if(CCP1IE == 1 && CCP1IF == 1)
  3963  0DDF  1683               	bsf	3,5	;RP0=1, select bank1
  3964  0DE0  1303               	bcf	3,6	;RP1=0, select bank1
  3965  0DE1  1D0C               	btfss	12,2	;volatile
  3966  0DE2  2DEA               	goto	i1l70
  3967  0DE3  1283               	bcf	3,5	;RP0=0, select bank0
  3968  0DE4  1303               	bcf	3,6	;RP1=0, select bank0
  3969  0DE5  1D0C               	btfss	12,2	;volatile
  3970  0DE6  2DEA               	goto	i1l70
  3971                           
  3972                           ;capture.c: 82:     {;capture.c: 83:         TMR1 = 0;
  3973  0DE7  018E               	clrf	14	;volatile
  3974  0DE8  018F               	clrf	15	;volatile
  3975                           
  3976                           ;capture.c: 84:         CCP1IF = 0;
  3977  0DE9  110C               	bcf	12,2	;volatile
  3978  0DEA                     i1l70:	
  3979  0DEA  0871               	movf	??_My_interrupt+1,w
  3980  0DEB  008A               	movwf	10
  3981  0DEC  0E70               	swapf	??_My_interrupt^(0+4294967168),w
  3982  0DED  0083               	movwf	3
  3983  0DEE  0EFE               	swapf	126,f
  3984  0DEF  0E7E               	swapf	126,w
  3985  0DF0  0009               	retfie
  3986  0DF1                     __end_of_My_interrupt:	
  3987  007E                     btemp	set	126	;btemp
  3988  007E                     wtemp0	set	126
  3989                           
  3990                           	psect	intentry
  3991  0004                     __pintentry:	
  3992                           ;incstack = 0
  3993                           ; Regs used in _My_interrupt: [status,2]
  3994                           
  3995  0004                     interrupt_function:	
  3996  007E                     saved_w	set	btemp
  3997  0004  00FE               	movwf	btemp
  3998  0005  0E03               	swapf	3,w
  3999  0006  00F0               	movwf	??_My_interrupt
  4000  0007  080A               	movf	10,w
  4001  0008  00F1               	movwf	??_My_interrupt+1
  4002  0009  120A  158A  2DDF   	ljmp	_My_interrupt


Data Sizes:
    Strings     19
    Constant    0
    Data        0
    BSS         0
    Persistent  0
    Stack       0

Auto Spaces:
    Space          Size  Autos    Used
    COMMON           14     12      12
    BANK0            80     70      70
    BANK1            80     12      12
    BANK3            96      0       0
    BANK2            96      0       0

Pointer List with Targets:

    Lcd_Write_String@a	PTR unsigned char  size(1) Largest target is 10
		 -> STR_2(CODE[9]), STR_1(CODE[10]), 


Critical Paths under _main in COMMON

    _main->___lwdiv
    ___lwdiv->___lwmod
    ___flmul->__Umul8_16
    _Lcd_Write_String->_Lcd_Write_Char
    _Lcd_Write_Char->_Lcd_Port
    _Lcd_Set_Cursor->_Lcd_Cmd
    _Lcd_Init->_Lcd_Cmd
    _Lcd_Cmd->_Lcd_Port

Critical Paths under _My_interrupt in COMMON

    None.

Critical Paths under _main in BANK0

    _main->___fltol
    ___fltol->___fldiv
    ___flmul->___xxtofl
    ___fldiv->___flmul

Critical Paths under _My_interrupt in BANK0

    None.

Critical Paths under _main in BANK1

    None.

Critical Paths under _My_interrupt in BANK1

    None.

Critical Paths under _main in BANK3

    None.

Critical Paths under _My_interrupt in BANK3

    None.

Critical Paths under _main in BANK2

    None.

Critical Paths under _My_interrupt in BANK2

    None.

Call Graph Tables:

 ---------------------------------------------------------------------------------
 (Depth) Function   	        Calls       Base Space   Used Autos Params    Refs
 ---------------------------------------------------------------------------------
 (0) _main                                                13    13      0    9060
                                             69 BANK0      1     1      0
                                              0 BANK1     12    12      0
                       _Capture_Init
                           _Lcd_Init
                     _Lcd_Set_Cursor
                     _Lcd_Write_Char
                   _Lcd_Write_String
                        _Timer1_Init
                            ___fldiv
                            ___flmul
                            ___fltol
                            ___lwdiv
                            ___lwmod
                           ___xxtofl
 ---------------------------------------------------------------------------------
 (1) ___xxtofl                                            14    10      4     398
                                              2 COMMON     8     4      4
                                              0 BANK0      6     6      0
 ---------------------------------------------------------------------------------
 (1) ___lwmod                                              6     2      4    1375
                                              2 COMMON     6     2      4
 ---------------------------------------------------------------------------------
 (1) ___lwdiv                                              8     4      4    1378
                                              8 COMMON     4     0      4
                                              0 BANK0      4     4      0
                            ___lwmod (ARG)
 ---------------------------------------------------------------------------------
 (1) ___fltol                                             11     7      4     305
                                             58 BANK0     11     7      4
                            ___fldiv (ARG)
                            ___flmul (ARG)
                           ___xxtofl (ARG)
 ---------------------------------------------------------------------------------
 (1) ___flmul                                             26    18      8    2721
                                              6 BANK0     26    18      8
                          __Umul8_16
                           ___xxtofl (ARG)
 ---------------------------------------------------------------------------------
 (2) __Umul8_16                                            9     7      2     799
                                              2 COMMON     9     7      2
 ---------------------------------------------------------------------------------
 (1) ___fldiv                                             26    18      8    1273
                                             32 BANK0     26    18      8
                            ___flmul (ARG)
                           ___xxtofl (ARG)
 ---------------------------------------------------------------------------------
 (1) _Timer1_Init                                          0     0      0       0
 ---------------------------------------------------------------------------------
 (1) _Lcd_Write_String                                     3     3      0     334
                                              7 COMMON     3     3      0
                     _Lcd_Write_Char
 ---------------------------------------------------------------------------------
 (2) _Lcd_Write_Char                                       4     4      0     178
                                              3 COMMON     4     4      0
                           _Lcd_Port
 ---------------------------------------------------------------------------------
 (1) _Lcd_Set_Cursor                                       7     6      1     608
                                              6 COMMON     3     2      1
                                              0 BANK0      4     4      0
                            _Lcd_Cmd
 ---------------------------------------------------------------------------------
 (1) _Lcd_Init                                             2     2      0     198
                                              6 COMMON     2     2      0
                            _Lcd_Cmd
                           _Lcd_Port
 ---------------------------------------------------------------------------------
 (2) _Lcd_Cmd                                              3     3      0     110
                                              3 COMMON     3     3      0
                           _Lcd_Port
 ---------------------------------------------------------------------------------
 (3) _Lcd_Port                                             1     1      0      88
                                              2 COMMON     1     1      0
 ---------------------------------------------------------------------------------
 (1) _Capture_Init                                         0     0      0       0
 ---------------------------------------------------------------------------------
 Estimated maximum stack depth 3
 ---------------------------------------------------------------------------------
 (Depth) Function   	        Calls       Base Space   Used Autos Params    Refs
 ---------------------------------------------------------------------------------
 (4) _My_interrupt                                         2     2      0       0
                                              0 COMMON     2     2      0
 ---------------------------------------------------------------------------------
 Estimated maximum stack depth 4
 ---------------------------------------------------------------------------------

 Call Graph Graphs:

 _main (ROOT)
   _Capture_Init
   _Lcd_Init
     _Lcd_Cmd
       _Lcd_Port
     _Lcd_Port
   _Lcd_Set_Cursor
     _Lcd_Cmd
       _Lcd_Port
   _Lcd_Write_Char
     _Lcd_Port
   _Lcd_Write_String
     _Lcd_Write_Char
       _Lcd_Port
   _Timer1_Init
   ___fldiv
     ___flmul (ARG)
       __Umul8_16
       ___xxtofl (ARG)
     ___xxtofl (ARG)
   ___flmul
     __Umul8_16
     ___xxtofl (ARG)
   ___fltol
     ___fldiv (ARG)
       ___flmul (ARG)
         __Umul8_16
         ___xxtofl (ARG)
       ___xxtofl (ARG)
     ___flmul (ARG)
       __Umul8_16
       ___xxtofl (ARG)
     ___xxtofl (ARG)
   ___lwdiv
     ___lwmod (ARG)
   ___lwmod
   ___xxtofl

 _My_interrupt (ROOT)

 Address spaces:
Name               Size   Autos  Total    Cost      Usage
BITCOMMON            E      0       0       0        0.0%
EEDATA             100      0       0       0        0.0%
NULL                 0      0       0       0        0.0%
CODE                 0      0       0       0        0.0%
COMMON               E      C       C       1       85.7%
BITSFR0              0      0       0       1        0.0%
SFR0                 0      0       0       1        0.0%
BITSFR1              0      0       0       2        0.0%
SFR1                 0      0       0       2        0.0%
STACK                0      0       0       2        0.0%
ABS                  0      0       0       3        0.0%
BITBANK0            50      0       0       4        0.0%
BITSFR3              0      0       0       4        0.0%
SFR3                 0      0       0       4        0.0%
BANK0               50     46      46       5       87.5%
BITSFR2              0      0       0       5        0.0%
SFR2                 0      0       0       5        0.0%
BITBANK1            50      0       0       6        0.0%
BANK1               50      C       C       7       15.0%
BITBANK3            60      0       0       8        0.0%
BANK3               60      0       0       9        0.0%
BITBANK2            60      0       0      10        0.0%
BANK2               60      0       0      11        0.0%
DATA                 0      0       0      12        0.0%


Microchip Technology PIC Macro Assembler V2.05 build -831301201 
Symbol Table                                                                                   Tue Mar 26 23:11:44 2019

             ___fldiv@aexp 0059               ___fldiv@bexp 0058                          pc 0002  
             ___fldiv@sign 0051                __CFG_CP$OFF 0000                         l90 0E12  
                       l91 0E16                         l92 0E17                         l93 0E1B  
                       l87 0E0A                         l88 0E0D                         l89 0E11  
                       fsr 0004       __end_of_Capture_Init 0DDF        __Umul8_16@word_mpld 0078  
                      l404 0FE2                        l612 031B                        l560 05BC  
                      l651 0786                        l652 0790                        l644 0770  
                      l582 06FB                        l638 0730                        l584 0709  
                      l657 0E6B                        _GIE 005F                        _RD0 0040  
                      _RD1 0041                        _RD2 0042                        _RD3 0043  
                      _RD4 0044                        _RD5 0045               __CFG_CPD$OFF 0000  
                      fsr0 0004               __CFG_FOSC$HS 0000               ___flmul@aexp 0038  
             ___flmul@bexp 0039               ___flmul@sign 0033               ___flmul@temp 003E  
             ___flmul@prod 003A               __CFG_LVP$OFF 0000               ___fltol@exp1 0064  
                     l1511 0E90                       l1417 0E3A                       l1441 0F9E  
                     l1603 0655                       l1515 0E9E                       l1429 0F10  
                     l1621 0660                       l1605 0612                       l1541 058E  
                     l1357 0E63                       l1701 005F                       l1461 0FCE  
                     l1445 0FA7                       l1509 0E82                       l1623 067D  
                     l1607 065A                       l1543 0596                       l1471 0FF1  
                     l1463 0FDE                       l1519 0EA9                       l1633 0696  
                     l1561 05B4                       l1537 058B                       l1643 06C8  
                     l1571 05DB                       l1811 0728                       l1629 0694  
                     l1557 05B1                       l1709 006D                       l1493 07E4  
                     l1485 07C0                       l1821 0743                       l1647 06E1  
                     l1487 07CE                       l1831 0784                       l1823 0755  
                     l1577 05E7                       l1761 026D                       l1681 0032  
                     l1497 07EF                       l1833 0775                       l1817 073F  
                     l1659 0705                       l1763 028A                       l1683 003A  
                     l1597 0636                       l1773 02A3                       l1845 07AD  
                     l1783 02D5                       l1679 0030                       l1863 0350  
                     l1793 0304                       l1769 02A1                       l1697 0055  
                     l1787 02EB                       l1699 0057                       STR_1 0806  
                     STR_2 0810                       u2105 027C                       u1315 0F1C  
                     u1235 0EBF                       u2035 0216                       u1255 0E6C  
                     u2055 023B                       u1335 0FB0                       u1505 0E85  
                     u2075 0259                       u1435 07C3                       u2085 0271  
                     u1365 0FCF                       u1525 0E96                       u2325 0798  
                     u2245 074C                       u2407 0E2E                       u1295 0EF5  
                     u2175 02C0                       u1455 07CF                       u1535 0E9F  
                     u2185 02DE                       u1465 07DB                       u2265 0768  
                     u1715 0664                       u2195 02F6                       u1395 0FE7  
                     u1475 07E5                       u2357 0ECF                       u1805 06B3  
                     u1645 061B                       u2285 077D                       u2367 0EE0  
                     u1815 06D1                       u1735 066F                       u1655 0624  
                     u2377 0F41                       u1825 06EC                       u2387 0F50  
                     u1675 062F                       u2397 0F5F                       u1685 0644  
                     _PEIE 005E                       u1965 011D                       u1995 017A  
                     i1l70 0DEA                       _TMR1 000E               __CFG_WRT$OFF 0000  
        ?_Lcd_Write_String 0070                       _main 0328                       btemp 007E  
                     start 000C         ??_Lcd_Write_String 0077            ___fldiv@new_exp 0052  
          __end_of_Lcd_Cmd 0E37              ___fltol@sign1 0063                      ?_main 0070  
          __end_of___fldiv 0711                      _CCPR1 0015              __CFG_WDTE$OFF 0000  
          __end_of___flmul 0328            __end_of___fltol 1000            __end_of___lwdiv 07F4  
          __end_of___lwmod 0EAE    __size_of_Lcd_Set_Cursor 0050                      _TRISD 0088  
                    main@t 00A8                      main@x 00AA             __CFG_BOREN$OFF 0000  
                    pclath 000A                      status 0003                      wtemp0 007E  
         __end_of_Lcd_Init 0F93           __end_of_Lcd_Port 0E1D            __initialization 000F  
             __end_of_main 056E                     ??_main 0065                     _CCP1M0 00B8  
                   _CCP1M1 00B9                     _CCP1M2 00BA                     _CCP1M3 00BB  
                   _CCP1IE 0462                     _CCP1IF 0062                     _T1SYNC 0082  
                ??_Lcd_Cmd 0073                     _TMR1IE 0460                     _TMR1CS 0081  
                   _TMR1ON 0080    __size_of_Lcd_Write_Char 0039                     _TRISC2 043A  
         __end_of___xxtofl 07B6             __CFG_PWRTE$OFF 0000              ??_Timer1_Init 0072  
    __size_of_Capture_Init 0011                  ??___fldiv 0048                  ??___flmul 002E  
                ??___fltol 005E                  ??___lwdiv 0020                  ??___lwmod 0076  
       __size_of__Umul8_16 0023                     saved_w 007E            Lcd_Set_Cursor@a 0020  
          Lcd_Set_Cursor@b 0076            Lcd_Set_Cursor@y 0022            Lcd_Set_Cursor@z 0021  
             ___xxtofl@arg 0022               ___xxtofl@exp 0021               ___xxtofl@val 0072  
  __end_of__initialization 000F               _Capture_Init 0DCE                 ___fltol@f1 005A  
           __pcstackCOMMON 0070        __end_of_Timer1_Init 0E03             _Lcd_Set_Cursor 0EE7  
                ?_Lcd_Init 0070                  ?_Lcd_Port 0070          __end_of__Umul8_16 0E7C  
               __pmaintext 0328              ?_My_interrupt 0070                 __pintentry 0004  
__size_of_Lcd_Write_String 0022     __end_of_Lcd_Set_Cursor 0F37                    _T1CKPS0 0084  
                  _T1CKPS1 0085                    _T1OSCEN 0083                  ?___xxtofl 0072  
               ??_Lcd_Init 0076                 ??_Lcd_Port 0072                 __stringtab 0800  
           _Lcd_Write_Char 0EAE                    _Lcd_Cmd 0E1D                _Timer1_Init 0DF1  
           ??_My_interrupt 0070                    ___fldiv 056E                    ___flmul 0013  
                  ___fltol 0F93                    ___lwdiv 07B6                    ___lwmod 0E7C  
          ?_Lcd_Set_Cursor 0076                    __ptext1 0711                    __ptext2 0E7C  
                  __ptext3 07B6                    __ptext4 0F93                    __ptext5 0013  
                  __ptext6 0E59                    __ptext7 056E                    __ptext8 0DF1  
                  __ptext9 0E37                 ??___xxtofl 0076     __end_of_Lcd_Write_Char 0EE7  
     end_of_initialization 000F                  Lcd_Port@a 0072              ___xxtofl@sign 0020  
              ___fldiv@grs 0054                ___fldiv@rem 004D            ?_Lcd_Write_Char 0070  
        Lcd_Write_String@a 0079          Lcd_Write_String@i 0077                ___flmul@grs 0034  
         _Lcd_Write_String 0E37        start_initialization 000F       __end_of_My_interrupt 0DF1  
        __size_of_Lcd_Init 005C          __size_of_Lcd_Port 001A                  __Umul8_16 0E59  
          Lcd_Write_Char@a 0076            Lcd_Write_Char@y 0075                  ___fldiv@a 0040  
                ___fldiv@b 0044                  ___flmul@a 002A                  ___flmul@b 0026  
                ___latbits 0002              __pcstackBANK0 0020              __pcstackBANK1 00A0  
        __size_of___xxtofl 00A5                   ?_Lcd_Cmd 0070               ?_Timer1_Init 0070  
         ___lwdiv@dividend 007A           ??_Lcd_Set_Cursor 0077                   ?___fldiv 0040  
                 ?___flmul 0026                   ?___fltol 005A                 ?__Umul8_16 0072  
                 ?___lwdiv 0078                   ?___lwmod 0072                  __pstrings 0800  
         ___lwdiv@quotient 0021          interrupt_function 0004                   Lcd_Cmd@a 0075  
              __stringbase 0805      __size_of_My_interrupt 0012           ??_Lcd_Write_Char 0073  
                 _Lcd_Init 0F37                   _Lcd_Port 0E03   __end_of_Lcd_Write_String 0E59  
            ?_Capture_Init 0070           __size_of_Lcd_Cmd 001A               _My_interrupt 0DDF  
              ??__Umul8_16 0074           __size_of___fldiv 01A3           __size_of___flmul 0315  
         __size_of___fltol 006D           __size_of___lwdiv 003E           __size_of___lwmod 0032  
       __end_of__stringtab 0806                   ___xxtofl 0711                   _main$736 00A0  
                 _main$737 00A4            ___lwdiv@divisor 0078            ___lwdiv@counter 0023  
                 __ptext10 0EAE                   __ptext11 0EE7                   __ptext12 0F37  
                 __ptext13 0E1D                   __ptext14 0E03                   __ptext15 0DCE  
                 __ptext16 0DDF             ??_Capture_Init 0072              __size_of_main 0246  
     __size_of_Timer1_Init 0012         Lcd_Write_Char@temp 0074                   intlevel1 0000  
         ___lwmod@dividend 0074                  stringcode 0800         Lcd_Set_Cursor@temp 0023  
   __Umul8_16@multiplicand 0072            ___lwmod@divisor 0072            ___lwmod@counter 0077  
                 stringdir 0800                   stringtab 0800       __Umul8_16@multiplier 007A  
        __Umul8_16@product 0076  
